 TestApp

 Timestamp is 4342a455 (Tue Oct 04 19:48:37 2005)

 Preferred load address is 00400000

 Start         Length     Name                   Class
 0001:00000000 00003340H .text                   CODE
 0002:00000000 000000f4H .idata$5                DATA
 0002:000000f8 000001a4H .rdata                  DATA
 0002:000002a0 00000044H .rdata$r                DATA
 0002:000002e8 00000098H .xdata$x                DATA
 0002:00000380 00000050H .idata$2                DATA
 0002:000003d0 00000014H .idata$3                DATA
 0002:000003e4 000000f4H .idata$4                DATA
 0002:000004d8 0000031eH .idata$6                DATA
 0002:000007f6 00000000H .edata                  DATA
 0003:00000000 00000004H .CRT$XCA                DATA
 0003:00000004 00000018H .CRT$XCU                DATA
 0003:0000001c 00000004H .CRT$XCZ                DATA
 0003:00000020 00000004H .CRT$XIA                DATA
 0003:00000024 00000004H .CRT$XIZ                DATA
 0003:00000030 00000d94H .data                   DATA
 0003:00000dc8 00001de8H .bss                    DATA

  Address         Publics by Value              Rva+Base     Lib:Object

 0001:00000000       ??3@YAXPAX@Z               00401000 f i CoreMain.obj
 0001:0000000b       ?appTimestamp@@YAPBDXZ     0040100b f   CoreMain.obj
 0001:00000043       ?appInit@@YAXXZ            00401043 f   CoreMain.obj
 0001:0000006f       ?appExit@@YAXXZ            0040106f f   CoreMain.obj
 0001:0000009a       ?appMalloc@@YAPAXIH@Z      0040109a f   Memory.obj
 0001:000000f2       ?appFree@@YAXPAX@Z         004010f2 f   Memory.obj
 0001:00000108       ??2CMemoryChain@@SAPAXIH@Z 00401108 f   Memory.obj
 0001:0000015b       ??3CMemoryChain@@SAXPAX@Z  0040115b f   Memory.obj
 0001:00000176       ?Alloc@CMemoryChain@@QAEPAXIH@Z 00401176 f   Memory.obj
 0001:000001e2       __setargv                  004011e2 f   Memory.obj
 0001:000001e2       ?appInitMemory@@YAXXZ      004011e2 f   Memory.obj
 0001:00000201       ?Flush@COutputDevice@@UAEXXZ 00401201 f i OutputDevice.obj
 0001:00000201       ?Close@COutputDevice@@UAEXXZ 00401201 f i OutputDevice.obj
 0001:00000202       ?Write@COutputDeviceNull@@UAEXPBD@Z 00401202 f i OutputDevice.obj
 0001:00000223       ?Write@COutputDeviceLog@@UAEXPBD@Z 00401223 f i OutputDevice.obj
 0001:00000254       ?Printf@COutputDevice@@QAAXPBDZZ 00401254 f   OutputDevice.obj
 0001:000002c4       ?Register@COutputDevice@@QAEXXZ 004012c4 f   OutputDevice.obj
 0001:00000320       ?Unregister@COutputDevice@@QAEXXZ 00401320 f   OutputDevice.obj
 0001:00000373       ?appPrintf@@YAXPBDZZ       00401373 f   OutputDevice.obj
 0001:00000454       ?appWPrintf@@YAXPBDZZ      00401454 f   OutputDevice.obj
 0001:000004b1       ??0COutputDeviceFile@@QAE@XZ 004014b1 f i ErrorMgr.obj
 0001:000004c6       ?Write@COutputDeviceFile@@UAEXPBD@Z 004014c6 f i ErrorMgr.obj
 0001:0000051a       ?Flush@COutputDeviceFile@@UAEXXZ 0040151a f i ErrorMgr.obj
 0001:0000052a       ?Close@COutputDeviceFile@@UAEXXZ 0040152a f i ErrorMgr.obj
 0001:00000558       ??1COutputDeviceFile@@QAE@XZ 00401558 f i ErrorMgr.obj
 0001:00000577       ?appGetErrorLog@@YAPAVCOutputDevice@@XZ 00401577 f   ErrorMgr.obj
 0001:00000616       ?Open@COutputDeviceFile@@QAEXPBD_N@Z 00401616 f i ErrorMgr.obj
 0001:0000065c       ?appFatalError@@YAXPBDZZ   0040165c f   ErrorMgr.obj
 0001:000006fc       ?Reset@CErrorHandler@@QAEXXZ 004016fc f   ErrorMgr.obj
 0001:0000072d       ?appInitError@@YAXXZ       0040172d f   ErrorMgr.obj
 0001:00000737       ?appStrcmp@@YAHPBD0@Z      00401737 f   Strings.obj
 0001:00000758       ?appStricmp@@YAHPBD0@Z     00401758 f   Strings.obj
 0001:0000078d       ?toLower@@YADD@Z           0040178d f i Strings.obj
 0001:000007a4       ?appStrncpylwr@@YAXPADPBDH@Z 004017a4 f   Strings.obj
 0001:000007dc       ?appStrncpyz@@YAXPADPBDH@Z 004017dc f   Strings.obj
 0001:00000809       ?appStrcatn@@YAXPADHPBD@Z  00401809 f   Strings.obj
 0001:00000834       ?appCopyFilename@@YAXPADPBDH@Z 00401834 f   Strings.obj
 0001:000008d4       ?appCStrlen@@YAHPBD@Z      004018d4 f   Strings.obj
 0001:000008f9       ?appUncolorizeString@@YAXPADPBD@Z 004018f9 f   Strings.obj
 0001:00000929       ?va@@YAPBDPBDZZ            00401929 f   Strings.obj
 0001:000009c5       ?appSprintf@@YAHPADHPBDZZ  004019c5 f   Strings.obj
 0001:00000a15       ?appMatchWildcard@@YA_NPBD0_N@Z 00401a15 f   Strings.obj
 0001:00000ba4       ?appIsWildcard@@YA_NPBD@Z  00401ba4 f   Strings.obj
 0001:00000bce       ?CopyString@@YAPADPBDPAVCMemoryChain@@@Z 00401bce f   Strings.obj
 0001:00000c02       ??2CStringItem@@SAPAXIPBD@Z 00401c02 f   Strings.obj
 0001:00000c41       ??2CStringItem@@SAPAXIPBDPAVCMemoryChain@@@Z 00401c41 f   Strings.obj
 0001:00000c6b       ??0CStringItem@@QAE@XZ     00401c6b f   Strings.obj
 0001:00000c76       ?Find@CStringList@@IAEPAVCStringItem@@PBDPAPAV2@@Z 00401c76 f   Strings.obj
 0001:00000cb2       ?Remove@CStringList@@QAE_NPAVCStringItem@@@Z 00401cb2 f   Strings.obj
 0001:00000cde       ?SubtractPath@@YAPBDPBD0@Z 00401cde f   FileSystem.obj
 0001:00000d72       ?appMakeDirectoryForFile@@YAXPBD@Z 00401d72 f   FileSystem.obj
 0001:00000da8       ?appOpenFile@@YAPAVCFile@@PBD@Z 00401da8 f   FileSystem.obj
 0001:00000de4       ?Read@CFileOS@@UAEHPAXH@Z  00401de4 f i FileSystem.obj
 0001:00000e09       ?GetSize@CFileOS@@UAEHXZ   00401e09 f i FileSystem.obj
 0001:00000e4e       ?Eof@CFileOS@@UAE_NXZ      00401e4e f i FileSystem.obj
 0001:00000e62       ??_ECFileOS@@UAEPAXI@Z     00401e62 f i FileSystem.obj
 0001:00000e62       ??_GCFileOS@@UAEPAXI@Z     00401e62 f i FileSystem.obj
 0001:00000e94       ??_GCFile@@UAEPAXI@Z       00401e94 f i FileSystem.obj
 0001:00000e94       ??_ECFile@@UAEPAXI@Z       00401e94 f i FileSystem.obj
 0001:00000eb1       ?GetType@CFileContainer@@MAEPBDXZ 00401eb1 f   FileSystem.obj
 0001:00000eb7       ?Mount@CFileSystem@@QAEXAAVCFileContainer@@PBD@Z 00401eb7 f   FileSystem.obj
 0001:00000f0d       ?Umount@CFileSystem@@QAEXAAVCFileContainer@@@Z 00401f0d f   FileSystem.obj
 0001:00000f44       ?MountDirectory@CFileSystem@@QAEPAVCFileContainer@@PBD0@Z 00401f44 f   FileSystem.obj
 0001:00000f87       ?GetType@CFileContainerOS@@MAEPBDXZ 00401f87 f i FileSystem.obj
 0001:00000f8d       ?FileExists@CFileContainerOS@@UAE_NPBD@Z 00401f8d f i FileSystem.obj
 0001:00000fc4       ?OpenFile@CFileContainerOS@@UAEPAVCFile@@PBD@Z 00401fc4 f i FileSystem.obj
 0001:00000fe1       ?List@CFileContainerOS@@UAEXAAVCFileList@@PBDI@Z 00401fe1 f i FileSystem.obj
 0001:00001009       ??_ECFileContainer@@UAEPAXI@Z 00402009 f i FileSystem.obj
 0001:00001009       ??_GCFileContainer@@UAEPAXI@Z 00402009 f i FileSystem.obj
 0001:00001009       ??_GCFileContainerOS@@UAEPAXI@Z 00402009 f i FileSystem.obj
 0001:00001009       ??_ECFileContainerOS@@UAEPAXI@Z 00402009 f i FileSystem.obj
 0001:00001026       ?MountArchive@CFileSystem@@QAEPAVCFileContainer@@PBD0@Z 00402026 f   FileSystem.obj
 0001:000010bd       ?Mount@CFileSystem@@QAEXPBD0@Z 004020bd f   FileSystem.obj
 0001:000012a3       ?Umount@CFileSystem@@QAEXPBD@Z 004022a3 f   FileSystem.obj
 0001:0000133f       ?List@CFileSystem@@UAEPAVCFileList@@PBDIPAV2@@Z 0040233f f   FileSystem.obj
 0001:000014f7       ?FileExists@CFileSystem@@UAE_NPBDI@Z 004024f7 f   FileSystem.obj
 0001:00001576       ?OpenFile@CFileSystem@@UAEPAVCFile@@PBDI@Z 00402576 f   FileSystem.obj
 0001:0000161b       ?appInitFileSystem@@YAXAAVCFileSystem@@@Z 0040261b f   FileSystem.obj
 0001:00001b74       ?sprintf@?$TString@$0BAA@@@QAAHPBDZZ 00402b74 f i FileSystem.obj
 0001:00001b90       ?cpuid@@YAXI@Z             00402b90 f   CoreWin32.obj
 0001:00001bb3       ?appPackage@@YAPBDXZ       00402bb3 f   CoreWin32.obj
 0001:00001c0b       ?appGetSystemErrorMessage@@YAPBDI@Z 00402c0b f   CoreWin32.obj
 0001:00001c6f       ?appDisplayError@@YAXXZ    00402c6f f   CoreWin32.obj
 0001:00001cb0       ?appInitPlatform@@YAXXZ    00402cb0 f   CoreWin32.obj
 0001:000020f1       ?appShutdownPlatform@@YAXXZ 004030f1 f   CoreWin32.obj
 0001:000020fa       ?win32ExceptFilter@@YAHPAU_EXCEPTION_POINTERS@@@Z 004030fa f   ExceptFilterWin32.obj
 0001:00002585       ?win32ExceptFilter2@@YAHXZ 00403585 f   ExceptFilterWin32.obj
 0001:00002591       ?appListDirectoryOS@@YAXPBDAAVCFileList@@I@Z 00403591 f   FileSystemWin32.obj
 0001:00002759       ?appMakeDirectory@@YAXPBD@Z 00403759 f   FileSystemWin32.obj
 0001:00002808       ?crash@@YAXPAD@Z           00403808 f   TestApp.obj
 0001:0000287f       ?cmd1@@YAXHPAPAD@Z         0040387f f   TestApp.obj
 0001:00002a26       ?cUncol@@YAXHPAPAD@Z       00403a26 f   TestApp.obj
 0001:00002a62       ?cClen@@YAXHPAPAD@Z        00403a62 f   TestApp.obj
 0001:00002a89       ?cAlloc@@YAXHPAPAD@Z       00403a89 f   TestApp.obj
 0001:00002ae5       ?cUsage@@YAX_N@Z           00403ae5 f   TestApp.obj
 0001:00002aff       ?cArgs@@YAXHPAPAD@Z        00403aff f   TestApp.obj
 0001:00002b3a       ?cBoth@@YAX_NHPAPAD@Z      00403b3a f   TestApp.obj
 0001:00002b88       ?cArgs2@@YAXPBD@Z          00403b88 f   TestApp.obj
 0001:00002b99       ?cBoth2@@YAX_NPBD@Z        00403b99 f   TestApp.obj
 0001:00002bbd       ?cSym@@YAX_NHPAPAD@Z       00403bbd f   TestApp.obj
 0001:00002c00       _main                      00403c00 f   TestApp.obj
 0001:00002d91       ?RegisterCommand@@YA_NPBDP6AXXZI@Z 00403d91 f   Commands.obj
 0001:00002e25       ?ExecuteCommand@@YA_NPBD@Z 00403e25 f   Commands.obj
 0001:00002fc4       ?ExecuteCommand@@YA_NPBDPBUCSimpleCommand@@H@Z 00403fc4 f   Commands.obj
 0001:00003150       __alloca_probe             00404150 f   MSVCRT:chkstk.obj
 0001:00003150       __chkstk                   00404150 f   MSVCRT:chkstk.obj
 0001:00003180       _strlen                    00404180 f   MSVCRT:MSVCRT.dll
 0001:00003186       __onexit                   00404186 f   MSVCRT:atonexit.obj
 0001:000031b2       _atexit                    004041b2 f   MSVCRT:atonexit.obj
 0001:000031c4       ??_Gtype_info@@UAEPAXI@Z   004041c4 f i MSVCRT:ti_inst.obj
 0001:000031c4       ??_Etype_info@@UAEPAXI@Z   004041c4 f i MSVCRT:ti_inst.obj
 0001:000031e0       __CxxThrowException@8      004041e0 f   MSVCRT:MSVCRT.dll
 0001:000031e6       __purecall                 004041e6 f   MSVCRT:MSVCRT.dll
 0001:000031f0       __except_handler3          004041f0 f   MSVCRT:MSVCRT.dll
 0001:000031f6       _mainCRTStartup            004041f6 f   MSVCRT:crtexe.obj
 0001:00003306       ___dllonexit               00404306 f   MSVCRT:MSVCRT.dll
 0001:0000330c       ??1type_info@@UAE@XZ       0040430c f   MSVCRT:MSVCRT.dll
 0001:00003312       __XcptFilter               00404312 f   MSVCRT:MSVCRT.dll
 0001:00003318       __initterm                 00404318 f   MSVCRT:MSVCRT.dll
 0001:0000331e       __setdefaultprecision      0040431e f   MSVCRT:fp8.obj
 0001:00003330       __matherr                  00404330 f   MSVCRT:merr.obj
 0001:00003334       __controlfp                00404334 f   MSVCRT:MSVCRT.dll
 0002:00000000       __imp__GetModuleFileNameA@12 00405000     kernel32:KERNEL32.dll
 0002:00000004       __imp__FormatMessageA@28   00405004     kernel32:KERNEL32.dll
 0002:00000008       __imp__GetModuleHandleA@4  00405008     kernel32:KERNEL32.dll
 0002:0000000c       __imp__GetLastError@0      0040500c     kernel32:KERNEL32.dll
 0002:00000010       __imp__GetVersionExA@4     00405010     kernel32:KERNEL32.dll
 0002:00000014       __imp__SetCurrentDirectoryA@4 00405014     kernel32:KERNEL32.dll
 0002:00000018       __imp__IsBadReadPtr@8      00405018     kernel32:KERNEL32.dll
 0002:0000001c       \177KERNEL32_NULL_THUNK_DATA 0040501c     kernel32:KERNEL32.dll
 0002:00000020       __imp___controlfp          00405020     MSVCRT:MSVCRT.dll
 0002:00000024       __imp__strftime            00405024     MSVCRT:MSVCRT.dll
 0002:00000028       __imp__localtime           00405028     MSVCRT:MSVCRT.dll
 0002:0000002c       __imp__time                0040502c     MSVCRT:MSVCRT.dll
 0002:00000030       __imp__malloc              00405030     MSVCRT:MSVCRT.dll
 0002:00000034       __imp__free                00405034     MSVCRT:MSVCRT.dll
 0002:00000038       __imp___vsnprintf          00405038     MSVCRT:MSVCRT.dll
 0002:0000003c       __imp__memmove             0040503c     MSVCRT:MSVCRT.dll
 0002:00000040       __imp__fclose              00405040     MSVCRT:MSVCRT.dll
 0002:00000044       __imp__fwrite              00405044     MSVCRT:MSVCRT.dll
 0002:00000048       __imp__strlen              00405048     MSVCRT:MSVCRT.dll
 0002:0000004c       __imp__fflush              0040504c     MSVCRT:MSVCRT.dll
 0002:00000050       __imp__fopen               00405050     MSVCRT:MSVCRT.dll
 0002:00000054       __imp__strncpy             00405054     MSVCRT:MSVCRT.dll
 0002:00000058       __imp___CxxThrowException@8 00405058     MSVCRT:MSVCRT.dll
 0002:0000005c       __imp__strchr              0040505c     MSVCRT:MSVCRT.dll
 0002:00000060       __imp__strrchr             00405060     MSVCRT:MSVCRT.dll
 0002:00000064       __imp__fread               00405064     MSVCRT:MSVCRT.dll
 0002:00000068       __imp__fseek               00405068     MSVCRT:MSVCRT.dll
 0002:0000006c       __imp__ftell               0040506c     MSVCRT:MSVCRT.dll
 0002:00000070       __imp___purecall           00405070     MSVCRT:MSVCRT.dll
 0002:00000074       __imp___except_handler3    00405074     MSVCRT:MSVCRT.dll
 0002:00000078       __imp___findclose          00405078     MSVCRT:MSVCRT.dll
 0002:0000007c       __imp___findnext           0040507c     MSVCRT:MSVCRT.dll
 0002:00000080       __imp___findfirst          00405080     MSVCRT:MSVCRT.dll
 0002:00000084       __imp___mkdir              00405084     MSVCRT:MSVCRT.dll
 0002:00000088       __imp___iob                00405088     MSVCRT:MSVCRT.dll
 0002:0000008c       __imp__sprintf             0040508c     MSVCRT:MSVCRT.dll
 0002:00000090       __imp__atoi                00405090     MSVCRT:MSVCRT.dll
 0002:00000094       __imp__strtol              00405094     MSVCRT:MSVCRT.dll
 0002:00000098       __imp__gets                00405098     MSVCRT:MSVCRT.dll
 0002:0000009c       __imp____dllonexit         0040509c     MSVCRT:MSVCRT.dll
 0002:000000a0       __imp___onexit             004050a0     MSVCRT:MSVCRT.dll
 0002:000000a4       __imp_??1type_info@@UAE@XZ 004050a4     MSVCRT:MSVCRT.dll
 0002:000000a8       __imp___exit               004050a8     MSVCRT:MSVCRT.dll
 0002:000000ac       __imp___XcptFilter         004050ac     MSVCRT:MSVCRT.dll
 0002:000000b0       __imp__exit                004050b0     MSVCRT:MSVCRT.dll
 0002:000000b4       __imp____p___initenv       004050b4     MSVCRT:MSVCRT.dll
 0002:000000b8       __imp____getmainargs       004050b8     MSVCRT:MSVCRT.dll
 0002:000000bc       __imp___initterm           004050bc     MSVCRT:MSVCRT.dll
 0002:000000c0       __imp____setusermatherr    004050c0     MSVCRT:MSVCRT.dll
 0002:000000c4       __imp___adjust_fdiv        004050c4     MSVCRT:MSVCRT.dll
 0002:000000c8       __imp____p__commode        004050c8     MSVCRT:MSVCRT.dll
 0002:000000cc       __imp____p__fmode          004050cc     MSVCRT:MSVCRT.dll
 0002:000000d0       __imp____set_app_type      004050d0     MSVCRT:MSVCRT.dll
 0002:000000d4       __imp__strnicmp            004050d4     MSVCRT:MSVCRT.dll
 0002:000000d4       __imp___strnicmp           004050d4     MSVCRT:MSVCRT.dll
 0002:000000d8       \177MSVCRT_NULL_THUNK_DATA 004050d8     MSVCRT:MSVCRT.dll
 0002:000000dc       __imp__MessageBoxA@16      004050dc     user32:USER32.dll
 0002:000000e0       \177USER32_NULL_THUNK_DATA 004050e0     user32:USER32.dll
 0002:000000e4       __imp__timeEndPeriod@4     004050e4     winmm:WINMM.dll
 0002:000000e8       __imp__timeBeginPeriod@4   004050e8     winmm:WINMM.dll
 0002:000000ec       __imp__timeGetTime@0       004050ec     winmm:WINMM.dll
 0002:000000f0       \177WINMM_NULL_THUNK_DATA  004050f0     winmm:WINMM.dll
 0002:000000f8       ??_7COutputDeviceNull@@6B@ 004050f8     OutputDevice.obj
 0002:00000104       ??_7COutputDeviceLog@@6B@  00405104     OutputDevice.obj
 0002:00000110       ??_7COutputDeviceFile@@6B@ 00405110     ErrorMgr.obj
 0002:0000011c       ??_7CFileOS@@6B@           0040511c     FileSystem.obj
 0002:0000012c       ??_7CFile@@6B@             0040512c     FileSystem.obj
 0002:0000013c       ??_7CFileContainerOS@@6B@  0040513c     FileSystem.obj
 0002:00000150       ??_7CFileContainer@@6B@    00405150     FileSystem.obj
 0002:00000164       __real@4@3ff583126e978d4fe000 00405164     FileSystem.obj
 0002:000001b0       __real@8@3ff583126e978d4fe000 004051b0     CoreWin32.obj
 0002:000001c8       __real@8@4008fa00000000000000 004051c8     CoreWin32.obj
 0002:000001d0       __real@8@3feb8637bd05af6c6800 004051d0     CoreWin32.obj
 0002:0000025c       ??_7COutputDeviceStdout@@6B@ 0040525c     TestApp.obj
 0002:00000268       ??_7CFileSystem@@6B@       00405268     TestApp.obj
 0002:00000288       ??_7type_info@@6B@         00405288     MSVCRT:ti_inst.obj
 0002:000002a0       ??_R1A@?0A@A@type_info@@8  004052a0     MSVCRT:ti_inst.obj
 0002:000002b8       ??_R2type_info@@8          004052b8     MSVCRT:ti_inst.obj
 0002:000002c0       ??_R3type_info@@8          004052c0     MSVCRT:ti_inst.obj
 0002:000002d0       ??_R4type_info@@6B@        004052d0     MSVCRT:ti_inst.obj
 0002:000002e8       __CT??_R0H@84              004052e8     ErrorMgr.obj
 0002:00000308       __CTA1H                    00405308     ErrorMgr.obj
 0002:00000310       __TI1H                     00405310     ErrorMgr.obj
 0002:00000320       __CT??_R0PAX@84            00405320     TestApp.obj
 0002:00000340       __CT??_R0PAD@84            00405340     TestApp.obj
 0002:00000360       __CTA2PAD                  00405360     TestApp.obj
 0002:00000370       __TI2PAD                   00405370     TestApp.obj
 0002:00000380       __IMPORT_DESCRIPTOR_KERNEL32 00405380     kernel32:KERNEL32.dll
 0002:00000394       __IMPORT_DESCRIPTOR_USER32 00405394     user32:USER32.dll
 0002:000003a8       __IMPORT_DESCRIPTOR_MSVCRT 004053a8     MSVCRT:MSVCRT.dll
 0002:000003bc       __IMPORT_DESCRIPTOR_WINMM  004053bc     winmm:WINMM.dll
 0002:000003d0       __NULL_IMPORT_DESCRIPTOR   004053d0     kernel32:KERNEL32.dll
 0003:00000000       ___xc_a                    00406000     MSVCRT:cinitexe.obj
 0003:0000001c       ___xc_z                    0040601c     MSVCRT:cinitexe.obj
 0003:00000020       ___xi_a                    00406020     MSVCRT:cinitexe.obj
 0003:00000024       ___xi_z                    00406024     MSVCRT:cinitexe.obj
 0003:00000030       ?GScreenWidth@@3HA         00406030     CoreMain.obj
 0003:00000034       ??_C@_0BC@PMHD@?$CFb?5?$CFd?5?$CFY?5?$CFH?3?$CFM?3?$CFS?$AA@ 00406034     CoreMain.obj
 0003:00000048       ??_C@_04FKOI@quit?$AA@     00406048     CoreMain.obj
 0003:00000050       ??_C@_0CN@EBOB@?6?6?$FO1?9?9?9?9?9?9?9?9?9?9?9?9?9?9?9?9?9?9?9?9?6?$CFs?5fata@ 00406050     CoreMain.obj
 0003:00000080       ??_C@_0O@MNOP@Out?5of?5memory?$AA@ 00406080     Memory.obj
 0003:00000090       ?GNull@@3PAVCOutputDevice@@A 00406090     OutputDevice.obj
 0003:00000094       ?GLog@@3PAVCOutputDevice@@A 00406094     OutputDevice.obj
 0003:00000098       ??_C@_02DILL@?$CFs?$AA@    00406098     OutputDevice.obj
 0003:0000009c       ??_C@_0O@JEHA@GLog?3?5recurse?$AA@ 0040609c     OutputDevice.obj
 0003:000000ac       ??_C@_0CK@GAIN@COutputDevice?3?3Register?3?5too?5muc@ 004060ac     OutputDevice.obj
 0003:000000d8       ??_C@_04FJOH@?$FO3?$CFs?$AA@ 004060d8     OutputDevice.obj
 0003:000000e0       ??_C@_0BI@GKKD@Unable?5to?5write?5to?5log?6?$AA@ 004060e0     ErrorMgr.obj
 0003:000000f8       ??_C@_0N@CKOH@?6ERROR?3?5?$CFs?6?6?$AA@ 004060f8     ErrorMgr.obj
 0003:00000108       ??_C@_0BA@LJND@OS?3?5?$CFs?6CPU?3?5?$CFs?6?$AA@ 00406108     ErrorMgr.obj
 0003:00000118       ??_C@_0O@KGOP@?$CFs?5crash?0?5?$CFs?6?$AA@ 00406118     ErrorMgr.obj
 0003:00000128       ??_C@_0CN@LHCG@?9?9?9?9?9?9?9?9?9?9?9?9?9?9?9?9?9?9?9?9?9?9?9?9?9?9?9?9?9?9?9?9@ 00406128     ErrorMgr.obj
 0003:00000158       ??_C@_02JJJH@?6?6?$AA@     00406158     ErrorMgr.obj
 0003:0000015c       ??_C@_09KFPK@crash?4log?$AA@ 0040615c     ErrorMgr.obj
 0003:00000168       ??_C@_0BL@NFOF@Cannot?5write?5to?5file?5?$CC?$CFs?$CC?6?$AA@ 00406168     ErrorMgr.obj
 0003:00000184       ??_C@_01FNLH@a?$AA@        00406184     ErrorMgr.obj
 0003:00000188       ??_C@_01LLF@w?$AA@         00406188     ErrorMgr.obj
 0003:00000190       ??_R0H@8                   00406190     ErrorMgr.obj
 0003:0000019c       ??_C@_0BH@BBA@?6?6Recursive?5error?3?5?$CFs?6?$AA@ 0040619c     ErrorMgr.obj
 0003:000001b4       ??_C@_0BL@KGJH@General?5Protection?5Fault?5?$CB?$AA@ 004061b4     ErrorMgr.obj
 0003:000001d0       ??_C@_0BA@PMOD@?5?4?4?4?5?$CIoverflow?$CJ?$AA@ 004061d0     Strings.obj
 0003:000001e0       ??_C@_0CN@BGKK@appSprintf?3?5overflow?5of?5?$CFd?5?$CIcall@ 004061e0     Strings.obj
 0003:00000210       ??_C@_04CLEA@?$CF08X?$AA@  00406210     Strings.obj
 0003:00000218       ??_C@_02JKAF@rb?$AA@       00406218     FileSystem.obj
 0003:0000021c       ??_C@_03BNCE@unk?$AA@      0040621c     FileSystem.obj
 0003:00000220       ??_C@_0DA@FMID@CFileSystem?3?3Mount?$CI?$CJ?3?5container?5@ 00406220     FileSystem.obj
 0003:00000250       ??_C@_0CL@MDOE@CFileSystem?3?3Umount?$CI?$CJ?3?5container@ 00406250     FileSystem.obj
 0003:0000027c       ??_C@_03FIFC@dir?$AA@      0040627c     FileSystem.obj
 0003:00000280       ??_C@_05LELA@?$CFs?1?$CFs?$AA@ 00406280     FileSystem.obj
 0003:00000288       ??_C@_0CE@BLOA@Unsupported?5archive?5format?5of?5?$CC?$CF@ 00406288     FileSystem.obj
 0003:000002ac       ??_C@_0BI@POEI@File?5?$CC?$CFs?$CC?5is?5not?5found?6?$AA@ 004062ac     FileSystem.obj
 0003:000002c4       ??_C@_0DH@OKCB@Mounted?5?$CFd?5containers?5?$CI?$CFd?5archiv@ 004062c4     FileSystem.obj
 0003:000002fc       ??_C@_01PJCK@?4?$AA@       004062fc     FileSystem.obj
 0003:00000300       ??_C@_0BI@OOPK@mount?3?5nothing?5in?5?$CC?$CFs?$CC?6?$AA@ 00406300     FileSystem.obj
 0003:00000318       ??_C@_0BH@GKKO@mount?3?5no?5empty?5names?6?$AA@ 00406318     FileSystem.obj
 0003:00000330       ??_C@_0BJ@NOBI@Unmounted?5?$CFd?5containers?6?$AA@ 00406330     FileSystem.obj
 0003:0000034c       ??_C@_0BM@DONC@No?5mount?5points?5match?5?$CC?$CFs?$CC?6?$AA@ 0040634c     FileSystem.obj
 0003:00000368       ??_C@_04PIKN@type?$AA@     00406368     FileSystem.obj
 0003:00000370       ??_C@_02DBOA@ls?$AA@       00406370     FileSystem.obj
 0003:00000374       ??_C@_03KMBF@cat?$AA@      00406374     FileSystem.obj
 0003:00000378       ??_C@_06PCKL@umount?$AA@   00406378     FileSystem.obj
 0003:00000380       ??_C@_05LHIE@mount?$AA@    00406380     FileSystem.obj
 0003:00000388       ??_C@_0EO@FAPI@Usage?3?5mount?6?5?5or?5?5?5mount?5?$DMpath?5@ 00406388     FileSystem.obj
 0003:000003d8       ??_C@_0BP@MFHN@?$CF?93d?5?$CFc?5?$CF?94s?5?$CF?96d?5?$CF?913s?5?5?$CFs?$CFs?6?$AA@ 004063d8     FileSystem.obj
 0003:000003f8       ??_C@_0CP@DECK@?9?9?9?9L?9type?9nfiles?9mount?5point?9?9?9@ 004063f8     FileSystem.obj
 0003:00000428       ??_C@_02FDKA@?$FO1?$AA@    00406428     FileSystem.obj
 0003:0000042c       ??_C@_02PJPM@?$FO5?$AA@    0040642c     FileSystem.obj
 0003:00000430       ??_C@_02FDGL@?$FO4?$AA@    00406430     FileSystem.obj
 0003:00000434       ??_C@_02KMNC@?$FO7?$AA@    00406434     FileSystem.obj
 0003:00000438       ??_C@_0BG@ODK@Usage?3?5umount?5?$DMmask?$DO?6?$AA@ 00406438     FileSystem.obj
 0003:00000450       ??_C@_0BH@IAD@Usage?3?5cat?5?$DMfilename?$DO?6?$AA@ 00406450     FileSystem.obj
 0003:00000468       ??_C@_01BJG@?6?$AA@        00406468     FileSystem.obj
 0003:0000046c       ??_C@_0BL@DFHA@?6binary?5file?5?4?4?4?5stopped?4?6?$AA@ 0040646c     FileSystem.obj
 0003:00000488       ??_C@_02JBML@?$CFc?$AA@    00406488     FileSystem.obj
 0003:0000048c       ??_C@_0BJ@NOHB@Usage?3?5ls?5?$FLpath?1?$FN?$FLmask?$FN?6?$AA@ 0040648c     FileSystem.obj
 0003:000004a8       ??_C@_09LNMI@?$CF?$CFs?$CF?$CF?9?$CFds?$AA@ 004064a8     FileSystem.obj
 0003:000004b4       ??_C@_01FDHG@?$CK?$AA@     004064b4     FileSystem.obj
 0003:000004b8       ??_C@_02FCCF@?1?$CK?$AA@   004064b8     FileSystem.obj
 0003:000004bc       ??_C@_0BI@COAN@Usage?3?5type?5?$DMfilename?$DO?6?$AA@ 004064bc     FileSystem.obj
 0003:000004d4       ??_C@_0CI@EHIB@File?3?5?$CFs?6found?5in?3?5?$CFs?6length?3?5?$CFd@ 004064d4     FileSystem.obj
 0003:000004fc       ??_C@_05DILG@Vista?$AA@    004064fc     CoreWin32.obj
 0003:00000504       ??_C@_04GNKK@2003?$AA@     00406504     CoreWin32.obj
 0003:0000050c       ??_C@_02HJOI@XP?$AA@       0040650c     CoreWin32.obj
 0003:00000510       ??_C@_04JCBD@2000?$AA@     00406510     CoreWin32.obj
 0003:00000518       ??_C@_06FOJC@NT?54?40?$AA@ 00406518     CoreWin32.obj
 0003:00000520       ??_C@_07FKOH@NT?53?451?$AA@ 00406520     CoreWin32.obj
 0003:00000528       ??_C@_02KEBK@Me?$AA@       00406528     CoreWin32.obj
 0003:0000052c       ??_C@_02LDCN@98?$AA@       0040652c     CoreWin32.obj
 0003:00000530       ??_C@_02OHFO@95?$AA@       00406530     CoreWin32.obj
 0003:00000534       ?GMachineOS@@3PADA         00406534     CoreWin32.obj
 0003:00000574       ?GMachineCPU@@3PADA        00406574     CoreWin32.obj
 0003:000005b4       ??_C@_0BD@KBPG@unknown?5error?5code?$AA@ 004065b4     CoreWin32.obj
 0003:000005c8       ??_C@_0BA@FBGF@?$CFs?3?5fatal?5error?$AA@ 004065c8     CoreWin32.obj
 0003:000005d8       ??_C@_08PELM@CPU?3?5?$CFs?6?$AA@ 004065d8     CoreWin32.obj
 0003:000005e4       ??_C@_02DIMO@?$FN?6?$AA@   004065e4     CoreWin32.obj
 0003:000005e8       ??_C@_07FJPN@3DNow?$CB?5?$AA@ 004065e8     CoreWin32.obj
 0003:000005f0       ??_C@_05NKJE@SSE2?5?$AA@   004065f0     CoreWin32.obj
 0003:000005f8       ??_C@_04IIOM@SSE?5?$AA@    004065f8     CoreWin32.obj
 0003:00000600       ??_C@_04OGOE@MMX?5?$AA@    00406600     CoreWin32.obj
 0003:00000608       ??_C@_06JFCH@RDTSC?5?$AA@  00406608     CoreWin32.obj
 0003:00000610       ??_C@_04PBEF@FPU?5?$AA@    00406610     CoreWin32.obj
 0003:00000618       ??_C@_0N@BFKL@CPU?5caps?3?5?$FL?5?$AA@ 00406618     CoreWin32.obj
 0003:00000628       ??_C@_0O@KPHI@CPU?5name?3?5?$CFs?6?$AA@ 00406628     CoreWin32.obj
 0003:00000638       ??_C@_0BE@ILMD@CPU?5speed?3?5?$CF?42f?5?$CFs?6?$AA@ 00406638     CoreWin32.obj
 0003:0000064c       ??_C@_03HLPM@GHz?$AA@      0040664c     CoreWin32.obj
 0003:00000650       ??_C@_03EPGE@MHz?$AA@      00406650     CoreWin32.obj
 0003:00000654       ??_C@_0BN@KBAH@Windows?5?$CFs?5?$CFd?4?$CFd?5?$CIBuild?3?5?$CFd?$CJ?$AA@ 00406654     CoreWin32.obj
 0003:00000674       ??_C@_02MOOC@NT?$AA@       00406674     CoreWin32.obj
 0003:00000678       ??_C@_0BB@NLPK@Detected?5OS?3?5?$CFs?6?$AA@ 00406678     CoreWin32.obj
 0003:0000068c       ??_C@_0BH@BMDH@Windows?5?$CFs?5?$CIBuild?3?5?$CFd?$CJ?$AA@ 0040668c     CoreWin32.obj
 0003:000006a4       ??_C@_02EEAN@9X?$AA@       004066a4     CoreWin32.obj
 0003:000006a8       ??_C@_07PCHH@Unknown?$AA@  004066a8     CoreWin32.obj
 0003:000006b0       ??_C@_0DB@LOPB@Windows?5version?5detection?5failed@ 004066b0     CoreWin32.obj
 0003:000006e4       ??_C@_02DIPJ@GS?$AA@       004066e4     ExceptFilterWin32.obj
 0003:000006e8       ??_C@_02COFD@FS?$AA@       004066e8     ExceptFilterWin32.obj
 0003:000006ec       ??_C@_02BFKM@ES?$AA@       004066ec     ExceptFilterWin32.obj
 0003:000006f0       ??_C@_02DAG@DS?$AA@        004066f0     ExceptFilterWin32.obj
 0003:000006f4       ??_C@_02IPK@SS?$AA@        004066f4     ExceptFilterWin32.obj
 0003:000006f8       ??_C@_02GCFD@CS?$AA@       004066f8     ExceptFilterWin32.obj
 0003:000006fc       ??_C@_03JKAN@EIP?$AA@      004066fc     ExceptFilterWin32.obj
 0003:00000700       ??_C@_03BEKG@EBP?$AA@      00406700     ExceptFilterWin32.obj
 0003:00000704       ??_C@_03GIKF@ESP?$AA@      00406704     ExceptFilterWin32.obj
 0003:00000708       ??_C@_03DEAG@EDI?$AA@      00406708     ExceptFilterWin32.obj
 0003:0000070c       ??_C@_03DPPK@ESI?$AA@      0040670c     ExceptFilterWin32.obj
 0003:00000710       ??_C@_03DHOB@EDX?$AA@      00406710     ExceptFilterWin32.obj
 0003:00000714       ??_C@_03FGLE@ECX?$AA@      00406714     ExceptFilterWin32.obj
 0003:00000718       ??_C@_03EABO@EBX?$AA@      00406718     ExceptFilterWin32.obj
 0003:0000071c       ??_C@_03HLOB@EAX?$AA@      0040671c     ExceptFilterWin32.obj
 0003:00000720       ??_C@_0BG@DCEP@?6Call?5stack?5trace?3?6?5?5?$AA@ 00406720     ExceptFilterWin32.obj
 0003:00000738       ??_C@_08IFFN@?6Stack?3?6?$AA@ 00406738     ExceptFilterWin32.obj
 0003:00000744       ??_C@_0BA@FDKH@?5?5EFLAGS?3?5?$CF08X?6?$AA@ 00406744     ExceptFilterWin32.obj
 0003:00000754       ??_C@_0M@DCCB@Registers?3?6?$AA@ 00406754     ExceptFilterWin32.obj
 0003:00000760       ??_C@_0L@EAJG@?$CFs?5in?5?$CC?$CFs?$CC?$AA@ 00406760     ExceptFilterWin32.obj
 0003:0000076c       ??_C@_0BB@LNPF@Access?5violation?$AA@ 0040676c     ExceptFilterWin32.obj
 0003:00000780       ??_C@_0P@JMBO@Illegal?5opcode?$AA@ 00406780     ExceptFilterWin32.obj
 0003:00000790       ??_C@_0BC@ILAJ@Float?5zero?5divide?$AA@ 00406790     ExceptFilterWin32.obj
 0003:000007a4       ??_C@_0BE@GCEA@Integer?5zero?5divide?$AA@ 004067a4     ExceptFilterWin32.obj
 0003:000007b8       ??_C@_0BH@HFFE@Priveleged?5instruction?$AA@ 004067b8     ExceptFilterWin32.obj
 0003:000007d0       ??_C@_0P@BMBP@Stack?5overflow?$AA@ 004067d0     ExceptFilterWin32.obj
 0003:000007e0       ??_C@_09EMAD@Exception?$AA@ 004067e0     ExceptFilterWin32.obj
 0003:000007ec       ??_C@_02IHLC@?5?5?$AA@     004067ec     ExceptFilterWin32.obj
 0003:000007f0       ??_C@_05LHOL@?5?$CF02X?$AA@ 004067f0     ExceptFilterWin32.obj
 0003:000007f8       ??_C@_06BCOJ@?5?$DMN?1A?$DO?$AA@ 004067f8     ExceptFilterWin32.obj
 0003:00000800       ??_C@_0N@IODG@?5?5?$CFs?3?5?$CF08X?5?5?$AA@ 00406800     ExceptFilterWin32.obj
 0003:00000810       ??_C@_0L@JJGB@?5?5?$CFs?3?5?$CF04X?$AA@ 00406810     ExceptFilterWin32.obj
 0003:0000081c       ??_C@_08NLFG@?5?5?$DMN?1A?$DO?6?$AA@ 0040681c     ExceptFilterWin32.obj
 0003:00000828       ??_C@_06LDKA@?$CFs?$CF08X?$AA@ 00406828     ExceptFilterWin32.obj
 0003:00000830       ??_C@_06ONMO@?6?5?5?5?5?5?$AA@ 00406830     ExceptFilterWin32.obj
 0003:00000838       ??_C@_04HGCK@?$CFs?9?$DO?$AA@ 00406838     ExceptFilterWin32.obj
 0003:00000840       ??_C@_05GLIP@?5?5?5?5?5?$AA@ 00406840     ExceptFilterWin32.obj
 0003:00000848       ??_C@_03HBPG@?$CFs?$CC?$AA@ 00406848     ExceptFilterWin32.obj
 0003:0000084c       ??_C@_03NAME@?4?4?4?$AA@   0040684c     ExceptFilterWin32.obj
 0003:00000850       ??_C@_02HDBI@?2n?$AA@      00406850     ExceptFilterWin32.obj
 0003:00000854       ??_C@_04JBJI@?5?$DN?5?$CC?$AA@ 00406854     ExceptFilterWin32.obj
 0003:0000085c       ??_C@_0BC@NNNL@?$CIwrong?5EBP?5frame?$CJ?$AA@ 0040685c     ExceptFilterWin32.obj
 0003:00000870       ??_C@_05KGON@?$DMN?1A?$DO?$AA@ 00406870     ExceptFilterWin32.obj
 0003:00000878       ?tests@@3PADA              00406878     TestApp.obj
 0003:00000998       ??_C@_04FBGA@xcpt?$AA@     00406998     TestApp.obj
 0003:000009a0       ??_C@_04OBLM@clen?$AA@     004069a0     TestApp.obj
 0003:000009a8       ??_C@_05LHNG@uncol?$AA@    004069a8     TestApp.obj
 0003:000009b0       ??_C@_05OPGF@f?$DN?$CFg?6?$AA@ 004069b0     TestApp.obj
 0003:000009b8       ??_C@_06GDKF@?$CFs?5?$CFf?6?$AA@ 004069b8     TestApp.obj
 0003:000009c0       ??_C@_08HLCJ@123?$CFs288?$AA@ 004069c0     TestApp.obj
 0003:000009cc       ??_C@_06LGDB@asksjk?$AA@   004069cc     TestApp.obj
 0003:000009d8       ??_R0PAX@8                 004069d8     TestApp.obj
 0003:000009e8       ??_R0PAD@8                 004069e8     TestApp.obj
 0003:000009f8       ??_C@_08OFCJ@Temp?$DN?$CFs?6?$AA@ 004069f8     TestApp.obj
 0003:00000a04       ??_C@_0CK@MCJG@Testing?3?5?$CCappPrintf?5?$CI?$CCTemp?$DN?$CFs?2n?$CC@ 00406a04     TestApp.obj
 0003:00000a30       ??_C@_0M@FIAA@temp?5string?$AA@ 00406a30     TestApp.obj
 0003:00000a3c       ??_C@_09FAG@exception?$AA@ 00406a3c     TestApp.obj
 0003:00000a48       ??_C@_0BO@HKPE@Testing?3?5?$CCthrow?5?$CCexception?$CC?$CC?6?$AA@ 00406a48     TestApp.obj
 0003:00000a68       ??_C@_0CM@JLJO@Testing?3?5?$CCsprintf?5?$CI?$CIchar?$CK?$CJ1?0?5?$CC?$CFs@ 00406a68     TestApp.obj
 0003:00000a94       ??_C@_0CB@GMLJ@Testing?3?5?$CCappStrcmp?5?$CI0?0?5tests?$CJ?$CC?6@ 00406a94     TestApp.obj
 0003:00000ab8       ??_C@_0CE@ELJJ@Testing?3?5?$CC?$CI?$CIvoid?5?$CI?$CK?$CJ?$CIvoid?$CJ?$CJ?50?$CJ?5?$CI@ 00406ab8     TestApp.obj
 0003:00000adc       ??_C@_0BJ@GJNL@Testing?3?5?$CCcrash?$CItests?$CJ?$CC?6?$AA@ 00406adc     TestApp.obj
 0003:00000af8       ??_C@_0BM@MCAA@Testing?3?5?$CC?$CK?$CI?$CIbyte?$CK?$CJ0?$CJ?5?$DN?50?$CC?6?$AA@ 00406af8     TestApp.obj
 0003:00000b14       ??_C@_0BP@JJJM@Testing?3?5?$CCa?5?$DN?5i?5?1?5?$CIargc?5?9?52?$CJ?$CC?6?$AA@ 00406b14     TestApp.obj
 0003:00000b34       ??_C@_0BD@ECPN@?4?4?5arg?$FL?$CFd?$FN?5?$DN?5?$DM?$CFs?$DO?6?$AA@ 00406b34     TestApp.obj
 0003:00000b48       ??_C@_0BB@OMEE@cmd1?5?9?5args?3?5?$CFd?6?$AA@ 00406b48     TestApp.obj
 0003:00000b5c       ??_C@_0BG@IBDI@uncol?5?$CI?$CC?$CFs?$CC?$CJ?5?9?$DO?5?$CC?$CFs?$CC?6?$AA@ 00406b5c     TestApp.obj
 0003:00000b74       ??_C@_0BC@GKBH@clen?5?$CI?$CC?$CFs?$CC?$CJ?5?$DN?5?$CFd?6?$AA@ 00406b74     TestApp.obj
 0003:00000b88       ??_C@_0O@FBHA@?4?4?4?5ret?5?$DN?5?$CFX?6?$AA@ 00406b88     TestApp.obj
 0003:00000b98       ??_C@_0BA@HD@alloc?3?5?$CFd?5?$FL?$CFd?$FN?6?$AA@ 00406b98     TestApp.obj
 0003:00000ba8       ??_C@_0BA@EEIA@called?5?$CCusage?$CC?6?$AA@ 00406ba8     TestApp.obj
 0003:00000bb8       ??_C@_0O@MKHE@usage?3?5usage?6?$AA@ 00406bb8     TestApp.obj
 0003:00000bc8       ??_C@_0O@PFIK@args?5cmd?3?5?$CFd?6?$AA@ 00406bc8     TestApp.obj
 0003:00000bd8       ??_C@_0O@OIJM@both?5cmd?3?5?$CFd?6?$AA@ 00406bd8     TestApp.obj
 0003:00000be8       ??_C@_0BE@MKCF@usage?3?5both?5?$FLargs?$FN?6?$AA@ 00406be8     TestApp.obj
 0003:00000bfc       ??_C@_0O@POHG@args?5cmd?3?5?$CFs?6?$AA@ 00406bfc     TestApp.obj
 0003:00000c0c       ??_C@_0P@BOFP@both2?5cmd?3?5?$CFs?6?$AA@ 00406c0c     TestApp.obj
 0003:00000c1c       ??_C@_0BF@LNJP@usage?3?5both2?5?$FLargs?$FN?6?$AA@ 00406c1c     TestApp.obj
 0003:00000c34       ??_C@_0BG@MNKM@Usage?3?5sym?5?$DMaddress?$DO?6?$AA@ 00406c34     TestApp.obj
 0003:00000c4c       ??_C@_07MNBK@failed?6?$AA@ 00406c4c     TestApp.obj
 0003:00000c54       ??_C@_0BI@LIDH@Info?5on?5address?5?$CF08X?5?3?5?$AA@ 00406c54     TestApp.obj
 0003:00000c6c       ??_C@_0BE@GIPN@ERROR?3?5bad?5command?6?$AA@ 00406c6c     TestApp.obj
 0003:00000c80       ??_C@_01FAFK@?$DO?$AA@     00406c80     TestApp.obj
 0003:00000c84       ??_C@_03FNN@sym?$AA@       00406c84     TestApp.obj
 0003:00000c88       ??_C@_05FADL@alloc?$AA@    00406c88     TestApp.obj
 0003:00000c90       ??_C@_05KJAP@both2?$AA@    00406c90     TestApp.obj
 0003:00000c98       ??_C@_05LFJI@args2?$AA@    00406c98     TestApp.obj
 0003:00000ca0       ??_C@_04LBKE@both?$AA@     00406ca0     TestApp.obj
 0003:00000ca8       ??_C@_05JHCL@usage?$AA@    00406ca8     TestApp.obj
 0003:00000cb0       ??_C@_04CGOG@args?$AA@     00406cb0     TestApp.obj
 0003:00000cb8       ??_C@_0CN@OLID@RegisterCommand?3?5?$CC?$CFs?$CC?5is?5already@ 00406cb8     Commands.obj
 0003:00000ce8       ??_C@_0CA@PNBF@No?5usage?5info?5for?5command?5?$CC?$CFs?$CC?6?$AA@ 00406ce8     Commands.obj
 0003:00000d08       ??_C@_02PLJO@?1?$DP?$AA@   00406d08     Commands.obj
 0003:00000d0c       ??_C@_0BH@OFAE@GetArgs?3?5MAX_ARGS?5hit?6?$AA@ 00406d0c     Commands.obj
 0003:00000d24       ??_C@_07KFEL@cmdlist?$AA@  00406d24     Commands.obj
 0003:00000d2c       ??_C@_04EDEH@echo?$AA@     00406d2c     Commands.obj
 0003:00000d34       ??_C@_03HKGO@?5?$CFs?$AA@  00406d34     Commands.obj
 0003:00000d38       ??_C@_0BJ@PKNG@Usage?3?5cmdlist?5?$FL?$DMmask?$DO?$FN?6?$AA@ 00406d38     Commands.obj
 0003:00000d54       ??_C@_0BK@HMMH@Displayed?5?$CFd?1?$CFd?5commands?6?$AA@ 00406d54     Commands.obj
 0003:00000d70       ??_C@_0P@CNAN@?$CF?93d?5?$CFc?5?$CFc?5?$CFs?6?$AA@ 00406d70     Commands.obj
 0003:00000d80       ??_C@_0BO@OMDO@?9?9?9?9i?9a?9name?9?9?9?9?9?9?9?9?9?9?9?9?9?9?9?9?6?$AA@ 00406d80     Commands.obj
 0003:00000da0       ??_R0?AVtype_info@@@8      00406da0     MSVCRT:ti_inst.obj
 0003:00000dc0       ___defaultmatherr          00406dc0     MSVCRT:merr.obj
 0003:00000ec8       ?GIsRequestingExit@@3_NA   00406ec8     CoreMain.obj
 0003:00000f64       ?GLogHook@@3PAVCOutputDevice@@A 00406f64     OutputDevice.obj
 0003:00000f70       ?GErr@@3VCErrorHandler@@A  00406f70     ErrorMgr.obj
 0003:00001884       ?GIsFatalError@@3_NA       00407884     ErrorMgr.obj
 0003:00001888       ??_C@_00A@?$AA@            00407888     ScriptParser.obj
 0003:00002090       ?AllocatedName@CStringItem@@0PADA 00408090     Strings.obj
 0003:00002098       ?ArchiveReaders@CFileSystem@@0PAP6APAVCFileContainer@@PBDPAU_iobuf@@@ZA 00408098     FileSystem.obj
 0003:000020d8       ?GFileSystem@@3PAVCFileSystem@@A 004080d8     FileSystem.obj
 0003:000020e0       ?GDefMountPoint@@3V?$TString@$0EA@@@A 004080e0     FileSystem.obj
 0003:00002120       ?GIsWin2K@@3_NA            00408120     CoreWin32.obj
 0003:00002138       ?GSecondsPerCycle@@3NA     00408138     CoreWin32.obj
 0003:00002140       ?GIsWinNT@@3_NA            00408140     CoreWin32.obj
 0003:00002148       ?GMSecondsPerCycle@@3NA    00408148     CoreWin32.obj
 0003:00002264       ?hInstance@@3PAUHINSTANCE__@@A 00408264     CoreWin32.obj
 0003:00002b94       __dowildcard               00408b94     MSVCRT:wildcard.obj
 0003:00002b98       __newmode                  00408b98     MSVCRT:_newmode.obj
 0003:00002b9c       __commode                  00408b9c     MSVCRT:xncommod.obj
 0003:00002ba0       __fmode                    00408ba0     MSVCRT:xtxtmode.obj
 0003:00002ba4       __adjust_fdiv              00408ba4     <common>
 0003:00002ba8       ___onexitend               00408ba8     <common>
 0003:00002bac       ___onexitbegin             00408bac     <common>

 entry point at        0001:000031f6

 Static symbols

 0001:00002d77       _$E4                       00403d77 f   Commands.obj
 0001:00002d7c       _$E3                       00403d7c f   Commands.obj
 0001:00002d84       _$E7                       00403d84 f   Commands.obj
 0001:00002d89       _$E6                       00403d89 f   Commands.obj
 0001:00002f29       ?GetArgs@@YAXPBD_N@Z       00403f29 f   Commands.obj
 0001:0000301b       ?InitCommands@@YAXXZ       0040401b f   Commands.obj
 0001:00003041       ?Cmd_Echo@@YAXHPAPAD@Z     00404041 f   Commands.obj
 0001:00003084       ?Cmd_CmdList@@YAX_NHPAPAD@Z 00404084 f   Commands.obj
 0001:000027c6       _$E6                       004037c6 f   TestApp.obj
 0001:000027d0       _$E3                       004037d0 f   TestApp.obj
 0001:000027f2       _$E5                       004037f2 f   TestApp.obj
 0001:000027fe       _$E4                       004037fe f   TestApp.obj
 0001:000022bf       ?DumpReg4@@YAXPAVCOutputDevice@@PBDI@Z 004032bf f   ExceptFilterWin32.obj
 0001:00002359       ?DumpReg2@@YAXPAVCOutputDevice@@PBDK@Z 00403359 f   ExceptFilterWin32.obj
 0001:00002373       ?DumpMem@@YAXPAVCOutputDevice@@PBIPAU_CONTEXT@@@Z 00403373 f   ExceptFilterWin32.obj
 0001:0000248f       ?IsString@@YA_NPBD@Z       0040348f f   ExceptFilterWin32.obj
 0001:000024d0       ?DumpString@@YA_NPAVCOutputDevice@@PBD@Z 004034d0 f   ExceptFilterWin32.obj
 0001:00002540       ?UnwindEbpFrame@@YAXPAVCOutputDevice@@PBI@Z 00403540 f   ExceptFilterWin32.obj
 0001:00001cee       ?CheckCpuModel@@YAXXZ      00402cee f   CoreWin32.obj
 0001:00001eb9       ?CheckCpuSpeed@@YAXXZ      00402eb9 f   CoreWin32.obj
 0001:00001f8e       ?DetectOs@@YAXXZ           00402f8e f   CoreWin32.obj
 0001:000020ad       ?SetDefaultDirectory@@YAXXZ 004030ad f   CoreWin32.obj
 0001:00000d53       ?SkipRootDir@@YAPBDPBD@Z   00401d53 f   FileSystem.obj
 0001:000014d9       ?SetDefaultFlags@@YAXAAI@Z 004024d9 f   FileSystem.obj
 0001:0000168f       ?cMount@@YAX_NHPAPAD@Z     0040268f f   FileSystem.obj
 0001:0000179e       ?GetColorOfFlags@@YAPBDI@Z 0040279e f   FileSystem.obj
 0001:000017c8       ?cUmount@@YAX_NHPAPAD@Z    004027c8 f   FileSystem.obj
 0001:000017f5       ?cCat@@YAX_NHPAPAD@Z       004027f5 f   FileSystem.obj
 0001:000018dc       ?cLs@@YAX_NHPAPAD@Z        004028dc f   FileSystem.obj
 0001:00001b00       ?cType@@YAX_NHPAPAD@Z      00402b00 f   FileSystem.obj
 0001:0000049d       _$E6                       0040149d f   ErrorMgr.obj
 0001:000004a7       _$E3                       004014a7 f   ErrorMgr.obj
 0001:00000542       _$E5                       00401542 f   ErrorMgr.obj
 0001:0000054e       _$E4                       0040154e f   ErrorMgr.obj
 0001:000001e3       _$E4                       004011e3 f   OutputDevice.obj
 0001:000001e8       _$E3                       004011e8 f   OutputDevice.obj
 0001:00000205       _$E7                       00401205 f   OutputDevice.obj
 0001:0000020a       _$E6                       0040120a f   OutputDevice.obj
 0001:000000e8       ?OutOfMemory@@YAXXZ        004010e8 f   Memory.obj
 0001:00000067       ?Cmd_Quit@@YAXXZ           00401067 f   CoreMain.obj

 60 bytes saved through ICF

