 quake2

 Timestamp is 421311f8 (Wed Feb 16 12:27:20 2005)

 Preferred load address is 00400000

 Start         Length     Name                   Class
 0001:00000000 0006ebe0H .text                   CODE
 0002:00000000 000002bcH .idata$5                DATA
 0002:000002c0 00003f8cH .rdata                  DATA
 0002:00004250 00000044H .rdata$r                DATA
 0002:00004298 00000038H .xdata$x                DATA
 0002:000042d0 00000078H .idata$2                DATA
 0002:00004348 00000014H .idata$3                DATA
 0002:0000435c 000002bcH .idata$4                DATA
 0002:00004618 0000090eH .idata$6                DATA
 0002:00004f26 00000000H .edata                  DATA
 0003:00000000 00000004H .CRT$XCA                DATA
 0003:00000004 00000004H .CRT$XCZ                DATA
 0003:00000008 00000004H .CRT$XIA                DATA
 0003:0000000c 00000004H .CRT$XIZ                DATA
 0003:00000010 00010a3cH .data                   DATA
 0003:00010a50 00b0eaa8H .bss                    DATA
 0004:00000000 00000130H .rsrc$01                DATA
 0004:00000130 00003f20H .rsrc$02                DATA

  Address         Publics by Value              Rva+Base     Lib:Object

 0001:00000000       ??3@YAXPAX@Z               00401000 f i cl_cin.obj
 0001:0000000b       ?SCR_StopCinematic@@YAXXZ  0040100b f   cl_cin.obj
 0001:000000a7       ?SCR_FinishCinematic@@YAXXZ 004010a7 f   cl_cin.obj
 0001:000000e6       ?SCR_RunCinematic@@YAXXZ   004010e6 f   cl_cin.obj
 0001:00000502       ?SCR_DrawCinematic@@YA_NXZ 00401502 f   cl_cin.obj
 0001:00000584       ?SCR_PlayCinematic@@YAXPAD@Z 00401584 f   cl_cin.obj
 0001:00000946       ?CL_Download_f@@YAX_NHPAPAD@Z 00401946 f   cl_download.obj
 0001:00000cf7       ?CL_ParseDownload@@YAXXZ   00401cf7 f   cl_download.obj
 0001:0000150e       ?CL_Precache_f@@YAXHPAPAD@Z 0040250e f   cl_download.obj
 0001:0000156c       ?CL_ParseEntityBits@@YAHPAI@Z 0040256c f   cl_ents.obj
 0001:000015ce       ?CL_ParseDelta@@YAXPAUentityState_t@@0HH_N@Z 004025ce f   cl_ents.obj
 0001:0000196a       ?CL_DeltaEntity@@YAXPAUframe_t@@HPAUentityState_t@@H@Z 0040296a f   cl_ents.obj
 0001:00001ac1       ?CL_ParsePacketEntities@@YAXPAUframe_t@@0@Z 00402ac1 f   cl_ents.obj
 0001:00001cc9       ?CL_ParsePlayerstate@@YAXPAUframe_t@@0@Z 00402cc9 f   cl_ents.obj
 0001:00001fd1       ?CL_FireEntityEvents@@YAXPAUframe_t@@@Z 00402fd1 f   cl_ents.obj
 0001:00002023       ?CL_ParseFrame@@YAXXZ      00403023 f   cl_ents.obj
 0001:000022f1       ?CL_AddEntityBox@@YAXPAUentityState_t@@I@Z 004032f1 f   cl_ents.obj
 0001:000023d8       ?CL_OffsetThirdPersonView@@YAXXZ 004033d8 f   cl_ents.obj
 0001:00002492       ?CL_CalcViewValues@@YAXXZ  00403492 f   cl_ents.obj
 0001:00002799       ?CL_AddEntities@@YAXXZ     00403799 f   cl_ents.obj
 0001:00003541       ?CL_GetEntitySoundOrigin@@YAXHQAM@Z 00404541 f   cl_ents.obj
 0001:00003573       ?CL_ClearLightStyles@@YAXXZ 00404573 f   cl_fx.obj
 0001:000035f5       ?CL_RunLightStyles@@YAXXZ  004045f5 f   cl_fx.obj
 0001:00003694       ?CL_SetLightstyle@@YAXHPBD@Z 00404694 f   cl_fx.obj
 0001:000036f5       ?CL_ClearDlights@@YAXXZ    004046f5 f   cl_fx.obj
 0001:00003706       ?CL_AllocDlight@@YAPAUcdlight_t@@HQAM@Z 00404706 f   cl_fx.obj
 0001:0000376f       ?CL_AddDLights@@YAXXZ      0040476f f   cl_fx.obj
 0001:000037cf       ?CL_ClearParticles@@YAXXZ  004047cf f   cl_fx.obj
 0001:00003836       ?CL_AllocParticleTrace@@YAPAUparticleTrace_t@@QAM0MM@Z 00404836 f   cl_fx.obj
 0001:000038d6       ?CL_AllocParticleBeam@@YAPAUbeam_s@@QAM0MM@Z 004048d6 f   cl_fx.obj
 0001:00003949       ?CL_AllocParticle@@YAPAUparticle_s@@XZ 00404949 f   cl_fx.obj
 0001:00003997       ?CL_UpdateParticles@@YAXXZ 00404997 f   cl_fx.obj
 0001:00003f89       ?CL_MetalSparks@@YAXQAM0H@Z 00404f89 f   cl_fx.obj
 0001:00004076       ?CL_ParseMuzzleFlash@@YAXXZ 00405076 f   cl_fx.obj
 0001:000048b5       ?CL_ParseMuzzleFlash2@@YAXXZ 004058b5 f   cl_fx.obj
 0001:00004fa1       ?CL_ParticleEffect@@YAXQAM0HH@Z 00405fa1 f   cl_fx.obj
 0001:00005070       ?CL_ParticleEffect2@@YAXQAM0HH@Z 00406070 f   cl_fx.obj
 0001:0000513b       ?CL_ParticleEffect3@@YAXQAM0HH@Z 0040613b f   cl_fx.obj
 0001:0000520b       ?CL_TeleporterParticles@@YAXPAUentityState_t@@@Z 0040620b f   cl_fx.obj
 0001:000052c2       ?CL_LogoutEffect@@YAXQAMH@Z 004062c2 f   cl_fx.obj
 0001:000053ad       ?CL_ItemRespawnParticles@@YAXQAM@Z 004063ad f   cl_fx.obj
 0001:0000545c       ?CL_ExplosionParticles@@YAXQAM@Z 0040645c f   cl_fx.obj
 0001:00005506       ?CL_BigTeleportParticles@@YAXQAM@Z 00406506 f   cl_fx.obj
 0001:0000565d       ?CL_BlasterParticles@@YAXQAM0@Z 0040665d f   cl_fx.obj
 0001:00005729       ?CL_BlasterTrail@@YAXQAM0@Z 00406729 f   cl_fx.obj
 0001:0000581c       ?CL_FlagTrail@@YAXQAM0M@Z  0040681c f   cl_fx.obj
 0001:0000591c       ?CL_DiminishingTrail@@YAXQAM0PAUcentity_t@@H@Z 0040691c f   cl_fx.obj
 0001:00005b80       ?CL_RocketTrail@@YAXQAM0PAUcentity_t@@@Z 00406b80 f   cl_fx.obj
 0001:00005cad       ?CL_RailTrail@@YAXQAM0@Z   00406cad f   cl_fx.obj
 0001:00005ed3       ?CL_RailTrailExt@@YAXQAM0EE@Z 00406ed3 f   cl_fx.obj
 0001:00005fd5       ?CL_IonripperTrail@@YAXQAM0@Z 00406fd5 f   cl_fx.obj
 0001:000060e8       ?CL_BubbleTrail@@YAXQAM0@Z 004070e8 f   cl_fx.obj
 0001:00006206       ?CL_FlyParticles@@YAXQAMH@Z 00407206 f   cl_fx.obj
 0001:000063a5       ?CL_FlyEffect@@YAXPAUcentity_t@@QAM@Z 004073a5 f   cl_fx.obj
 0001:00006428       ?CL_BfgParticles@@YAXPAUentity_t@@@Z 00407428 f   cl_fx.obj
 0001:00006602       ?CL_TrapParticles@@YAXPAUentity_t@@@Z 00407602 f   cl_fx.obj
 0001:00006885       ?CL_BFGExplosionParticles@@YAXQAM@Z 00407885 f   cl_fx.obj
 0001:0000692f       ?CL_TeleportParticles@@YAXQAM@Z 0040792f f   cl_fx.obj
 0001:00006a68       ?CL_EntityEvent@@YAXPAUentityState_t@@@Z 00407a68 f   cl_fx.obj
 0001:00006c43       ?CL_ClearEffects@@YAXXZ    00407c43 f   cl_fx.obj
 0001:00006c52       ?IN_CenterView@@YAXXZ      00407c52 f   cl_input.obj
 0001:00006c73       ?CL_InitInput@@YAXXZ       00407c73 f   cl_input.obj
 0001:0000720f       ?CL_SendCmd@@YAXXZ         0040820f f   cl_input.obj
 0001:00007909       ?CL_WriteDemoMessage@@YAXXZ 00408909 f   cl_main.obj
 0001:0000794b       ?Cmd_ForwardToServer@@YAXHPAPAD@Z 0040894b f   cl_main.obj
 0001:000079de       ?CL_ForwardToServer_f@@YAXHPAPAD@Z 004089de f   cl_main.obj
 0001:00007a26       ?CL_Pause@@YAX_N@Z         00408a26 f   cl_main.obj
 0001:00007a68       ?CL_Quit_f@@YAXXZ          00408a68 f   cl_main.obj
 0001:00007a72       ?CL_Drop@@YAX_N@Z          00408a72 f   cl_main.obj
 0001:00007a95       ?CL_SendConnectPacket@@YAXXZ 00408a95 f   cl_main.obj
 0001:00007b6c       ?CL_CheckForResend@@YAXXZ  00408b6c f   cl_main.obj
 0001:00007c71       ?CL_Connect_f@@YAX_NHPAPAD@Z 00408c71 f   cl_main.obj
 0001:00007cf4       ?CL_Rcon_f@@YAXHPAPAD@Z    00408cf4 f   cl_main.obj
 0001:00007dfc       ?CL_ClearState@@YAXXZ      00408dfc f   cl_main.obj
 0001:00007e33       ?CL_Disconnect@@YAXXZ      00408e33 f   cl_main.obj
 0001:00007ff0       ?CL_Disconnect_f@@YAXXZ    00408ff0 f   cl_main.obj
 0001:00007ffa       ?CL_Changing_f@@YAXXZ      00408ffa f   cl_main.obj
 0001:0000801e       ?CL_Reconnect_f@@YAXXZ     0040901e f   cl_main.obj
 0001:000080ba       ?CL_PingServers_f@@YAXXZ   004090ba f   cl_main.obj
 0001:00008225       ?CL_Skins_f@@YAXXZ         00409225 f   cl_main.obj
 0001:000084f8       ?CL_ConnectionlessPacket@@YAXXZ 004094f8 f   cl_main.obj
 0001:000085f7       ?CL_ReadPackets@@YAXXZ     004095f7 f   cl_main.obj
 0001:0000873c       ?CL_FixUpGender@@YAXXZ     0040973c f   cl_main.obj
 0001:000087ee       ?CL_Userinfo_f@@YAXXZ      004097ee f   cl_main.obj
 0001:00008806       ?CL_RegisterSounds@@YAXXZ  00409806 f   cl_main.obj
 0001:00008845       ?CL_Snd_Restart_f@@YAXXZ   00409845 f   cl_main.obj
 0001:00008854       ?CL_WriteConfiguration@@YAXPAD@Z 00409854 f   cl_main.obj
 0001:0000890f       ?CL_WriteConfig_f@@YAX_NHPAPAD@Z 0040990f f   cl_main.obj
 0001:0000896e       ?CL_FixCvarCheats@@YAXXZ   0040996e f   cl_main.obj
 0001:000089c8       ?CL_Frame@@YAXMH@Z         004099c8 f   cl_main.obj
 0001:00008bd1       ?CL_Init@@YAXXZ            00409bd1 f   cl_main.obj
 0001:00009092       ?CL_Shutdown@@YAX_N@Z      0040a092 f   cl_main.obj
 0001:000090db       ?CL_Flashlight@@YAXHQAM@Z  0040a0db f   cl_newfx.obj
 0001:00009115       ?CL_ColorFlash@@YAXQAMHHMMM@Z 0040a115 f   cl_newfx.obj
 0001:00009151       ?CL_DebugTrail@@YAXQAM0@Z  0040a151 f   cl_newfx.obj
 0001:00009231       ?CL_ForceWall@@YAXQAM0H@Z  0040a231 f   cl_newfx.obj
 0001:00009358       ?CL_BubbleTrail2@@YAXQAM0H@Z 0040a358 f   cl_newfx.obj
 0001:00009482       ?CL_Heatbeam@@YAXQAM0@Z    0040a482 f   cl_newfx.obj
 0001:00009733       ?CL_ParticleSteamEffect@@YAXQAM0HHH@Z 0040a733 f   cl_newfx.obj
 0001:0000985d       ?CL_ParticleSteamEffect2@@YAXPAUcl_sustain_s@@@Z 0040a85d f   cl_newfx.obj
 0001:00009994       ?CL_TrackerTrail@@YAXQAM0H@Z 0040a994 f   cl_newfx.obj
 0001:00009ae4       ?CL_Tracker_Shell@@YAXQAM@Z 0040aae4 f   cl_newfx.obj
 0001:00009b6d       ?CL_MonsterPlasma_Shell@@YAXQAM@Z 0040ab6d f   cl_newfx.obj
 0001:00009bf3       ?CL_Widowbeamout@@YAXPAUcl_sustain_s@@@Z 0040abf3 f   cl_newfx.obj
 0001:00009caf       ?CL_Nukeblast@@YAXPAUcl_sustain_s@@@Z 0040acaf f   cl_newfx.obj
 0001:00009d6b       ?CL_WidowSplash@@YAXQAM@Z  0040ad6b f   cl_newfx.obj
 0001:00009e33       ?CL_TagTrail@@YAXQAM0M@Z   0040ae33 f   cl_newfx.obj
 0001:00009f33       ?CL_ColorExplosionParticles@@YAXQAMHH@Z 0040af33 f   cl_newfx.obj
 0001:00009fe0       ?CL_ParticleSmokeEffect@@YAXQAM0HHH@Z 0040afe0 f   cl_newfx.obj
 0001:0000a108       ?CL_BlasterParticles2@@YAXQAM0I@Z 0040b108 f   cl_newfx.obj
 0001:0000a1d5       ?CL_BlasterTrail2@@YAXQAM0@Z 0040b1d5 f   cl_newfx.obj
 0001:0000a2c8       ?CL_LoadClientinfo@@YAXPAUclientinfo_t@@PAD@Z 0040b2c8 f   cl_parse.obj
 0001:0000a5af       ?CL_ParseClientinfo@@YAXH@Z 0040b5af f   cl_parse.obj
 0001:0000a5d3       ?CL_ParseServerMessage@@YAXXZ 0040b5d3 f   cl_parse.obj
 0001:0000ad93       ?CL_CheckPredictionError@@YAXXZ 0040bd93 f   cl_pred.obj
 0001:0000af33       ?CL_EntityTrace@@YAXPAUtrace_t@@QAM111H@Z 0040bf33 f   cl_pred.obj
 0001:0000b2ed       ?CL_Trace@@YAXPAUtrace_t@@QAM111H@Z 0040c2ed f   cl_pred.obj
 0001:0000b36f       ?CL_PMpointcontents@@YAHQAM@Z 0040c36f f   cl_pred.obj
 0001:0000b4f9       ?CL_PredictMovement@@YAXXZ 0040c4f9 f   cl_pred.obj
 0001:0000b89b       ?DrawString@@YAXHHPBD@Z    0040c89b f   cl_scrn.obj
 0001:0000b8e0       ?SCR_DebugGraph@@YAXMH@Z   0040c8e0 f   cl_scrn.obj
 0001:0000b908       ?SCR_CenterPrint@@YAXPAD@Z 0040c908 f   cl_scrn.obj
 0001:0000ba0c       ?Key_Message@@YAXH@Z       0040ca0c f   cl_scrn.obj
 0001:0000baa8       ?SCR_SetLevelshot@@YAXPAD@Z 0040caa8 f   cl_scrn.obj
 0001:0000bb8c       ?SCR_BeginLoadingPlaque@@YAXXZ 0040cb8c f   cl_scrn.obj
 0001:0000bc11       ?SCR_EndLoadingPlaque@@YAX_N@Z 0040cc11 f   cl_scrn.obj
 0001:0000bc96       ?SCR_ShowConsole@@YAX_N0@Z 0040cc96 f   cl_scrn.obj
 0001:0000bd6f       ?SCR_ToggleConsole@@YAXXZ  0040cd6f f   cl_scrn.obj
 0001:0000bd97       ?SCR_TouchPics@@YAXXZ      0040cd97 f   cl_scrn.obj
 0001:0000be07       ?SCR_UpdateScreen@@YAXXZ   0040ce07 f   cl_scrn.obj
 0001:0000d340       ?SCR_Init@@YAXXZ           0040e340 f   cl_scrn.obj
 0001:0000d620       ?CL_RegisterTEntSounds@@YAXXZ 0040e620 f   cl_tent.obj
 0001:0000d865       ?CL_RegisterTEntModels@@YAXXZ 0040e865 f   cl_tent.obj
 0001:0000d99d       ?CL_ClearTEnts@@YAXXZ      0040e99d f   cl_tent.obj
 0001:0000d9d1       ?CL_AllocExplosion@@YAPAUexplosion_t@@QAMW4exptype_t@@@Z 0040e9d1 f   cl_tent.obj
 0001:0000da6d       ?CL_AddExplosions@@YAXXZ   0040ea6d f   cl_tent.obj
 0001:0000dc07       ?CL_SmokeAndFlash@@YAXQAM@Z 0040ec07 f   cl_tent.obj
 0001:0000dc4f       ?CL_ParseBeam@@YAHPAUmodel_s@@@Z 0040ec4f f   cl_tent.obj
 0001:0000dd2e       ?CL_ParseBeam2@@YAHPAUmodel_s@@@Z 0040ed2e f   cl_tent.obj
 0001:0000de05       ?CL_ParsePlayerBeam@@YAHPAUmodel_s@@@Z 0040ee05 f   cl_tent.obj
 0001:0000df13       ?CL_ParseLightning@@YAHPAUmodel_s@@@Z 0040ef13 f   cl_tent.obj
 0001:0000dfdf       ?CL_ParseLaser@@YAXI@Z     0040efdf f   cl_tent.obj
 0001:0000e05b       ?CL_ParseSteam@@YAXXZ      0040f05b f   cl_tent.obj
 0001:0000e16c       ?CL_ParseWidow@@YAXXZ      0040f16c f   cl_tent.obj
 0001:0000e1d8       ?CL_ParseNuke@@YAXXZ       0040f1d8 f   cl_tent.obj
 0001:0000e242       ?CL_ParseTEnt@@YAXXZ       0040f242 f   cl_tent.obj
 0001:0000f05b       ?CL_AddBeams@@YAXXZ        0041005b f   cl_tent.obj
 0001:0000f397       ?CL_AddPlayerBeams@@YAXXZ  00410397 f   cl_tent.obj
 0001:0000fa87       ?CL_ProcessSustain@@YAXXZ  00410a87 f   cl_tent.obj
 0001:0000fac8       ?CL_AddTEnts@@YAXXZ        00410ac8 f   cl_tent.obj
 0001:0000fadc       ?V_AddEntity@@YAXPAUentity_t@@@Z 00410adc f   cl_view.obj
 0001:0000fb0b       ?V_AddLight@@YAXQAMMMMM@Z  00410b0b f   cl_view.obj
 0001:0000fb50       ?V_TestParticles@@YAXXZ    00410b50 f   cl_view.obj
 0001:0000fc0e       ?V_TestEntities@@YAXXZ     00410c0e f   cl_view.obj
 0001:0000fca4       ?V_TestLights@@YAXXZ       00410ca4 f   cl_view.obj
 0001:0000fd72       ?CL_PrepRefresh@@YAXXZ     00410d72 f   cl_view.obj
 0001:00010037       ?CalcFov@@YAMMMM@Z         00411037 f   cl_view.obj
 0001:000100ab       ?V_RenderView@@YA_NM@Z     004110ab f   cl_view.obj
 0001:00010c1a       ?V_Init@@YAXXZ             00411c1a f   cl_view.obj
 0001:00010cca       ?Con_ClearNotify@@YAXXZ    00411cca f   console.obj
 0001:00010cd9       ?Con_CheckResize@@YAXXZ    00411cd9 f   console.obj
 0001:00010e00       ?Con_Print@@YAXPBD@Z       00411e00 f   console.obj
 0001:000110f8       ?Con_DrawNotify@@YAX_N@Z   004120f8 f   console.obj
 0001:00011212       ?Con_DrawConsole@@YAXM@Z   00412212 f   console.obj
 0001:000115ec       ?Con_ClearTyping@@YAXXZ    004125ec f   console.obj
 0001:00011605       ?Key_Console@@YAXHH@Z      00412605 f   console.obj
 0001:00011a4d       ?Con_Init@@YAXXZ           00412a4d f   console.obj
 0001:00011bc9       ?Key_KeynumToString@@YAPBDH@Z 00412bc9 f   keys.obj
 0001:00011c79       ?CompleteCommand@@YAXXZ    00412c79 f   keys.obj
 0001:000125c6       ?Key_SetBinding@@YAXHPBD@Z 004135c6 f   keys.obj
 0001:00012604       ?Key_FindBinding@@YAHPBDPAHH@Z 00413604 f   keys.obj
 0001:00012652       ?Key_WriteBindings@@YAXPAU_iobuf@@@Z 00413652 f   keys.obj
 0001:0001269a       ?Key_Init@@YAXXZ           0041369a f   keys.obj
 0001:0001297e       ?Key_Event@@YAXH_NI@Z      0041397e f   keys.obj
 0001:00012ccb       ?Key_ClearStates@@YAXXZ    00413ccb f   keys.obj
 0001:00012d02       ?M_PushMenu@@YAXP6AXXZP6APBDH@Z@Z 00413d02 f   menu.obj
 0001:00012d91       ?M_ForceMenuOff@@YAXXZ     00413d91 f   menu.obj
 0001:00012dba       ?M_ForceMenuOn@@YAXXZ      00413dba f   menu.obj
 0001:00012dd3       ?M_PopMenu@@YAXXZ          00413dd3 f   menu.obj
 0001:00012e1f       ?Default_MenuKey@@YAPBDPAUmenuFramework_s@@H@Z 00413e1f f   menu.obj
 0001:00012f3f       ?M_DrawCharacter@@YAXHHH@Z 00413f3f f   menu.obj
 0001:00012f71       ?M_Print@@YAXHHPAD@Z       00413f71 f   menu.obj
 0001:00012fb7       ?M_DrawCursor@@YAXHHH@Z    00413fb7 f   menu.obj
 0001:00012fdc       ?M_DrawTextBox@@YAXHHHH@Z  00413fdc f   menu.obj
 0001:000130ae       ?M_Main_Draw@@YAXXZ        004140ae f   menu.obj
 0001:00013222       ?M_Main_Key@@YAPBDH@Z      00414222 f   menu.obj
 0001:00013300       ?M_Menu_Main_f@@YAXXZ      00414300 f   menu.obj
 0001:00013321       ?M_Menu_Multiplayer_f@@YAXXZ 00414321 f   menu.obj
 0001:000134f9       ?M_Menu_Keys_f@@YAXXZ      004144f9 f   menu.obj
 0001:00013955       ?M_Menu_Options_f@@YAXXZ   00414955 f   menu.obj
 0001:0001426a       ?M_Menu_Video_f@@YAXXZ     0041526a f   menu.obj
 0001:0001428b       ?M_Menu_Credits_f@@YAXXZ   0041528b f   menu.obj
 0001:00014438       ?M_Menu_Game_f@@YAXXZ      00415438 f   menu.obj
 0001:000146ab       ?M_Menu_LoadGame_f@@YAXXZ  004156ab f   menu.obj
 0001:00014979       ?M_Menu_SaveGame_f@@YAXXZ  00415979 f   menu.obj
 0001:00014ad9       ?M_AddToServerList@@YAXUnetadr_t@@PAD@Z 00415ad9 f   menu.obj
 0001:00014b4c       ?M_Menu_JoinServer_f@@YAXXZ 00415b4c f   menu.obj
 0001:00014db0       ?M_Menu_StartServer_f@@YAXXZ 00415db0 f   menu.obj
 0001:000155d8       ?M_Menu_DMOptions_f@@YAXXZ 004165d8 f   menu.obj
 0001:00015d7f       ?M_Menu_DownloadOptions_f@@YAXXZ 00416d7f f   menu.obj
 0001:00016001       ?M_Menu_AddressBook_f@@YAXXZ 00417001 f   menu.obj
 0001:000173df       ?M_Init@@YAXXZ             004183df f   menu.obj
 0001:000174fd       ?M_Draw@@YAXXZ             004184fd f   menu.obj
 0001:0001754e       ?M_Keydown@@YAXH@Z         0041854e f   menu.obj
 0001:0001756a       ?Menu_ItemAtCursor@@YAPAUmenuCommon_s@@PAUmenuFramework_s@@@Z 0041856a f   qmenu.obj
 0001:000175ba       ?Field_Key@@YA_NPAUmenuField_t@@H@Z 004185ba f   qmenu.obj
 0001:00017767       ?Menu_AddItem@@YAXPAUmenuFramework_s@@PAX@Z 00418767 f   qmenu.obj
 0001:00017822       ?Menu_AdjustCursor@@YAXPAUmenuFramework_s@@H@Z 00418822 f   qmenu.obj
 0001:0001796d       ?Menu_Center@@YAXPAUmenuFramework_s@@@Z 0041896d f   qmenu.obj
 0001:000179ad       ?Menu_Draw@@YAXPAUmenuFramework_s@@@Z 004189ad f   qmenu.obj
 0001:00017efc       ?Menu_SelectItem@@YA_NPAUmenuFramework_s@@@Z 00418efc f   qmenu.obj
 0001:00017f4f       ?Menu_SetStatusBar@@YAXPAUmenuFramework_s@@PBD@Z 00418f4f f   qmenu.obj
 0001:00017f5b       ?Menu_SlideItem@@YAXPAUmenuFramework_s@@H@Z 00418f5b f   qmenu.obj
 0001:00018456       ?InitRendererVars@@YAXXZ   00419456 f   ref_vars.obj
 0001:00018475       ?S_SoundInfo_f@@YAXXZ      00419475 f   snd_dma.obj
 0001:000184ff       ?S_ReadModelsSex@@YAXXZ    004194ff f   snd_dma.obj
 0001:000185e4       ?S_IsFemale@@YA_NPAD@Z     004195e4 f   snd_dma.obj
 0001:00018638       ?S_Init@@YAXXZ             00419638 f   snd_dma.obj
 0001:0001870e       ?S_Shutdown@@YAXXZ         0041970e f   snd_dma.obj
 0001:000187a1       ?S_AliasName@@YAPAUsfx_s@@PAD0@Z 004197a1 f   snd_dma.obj
 0001:00018867       ?S_BeginRegistration@@YAXXZ 00419867 f   snd_dma.obj
 0001:00018875       ?S_RegisterSound@@YAPAUsfx_s@@PBD@Z 00419875 f   snd_dma.obj
 0001:00018a0e       ?S_EndRegistration@@YAXXZ  00419a0e f   snd_dma.obj
 0001:00018aa6       ?S_PickChannel@@YAPAUchannel_t@@HH@Z 00419aa6 f   snd_dma.obj
 0001:00018b33       ?S_SpatializeOrigin@@YAXQAMMMPAH1@Z 00419b33 f   snd_dma.obj
 0001:00018c5a       ?S_Spatialize@@YAXPAUchannel_t@@@Z 00419c5a f   snd_dma.obj
 0001:00018ccb       ?S_AllocPlaysound@@YAPAUplaysound_s@@XZ 00419ccb f   snd_dma.obj
 0001:00018ced       ?S_FreePlaysound@@YAXPAUplaysound_s@@@Z 00419ced f   snd_dma.obj
 0001:00018d1d       ?S_IssuePlaysound@@YAXPAUplaysound_s@@@Z 00419d1d f   snd_dma.obj
 0001:00018dea       ?S_StartSound@@YAXQAMHHPAUsfx_s@@MMM@Z 00419dea f   snd_dma.obj
 0001:00019093       ?S_StartLocalSound@@YAXPBD@Z 0041a093 f   snd_dma.obj
 0001:000190e2       ?S_ClearBuffer@@YAXXZ      0041a0e2 f   snd_dma.obj
 0001:0001914b       ?S_StopAllSounds_f@@YAXXZ  0041a14b f   snd_dma.obj
 0001:000191bb       ?S_AddLoopSounds@@YAXXZ    0041a1bb f   snd_dma.obj
 0001:00019391       ?S_RawSamples@@YAXHHHHPAE@Z 0041a391 f   snd_dma.obj
 0001:00019595       ?S_Update@@YAXQAM000@Z     0041a595 f   snd_dma.obj
 0001:0001968f       ?GetSoundtime@@YAXXZ       0041a68f f   snd_dma.obj
 0001:000196f6       ?S_Update_@@YAXXZ          0041a6f6 f   snd_dma.obj
 0001:000199a9       ?ResampleSfx@@YAXPAUsfx_s@@HHPAE@Z 0041a9a9 f   snd_mem.obj
 0001:00019ac4       ?S_LoadSound@@YAPAUsfxcache_t@@PAUsfx_s@@@Z 0041aac4 f   snd_mem.obj
 0001:00019bf9       ?GetWavinfo@@YA?AUwavinfo_t@@PADPAEH@Z 0041abf9 f   snd_mem.obj
 0001:00019e3b       ?S_WriteLinearBlastStereo16@@YAXXZ 0041ae3b f   snd_mix.obj
 0001:00019eaf       ?S_TransferStereo16@@YAXPAKH@Z 0041aeaf f   snd_mix.obj
 0001:00019f18       ?S_TransferPaintBuffer@@YAXH@Z 0041af18 f   snd_mix.obj
 0001:0001a074       ?S_PaintChannels@@YAXH@Z   0041b074 f   snd_mix.obj
 0001:0001a310       ?S_InitScaletable@@YAXXZ   0041b310 f   snd_mix.obj
 0001:0001a4d1       ?SV_WipeSavegame@@YAXPAD@Z 0041b4d1 f   sv_ccmds.obj
 0001:0001a4ff       ?SV_CopySaveGame@@YAXPAD0@Z 0041b4ff f   sv_ccmds.obj
 0001:0001a554       ?SV_WriteLevelFile@@YAXXZ  0041b554 f   sv_ccmds.obj
 0001:0001a602       ?SV_ReadLevelFile@@YAXXZ   0041b602 f   sv_ccmds.obj
 0001:0001a6b0       ?SV_WriteServerFile@@YAX_NPAD@Z 0041b6b0 f   sv_ccmds.obj
 0001:0001a8ed       ?SV_ReadServerFile@@YAXXZ  0041b8ed f   sv_ccmds.obj
 0001:0001aa12       ?SV_AddressBanned@@YA_NPAUnetadr_t@@@Z 0041ba12 f   sv_ccmds.obj
 0001:0001aa53       ?SV_InitOperatorCommands@@YAXXZ 0041ba53 f   sv_ccmds.obj
 0001:0001ba72       ?SV_WritePlayerstateToClient@@YAXPAUclient_frame_t@@0PAUsizebuf_s@@@Z 0041ca72 f   sv_ents.obj
 0001:0001bf8e       ?SV_WriteFrameToClient@@YAXPAUclient_s@@PAUsizebuf_s@@@Z 0041cf8e f   sv_ents.obj
 0001:0001c1b6       ?SV_FatPVS@@YAXQAM@Z       0041d1b6 f   sv_ents.obj
 0001:0001c2d4       ?SV_BuildClientFrame@@YAXPAUclient_s@@@Z 0041d2d4 f   sv_ents.obj
 0001:0001c5e9       ?SV_RecordDemoMessage@@YAXXZ 0041d5e9 f   sv_ents.obj
 0001:0001d162       ?SV_InitGameLibrary@@YAX_N@Z 0041e162 f   sv_game.obj
 0001:0001d2a8       ?SV_ShutdownGameLibrary@@YAXXZ 0041e2a8 f   sv_game.obj
 0001:0001d405       ?SV_FindIndex@@YAHPADHH_N@Z 0041e405 f   sv_init.obj
 0001:0001d50a       ?SV_ModelIndex@@YAHPAD@Z   0041e50a f   sv_init.obj
 0001:0001d520       ?SV_SoundIndex@@YAHPAD@Z   0041e520 f   sv_init.obj
 0001:0001d539       ?SV_ImageIndex@@YAHPAD@Z   0041e539 f   sv_init.obj
 0001:0001d552       ?SV_CreateBaseline@@YAXXZ  0041e552 f   sv_init.obj
 0001:0001d5b0       ?SV_CheckForSavegame@@YAXXZ 0041e5b0 f   sv_init.obj
 0001:0001d638       ?SV_SpawnServer@@YAXPAD0W4server_state_t@@_N2@Z 0041e638 f   sv_init.obj
 0001:0001d907       ?SV_InitGame@@YAXXZ        0041e907 f   sv_init.obj
 0001:0001db42       ?SV_Map@@YAX_NPAD0@Z       0041eb42 f   sv_init.obj
 0001:0001dd0b       ?SV_DropClient@@YAXPAUclient_s@@PAD@Z 0041ed0b f   sv_main.obj
 0001:0001ddbc       ?SV_StatusString@@YAPADXZ  0041edbc f   sv_main.obj
 0001:0001e5f3       ?SV_ConnectionlessPacket@@YAXXZ 0041f5f3 f   sv_main.obj
 0001:0001e6be       ?SV_CalcPings@@YAXXZ       0041f6be f   sv_main.obj
 0001:0001e745       ?SV_GiveMsec@@YAXXZ        0041f745 f   sv_main.obj
 0001:0001e784       ?SV_ReadPackets@@YAXXZ     0041f784 f   sv_main.obj
 0001:0001e8ce       ?SV_CheckTimeouts@@YAXXZ   0041f8ce f   sv_main.obj
 0001:0001e9df       ?SV_PostprocessFrame@@YAXXZ 0041f9df f   sv_main.obj
 0001:0001eeb6       ?SV_MulticastHook@@YAPAUsizebuf_s@@PAU1@0@Z 0041feb6 f   sv_main.obj
 0001:0001f2aa       ?SV_TraceHook@@YA?AUtrace_t@@QAM000PAUedict_s@@H@Z 004202aa f   sv_main.obj
 0001:0001f425       ?SV_Frame@@YAXM@Z          00420425 f   sv_main.obj
 0001:0001f6df       ?SV_UserinfoChanged@@YAXPAUclient_s@@@Z 004206df f   sv_main.obj
 0001:0001f7a3       ?SV_Init@@YAXXZ            004207a3 f   sv_main.obj
 0001:0001f81a       ?SV_Shutdown@@YAXPAD_N@Z   0042081a f   sv_main.obj
 0001:0001fa17       ?SV_BeginRedirect@@YAXXZ   00420a17 f   sv_send.obj
 0001:0001fac1       ?SV_ClientPrintf@@YAXPAUclient_s@@HPADZZ 00420ac1 f   sv_send.obj
 0001:0001fb1c       ?SV_BroadcastPrintf@@YAXHPADZZ 00420b1c f   sv_send.obj
 0001:0001fbf2       ?SV_BroadcastCommand@@YAXPADZZ 00420bf2 f   sv_send.obj
 0001:0001fc47       ?SV_Multicast@@YAXQAMW4multicast_t@@_N@Z 00420c47 f   sv_send.obj
 0001:0001fe8a       ?SV_MulticastOld@@YAXQAMW4multicast_t@@@Z 00420e8a f   sv_send.obj
 0001:0001fe9d       ?SV_MulticastNew@@YAXQAMW4multicast_t@@@Z 00420e9d f   sv_send.obj
 0001:0001feb0       ?SV_StartSound@@YAXQAMPAUedict_s@@HHMMM_N@Z 00420eb0 f   sv_send.obj
 0001:00020178       ?SV_StartSoundOld@@YAXQAMPAUedict_s@@HHMMM@Z 00421178 f   sv_send.obj
 0001:000201a8       ?SV_StartSoundNew@@YAXQAMPAUedict_s@@HHMMM@Z 004211a8 f   sv_send.obj
 0001:000201d8       ?SV_SendClientDatagram@@YA_NPAUclient_s@@@Z 004211d8 f   sv_send.obj
 0001:000202ab       ?SV_DemoCompleted@@YAXXZ   004212ab f   sv_send.obj
 0001:000202c7       ?SV_RateDrop@@YA_NPAUclient_s@@@Z 004212c7 f   sv_send.obj
 0001:00020311       ?SV_SendClientMessages@@YAXXZ 00421311 f   sv_send.obj
 0001:0002045f       ?SV_TokenizeString@@YAXPBD@Z 0042145f f   sv_tokenize.obj
 0001:00020536       ?SV_Argc@@YAHXZ            00421536 f   sv_tokenize.obj
 0001:0002053c       ?SV_Argv@@YAPADH@Z         0042153c f   sv_tokenize.obj
 0001:00020556       ?SV_Args@@YAPADXZ          00421556 f   sv_tokenize.obj
 0001:00020da7       ?SV_Nextserver@@YAXXZ      00421da7 f   sv_user.obj
 0001:00020e36       ?SV_ExecuteUserCommand@@YAXPAD@Z 00421e36 f   sv_user.obj
 0001:00020ef8       ?SV_ClientThink@@YAXPAUclient_s@@PAUusercmd_t@@@Z 00421ef8 f   sv_user.obj
 0001:00020f3b       ?SV_ExecuteClientMessage@@YAXPAUclient_s@@@Z 00421f3b f   sv_user.obj
 0001:00021159       ?SV_ClearWorld@@YAXXZ      00422159 f   sv_world.obj
 0001:000212b1       ?SV_UnlinkEdict@@YAXPAUedict_s@@@Z 004222b1 f   sv_world.obj
 0001:00021374       ?SV_LinkEdict@@YAXPAUedict_s@@@Z 00422374 f   sv_world.obj
 0001:000219cc       ?SV_AreaEdicts@@YAHQAM0PAPAUedict_s@@HH@Z 004229cc f   sv_world.obj
 0001:00021b7d       ?SV_PointContents@@YAHQAM@Z 00422b7d f   sv_world.obj
 0001:00021ca3       ?SV_ClipMoveToEntities@@YAXPAUtrace_t@@QAM111PAUedict_s@@H@Z 00422ca3 f   sv_world.obj
 0001:00022082       ?SV_Trace@@YAXPAUtrace_t@@QAM111PAUedict_s@@H@Z 00423082 f   sv_world.obj
 0001:0002213c       ?Cbuf_Init@@YAXXZ          0042313c f   cmd.obj
 0001:00022154       ?Cbuf_AddText@@YAXPAD@Z    00423154 f   cmd.obj
 0001:000221b9       ?Cbuf_InsertText@@YAXPAD@Z 004231b9 f   cmd.obj
 0001:00022220       ?Cbuf_CopyToDefer@@YAXXZ   00423220 f   cmd.obj
 0001:00022268       ?Cbuf_InsertFromDefer@@YAXXZ 00423268 f   cmd.obj
 0001:00022291       ?Cbuf_Execute@@YAXXZ       00423291 f   cmd.obj
 0001:00022393       ?Cmd_Unalias_f@@YAX_NHPAPAD@Z 00423393 f   cmd.obj
 0001:0002241c       ?Cmd_WriteAliases@@YAXPAU_iobuf@@@Z 0042341c f   cmd.obj
 0001:0002244d       ?RegisterCommand@@YA_NPBDP6AXXZH@Z 0042344d f   cmd.obj
 0001:000224ae       ?UnregisterCommand@@YAXPBD@Z 004234ae f   cmd.obj
 0001:000224f0       ?Cmd_ExecuteString@@YA_NPBD@Z 004234f0 f   cmd.obj
 0001:00022976       ?ExecuteCommand@@YA_NPBDPBUCSimpleCommand@@H@Z 00423976 f   cmd.obj
 0001:00022a3d       ?Cmd_Init@@YAXXZ           00423a3d f   cmd.obj
 0001:00022d64       ?CMod_GetSurfMaterial@@YA?AW4material_t@@PAD@Z 00423d64 f   cmodel.obj
 0001:00022dc1       ?CM_LoadMap@@YAPAUcmodel_t@@PAD_NPAI@Z 00423dc1 f   cmodel.obj
 0001:00023419       ?PlaneTypeForNormal@@YAHQBM@Z 00424419 f i cmodel.obj
 0001:000235bd       ?CM_InlineModel@@YAPAUcmodel_t@@PAD@Z 004245bd f   cmodel.obj
 0001:000235fe       ?CM_NumClusters@@YAHXZ     004245fe f   cmodel.obj
 0001:00023604       ?CM_NumInlineModels@@YAHXZ 00424604 f   cmodel.obj
 0001:0002360a       ?CM_EntityString@@YAPADXZ  0042460a f   cmodel.obj
 0001:00023610       ?CM_LeafContents@@YAHH@Z   00424610 f   cmodel.obj
 0001:00023634       ?CM_LeafCluster@@YAHH@Z    00424634 f   cmodel.obj
 0001:000236a6       ?CM_LeafArea@@YAHH@Z       004246a6 f   cmodel.obj
 0001:000236cb       ?CM_InitBoxHull@@YAXXZ     004246cb f   cmodel.obj
 0001:0002385b       ?CM_HeadnodeForBox@@YAHQAM0@Z 0042485b f   cmodel.obj
 0001:00023910       ?CM_PointLeafnum@@YAHQAMH@Z 00424910 f   cmodel.obj
 0001:000239b0       ?DISTANCE_TO_PLANE@@YAMQBMPBUcplane_t@@@Z 004249b0 f i cmodel.obj
 0001:000239f8       ?CM_PointContents@@YAHQAMH@Z 004249f8 f   cmodel.obj
 0001:00023a6a       ?CM_TransformedPointContents@@YAHQAMH00@Z 00424a6a f   cmodel.obj
 0001:00023ba0       ?CM_TransformedPointContents2@@YAHQAMH0PAY02M@Z 00424ba0 f   cmodel.obj
 0001:00023c8e       ?CM_BoxLeafnums@@YAHQAM0PAHH1H@Z 00424c8e f   cmodel.obj
 0001:00023da0       ?BOX_ON_PLANE_SIDE@@YAHQBM0PBUcplane_t@@@Z 00424da0 f i cmodel.obj
 0001:00023e25       ?CM_BoxTrace@@YAXPAUtrace_t@@QBM111HH@Z 00424e25 f   cmodel.obj
 0001:0002483e       ?CM_TransformedBoxTrace@@YAXPAUtrace_t@@QBM111HH11@Z 0042583e f   cmodel.obj
 0001:00024b0e       ?CM_TransformedBoxTrace2@@YAXPAUtrace_t@@QBM111HH1PAY02$$CBM@Z 00425b0e f   cmodel.obj
 0001:00024d23       ?CM_BrushTrace@@YAHQBM0PAHH@Z 00425d23 f   cmodel.obj
 0001:00025141       ?CM_RefineBrushTrace@@YAHQBM0PAHH@Z 00426141 f   cmodel.obj
 0001:000251e6       ?CM_ClusterPVS@@YAPAEH@Z   004261e6 f   cmodel.obj
 0001:0002532a       ?CM_ClusterPHS@@YAPAEH@Z   0042632a f   cmodel.obj
 0001:000253cd       ?FloodAreaConnections@@YAXXZ 004263cd f   cmodel.obj
 0001:00025486       ?CM_SetAreaPortalState@@YAXH_N@Z 00426486 f   cmodel.obj
 0001:000254ab       ?CM_AreasConnected@@YA_NHH@Z 004264ab f   cmodel.obj
 0001:000254ef       ?CM_WriteAreaBits@@YAHPAEH@Z 004264ef f   cmodel.obj
 0001:00025589       ?CM_WritePortalState@@YAXPAU_iobuf@@@Z 00426589 f   cmodel.obj
 0001:000255a3       ?CM_ReadPortalState@@YAXPAU_iobuf@@@Z 004265a3 f   cmodel.obj
 0001:000255c1       ?CM_HeadnodeVisible@@YA_NHPAE@Z 004265c1 f   cmodel.obj
 0001:00025696       ?Com_BeginRedirect@@YAXPADHP6AX0@Z@Z 00426696 f   common.obj
 0001:000256c3       ?Com_EndRedirect@@YAXXZ    004266c3 f   common.obj
 0001:000256e2       ?Com_Printf@@YAXPBDZZ      004266e2 f   common.obj
 0001:0002588a       ?Com_DPrintf@@YAXPBDZZ     0042688a f   common.obj
 0001:00025907       ?DebugPrintf@@YAXPBDZZ     00426907 f   common.obj
 0001:000259b1       ?Com_WPrintf@@YAXPBDZZ     004269b1 f   common.obj
 0001:00025a0f       ?Com_FatalError@@YAXPBDZZ  00426a0f f   common.obj
 0001:00025ab3       ?Com_DropError@@YAXPBDZZ   00426ab3 f   common.obj
 0001:00025b51       ?appUnwindPrefix@@YAXPBD@Z 00426b51 f   common.obj
 0001:00025ba9       ?appUnwindThrow@@YAXPBDZZ  00426ba9 f   common.obj
 0001:00025c31       ?Com_ResetErrorState@@YAXXZ 00426c31 f   common.obj
 0001:00025c42       ?Com_Quit@@YAXXZ           00426c42 f   common.obj
 0001:00025c62       ?MatchWildcard@@YA_NPBD0_N@Z 00426c62 f   common.obj
 0001:00025df0       ?va@@YAPADPBDZZ            00426df0 f   common.obj
 0001:00025e3d       ?appSprintf@@YAHPADHPBDZZ  00426e3d f   common.obj
 0001:00025e83       ?IPWildcard@@YA_NPAUnetadr_t@@PAD@Z 00426e83 f   common.obj
 0001:00025f5d       ?Com_ServerState@@YA?AW4server_state_t@@XZ 00426f5d f   common.obj
 0001:00025f63       ?Com_SetServerState@@YAXW4server_state_t@@@Z 00426f63 f   common.obj
 0001:00025f6d       ?frand@@YAMXZ              00426f6d f   common.obj
 0001:00025f85       ?crand@@YAMXZ              00426f85 f   common.obj
 0001:00025fa3       ?MSG_WriteChar@@YAXPAUsizebuf_s@@H@Z 00426fa3 f   common.obj
 0001:00025fa3       ?MSG_WriteByte@@YAXPAUsizebuf_s@@H@Z 00426fa3 f   common.obj
 0001:00025fb7       ?MSG_WriteShort@@YAXPAUsizebuf_s@@H@Z 00426fb7 f   common.obj
 0001:00025fd1       ?MSG_WriteLong@@YAXPAUsizebuf_s@@H@Z 00426fd1 f   common.obj
 0001:00025ffb       ?MSG_WriteFloat@@YAXPAUsizebuf_s@@M@Z 00426ffb f   common.obj
 0001:00026017       ?MSG_WriteString@@YAXPAUsizebuf_s@@PAD@Z 00427017 f   common.obj
 0001:0002604e       ?MSG_WriteCoord@@YAXPAUsizebuf_s@@M@Z 0042704e f   common.obj
 0001:00026073       ?MSG_WritePos@@YAXPAUsizebuf_s@@QAM@Z 00427073 f   common.obj
 0001:000260d7       ?MSG_WriteAngle@@YAXPAUsizebuf_s@@M@Z 004270d7 f   common.obj
 0001:00026102       ?MSG_WriteAngle16@@YAXPAUsizebuf_s@@M@Z 00427102 f   common.obj
 0001:0002612d       ?MSG_WriteDeltaUsercmd@@YAXPAUsizebuf_s@@PAUusercmd_t@@1@Z 0042712d f   common.obj
 0001:00026257       ?MSG_WriteDir@@YAXPAUsizebuf_s@@QAM@Z 00427257 f   common.obj
 0001:000262be       ?MSG_ReadDir@@YAXPAUsizebuf_s@@QAM@Z 004272be f   common.obj
 0001:000262ef       ?MSG_WriteDeltaEntity@@YAXPAUentity_state_t@@0PAUsizebuf_s@@_N2@Z 004272ef f   common.obj
 0001:00026737       ?MSG_BeginReading@@YAXPAUsizebuf_s@@@Z 00427737 f   common.obj
 0001:00026740       ?MSG_ReadChar@@YAHPAUsizebuf_s@@@Z 00427740 f   common.obj
 0001:00026761       ?MSG_ReadByte@@YAHPAUsizebuf_s@@@Z 00427761 f   common.obj
 0001:00026782       ?MSG_ReadShort@@YAHPAUsizebuf_s@@@Z 00427782 f   common.obj
 0001:000267b2       ?MSG_ReadLong@@YAHPAUsizebuf_s@@@Z 004277b2 f   common.obj
 0001:000267f1       ?MSG_ReadString@@YAPADPAUsizebuf_s@@@Z 004277f1 f   common.obj
 0001:00026824       ?MSG_ReadCoord@@YAMPAUsizebuf_s@@@Z 00427824 f   common.obj
 0001:0002683e       ?MSG_ReadPos@@YAXPAUsizebuf_s@@QAM@Z 0042783e f   common.obj
 0001:00026890       ?MSG_ReadAngle@@YAMPAUsizebuf_s@@@Z 00427890 f   common.obj
 0001:000268aa       ?MSG_ReadAngle16@@YAMPAUsizebuf_s@@@Z 004278aa f   common.obj
 0001:000268c4       ?MSG_ReadDeltaUsercmd@@YAXPAUsizebuf_s@@PAUusercmd_t@@1@Z 004278c4 f   common.obj
 0001:0002697f       ?MSG_ReadData@@YAXPAUsizebuf_s@@PAXH@Z 0042797f f   common.obj
 0001:000269a2       ?SZ_Init@@YAXPAUsizebuf_s@@PAXH@Z 004279a2 f   common.obj
 0001:000269c0       ?SZ_Clear@@YAXPAUsizebuf_s@@@Z 004279c0 f   common.obj
 0001:000269cd       ?SZ_GetSpace@@YAPAXPAUsizebuf_s@@H@Z 004279cd f   common.obj
 0001:00026a2a       ?SZ_Write@@YAXPAUsizebuf_s@@PAXH@Z 00427a2a f   common.obj
 0001:00026a56       ?SZ_Insert@@YAXPAUsizebuf_s@@PAXHH@Z 00427a56 f   common.obj
 0001:00026aaf       ?SZ_Print@@YAXPAUsizebuf_s@@PAD@Z 00427aaf f   common.obj
 0001:00026b05       ?Info_Print@@YAXPAD@Z      00427b05 f   common.obj
 0001:00026bca       ?COM_BlockSequenceCRCByte@@YAEPAEHH@Z 00427bca f   common.obj
 0001:00026c5b       ?COM_CheckCmdlineVar@@YA_NPBD@Z 00427c5b f   common.obj
 0001:00026cb1       ?QCommon_Init@@YAXPAD@Z    00427cb1 f   common.obj
 0001:0002706b       ?QCommon_Frame@@YAXH@Z     0042806b f   common.obj
 0001:00027342       ?QCommon_Shutdown@@YAXXZ   00428342 f   common.obj
 0001:0002735b       ?CRC_Init@@YAXPAG@Z        0042835b f   crc.obj
 0001:00027365       ?CRC_Block@@YAGPAEH@Z      00428365 f   crc.obj
 0001:000273ae       ?Cvar_VariableValue@@YAMPBD@Z 004283ae f   cvar.obj
 0001:0002741c       ?Cvar_VariableInt@@YAHPBD@Z 0042841c f   cvar.obj
 0001:0002742f       ?Cvar_VariableString@@YAPADPBD@Z 0042842f f   cvar.obj
 0001:00027447       ?Cvar_Get@@YAPAUcvar_s@@PBD0H@Z 00428447 f   cvar.obj
 0001:000276fa       ?Cvar_GetVars@@YAXPBUcvarInfo_t@@H@Z 004286fa f   cvar.obj
 0001:000277a4       ?Cvar_FullSet@@YAPAUcvar_s@@PBD0H@Z 004287a4 f   cvar.obj
 0001:000277fe       ?Cvar_SetValue@@YAPAUcvar_s@@PBDM@Z 004287fe f   cvar.obj
 0001:00027a24       ?Cvar_SetInteger@@YAPAUcvar_s@@PBDH@Z 00428a24 f   cvar.obj
 0001:00027a46       ?Cvar_Set@@YAPAUcvar_s@@PBD0@Z 00428a46 f   cvar.obj
 0001:00027a5b       ?Cvar_ForceSet@@YAPAUcvar_s@@PBD0@Z 00428a5b f   cvar.obj
 0001:00027a70       ?Cvar_Clamp@@YAMPAUcvar_s@@MM@Z 00428a70 f   cvar.obj
 0001:00027ace       ?Cvar_ClampName@@YAMPBDMM@Z 00428ace f   cvar.obj
 0001:00027b0d       ?Cvar_GetLatchedVars@@YAXXZ 00428b0d f   cvar.obj
 0001:00027b3c       ?Cvar_Command@@YA_NHPAPAD@Z 00428b3c f   cvar.obj
 0001:00027bdd       ?Cvar_WriteVariables@@YAXPAU_iobuf@@HHPBD@Z 00428bdd f   cvar.obj
 0001:00027c70       ?Cvar_BitInfo@@YAPADH@Z    00428c70 f   cvar.obj
 0001:00027ca9       ?Cvar_Userinfo@@YAPADXZ    00428ca9 f   cvar.obj
 0001:00027cb2       ?Cvar_Serverinfo@@YAPADXZ  00428cb2 f   cvar.obj
 0001:00027cbb       ?Cvar_Cheats@@YAX_N@Z      00428cbb f   cvar.obj
 0001:00027d11       ?Cvar_Init@@YAXXZ          00428d11 f   cvar.obj
 0001:000283c9       ?FS_CreatePath@@YAXPAD@Z   004293c9 f   files.obj
 0001:00028413       ?FS_CopyFile@@YAXPAD0@Z    00429413 f   files.obj
 0001:00028516       ?FS_CopyFiles@@YAXPAD0@Z   00429516 f   files.obj
 0001:000285ef       ?FS_RemoveFiles@@YAXPAD@Z  004295ef f   files.obj
 0001:00028663       ?FS_FCloseFile@@YAXPAU_iobuf@@@Z 00429663 f   files.obj
 0001:000286f7       ?FS_FOpenFile@@YAHPBDPAPAU_iobuf@@@Z 004296f7 f   files.obj
 0001:00028c2d       ?FS_FileExists@@YA_NPAD@Z  00429c2d f   files.obj
 0001:00028e4a       ?FS_Read@@YAXPAXHPAU_iobuf@@@Z 00429e4a f   files.obj
 0001:000290e3       ?FS_LoadFile@@YAPAXPBDPAI@Z 0042a0e3 f   files.obj
 0001:00029138       ?FS_FreeFile@@YAXPAX@Z     0042a138 f   files.obj
 0001:00029143       ?FS_Gamedir@@YAPADXZ       0042a143 f   files.obj
 0001:00029157       ?FS_LoadGameConfig@@YAXXZ  0042a157 f   files.obj
 0001:0002921c       ?FS_SetGamedir@@YA_NPBD@Z  0042a21c f   files.obj
 0001:000298c3       ?FS_ListFiles@@YAPAUbasenamed_s@@PADPAHH@Z 0042a8c3 f   files.obj
 0001:00029bd6       ?FS_NextPath@@YAPADPBD@Z   0042abd6 f   files.obj
 0001:00029bfa       ?FS_InitFilesystem@@YAXXZ  0042abfa f   files.obj
 0001:0002a5a5       ?LoadPCX@@YAXPBDPAPAE1PAH2@Z 0042b5a5 f   images.obj
 0001:0002a6e9       ?LoadTGA@@YAXPBDPAPAEPAH2@Z 0042b6e9 f   images.obj
 0001:0002a8e1       ?LoadJPG@@YAXPBDPAPAEPAH2@Z 0042b8e1 f   images.obj
 0001:0002ab70       ?ImageExists@@YAHPBDH@Z    0042bb70 f   images.obj
 0001:0002ac6a       ?WriteTGA@@YA_NPBDPAEHH@Z  0042bc6a f   images.obj
 0001:0002ae51       ?WriteJPG@@YA_NPBDPAEHH_N@Z 0042be51 f   images.obj
 0001:0002af78       ?MD4Init@@YAXPAUMD4_CTX@@@Z 0042bf78 f   md4.obj
 0001:0002afa0       ?MD4Update@@YAXPAUMD4_CTX@@PAEI@Z 0042bfa0 f   md4.obj
 0001:0002b03e       ?MD4Final@@YAXQAEPAUMD4_CTX@@@Z 0042c03e f   md4.obj
 0001:0002b72f       ?Com_BlockChecksum@@YAIPAXH@Z 0042c72f f   md4.obj
 0001:0002b76b       ?appFree@@YAXPAX@Z         0042c76b f   memory.obj
 0001:0002b7bf       ?appMalloc@@YAPAXH@Z       0042c7bf f   memory.obj
 0001:0002b82d       ?CreateMemoryChain@@YAPAXXZ 0042c82d f   memory.obj
 0001:0002b897       ?FreeMemoryChain@@YAXPAX@Z 0042c897 f   memory.obj
 0001:0002b8c1       ?AllocChainBlock@@YAPAXPAXH@Z 0042c8c1 f   memory.obj
 0001:0002b90c       ?CopyString@@YAPADPBD@Z    0042c90c f   memory.obj
 0001:0002b93b       ?ChainCopyString@@YAPADPBDPAX@Z 0042c93b f   memory.obj
 0001:0002b96f       ?AllocNamedStruc@@YAPAUbasenamed_s@@HPAD@Z 0042c96f f   memory.obj
 0001:0002b9aa       ?ChainAllocNamedStruc@@YAPAUbasenamed_s@@HPADPAX@Z 0042c9aa f   memory.obj
 0001:0002b9e9       ?FindNamedStruc@@YAPAUbasenamed_s@@PADPAU1@PAPAU1@@Z 0042c9e9 f   memory.obj
 0001:0002ba2d       ?FindNamedStrucByIndex@@YAPAUbasenamed_s@@PAU1@H@Z 0042ca2d f   memory.obj
 0001:0002ba44       ?IndexOfNamedStruc@@YAHPADPAUbasenamed_s@@@Z 0042ca44 f   memory.obj
 0001:0002ba72       ?AddToNamedList@@YAPAUbasenamed_s@@PADPAU1@@Z 0042ca72 f   memory.obj
 0001:0002babc       ?ChainAddToNamedList@@YAPAUbasenamed_s@@PADPAU1@PAX@Z 0042cabc f   memory.obj
 0001:0002bb06       ?FreeNamedList@@YAXPAUbasenamed_s@@@Z 0042cb06 f   memory.obj
 0001:0002bb21       ?Mem_Init@@YAXXZ           0042cb21 f   memory.obj
 0001:0002bb50       ?LoadQ2BspFile@@YAXXZ      0042cb50 f   model.obj
 0001:0002bf29       ?LoadBspFile@@YAPAUbspfile_t@@PBD_NPAI@Z 0042cf29 f   model.obj
 0001:0002c0c8       ?ProcessEntstring@@YAPADPAD@Z 0042d0c8 f   model.obj
 0001:0002cf2a       ?Netchan_Init@@YAXXZ       0042df2a f   net_chan.obj
 0001:0002cf8a       ?Netchan_OutOfBand@@YAXW4netsrc_t@@Unetadr_t@@HPAX@Z 0042df8a f   net_chan.obj
 0001:0002cfea       ?Netchan_OutOfBandPrint@@YAXW4netsrc_t@@Unetadr_t@@PBDZZ 0042dfea f   net_chan.obj
 0001:0002d02f       ?Netchan_Setup@@YAXW4netsrc_t@@PAUnetchan_t@@Unetadr_t@@H@Z 0042e02f f   net_chan.obj
 0001:0002d088       ?Netchan_NeedReliable@@YA_NPAUnetchan_t@@@Z 0042e088 f   net_chan.obj
 0001:0002d0b2       ?Netchan_Transmit@@YAXPAUnetchan_t@@HPAX@Z 0042e0b2 f   net_chan.obj
 0001:0002d258       ?Netchan_Process@@YA_NPAUnetchan_t@@PAUsizebuf_s@@@Z 0042e258 f   net_chan.obj
 0001:0002d37e       ?Pmove@@YAXPAUpmove_t@@@Z  0042e37e f   pmove.obj
 0001:0002f118       ?NormalizeColor@@YAMQBMQAM@Z 00430118 f   q_shared2.obj
 0001:0002f179       ?NormalizeColor255@@YAMQBMQAM@Z 00430179 f   q_shared2.obj
 0001:0002f1de       ?Q_rsqrt@@YAMM@Z           004301de f   q_shared2.obj
 0001:0002f20e       ?RotatePointAroundVector@@YAXQAMQBM1M@Z 0043020e f   q_shared2.obj
 0001:0002f376       ?AngleVectors@@YAXQBMQAM11@Z 00430376 f   q_shared2.obj
 0001:0002f4d7       ?ProjectPointOnPlane@@YAXQAMQBM1@Z 004304d7 f   q_shared2.obj
 0001:0002f556       ?PerpendicularVector@@YAXQAMQBM@Z 00430556 f   q_shared2.obj
 0001:0002f5bf       ?MakeNormalVectors@@YAXQAM00@Z 004305bf f   q_shared2.obj
 0001:0002f626       ?MatrixMultiply@@YAXQAY02M00@Z 00430626 f   q_shared2.obj
 0001:0002f70d       ?SetPlaneSignbits@@YAXPAUcplane_t@@@Z 0043070d f   q_shared2.obj
 0001:0002f730       ?LerpAngle@@YAMMMM@Z       00430730 f   q_shared2.obj
 0001:0002f773       ?anglemod@@YAMM@Z          00430773 f   q_shared2.obj
 0001:0002f79f       ?BoxOnPlaneSide@@YAHQBM0PBUcplane_t@@@Z 0043079f f   q_shared2.obj
 0001:0002f8c2       ?ClearBounds@@YAXQAM0@Z    004308c2 f   q_shared2.obj
 0001:0002f8eb       ?AddPointToBounds@@YAXQBMQAM1@Z 004308eb f   q_shared2.obj
 0001:0002f924       ?VectorCompare@@YA_NQBM0@Z 00430924 f   q_shared2.obj
 0001:0002f951       ?VectorNormalize@@YAMQAM@Z 00430951 f   q_shared2.obj
 0001:0002f9aa       ?VectorNormalize2@@YAMQBMQAM@Z 004309aa f   q_shared2.obj
 0001:0002fa05       ?VectorNormalizeFast@@YAMQAM@Z 00430a05 f   q_shared2.obj
 0001:0002fa58       ?CrossProduct@@YAXQBM0QAM@Z 00430a58 f   q_shared2.obj
 0001:0002fa93       ?VectorLength@@YAMQBM@Z    00430a93 f   q_shared2.obj
 0001:0002fac2       ?VectorDistance@@YAMQBM0@Z 00430ac2 f   q_shared2.obj
 0001:0002faf3       ?VectorInverse@@YAXQAM@Z   00430af3 f   q_shared2.obj
 0001:0002fb0e       ?VectorScale@@YAXQBMMQAM@Z 00430b0e f   q_shared2.obj
 0001:0002fb32       ?AnglesToAxis@@YAXQBMQAY02M@Z 00430b32 f   q_shared2.obj
 0001:0002fb70       ?COM_FilePath@@YAXPAD0@Z   00430b70 f   q_shared2.obj
 0001:0002fba6       ?ShortSwap@@YAFF@Z         00430ba6 f   q_shared2.obj
 0001:0002fbbb       ?COM_Parse@@YAPADAAPBD_N@Z 00430bbb f   q_shared2.obj
 0001:0002fcdf       ?COM_QuoteString@@YAPBDPBD_N@Z 00430cdf f   q_shared2.obj
 0001:0002fd3a       ?Com_PageInMemory@@YAXPAXH@Z 00430d3a f   q_shared2.obj
 0001:0002fd59       ?appStrncpyz@@YAXPADPBDH@Z 00430d59 f   q_shared2.obj
 0001:0002fd7d       ?Q_strncpylower@@YAXPADPBDH@Z 00430d7d f   q_shared2.obj
 0001:0002fdb7       ?Q_CopyFilename@@YAXPADPBDH@Z 00430db7 f   q_shared2.obj
 0001:0002fe53       ?Info_ValueForKey@@YAPADPAD0@Z 00430e53 f   q_shared2.obj
 0001:0002fede       ?Info_RemoveKey@@YAXPAD0@Z 00430ede f   q_shared2.obj
 0001:0002ff64       ?Info_SetValueForKey@@YAXPAD00@Z 00430f64 f   q_shared2.obj
 0001:0003009c       ?Zip_OpenArchive@@YAPAU_iobuf@@PAD@Z 0043109c f   zip.obj
 0001:00030107       ?Zip_CloseArchive@@YAXPAU_iobuf@@@Z 00431107 f   zip.obj
 0001:00030113       ?Zip_EnumArchive@@YA_NPAU_iobuf@@P6A_NPAUzipFile_t@@@Z@Z 00431113 f   zip.obj
 0001:000302f0       ?Zip_OpenFile@@YAPAUZFILE@@PAU_iobuf@@PAUzipFile_t@@@Z 004312f0 f   zip.obj
 0001:000303cf       ?Zip_ReadFile@@YAHPAUZFILE@@PAXH@Z 004313cf f   zip.obj
 0001:000304c5       ?Zip_CloseFile@@YA_NPAUZFILE@@@Z 004314c5 f   zip.obj
 0001:00030509       ?Zip_OpenBuf@@YAPAUZBUF@@PAXH@Z 00431509 f   zip.obj
 0001:00030545       ?Zip_ReadBuf@@YAHPAUZBUF@@PAXH@Z 00431545 f   zip.obj
 0001:0003058d       ?Zip_CloseBuf@@YAXPAUZBUF@@@Z 0043158d f   zip.obj
 0001:000305a2       ?CDAudio_Play2@@YAXH_N@Z   004315a2 f   cd_win.obj
 0001:00030781       ?CDAudio_Play@@YAXH_N@Z    00431781 f   cd_win.obj
 0001:00030798       ?CDAudio_Stop@@YAXXZ       00431798 f   cd_win.obj
 0001:000307dd       ?CDAudio_Pause@@YAXXZ      004317dd f   cd_win.obj
 0001:00030836       ?CDAudio_Resume@@YAXXZ     00431836 f   cd_win.obj
 0001:000308a5       ?CDAudio_MessageHandler@@YAJPAUHWND__@@IIJ@Z 004318a5 f   cd_win.obj
 0001:0003093c       ?CDAudio_Update@@YAXXZ     0043193c f   cd_win.obj
 0001:00030970       ?CDAudio_Init@@YAHXZ       00431970 f   cd_win.obj
 0001:00030d22       ?CDAudio_Shutdown@@YAXXZ   00431d22 f   cd_win.obj
 0001:00030d55       ?CDAudio_Activate@@YAX_N@Z 00431d55 f   cd_win.obj
 0001:00030d66       ?IN_MouseEvent@@YAXH@Z     00431d66 f   in_win.obj
 0001:00030dd0       ?IN_Commands@@YAXXZ        00431dd0 f   in_win.obj
 0001:00030f01       ?IN_Init@@YAXXZ            00431f01 f   in_win.obj
 0001:00031247       ?IN_Shutdown@@YAXXZ        00432247 f   in_win.obj
 0001:0003132b       ?IN_Move@@YAXPAUusercmd_t@@@Z 0043232b f   in_win.obj
 0001:0003182d       ?IN_Activate@@YAX_N@Z      0043282d f   in_win.obj
 0001:00031837       ?IN_Frame@@YAXXZ           00432837 f   in_win.obj
 0001:00031c41       ?NetadrToSockadr@@YAXPAUnetadr_t@@PAUsockaddr@@@Z 00432c41 f   net_wins.obj
 0001:00031cc6       ?SockadrToNetadr@@YAXPAUsockaddr@@PAUnetadr_t@@@Z 00432cc6 f   net_wins.obj
 0001:00031d16       ?NET_CompareAdr@@YA_NPAUnetadr_t@@0@Z 00432d16 f   net_wins.obj
 0001:00031d76       ?NET_CompareBaseAdr@@YA_NPAUnetadr_t@@0@Z 00432d76 f   net_wins.obj
 0001:00031dcc       ?NET_AdrToString@@YAPADPAUnetadr_t@@@Z 00432dcc f   net_wins.obj
 0001:00031e85       ?NET_StringToAdr@@YA_NPBDPAUnetadr_t@@@Z 00432e85 f   net_wins.obj
 0001:0003210f       ?NET_IsLocalAddress@@YA_NPAUnetadr_t@@@Z 0043310f f   net_wins.obj
 0001:0003211b       ?NET_GetLoopPacket@@YA_NW4netsrc_t@@PAUnetadr_t@@PAUsizebuf_s@@@Z 0043311b f   net_wins.obj
 0001:000321a7       ?NET_SendLoopPacket@@YAXW4netsrc_t@@HPAXUnetadr_t@@@Z 004331a7 f   net_wins.obj
 0001:000321fc       ?NET_GetPacket@@YA_NW4netsrc_t@@PAUnetadr_t@@PAUsizebuf_s@@@Z 004331fc f   net_wins.obj
 0001:0003231a       ?NET_SendPacket@@YAXW4netsrc_t@@HPAXUnetadr_t@@@Z 0043331a f   net_wins.obj
 0001:000323eb       ?NET_IPSocket@@YAHPADH@Z   004333eb f   net_wins.obj
 0001:00032500       ?NET_OpenIP@@YAXXZ         00433500 f   net_wins.obj
 0001:0003257c       ?NET_OpenIPX@@YAXXZ        0043357c f   net_wins.obj
 0001:000326bc       ?NET_Config@@YAX_N@Z       004336bc f   net_wins.obj
 0001:00032760       ?NET_Init@@YAXXZ           00433760 f   net_wins.obj
 0001:000327cc       ?Hunk_Begin@@YAPAXH@Z      004337cc f   q_shwin.obj
 0001:00032800       ?Hunk_Alloc@@YAPAXH@Z      00433800 f   q_shwin.obj
 0001:0003285f       ?Hunk_End@@YAHXZ           0043385f f   q_shwin.obj
 0001:00032865       ?Hunk_Free@@YAXPAX@Z       00433865 f   q_shwin.obj
 0001:0003287e       ?Sys_Milliseconds@@YAHXZ   0043387e f   q_shwin.obj
 0001:000328af       ?Sys_Mkdir@@YAXPAD@Z       004338af f   q_shwin.obj
 0001:000328bb       ?Sys_FindFirst@@YAPADPADH@Z 004338bb f   q_shwin.obj
 0001:00032955       ?Sys_FindNext@@YAPADXZ     00433955 f   q_shwin.obj
 0001:000329bf       ?Sys_FindClose@@YAXXZ      004339bf f   q_shwin.obj
 0001:000329d9       ?SNDDMA_Init@@YA_NXZ       004339d9 f   snd_win.obj
 0001:00033018       ?SNDDMA_GetDMAPos@@YAHXZ   00434018 f   snd_win.obj
 0001:00033062       ?SNDDMA_BeginPainting@@YAXXZ 00434062 f   snd_win.obj
 0001:0003317a       ?SNDDMA_Submit@@YAXXZ      0043417a f   snd_win.obj
 0001:0003319f       ?SNDDMA_Shutdown@@YAXXZ    0043419f f   snd_win.obj
 0001:000331a4       ?S_Activate@@YAX_N@Z       004341a4 f   snd_win.obj
 0001:000331cf       ?Sys_Quit@@YAXXZ           004341cf f   sys_win.obj
 0001:0003328a       ?Sys_Error@@YAXPBDZZ       0043428a f   sys_win.obj
 0001:000332ea       ?osAddressInfo@@YA_NIPADHPAH@Z 004342ea f   sys_win.obj
 0001:0003337e       ?osModuleInfo@@YA_NIPADHPAH@Z 0043437e f   sys_win.obj
 0001:00033526       ?appSymbolName@@YA_NIPADH@Z 00434526 f   sys_win.obj
 0001:000335a6       ?appSymbolName@@YAPADI@Z   004345a6 f   sys_win.obj
 0001:000335d8       ?win32ExceptFilter@@YAHPAU_EXCEPTION_POINTERS@@@Z 004345d8 f   sys_win.obj
 0001:00033b90       ?win32ExceptFilter2@@YAHXZ 00434b90 f   sys_win.obj
 0001:00033b9c       ?Sys_Init@@YAXXZ           00434b9c f   sys_win.obj
 0001:00033ee5       ?Sys_ConsoleInput@@YAPADXZ 00434ee5 f   sys_win.obj
 0001:0003419c       ?Sys_ConsoleOutput@@YAXPAD@Z 0043519c f   sys_win.obj
 0001:0003422a       ?Sys_SendKeyEvents@@YAXXZ  0043522a f   sys_win.obj
 0001:00034316       ?Sys_UnloadGame@@YAXXZ     00435316 f   sys_win.obj
 0001:00034391       ?Sys_GetGameAPI@@YAPAXPAX@Z 00435391 f   sys_win.obj
 0001:000344e8       _WinMain@16                004354e8 f   sys_win.obj
 0001:0003475f       ?Vid_CreateWindow@@YAPAXHH_N@Z 0043575f f   vid_dll.obj
 0001:00034f88       ?Vid_DestroyWindow@@YAX_N@Z 00435f88 f   vid_dll.obj
 0001:00034fc3       ?Vid_GetModeInfo@@YA_NPAH0H@Z 00435fc3 f   vid_dll.obj
 0001:00034ff1       ?Vid_UpdateWindowPosAndSize@@YAXHH@Z 00435ff1 f   vid_dll.obj
 0001:00035058       ?Vid_FreeReflib@@YAXXZ     00436058 f   vid_dll.obj
 0001:00035092       ?Vid_CheckChanges@@YAXXZ   00436092 f   vid_dll.obj
 0001:00035480       ?Vid_Init@@YAXXZ           00436480 f   vid_dll.obj
 0001:00035571       ?Vid_Shutdown@@YAXXZ       00436571 f   vid_dll.obj
 0001:0003559f       ?Vid_MenuInit@@YAXXZ       0043659f f   vid_menu.obj
 0001:00035df5       ?Vid_MenuDraw@@YAXXZ       00436df5 f   vid_menu.obj
 0001:00035e78       ?Vid_MenuKey@@YAPBDH@Z     00436e78 f   vid_menu.obj
 0001:000361e3       ?GL_BackEnd@@YAXXZ         004371e3 f   gl_backend.obj
 0001:000397ec       ?GL_InitBackend@@YAXXZ     0043a7ec f   gl_backend.obj
 0001:0003982f       ?GL_ShutdownBackend@@YAXXZ 0043a82f f   gl_backend.obj
 0001:00039843       ?GL_AllocDynamicMemory@@YAPAXH@Z 0043a843 f   gl_buffers.obj
 0001:000398ac       ?GL_ResizeDynamicMemory@@YAXPAXH@Z 0043a8ac f   gl_buffers.obj
 0001:000398ee       ?GL_AddSurfaceToPortal@@YAXPAUsurfaceCommon_s@@PAUshader_s@@HH@Z 0043a8ee f   gl_buffers.obj
 0001:00039957       ?GL_AddDynamicSurface@@YAPAUsurfaceCommon_s@@PAUshader_s@@H@Z 0043a957 f   gl_buffers.obj
 0001:0003997f       ?GL_InsertShaderIndex@@YAXH@Z 0043a97f f   gl_buffers.obj
 0001:000399b2       ?GL_ClearPortal@@YAXXZ     0043a9b2 f   gl_buffers.obj
 0001:000399ce       ?GL_FinishPortal@@YAXXZ    0043a9ce f   gl_buffers.obj
 0001:00039a1f       ?GL_SortSurfaces@@YAXPAUviewPortal_s@@PAPAUsurfaceInfo_s@@@Z 0043aa1f f   gl_buffers.obj
 0001:00039bb1       ?GL_ClearBuffers@@YAXXZ    0043abb1 f   gl_buffers.obj
 0001:00039bc8       ?GL_AddEntity@@YAXPAUentity_t@@@Z 0043abc8 f   gl_frontend.obj
 0001:0003a03c       ?GL_AddDlight@@YAXPAUdlight_t@@@Z 0043b03c f   gl_frontend.obj
 0001:0003a1f4       ?GL_DrawPortal@@YAXXZ      0043b1f4 f   gl_frontend.obj
 0001:0003ccdd       ?GL_TextureMode@@YAXPAD@Z  0043dcdd f   gl_image.obj
 0001:0003cd85       ?GL_CreateImage@@YAPAUimage_s@@PBDPAXHHH@Z 0043dd85 f   gl_image.obj
 0001:0003db6a       ?GL_SetRawPalette@@YAXPBE@Z 0043eb6a f   gl_image.obj
 0001:0003db9b       ?GL_DrawStretchRaw8@@YAXHHHHHHPAE@Z 0043eb9b f   gl_image.obj
 0001:0003df52       ?GL_SetupGamma@@YAXXZ      0043ef52 f   gl_image.obj
 0001:0003e097       ?GL_PerformScreenshot@@YAXXZ 0043f097 f   gl_image.obj
 0001:0003e31f       ?GL_InitImages@@YAXXZ      0043f31f f   gl_image.obj
 0001:0003eaef       ?GL_ShutdownImages@@YAXXZ  0043faef f   gl_image.obj
 0001:0003eb56       ?GL_LoadDelayedImages@@YAXXZ 0043fb56 f   gl_image.obj
 0001:0003ebd3       ?GL_ShowImages@@YAXXZ      0043fbd3 f   gl_image.obj
 0001:0003ee5b       ?GL_FindImage@@YAPAUimage_s@@PBDH@Z 0043fe5b f   gl_image.obj
 0001:0003f1e8       ?GL_Lock@@YAXXZ            004401e8 f   gl_interface.obj
 0001:0003f260       ?GL_Unlock@@YAXXZ          00440260 f   gl_interface.obj
 0001:0003f422       ?GL_Bind@@YAXPAUimage_s@@@Z 00440422 f   gl_interface.obj
 0001:0003f54c       ?GL_BindForce@@YAXPAUimage_s@@@Z 0044054c f   gl_interface.obj
 0001:0003f5ca       ?GL_TexEnv@@YAXI@Z         004405ca f   gl_interface.obj
 0001:0003f749       ?GL_TexMipBias@@YAXM@Z     00440749 f   gl_interface.obj
 0001:0003f7a4       ?GL_TexEnvColor@@YAXPATcolor_t@@@Z 004407a4 f   gl_interface.obj
 0001:0003f854       ?GL_SelectTexture@@YAXH@Z  00440854 f   gl_interface.obj
 0001:0003f8b5       ?GL_TexCoordPointer@@YAXPAX@Z 004408b5 f   gl_interface.obj
 0001:0003f8e5       ?GL_SetMultitexture@@YAXH@Z 004408e5 f   gl_interface.obj
 0001:0003f9cb       ?GL_DisableTexCoordArrays@@YAXXZ 004409cb f   gl_interface.obj
 0001:0003fa1f       ?GL_CullFace@@YAXW4gl_cullMode_t@@@Z 00440a1f f   gl_interface.obj
 0001:0003fa70       ?GL_DepthRange@@YAXW4gl_depthMode_t@@@Z 00440a70 f   gl_interface.obj
 0001:0003faa3       ?GL_State@@YAXI@Z          00440aa3 f   gl_interface.obj
 0001:0003fbfc       ?GL_EnableFog@@YAX_N@Z     00440bfc f   gl_interface.obj
 0001:0003fcf4       ?GL_SetDefaultState@@YAXXZ 00440cf4 f   gl_interface.obj
 0001:0003fe42       ?GL_Set2DMode@@YAXXZ       00440e42 f   gl_interface.obj
 0001:0003ff3d       ?GL_Setup@@YAXPAUviewPortal_s@@@Z 00440f3d f   gl_interface.obj
 0001:00040025       ?GL_ShowLights@@YAXXZ      00441025 f   gl_light.obj
 0001:0004044a       ?GL_LightForEntity@@YAXPAUrefEntity_s@@@Z 0044144a f   gl_light.obj
 0001:000416b1       ?GL_DiffuseLight@@YAXPATcolor_t@@M@Z 004426b1 f   gl_light.obj
 0001:00041829       ?GL_InitLightGrid@@YAXXZ   00442829 f   gl_light.obj
 0001:000418c5       ?GL_PostLoadLights@@YAXXZ  004428c5 f   gl_light.obj
 0001:00041b63       ?LM_Init@@YAXXZ            00442b63 f   gl_lightmap.obj
 0001:00041b79       ?LM_Flush@@YAXPAUlightmapBlock_t@@@Z 00442b79 f   gl_lightmap.obj
 0001:00041bd6       ?LM_Done@@YAXXZ            00442bd6 f   gl_lightmap.obj
 0001:00041bfd       ?LM_Save@@YAXPAUlightmapBlock_t@@@Z 00442bfd f   gl_lightmap.obj
 0001:00041c15       ?LM_Restore@@YAXPAUlightmapBlock_t@@@Z 00442c15 f   gl_lightmap.obj
 0001:00041c2d       ?LM_NewBlock@@YAPAUlightmapBlock_t@@XZ 00442c2d f   gl_lightmap.obj
 0001:00041c99       ?LM_Rewind@@YAXXZ          00442c99 f   gl_lightmap.obj
 0001:00041ca1       ?LM_NextBlock@@YAPAUlightmapBlock_t@@XZ 00442ca1 f   gl_lightmap.obj
 0001:00041cce       ?LM_CheckMinlight@@YAXPAUdynamicLightmap_s@@@Z 00442cce f   gl_lightmap.obj
 0001:00041d64       ?LM_AllocBlock@@YA_NPAUlightmapBlock_t@@PAUdynamicLightmap_s@@@Z 00442d64 f   gl_lightmap.obj
 0001:00041e1b       ?LM_PutBlock@@YAXPAUdynamicLightmap_s@@@Z 00442e1b f   gl_lightmap.obj
 0001:00042248       ?LM_SortLightStyles@@YAXPAUdynamicLightmap_s@@@Z 00443248 f   gl_lightmap.obj
 0001:000422d9       ?GL_UpdateDynamicLightmap@@YAXPAUshader_s@@PAUsurfacePlanar_s@@_NI@Z 004432d9 f   gl_lightmap.obj
 0001:000427d5       ?LM_IsMonotone@@YA_NPAUdynamicLightmap_s@@PATcolor_t@@@Z 004437d5 f   gl_lightmap.obj
 0001:000428dc       ?GL_EnableRendering@@YAX_N@Z 004438dc f   gl_main.obj
 0001:000428f7       ?GL_DrawStretchPic@@YAXPAUshader_s@@HHHHMMMMIE@Z 004438f7 f   gl_main.obj
 0001:000429c3       ?DrawTextLeft@@YAXPBDI@Z   004439c3 f   gl_main.obj
 0001:00042b31       ?DrawTextRight@@YAXPBDI@Z  00443b31 f   gl_main.obj
 0001:00042b7b       ?DrawText3D@@YAXQAMPBDI@Z  00443b7b f   gl_main.obj
 0001:00042ba8       _GL_GetRefAPI              00443ba8 f   gl_main.obj
 0001:000444b4       ?GL_InitFuncTables@@YAXXZ  004454b4 f   gl_math.obj
 0001:00044665       ?ModelToWorldCoord@@YAXQAMPAUrefEntity_s@@0@Z 00445665 f   gl_math.obj
 0001:000446d6       ?WorldToModelCoord@@YAXQAMPAUrefEntity_s@@0@Z 004456d6 f   gl_math.obj
 0001:0004471d       ?BuildRotationMatrix@@YAXQAY02MQAMM@Z 0044571d f   gl_math.obj
 0001:00044817       ?GetBoxRect@@YA_NPAUrefEntity_s@@QAM11_N@Z 00445817 f   gl_math.obj
 0001:00044b88       ?ProjectToScreen@@YA_NQAMPAH@Z 00445b88 f   gl_math.obj
 0001:00044ccb       ?SaturateColor3f@@YAXQAM@Z 00445ccb f   gl_math.obj
 0001:00044dbb       ?SaturateColor4b@@YAXPATcolor_t@@@Z 00445dbb f   gl_math.obj
 0001:00044ec9       ?GL_FindModel@@YAPAUmodel_s@@PBD@Z 00445ec9 f   gl_model.obj
 0001:00045043       ?GL_LoadWorldMap@@YAXPBD@Z 00446043 f   gl_model.obj
 0001:00046bf5       ?GL_PointInLeaf@@YAPAUnode_s@@QAM@Z 00447bf5 f   gl_model.obj
 0001:00047877       ?ATAN2_FUNC@@YAMMM@Z       00448877 f i gl_model.obj
 0001:00047a22       ?GL_FindSkin@@YAPAUshader_s@@PBD@Z 00448a22 f   gl_model.obj
 0001:00047b81       ?GL_ResetModels@@YAXXZ     00448b81 f   gl_model.obj
 0001:00047c4a       ?GL_InitModels@@YAXXZ      00448c4a f   gl_model.obj
 0001:00047d32       ?GL_ShutdownModels@@YAXXZ  00448d32 f   gl_model.obj
 0001:00047d48       ?SubdividePlane@@YAHPAPAY02MHM@Z 00448d48 f   gl_poly.obj
 0001:00048192       ?FreeSubdividedPlane@@YAXXZ 00449192 f   gl_poly.obj
 0001:000481aa       ?GetSubdivideIndexes@@YAXPAH@Z 004491aa f   gl_poly.obj
 0001:000481fd       ?RemoveCollinearPoints@@YAHPAPAY02MH@Z 004491fd f   gl_poly.obj
 0001:000482f8       ?GetPolyArea@@YAMPAPAY02MH@Z 004492f8 f   gl_poly.obj
 0001:0004838c       ?GL_InitShaders@@YAXXZ     0044938c f   gl_shader.obj
 0001:000484dd       ?GL_ShutdownShaders@@YAXXZ 004494dd f   gl_shader.obj
 0001:00048507       ?GetLightmapImage@@YAPAUimage_s@@H@Z 00449507 f   gl_shader.obj
 0001:0004852f       ?GL_SetShaderLightmap@@YAPAUshader_s@@PAU1@H@Z 0044952f f   gl_shader.obj
 0001:00048904       ?GL_SetShaderLightstyles@@YAPAUshader_s@@PAU1@H@Z 00449904 f   gl_shader.obj
 0001:000489a0       ?GL_GetAlphaShader@@YAPAUshader_s@@PAU1@@Z 004499a0 f   gl_shader.obj
 0001:00048c66       ?GL_FindShader@@YAPAUshader_s@@PBDH@Z 00449c66 f   gl_shader.obj
 0001:00049284       ?GL_GetShaderByNum@@YAPAUshader_s@@H@Z 0044a284 f   gl_shader.obj
 0001:000492a2       ?GL_ResetShaders@@YAXXZ    0044a2a2 f   gl_shader.obj
 0001:00049768       ?GL_ClearSkyBox@@YAXXZ     0044a768 f   gl_sky.obj
 0001:0004977f       ?GL_SetSkyRotate@@YAXMQAM@Z 0044a77f f   gl_sky.obj
 0001:000497b7       ?GL_SkyVisible@@YA_NXZ     0044a7b7 f   gl_sky.obj
 0001:000497d0       ?GL_AddSkySurface@@YAXPAUsurfacePlanar_s@@QAME@Z 0044a7d0 f   gl_sky.obj
 0001:00049ddf       ?GL_TesselateSkySide@@YAHHPAUbufVertex_t@@PAUbufTexCoord_t@@M@Z 0044addf f   gl_sky.obj
 0001:0004b6fa       ?QGL_Shutdown@@YAXXZ       0044c6fa f   qgl_win.obj
 0001:0004b738       ?QGL_Init@@YA_NPBD@Z       0044c738 f   qgl_win.obj
 0001:0004b7bb       ?QGL_InitExtensions@@YAXXZ 0044c7bb f   qgl_win.obj
 0001:0004bca7       ?QGL_PrintExtensionsString@@YAXPBD00@Z 0044cca7 f   qgl_win.obj
 0001:0004bdf7       ?QGL_EnableLogging@@YAX_N@Z 0044cdf7 f   qgl_win.obj
 0001:0004beae       ?QGL_LogMessage@@YAXPBD@Z  0044ceae f   qgl_win.obj
 0001:0004bec5       ?GLimp_SetMode@@YA?AW4rserr_t@@PAI0H_N@Z 0044cec5 f   glw_imp.obj
 0001:0004c158       ?GLimp_HasGamma@@YA_NXZ    0044d158 f   glw_imp.obj
 0001:0004c16c       ?GLimp_SetGamma@@YAXM@Z    0044d16c f   glw_imp.obj
 0001:0004c314       ?GLimp_Init@@YAHXZ         0044d314 f   glw_imp.obj
 0001:0004c65c       ?GLimp_Shutdown@@YAXXZ     0044d65c f   glw_imp.obj
 0001:0004c704       ?GLimp_EndFrame@@YAXXZ     0044d704 f   glw_imp.obj
 0001:0004c785       ?GLimp_AppActivate@@YAX_N@Z 0044d785 f   glw_imp.obj
 0001:0004c7f5       ?R_Alias_clip_z@@YAXPAUfinalvert_s@@00@Z 0044d7f5 f   r_aclip.obj
 0001:0004c8b7       ?R_Alias_clip_left@@YAXPAUfinalvert_s@@00@Z 0044d8b7 f   r_aclip.obj
 0001:0004cac3       ?R_Alias_clip_right@@YAXPAUfinalvert_s@@00@Z 0044dac3 f   r_aclip.obj
 0001:0004cccf       ?R_Alias_clip_top@@YAXPAUfinalvert_s@@00@Z 0044dccf f   r_aclip.obj
 0001:0004cee3       ?R_Alias_clip_bottom@@YAXPAUfinalvert_s@@00@Z 0044dee3 f   r_aclip.obj
 0001:0004d0f7       ?R_AliasClip@@YAHPAUfinalvert_s@@0HHP6AX000@Z@Z 0044e0f7 f   r_aclip.obj
 0001:0004d1c7       ?R_AliasClipTriangle@@YAXPAUfinalvert_s@@00@Z 0044e1c7 f   r_aclip.obj
 0001:0004d3b9       ?R_AliasCheckFrameBBox@@YAKPAUdAliasFrame_t@@QAY03M@Z 0044e3b9 f   r_alias.obj
 0001:0004d4e8       ?R_AliasCheckBBox@@YAHXZ   0044e4e8 f   r_alias.obj
 0001:0004d54c       ?R_AliasTransformVector@@YAXQAM0QAY03M@Z 0044e54c f   r_alias.obj
 0001:0004d5a8       ?R_AliasPreparePoints@@YAXXZ 0044e5a8 f   r_alias.obj
 0001:0004d840       ?R_AliasSetUpTransform@@YAXXZ 0044e840 f   r_alias.obj
 0001:0004dafc       ?R_AliasTransformFinalVerts@@YAXHPAUfinalvert_s@@PAUdTriVertx_t@@1@Z 0044eafc f   r_alias.obj
 0001:0004dccb       ?R_AliasProjectAndClipTestFinalVert@@YAXPAUfinalvert_s@@@Z 0044eccb f   r_alias.obj
 0001:0004dd7a       ?R_AliasSetupLighting@@YAXXZ 0044ed7a f   r_alias.obj
 0001:0004dee4       ?R_AliasSetupFrames@@YAXPAUdmdl_t@@@Z 0044eee4 f   r_alias.obj
 0001:0004df58       ?R_AliasSetUpLerpData@@YAXPAUdmdl_t@@M@Z 0044ef58 f   r_alias.obj
 0001:0004e080       ?R_AliasDrawModel@@YAXXZ   0044f080 f   r_alias.obj
 0001:0004e315       ?R_EntityRotate@@YAXQAM@Z  0044f315 f   r_bsp.obj
 0001:0004e391       ?R_RotateBmodel@@YAXXZ     0044f391 f   r_bsp.obj
 0001:0004e4ec       ?R_RecursiveClipBPoly@@YAXPAUbedge_s@@PAUmnode_s@@PAUmsurface_s@@@Z 0044f4ec f   r_bsp.obj
 0001:0004e81c       ?R_DrawSolidClippedSubmodelPolygons@@YAXPAUmodel_s@@PAUmnode_s@@@Z 0044f81c f   r_bsp.obj
 0001:0004e9a3       ?R_DrawSubmodelPolygons@@YAXPAUmodel_s@@HPAUmnode_s@@@Z 0044f9a3 f   r_bsp.obj
 0001:0004ea33       ?R_RecursiveWorldNode@@YAXPAUmnode_s@@H@Z 0044fa33 f   r_bsp.obj
 0001:0004ec65       ?R_RenderWorld@@YAXXZ      0044fc65 f   r_bsp.obj
 0001:0004ecd5       ?Draw_FindPic@@YAPAUimage_s@@PBD@Z 0044fcd5 f   r_draw.obj
 0001:0004ed71       ?Draw_InitLocal@@YAXXZ     0044fd71 f   r_draw.obj
 0001:0004ed82       ?Draw_Char@@YAXHHH@Z       0044fd82 f   r_draw.obj
 0001:0004eecd       ?Draw_CharColor@@YAXHHHH@Z 0044fecd f   r_draw.obj
 0001:0004f044       ?DrawText@@YAXHHPADH@Z     00450044 f   r_draw.obj
 0001:0004f07a       ?R_DrawTexts@@YAXXZ        0045007a f   r_draw.obj
 0001:0004f10a       ?DrawText_Pos@@YAXHHPBDI@Z 0045010a f   r_draw.obj
 0001:0004f1e2       ?DrawText_Left@@YAXPBDI@Z  004501e2 f   r_draw.obj
 0001:0004f20a       ?DrawText_Right@@YAXPBDI@Z 0045020a f   r_draw.obj
 0001:0004f246       ?Draw_GetPicSize@@YAXPAH0PBD@Z 00450246 f   r_draw.obj
 0001:0004f286       ?Draw_StretchPicImplementation@@YAXHHHHPAUimage_s@@@Z 00450286 f   r_draw.obj
 0001:0004f3b1       ?Draw_StretchPic@@YAXHHHHPBD@Z 004503b1 f   r_draw.obj
 0001:0004f445       ?Draw_StretchRaw8@@YAXHHHHHHPAE@Z 00450445 f   r_draw.obj
 0001:0004f4bf       ?Draw_Pic@@YAXHHPBD@Z      004504bf f   r_draw.obj
 0001:0004f6f4       ?Draw_PicColor@@YAXHHPBDH@Z 004506f4 f   r_draw.obj
 0001:0004f8c1       ?Draw_TileClear@@YAXHHHHPBD@Z 004508c1 f   r_draw.obj
 0001:0004f9e0       ?Draw_Fill@@YAXHHHHH@Z     004509e0 f   r_draw.obj
 0001:0004fac6       ?Draw_Fade@@YAXHHHHH@Z     00450ac6 f   r_draw.obj
 0001:0004fb87       ?R_BeginEdgeFrame@@YAXXZ   00450b87 f   r_edge.obj
 0001:0004fc43       ?R_InsertNewEdges@@YAXPAUedge_s@@0@Z 00450c43 f   r_edge.obj
 0001:0004fc89       ?R_RemoveEdges@@YAXPAUedge_s@@@Z 00450c89 f   r_edge.obj
 0001:0004fca7       ?R_StepActiveU@@YAXPAUedge_s@@@Z 00450ca7 f   r_edge.obj
 0001:0004fd3b       ?R_CleanupSpan@@YAXXZ      00450d3b f   r_edge.obj
 0001:0004fd8b       ?R_LeadingEdgeBackwards@@YAXPAUedge_s@@@Z 00450d8b f   r_edge.obj
 0001:0004fe20       ?R_TrailingEdge@@YAXPAUsurf_s@@PAUedge_s@@@Z 00450e20 f   r_edge.obj
 0001:0004fe84       ?R_LeadingEdge@@YAXPAUedge_s@@@Z 00450e84 f   r_edge.obj
 0001:00050027       ?R_GenerateSpans@@YAXXZ    00451027 f   r_edge.obj
 0001:00050095       ?R_GenerateSpansBackward@@YAXXZ 00451095 f   r_edge.obj
 0001:00050103       ?R_ScanEdges@@YAXXZ        00451103 f   r_edge.obj
 0001:000502da       ?D_MipLevelForScale@@YAHM@Z 004512da f   r_edge.obj
 0001:00050323       ?D_FlatFillSurface@@YAXPAUsurf_s@@H@Z 00451323 f   r_edge.obj
 0001:0005037d       ?D_CalcGradients@@YAXPAUmsurface_s@@@Z 0045137d f   r_edge.obj
 0001:000505dd       ?D_BackgroundSurf@@YAXPAUsurf_s@@@Z 004515dd f   r_edge.obj
 0001:0005061d       ?D_TurbulentSurf@@YAXPAUsurf_s@@@Z 0045161d f   r_edge.obj
 0001:0005072c       ?D_SkySurf@@YAXPAUsurf_s@@@Z 0045172c f   r_edge.obj
 0001:000507ad       ?D_SolidSurf@@YAXPAUsurf_s@@@Z 004517ad f   r_edge.obj
 0001:000508d2       ?D_DrawflatSurfaces@@YAXXZ 004518d2 f   r_edge.obj
 0001:00050922       ?D_DrawSurfaces@@YAXXZ     00451922 f   r_edge.obj
 0001:00050a1b       ?R_ImageList_f@@YAXXZ      00451a1b f   r_image.obj
 0001:00050adc       ?R_FindFreeImage@@YAPAUimage_s@@XZ 00451adc f   r_image.obj
 0001:00050b20       ?R_LoadPic@@YAPAUimage_s@@PADPAEHHW4imagetype_t@@@Z 00451b20 f   r_image.obj
 0001:00050ba8       ?R_LoadTex@@YAPAUimage_s@@PADPAEHH@Z 00451ba8 f   r_image.obj
 0001:00050c3d       ?R_LoadWal@@YAPAUimage_s@@PAD@Z 00451c3d f   r_image.obj
 0001:00050c89       ?R_MipMap@@YAXPAE0HH@Z     00451c89 f   r_image.obj
 0001:00050db7       ?R_DownsampleImage@@YAXPAPAEHH_N@Z 00451db7 f   r_image.obj
 0001:00050eaf       ?R_FindImage@@YAPAUimage_s@@PBDW4imagetype_t@@@Z 00451eaf f   r_image.obj
 0001:0005125c       ?R_FreeUnusedImages@@YAXXZ 0045225c f   r_image.obj
 0001:000512b9       ?R_InitImages@@YAXXZ       004522b9 f   r_image.obj
 0001:0005131b       ?R_ShutdownImages@@YAXXZ   0045231b f   r_image.obj
 0001:00051355       ?R_MarkLights@@YAXPAUdlight_t@@HPAUmnode_s@@@Z 00452355 f   r_light.obj
 0001:0005140f       ?R_PushDlights@@YAXPAUmodel_s@@@Z 0045240f f   r_light.obj
 0001:0005146d       ?R_LightPoint@@YAXQAM0@Z   0045246d f   r_light.obj
 0001:00051838       ?R_AddDynamicLights@@YAXXZ 00452838 f   r_light.obj
 0001:00051ac8       ?R_BuildLightMap@@YAXXZ    00452ac8 f   r_light.obj
 0001:00051bbe       ?R_InitTextures@@YAXXZ     00452bbe f   r_main.obj
 0001:00051c7f       ?R_InitTurb@@YAXXZ         00452c7f f   r_main.obj
 0001:00051cfc       ?R_Register@@YAXXZ         00452cfc f   r_main.obj
 0001:00051d65       ?R_UnRegister@@YAXXZ       00452d65 f   r_main.obj
 0001:00051d7d       ?R_Init@@YAHXZ             00452d7d f   r_main.obj
 0001:00051e63       ?R_Shutdown@@YAXXZ         00452e63 f   r_main.obj
 0001:00051f12       ?R_NewMap@@YAXXZ           00452f12 f   r_main.obj
 0001:00051fb9       ?R_MarkLeaves@@YAXXZ       00452fb9 f   r_main.obj
 0001:000520e0       ?R_DrawEntitiesOnList@@YAXXZ 004530e0 f   r_main.obj
 0001:00052295       ?R_BmodelCheckBBox@@YAHPAM@Z 00453295 f   r_main.obj
 0001:00052347       ?R_FindTopnode@@YAPAUmnode_s@@QAM0@Z 00453347 f   r_main.obj
 0001:0005239c       ?RotatedBBox@@YAXQAM0000@Z 0045339c f   r_main.obj
 0001:000524fe       ?R_DrawBEntitiesOnList@@YAXXZ 004534fe f   r_main.obj
 0001:000526fc       ?R_EdgeDrawing@@YAXXZ      004536fc f   r_main.obj
 0001:000527db       ?R_CalcPalette@@YAXXZ      004537db f   r_main.obj
 0001:000528dd       ?R_SetLightLevel@@YAXXZ    004538dd f   r_main.obj
 0001:0005292d       ?R_RenderFrame@@YAXPAUrefdef_t@@@Z 0045392d f   r_main.obj
 0001:00052b54       ?R_InitGraphics@@YAXHH@Z   00453b54 f   r_main.obj
 0001:00052bca       ?R_BeginFrame@@YAXM@Z      00453bca f   r_main.obj
 0001:00052d64       ?R_GammaCorrectAndSetPalette@@YAXPBE@Z 00453d64 f   r_main.obj
 0001:00052dc3       ?R_CinematicSetPalette@@YAXPBE@Z 00453dc3 f   r_main.obj
 0001:00052e58       ?Draw_BuildGammaTable@@YAXXZ 00453e58 f   r_main.obj
 0001:00052f69       ?R_DrawBeam@@YAXPAUbeam_s@@@Z 00453f69 f   r_main.obj
 0001:000530be       ?Draw_GetPalette@@YAXXZ    004540be f   r_main.obj
 0001:000531ff       ?Draw_ConCharColor@@YAXHHHH@Z 004541ff f   r_main.obj
 0001:00053220       _GetRefAPI                 00454220 f   r_main.obj
 0001:000534f5       ?D_ViewChanged@@YAXXZ      004544f5 f   r_misc.obj
 0001:00053675       ?R_PrintTimes@@YAXXZ       00454675 f   r_misc.obj
 0001:000536dd       ?R_PrintDSpeeds@@YAXXZ     004546dd f   r_misc.obj
 0001:00053792       ?R_PrintAliasStats@@YAXXZ  00454792 f   r_misc.obj
 0001:000537a5       ?R_TransformFrustum@@YAXXZ 004547a5 f   r_misc.obj
 0001:00053863       ?TransformVector@@YAXQAM0@Z 00454863 f   r_misc.obj
 0001:000538ce       ?R_SetUpFrustumIndexes@@YAXXZ 004548ce f   r_misc.obj
 0001:00053933       ?R_ViewChanged@@YAXPAUvrect_s@@@Z 00454933 f   r_misc.obj
 0001:00053c7c       ?R_SetupFrame@@YAXXZ       00454c7c f   r_misc.obj
 0001:00053e57       ?WritePCXfile@@YAXPADPAEHHH1@Z 00454e57 f   r_misc.obj
 0001:00053f71       ?R_ScreenShot@@YAXXZ       00454f71 f   r_misc.obj
 0001:00054080       ?Mod_Modellist_f@@YAXXZ    00455080 f   r_model.obj
 0001:000540de       ?Mod_Init@@YAXXZ           004550de f   r_model.obj
 0001:000540f0       ?Mod_ForName@@YAPAUmodel_s@@PBD_N@Z 004550f0 f   r_model.obj
 0001:000542f0       ?Mod_PointInLeaf@@YAPAUmleaf_s@@PAMPAUmodel_s@@@Z 004552f0 f   r_model.obj
 0001:00054347       ?Mod_DecompressVis@@YAPAEPAEPAUmodel_s@@@Z 00455347 f   r_model.obj
 0001:000543c7       ?Mod_ClusterPVS@@YAPAEHPAUmodel_s@@@Z 004553c7 f   r_model.obj
 0001:000543f4       ?Mod_LoadLighting@@YAXPAEH@Z 004553f4 f   r_model.obj
 0001:00054473       ?R_NumberLeafs@@YAXPAUmnode_s@@@Z 00455473 f   r_model.obj
 0001:000544c1       ?Mod_LoadVisibility@@YAXPAUdvis_t@@H@Z 004554c1 f   r_model.obj
 0001:000544e6       ?Mod_LoadVertexes@@YAXPAUdvertex_t@@H@Z 004554e6 f   r_model.obj
 0001:00054530       ?Mod_LoadSubmodels@@YAXPAUcmodel_t@@H@Z 00455530 f   r_model.obj
 0001:00054550       ?Mod_LoadEdges@@YAXPAUdedge_t@@H@Z 00455550 f   r_model.obj
 0001:0005459e       ?Mod_LoadTexinfo@@YAXPAUtexinfo_s@@H@Z 0045559e f   r_model.obj
 0001:00054706       ?CalcSurfaceExtents@@YAXPAUmsurface_s@@@Z 00455706 f   r_model.obj
 0001:00054881       ?Mod_LoadFaces@@YAXPAUdface_t@@H@Z 00455881 f   r_model.obj
 0001:000549ee       ?Mod_SetParent@@YAXPAUmnode_s@@0@Z 004559ee f   r_model.obj
 0001:00054a13       ?Mod_LoadNodes@@YAXPAUdnode_t@@H@Z 00455a13 f   r_model.obj
 0001:00054b09       ?Mod_LoadLeafs@@YAXPAUdleaf_t@@H@Z 00455b09 f   r_model.obj
 0001:00054bb2       ?Mod_LoadMarksurfaces@@YAXPAGH@Z 00455bb2 f   r_model.obj
 0001:00054c23       ?Mod_LoadSurfedges@@YAXPAHH@Z 00455c23 f   r_model.obj
 0001:00054c5c       ?Mod_LoadPlanes@@YAXPAUdplane_t@@H@Z 00455c5c f   r_model.obj
 0001:00054ccb       ?Mod_LoadBrushModel@@YAXPAUmodel_s@@PAUbspfile_t@@@Z 00455ccb f   r_model.obj
 0001:00054e73       ?Mod_LoadAliasModel@@YAXPAUmodel_s@@PAX@Z 00455e73 f   r_model.obj
 0001:000550c0       ?Mod_LoadSpriteModel@@YAXPAUmodel_s@@PAX@Z 004560c0 f   r_model.obj
 0001:0005519d       ?R_BeginRegistration@@YAXPBD@Z 0045619d f   r_model.obj
 0001:00055217       ?R_RegisterModel@@YAPAUmodel_s@@PBD@Z 00456217 f   r_model.obj
 0001:0005530f       ?R_EndRegistration@@YAXXZ  0045630f f   r_model.obj
 0001:00055373       ?Mod_Free@@YAXPAUmodel_s@@@Z 00456373 f   r_model.obj
 0001:0005538d       ?Mod_FreeAll@@YAXXZ        0045638d f   r_model.obj
 0001:000553c0       ?R_DrawParticle@@YAXXZ     004563c0 f   r_part.obj
 0001:0005565a       ?R_DrawParticles@@YAXXZ    0045665a f   r_part.obj
 0001:00055702       ?R_DrawSpanletOpaque@@YAXXZ 00456702 f   r_poly.obj
 0001:00055792       ?R_DrawSpanletTurbulentStipple33@@YAXXZ 00456792 f   r_poly.obj
 0001:000558bd       ?R_DrawSpanletTurbulentStipple66@@YAXXZ 004568bd f   r_poly.obj
 0001:00055a9e       ?R_DrawSpanletTurbulentBlended66@@YAXXZ 00456a9e f   r_poly.obj
 0001:00055b53       ?R_DrawSpanletTurbulentBlended33@@YAXXZ 00456b53 f   r_poly.obj
 0001:00055c08       ?R_DrawSpanlet33@@YAXXZ    00456c08 f   r_poly.obj
 0001:00055ca2       ?R_DrawSpanletConstant33@@YAXXZ 00456ca2 f   r_poly.obj
 0001:00055cfb       ?R_DrawSpanlet66@@YAXXZ    00456cfb f   r_poly.obj
 0001:00055d99       ?R_DrawSpanlet33Stipple@@YAXXZ 00456d99 f   r_poly.obj
 0001:00055eb4       ?R_DrawSpanlet66Stipple@@YAXXZ 00456eb4 f   r_poly.obj
 0001:00056045       ?R_ClipPolyFace@@YAHHPAUclipplane_s@@@Z 00457045 f   r_poly.obj
 0001:000561b0       ?R_PolygonDrawSpans@@YAXPAUespan_s@@H@Z 004571b0 f   r_poly.obj
 0001:000565af       ?R_PolygonScanLeftEdge@@YAXXZ 004575af f   r_poly.obj
 0001:00056713       ?R_PolygonScanRightEdge@@YAXXZ 00457713 f   r_poly.obj
 0001:0005691d       ?R_ClipAndDrawPoly@@YAXMH_N@Z 0045791d f   r_poly.obj
 0001:00056b1b       ?R_BuildPolygonFromSurface@@YAXPAUmsurface_s@@@Z 00457b1b f   r_poly.obj
 0001:00056d11       ?R_PolygonCalculateGradients@@YAXXZ 00457d11 f   r_poly.obj
 0001:00056fdd       ?R_DrawAlphaSurfaces@@YAXXZ 00457fdd f   r_poly.obj
 0001:00057073       ?R_IMFlatShadedQuad@@YAXQAM000HM@Z 00458073 f   r_poly.obj
 0001:000571a1       ?R_InitAdivtab@@YAXXZ      004581a1 f   r_polyse.obj
 0001:0005720d       ?R_PolysetUpdateTables@@YAXXZ 0045820d f   r_polyse.obj
 0001:00057248       ?R_DrawTriangle@@YAXXZ     00458248 f   r_polyse.obj
 0001:00057359       ?R_PolysetScanLeftEdge_C@@YAXH@Z 00458359 f   r_polyse.obj
 0001:00057523       ?FloorDivMod@@YAXMMPAH0@Z  00458523 f   r_polyse.obj
 0001:000575bd       ?R_PolysetSetUpForLineScan@@YAXHHHH@Z 004585bd f   r_polyse.obj
 0001:0005764b       ?R_PolysetCalcGradients@@YAXH@Z 0045864b f   r_polyse.obj
 0001:000578be       ?R_PolysetDrawSpans8_33@@YAXPAUspanpackage_s@@@Z 004588be f   r_polyse.obj
 0001:000579ee       ?R_PolysetDrawSpansConstant8_33@@YAXPAUspanpackage_s@@@Z 004589ee f   r_polyse.obj
 0001:00057a88       ?R_PolysetDrawSpans8_66@@YAXPAUspanpackage_s@@@Z 00458a88 f   r_polyse.obj
 0001:00057bc4       ?R_PolysetDrawSpansConstant8_66@@YAXPAUspanpackage_s@@@Z 00458bc4 f   r_polyse.obj
 0001:00057c6c       ?R_PolysetDrawSpans8_Opaque@@YAXPAUspanpackage_s@@@Z 00458c6c f   r_polyse.obj
 0001:00057db7       ?R_RasterizeAliasPolySmooth@@YAXXZ 00458db7 f   r_polyse.obj
 0001:00058397       ?R_PolysetSetEdgeTable@@YAXXZ 00459397 f   r_polyse.obj
 0001:00058432       ?R_InitSkyBox@@YAXXZ       00459432 f   r_rast.obj
 0001:0005869c       ?R_EmitSkyBox@@YAXXZ       0045969c f   r_rast.obj
 0001:000587b1       ?R_EmitEdge@@YAXPAUmvertex_t@@0@Z 004597b1 f   r_rast.obj
 0001:00058b85       ?R_ClipEdge@@YAXPAUmvertex_t@@0PAUclipplane_s@@@Z 00459b85 f   r_rast.obj
 0001:00058d27       ?R_EmitCachedEdge@@YAXXZ   00459d27 f   r_rast.obj
 0001:00058d7e       ?R_RenderFace@@YAXPAUmsurface_s@@H@Z 00459d7e f   r_rast.obj
 0001:00059145       ?R_RenderBmodelFace@@YAXPAUbedge_s@@PAUmsurface_s@@@Z 0045a145 f   r_rast.obj
 0001:000593a2       ?D_WarpScreen@@YAXXZ       0045a3a2 f   r_scan.obj
 0001:00059564       ?D_DrawTurbulent8Span@@YAXXZ 0045a564 f   r_scan.obj
 0001:000595e8       ?Turbulent8@@YAXPAUespan_s@@@Z 0045a5e8 f   r_scan.obj
 0001:00059944       ?NonTurbulent8@@YAXPAUespan_s@@@Z 0045a944 f   r_scan.obj
 0001:00059c7e       ?D_DrawSpans16@@YAXPAUespan_s@@@Z 0045ac7e f   r_scan.obj
 0001:00059f9b       ?D_DrawZSpans@@YAXPAUespan_s@@@Z 0045af9b f   r_scan.obj
 0001:0005a06b       ?R_DrawSprite@@YAXXZ       0045b06b f   r_sprite.obj
 0001:0005a2f5       ?R_TextureAnimation@@YAPAUimage_s@@PAUmtexinfo_s@@@Z 0045b2f5 f   r_surf.obj
 0001:0005a319       ?R_DrawSurface@@YAXXZ      0045b319 f   r_surf.obj
 0001:0005a47e       ?R_DrawSurfaceBlock8_mip0@@YAXXZ 0045b47e f   r_surf.obj
 0001:0005a57d       ?R_DrawSurfaceBlock8_mip1@@YAXXZ 0045b57d f   r_surf.obj
 0001:0005a67c       ?R_DrawSurfaceBlock8_mip2@@YAXXZ 0045b67c f   r_surf.obj
 0001:0005a77b       ?R_DrawSurfaceBlock8_mip3@@YAXXZ 0045b77b f   r_surf.obj
 0001:0005a877       ?R_InitCaches@@YAXXZ       0045b877 f   r_surf.obj
 0001:0005a8f8       ?D_FlushCaches@@YAXXZ      0045b8f8 f   r_surf.obj
 0001:0005a93d       ?D_SCAlloc@@YAPAUsurfcache_s@@HH@Z 0045b93d f   r_surf.obj
 0001:0005aab7       ?D_CacheSurface@@YAPAUsurfcache_s@@PAUmsurface_s@@H@Z 0045bab7 f   r_surf.obj
 0001:0005ac29       ?DDRAW_Init@@YA_NPAPAEPAH@Z 0045bc29 f   rw_ddraw.obj
 0001:0005b048       ?DDRAW_SetPalette@@YAXPBE@Z 0045c048 f   rw_ddraw.obj
 0001:0005b0b1       ?DDRAW_Shutdown@@YAXXZ     0045c0b1 f   rw_ddraw.obj
 0001:0005b1f5       ?DIB_Init@@YA_NPAPAEPAH@Z  0045c1f5 f   rw_dib.obj
 0001:0005b3ed       ?DIB_SetPalette@@YAXPBE@Z  0045c3ed f   rw_dib.obj
 0001:0005b602       ?DIB_Shutdown@@YAXXZ       0045c602 f   rw_dib.obj
 0001:0005b6fb       ?SWimp_Init@@YAHXZ         0045c6fb f   rw_imp.obj
 0001:0005b6ff       ?SWimp_EndFrame@@YAXXZ     0045c6ff f   rw_imp.obj
 0001:0005b860       ?SWimp_SetMode@@YA?AW4rserr_t@@PAH0H_N@Z 0045c860 f   rw_imp.obj
 0001:0005b994       ?SWimp_SetPalette@@YAXPBE@Z 0045c994 f   rw_imp.obj
 0001:0005b9b9       ?SWimp_Shutdown@@YAXXZ     0045c9b9 f   rw_imp.obj
 0001:0005ba00       ?SWimp_AppActivate@@YAX_N@Z 0045ca00 f   rw_imp.obj
 0001:0005bab0       _jpeg_CreateDecompress     0045cab0 f   lib:jdapimin.obj
 0001:0005bb70       _jpeg_read_header          0045cb70 f   lib:jdapimin.obj
 0001:0005bbd2       _jpeg_consume_input        0045cbd2 f   lib:jdapimin.obj
 0001:0005be21       _jpeg_finish_decompress    0045ce21 f   lib:jdapimin.obj
 0001:0005beb8       _jpeg_start_decompress     0045ceb8 f   lib:jdapistd.obj
 0001:0005c025       _jpeg_read_scanlines       0045d025 f   lib:jdapistd.obj
 0001:0005c0a9       _jpeg_resync_to_restart    0045d0a9 f   lib:jdmarker.obj
 0001:0005c26e       _jinit_marker_reader       0045d26e f   lib:jdmarker.obj
 0001:0005d739       _jpeg_CreateCompress       0045e739 f   lib:jcapimin.obj
 0001:0005d7ed       _jpeg_destroy_compress     0045e7ed f   lib:jcapimin.obj
 0001:0005d7ed       _jpeg_destroy_decompress   0045e7ed f   lib:jcapimin.obj
 0001:0005d7f8       _jpeg_suppress_tables      0045e7f8 f   lib:jcapimin.obj
 0001:0005d842       _jpeg_finish_compress      0045e842 f   lib:jcapimin.obj
 0001:0005d92c       _jpeg_start_compress       0045e92c f   lib:jcapistd.obj
 0001:0005d998       _jpeg_write_scanlines      0045e998 f   lib:jcapistd.obj
 0001:0005da43       _jpeg_add_quant_table      0045ea43 f   lib:jcparam.obj
 0001:0005daf5       _jpeg_quality_scaling      0045eaf5 f   lib:jcparam.obj
 0001:0005db1c       _jpeg_set_quality          0045eb1c f   lib:jcparam.obj
 0001:0005db56       _jpeg_set_defaults         0045eb56 f   lib:jcparam.obj
 0001:0005dd1c       _jpeg_default_colorspace   0045ed1c f   lib:jcparam.obj
 0001:0005dd6c       _jpeg_set_colorspace       0045ed6c f   lib:jcparam.obj
 0001:0005e087       _jpeg_stdio_dest           0045f087 f   lib:jdatadst.obj
 0001:0005e286       _crc32                     0045f286 f   lib:crc32.obj
 0001:0005e520       _inflateReset              0045f520 f   lib:inflate.obj
 0001:0005e567       _inflateInit2_             0045f567 f   lib:inflate.obj
 0001:0005e620       _inflate                   0045f620 f   lib:inflate.obj
 0001:0005f8ef       _inflateEnd                004608ef f   lib:inflate.obj
 0001:0005f92d       _jinit_input_controller    0046092d f   lib:jdinput.obj
 0001:0005fe10       _jinit_memory_mgr          00460e10 f   lib:jmemmgr.obj
 0001:0006094c       _jpeg_abort                0046194c f   lib:jcomapi.obj
 0001:0006097f       _jpeg_destroy              0046197f f   lib:jcomapi.obj
 0001:0006099a       _jpeg_alloc_quant_table    0046199a f   lib:jcomapi.obj
 0001:000609b6       _jpeg_alloc_huff_table     004619b6 f   lib:jcomapi.obj
 0001:000609d2       _jpeg_calc_output_dimensions 004619d2 f   lib:jdmaster.obj
 0001:00060ad2       _jinit_master_decompress   00461ad2 f   lib:jdmaster.obj
 0001:00060e28       _jdiv_round_up             00461e28 f   lib:jutils.obj
 0001:00060e38       _jround_up                 00461e38 f   lib:jutils.obj
 0001:00060e50       _jcopy_sample_rows         00461e50 f   lib:jutils.obj
 0001:00060e8e       _jcopy_block_row           00461e8e f   lib:jutils.obj
 0001:00060ea7       _jzero_far                 00461ea7 f   lib:jutils.obj
 0001:00060eba       _jinit_marker_writer       00461eba f   lib:jcmarker.obj
 0001:00061796       _jinit_compress_master     00462796 f   lib:jcinit.obj
 0001:000617ef       _zcalloc                   004627ef f   lib:zutil.obj
 0001:00061801       _zcfree                    00462801 f   lib:zutil.obj
 0001:00061801       _jpeg_free_small           00462801 f   lib:zutil.obj
 0001:00061801       _jpeg_free_large           00462801 f   lib:zutil.obj
 0001:0006180d       _inflate_fast              0046280d f   lib:inffast.obj
 0001:00061bc2       _inflate_table             00462bc2 f   lib:inftrees.obj
 0001:00061f4b       _adler32                   00462f4b f   lib:adler32.obj
 0001:00062064       _jinit_c_codec             00463064 f   lib:jcodec.obj
 0001:00062080       _jinit_d_codec             00463080 f   lib:jcodec.obj
 0001:0006209c       _jpeg_get_small            0046309c f   lib:jmemnobs.obj
 0001:0006209c       _jpeg_get_large            0046309c f   lib:jmemnobs.obj
 0001:000620a8       _jpeg_mem_available        004630a8 f   lib:jmemnobs.obj
 0001:000620ad       _jpeg_open_backing_store   004630ad f   lib:jmemnobs.obj
 0001:000620c1       _jinit_d_main_controller   004630c1 f   lib:jdmainct.obj
 0001:0006270c       _jinit_d_post_controller   0046370c f   lib:jdpostct.obj
 0001:000629b7       _jinit_upsampler           004639b7 f   lib:jdsample.obj
 0001:00062ff5       _jinit_color_deconverter   00463ff5 f   lib:jdcolor.obj
 0001:0006350b       _jinit_merged_upsampler    0046450b f   lib:jdmerge.obj
 0001:00063a5b       _jinit_2pass_quantizer     00464a5b f   lib:jquant2.obj
 0001:00064b1e       _jinit_1pass_quantizer     00465b1e f   lib:jquant1.obj
 0001:00065544       _jinit_c_main_controller   00466544 f   lib:jcmainct.obj
 0001:000656b1       _jinit_c_prep_controller   004666b1 f   lib:jcprepct.obj
 0001:00065bfc       _jinit_downsampler         00466bfc f   lib:jcsample.obj
 0001:0006647c       _jinit_color_converter     0046747c f   lib:jccolor.obj
 0001:00066a66       _jinit_c_master_control    00467a66 f   lib:jcmaster.obj
 0001:00067555       _jinit_lossy_c_codec       00468555 f   lib:jclossy.obj
 0001:000675f0       _jinit_lossless_c_codec    004685f0 f   lib:jclossls.obj
 0001:00067688       _jinit_lossy_d_codec       00468688 f   lib:jdlossy.obj
 0001:0006795b       _jinit_lossless_d_codec    0046895b f   lib:jdlossls.obj
 0001:00067a0b       _jinit_c_coef_controller   00468a0b f   lib:jccoefct.obj
 0001:000680ec       _jinit_shuff_encoder       004690ec f   lib:jcshuff.obj
 0001:00068957       _jinit_phuff_encoder       00469957 f   lib:jcphuff.obj
 0001:000693fc       _jinit_forward_dct         0046a3fc f   lib:jcdctmgr.obj
 0001:000696cb       _jinit_c_diff_controller   0046a6cb f   lib:jcdiffct.obj
 0001:00069bef       _jinit_lhuff_encoder       0046abef f   lib:jclhuff.obj
 0001:0006a319       _jinit_differencer         0046b319 f   lib:jcpred.obj
 0001:0006a833       _jinit_c_scaler            0046b833 f   lib:jcscale.obj
 0001:0006a8a9       _jinit_d_coef_controller   0046b8a9 f   lib:jdcoefct.obj
 0001:0006b582       _jinit_shuff_decoder       0046c582 f   lib:jdshuff.obj
 0001:0006bb17       _jinit_phuff_decoder       0046cb17 f   lib:jdphuff.obj
 0001:0006c6b4       _jinit_inverse_dct         0046d6b4 f   lib:jddctmgr.obj
 0001:0006c898       _jinit_d_diff_controller   0046d898 f   lib:jddiffct.obj
 0001:0006cdc6       _jinit_d_scaler            0046ddc6 f   lib:jdscale.obj
 0001:0006cec5       _jinit_undifferencer       0046dec5 f   lib:jdpred.obj
 0001:0006d27f       _jinit_lhuff_decoder       0046e27f f   lib:jdlhuff.obj
 0001:0006d674       _jpeg_make_c_derived_tbl   0046e674 f   lib:jchuff.obj
 0001:0006d876       _jpeg_gen_optimal_table    0046e876 f   lib:jchuff.obj
 0001:0006da35       _jpeg_fdct_float           0046ea35 f   lib:jfdctflt.obj
 0001:0006dc3a       _jpeg_make_d_derived_tbl   0046ec3a f   lib:jdhuff.obj
 0001:0006ded7       _jpeg_fill_bit_buffer      0046eed7 f   lib:jdhuff.obj
 0001:0006dfe6       _jpeg_huff_decode          0046efe6 f   lib:jdhuff.obj
 0001:0006e0c6       _jpeg_idct_4x4             0046f0c6 f   lib:jidctred.obj
 0001:0006e3b4       _jpeg_idct_2x2             0046f3b4 f   lib:jidctred.obj
 0001:0006e576       _jpeg_idct_1x1             0046f576 f   lib:jidctred.obj
 0001:0006e5b2       _jpeg_idct_float           0046f5b2 f   lib:jidctflt.obj
 0001:0006e990       __alloca_probe             0046f990 f   MSVCRT:chkstk.obj
 0001:0006e990       __chkstk                   0046f990 f   MSVCRT:chkstk.obj
 0001:0006e9c0       _strcmp                    0046f9c0 f   MSVCRT:MSVCRT.dll
 0001:0006e9c6       __except_handler3          0046f9c6 f   MSVCRT:MSVCRT.dll
 0001:0006e9cc       _strlen                    0046f9cc f   MSVCRT:MSVCRT.dll
 0001:0006e9d2       _strcpy                    0046f9d2 f   MSVCRT:MSVCRT.dll
 0001:0006e9d8       _sin                       0046f9d8 f   MSVCRT:MSVCRT.dll
 0001:0006e9de       _tan                       0046f9de f   MSVCRT:MSVCRT.dll
 0001:0006e9e4       _cos                       0046f9e4 f   MSVCRT:MSVCRT.dll
 0001:0006e9ea       __ftol                     0046f9ea f   MSVCRT:MSVCRT.dll
 0001:0006e9f0       _strcat                    0046f9f0 f   MSVCRT:MSVCRT.dll
 0001:0006e9f6       _fmod                      0046f9f6 f   MSVCRT:MSVCRT.dll
 0001:0006e9fc       _atan2                     0046f9fc f   MSVCRT:MSVCRT.dll
 0001:0006ea02       _acos                      0046fa02 f   MSVCRT:MSVCRT.dll
 0001:0006ea08       _sqrt                      0046fa08 f   MSVCRT:MSVCRT.dll
 0001:0006ea0e       _atan                      0046fa0e f   MSVCRT:MSVCRT.dll
 0001:0006ea14       ??_Gtype_info@@UAEPAXI@Z   0046fa14 f i MSVCRT:ti_inst.obj
 0001:0006ea14       ??_Etype_info@@UAEPAXI@Z   0046fa14 f i MSVCRT:ti_inst.obj
 0001:0006ea30       __CxxThrowException@8      0046fa30 f   MSVCRT:MSVCRT.dll
 0001:0006ea36       _memcpy                    0046fa36 f   MSVCRT:MSVCRT.dll
 0001:0006ea3c       _memset                    0046fa3c f   MSVCRT:MSVCRT.dll
 0001:0006ea42       _pow                       0046fa42 f   MSVCRT:MSVCRT.dll
 0001:0006ea48       _asin                      0046fa48 f   MSVCRT:MSVCRT.dll
 0001:0006ea4e       _WinMainCRTStartup         0046fa4e f   MSVCRT:crtexew.obj
 0001:0006ebac       ??1type_info@@UAE@XZ       0046fbac f   MSVCRT:MSVCRT.dll
 0001:0006ebb2       __XcptFilter               0046fbb2 f   MSVCRT:MSVCRT.dll
 0001:0006ebb8       __initterm                 0046fbb8 f   MSVCRT:MSVCRT.dll
 0001:0006ebbe       __setdefaultprecision      0046fbbe f   MSVCRT:fp8.obj
 0001:0006ebd0       _jpeg_mem_init             0046fbd0 f   MSVCRT:merr.obj
 0001:0006ebd0       __matherr                  0046fbd0 f   MSVCRT:merr.obj
 0001:0006ebd3       ?R_SurfacePatch@@YAXXZ     0046fbd3 f   MSVCRT:dllargv.obj
 0001:0006ebd3       _jpeg_mem_term             0046fbd3 f   MSVCRT:dllargv.obj
 0001:0006ebd3       ?R_DrawNullModel@@YAXXZ    0046fbd3 f   MSVCRT:dllargv.obj
 0001:0006ebd3       __setargv                  0046fbd3 f   MSVCRT:dllargv.obj
 0001:0006ebd3       ?D_Patch@@YAXXZ            0046fbd3 f   MSVCRT:dllargv.obj
 0001:0006ebd4       __controlfp                0046fbd4 f   MSVCRT:MSVCRT.dll
 0002:00000000       __imp__SetDeviceGammaRamp@8 00470000     gdi32:GDI32.dll
 0002:00000004       __imp__GetDeviceGammaRamp@8 00470004     gdi32:GDI32.dll
 0002:00000008       __imp__DescribePixelFormat@16 00470008     gdi32:GDI32.dll
 0002:0000000c       __imp__SetPixelFormat@12   0047000c     gdi32:GDI32.dll
 0002:00000010       __imp__ChoosePixelFormat@8 00470010     gdi32:GDI32.dll
 0002:00000014       __imp__SwapBuffers@4       00470014     gdi32:GDI32.dll
 0002:00000018       __imp__SelectObject@8      00470018     gdi32:GDI32.dll
 0002:0000001c       __imp__CreateCompatibleDC@4 0047001c     gdi32:GDI32.dll
 0002:00000020       __imp__CreateDIBSection@24 00470020     gdi32:GDI32.dll
 0002:00000024       __imp__RealizePalette@4    00470024     gdi32:GDI32.dll
 0002:00000028       __imp__SelectPalette@12    00470028     gdi32:GDI32.dll
 0002:0000002c       __imp__CreatePalette@4     0047002c     gdi32:GDI32.dll
 0002:00000030       __imp__DeleteObject@4      00470030     gdi32:GDI32.dll
 0002:00000034       __imp__SetSystemPaletteUse@8 00470034     gdi32:GDI32.dll
 0002:00000038       __imp__SetDIBColorTable@16 00470038     gdi32:GDI32.dll
 0002:0000003c       __imp__DeleteDC@4          0047003c     gdi32:GDI32.dll
 0002:00000040       __imp__BitBlt@36           00470040     gdi32:GDI32.dll
 0002:00000044       __imp__GetDeviceCaps@8     00470044     gdi32:GDI32.dll
 0002:00000048       \177GDI32_NULL_THUNK_DATA  00470048     gdi32:GDI32.dll
 0002:0000004c       __imp__GetCurrentProcess@0 0047004c     kernel32:KERNEL32.dll
 0002:00000050       __imp__GetVersionExA@4     00470050     kernel32:KERNEL32.dll
 0002:00000054       __imp__GetLastError@0      00470054     kernel32:KERNEL32.dll
 0002:00000058       __imp__SetPriorityClass@8  00470058     kernel32:KERNEL32.dll
 0002:0000005c       __imp__SetConsoleTextAttribute@8 0047005c     kernel32:KERNEL32.dll
 0002:00000060       __imp__WriteFile@20        00470060     kernel32:KERNEL32.dll
 0002:00000064       __imp__GetStartupInfoA@4   00470064     kernel32:KERNEL32.dll
 0002:00000068       __imp__GetModuleHandleA@4  00470068     kernel32:KERNEL32.dll
 0002:0000006c       __imp__GetNumberOfConsoleInputEvents@8 0047006c     kernel32:KERNEL32.dll
 0002:00000070       __imp__ReadConsoleInputA@16 00470070     kernel32:KERNEL32.dll
 0002:00000074       __imp__AllocConsole@0      00470074     kernel32:KERNEL32.dll
 0002:00000078       __imp__GetStdHandle@4      00470078     kernel32:KERNEL32.dll
 0002:0000007c       __imp__IsBadReadPtr@8      0047007c     kernel32:KERNEL32.dll
 0002:00000080       __imp__VirtualQuery@12     00470080     kernel32:KERNEL32.dll
 0002:00000084       __imp__GetModuleFileNameA@12 00470084     kernel32:KERNEL32.dll
 0002:00000088       __imp__SetErrorMode@4      00470088     kernel32:KERNEL32.dll
 0002:0000008c       __imp__GetDriveTypeA@4     0047008c     kernel32:KERNEL32.dll
 0002:00000090       __imp__FreeConsole@0       00470090     kernel32:KERNEL32.dll
 0002:00000094       __imp__Sleep@4             00470094     kernel32:KERNEL32.dll
 0002:00000098       __imp__VirtualFree@12      00470098     kernel32:KERNEL32.dll
 0002:0000009c       __imp__VirtualAlloc@16     0047009c     kernel32:KERNEL32.dll
 0002:000000a0       __imp__FreeLibrary@4       004700a0     kernel32:KERNEL32.dll
 0002:000000a4       __imp__LoadLibraryA@4      004700a4     kernel32:KERNEL32.dll
 0002:000000a8       __imp__GetProcAddress@8    004700a8     kernel32:KERNEL32.dll
 0002:000000ac       \177KERNEL32_NULL_THUNK_DATA 004700ac     kernel32:KERNEL32.dll
 0002:000000b0       __imp__asin                004700b0     MSVCRT:MSVCRT.dll
 0002:000000b4       __imp__pow                 004700b4     MSVCRT:MSVCRT.dll
 0002:000000b8       __imp__exit                004700b8     MSVCRT:MSVCRT.dll
 0002:000000bc       __imp___findclose          004700bc     MSVCRT:MSVCRT.dll
 0002:000000c0       __imp___findnext           004700c0     MSVCRT:MSVCRT.dll
 0002:000000c4       __imp___findfirst          004700c4     MSVCRT:MSVCRT.dll
 0002:000000c8       __imp___mkdir              004700c8     MSVCRT:MSVCRT.dll
 0002:000000cc       __imp__malloc              004700cc     MSVCRT:MSVCRT.dll
 0002:000000d0       __imp__free                004700d0     MSVCRT:MSVCRT.dll
 0002:000000d4       __imp__memset              004700d4     MSVCRT:MSVCRT.dll
 0002:000000d8       __imp__memcpy              004700d8     MSVCRT:MSVCRT.dll
 0002:000000dc       __imp__remove              004700dc     MSVCRT:MSVCRT.dll
 0002:000000e0       __imp__srand               004700e0     MSVCRT:MSVCRT.dll
 0002:000000e4       __imp___CxxThrowException@8 004700e4     MSVCRT:MSVCRT.dll
 0002:000000e8       __imp__strftime            004700e8     MSVCRT:MSVCRT.dll
 0002:000000ec       __imp__strstr              004700ec     MSVCRT:MSVCRT.dll
 0002:000000f0       __imp__time                004700f0     MSVCRT:MSVCRT.dll
 0002:000000f4       __imp__localtime           004700f4     MSVCRT:MSVCRT.dll
 0002:000000f8       __imp__memmove             004700f8     MSVCRT:MSVCRT.dll
 0002:000000fc       __imp___winmajor           004700fc     MSVCRT:MSVCRT.dll
 0002:00000100       __imp__fflush              00470100     MSVCRT:MSVCRT.dll
 0002:00000104       __imp_??1type_info@@UAE@XZ 00470104     MSVCRT:MSVCRT.dll
 0002:00000108       __imp___XcptFilter         00470108     MSVCRT:MSVCRT.dll
 0002:0000010c       __imp___acmdln             0047010c     MSVCRT:MSVCRT.dll
 0002:00000110       __imp____getmainargs       00470110     MSVCRT:MSVCRT.dll
 0002:00000114       __imp___initterm           00470114     MSVCRT:MSVCRT.dll
 0002:00000118       __imp____setusermatherr    00470118     MSVCRT:MSVCRT.dll
 0002:0000011c       __imp___adjust_fdiv        0047011c     MSVCRT:MSVCRT.dll
 0002:00000120       __imp____p__commode        00470120     MSVCRT:MSVCRT.dll
 0002:00000124       __imp____p__fmode          00470124     MSVCRT:MSVCRT.dll
 0002:00000128       __imp____set_app_type      00470128     MSVCRT:MSVCRT.dll
 0002:0000012c       __imp___controlfp          0047012c     MSVCRT:MSVCRT.dll
 0002:00000130       __imp__stricmp             00470130     MSVCRT:MSVCRT.dll
 0002:00000130       __imp___stricmp            00470130     MSVCRT:MSVCRT.dll
 0002:00000134       __imp___strnicmp           00470134     MSVCRT:MSVCRT.dll
 0002:00000134       __imp__strnicmp            00470134     MSVCRT:MSVCRT.dll
 0002:00000138       __imp___exit               00470138     MSVCRT:MSVCRT.dll
 0002:0000013c       __imp__fread               0047013c     MSVCRT:MSVCRT.dll
 0002:00000140       __imp__strncat             00470140     MSVCRT:MSVCRT.dll
 0002:00000144       __imp__qsort               00470144     MSVCRT:MSVCRT.dll
 0002:00000148       __imp__atan                00470148     MSVCRT:MSVCRT.dll
 0002:0000014c       __imp__strncpy             0047014c     MSVCRT:MSVCRT.dll
 0002:00000150       __imp__sscanf              00470150     MSVCRT:MSVCRT.dll
 0002:00000154       __imp___putenv             00470154     MSVCRT:MSVCRT.dll
 0002:00000154       __imp__putenv              00470154     MSVCRT:MSVCRT.dll
 0002:00000158       __imp__sqrt                00470158     MSVCRT:MSVCRT.dll
 0002:0000015c       __imp__acos                0047015c     MSVCRT:MSVCRT.dll
 0002:00000160       __imp__atan2               00470160     MSVCRT:MSVCRT.dll
 0002:00000164       __imp__fmod                00470164     MSVCRT:MSVCRT.dll
 0002:00000168       __imp__fprintf             00470168     MSVCRT:MSVCRT.dll
 0002:0000016c       __imp__strcat              0047016c     MSVCRT:MSVCRT.dll
 0002:00000170       __imp__atof                00470170     MSVCRT:MSVCRT.dll
 0002:00000174       __imp___ftol               00470174     MSVCRT:MSVCRT.dll
 0002:00000178       __imp__cos                 00470178     MSVCRT:MSVCRT.dll
 0002:0000017c       __imp__tan                 0047017c     MSVCRT:MSVCRT.dll
 0002:00000180       __imp__rand                00470180     MSVCRT:MSVCRT.dll
 0002:00000184       __imp__sin                 00470184     MSVCRT:MSVCRT.dll
 0002:00000188       __imp__atoi                00470188     MSVCRT:MSVCRT.dll
 0002:0000018c       __imp__fclose              0047018c     MSVCRT:MSVCRT.dll
 0002:00000190       __imp__fwrite              00470190     MSVCRT:MSVCRT.dll
 0002:00000194       __imp__rename              00470194     MSVCRT:MSVCRT.dll
 0002:00000198       __imp__strcmp              00470198     MSVCRT:MSVCRT.dll
 0002:0000019c       __imp__strchr              0047019c     MSVCRT:MSVCRT.dll
 0002:000001a0       __imp___except_handler3    004701a0     MSVCRT:MSVCRT.dll
 0002:000001a4       __imp__ftell               004701a4     MSVCRT:MSVCRT.dll
 0002:000001a8       __imp__fseek               004701a8     MSVCRT:MSVCRT.dll
 0002:000001ac       __imp__fopen               004701ac     MSVCRT:MSVCRT.dll
 0002:000001b0       __imp__strlen              004701b0     MSVCRT:MSVCRT.dll
 0002:000001b4       __imp__strrchr             004701b4     MSVCRT:MSVCRT.dll
 0002:000001b8       __imp__strcpy              004701b8     MSVCRT:MSVCRT.dll
 0002:000001bc       __imp___vsnprintf          004701bc     MSVCRT:MSVCRT.dll
 0002:000001c0       \177MSVCRT_NULL_THUNK_DATA 004701c0     MSVCRT:MSVCRT.dll
 0002:000001c4       __imp__RegisterHotKey@16   004701c4     user32:USER32.dll
 0002:000001c8       __imp__SystemParametersInfoA@16 004701c8     user32:USER32.dll
 0002:000001cc       __imp__ShowCursor@4        004701cc     user32:USER32.dll
 0002:000001d0       __imp__ReleaseCapture@0    004701d0     user32:USER32.dll
 0002:000001d4       __imp__ClipCursor@4        004701d4     user32:USER32.dll
 0002:000001d8       __imp__SetCursorPos@8      004701d8     user32:USER32.dll
 0002:000001dc       __imp__GetCursorPos@4      004701dc     user32:USER32.dll
 0002:000001e0       __imp__SetCursor@4         004701e0     user32:USER32.dll
 0002:000001e4       __imp__SetCapture@4        004701e4     user32:USER32.dll
 0002:000001e8       __imp__GetWindowRect@8     004701e8     user32:USER32.dll
 0002:000001ec       __imp__GetSystemMetrics@4  004701ec     user32:USER32.dll
 0002:000001f0       __imp__DispatchMessageA@4  004701f0     user32:USER32.dll
 0002:000001f4       __imp__TranslateMessage@4  004701f4     user32:USER32.dll
 0002:000001f8       __imp__PeekMessageA@20     004701f8     user32:USER32.dll
 0002:000001fc       __imp__MessageBoxA@16      004701fc     user32:USER32.dll
 0002:00000200       __imp__RegisterClassA@4    00470200     user32:USER32.dll
 0002:00000204       __imp__LoadCursorA@8       00470204     user32:USER32.dll
 0002:00000208       __imp__LoadIconA@8         00470208     user32:USER32.dll
 0002:0000020c       __imp__SetFocus@4          0047020c     user32:USER32.dll
 0002:00000210       __imp__SetForegroundWindow@4 00470210     user32:USER32.dll
 0002:00000214       __imp__UpdateWindow@4      00470214     user32:USER32.dll
 0002:00000218       __imp__SetWindowPos@28     00470218     user32:USER32.dll
 0002:0000021c       __imp__GetSysColor@4       0047021c     user32:USER32.dll
 0002:00000220       __imp__SetSysColors@12     00470220     user32:USER32.dll
 0002:00000224       __imp__GetDesktopWindow@0  00470224     user32:USER32.dll
 0002:00000228       __imp__ReleaseDC@8         00470228     user32:USER32.dll
 0002:0000022c       __imp__MoveWindow@24       0047022c     user32:USER32.dll
 0002:00000230       __imp__DestroyWindow@4     00470230     user32:USER32.dll
 0002:00000234       __imp__UnregisterClassA@8  00470234     user32:USER32.dll
 0002:00000238       __imp__UnregisterHotKey@8  00470238     user32:USER32.dll
 0002:0000023c       __imp__ShowWindow@8        0047023c     user32:USER32.dll
 0002:00000240       __imp__DefWindowProcA@16   00470240     user32:USER32.dll
 0002:00000244       __imp__GetDC@4             00470244     user32:USER32.dll
 0002:00000248       __imp__ChangeDisplaySettingsA@8 00470248     user32:USER32.dll
 0002:0000024c       __imp__GetWindowLongA@8    0047024c     user32:USER32.dll
 0002:00000250       __imp__RegisterWindowMessageA@4 00470250     user32:USER32.dll
 0002:00000254       __imp__AdjustWindowRect@12 00470254     user32:USER32.dll
 0002:00000258       __imp__SetWindowLongA@12   00470258     user32:USER32.dll
 0002:0000025c       __imp__CreateWindowExA@48  0047025c     user32:USER32.dll
 0002:00000260       \177USER32_NULL_THUNK_DATA 00470260     user32:USER32.dll
 0002:00000264       __imp__mciSendCommandA@16  00470264     winmm:WINMM.dll
 0002:00000268       __imp__joyGetDevCapsA@12   00470268     winmm:WINMM.dll
 0002:0000026c       __imp__joyGetPosEx@8       0047026c     winmm:WINMM.dll
 0002:00000270       __imp__joyGetNumDevs@0     00470270     winmm:WINMM.dll
 0002:00000274       __imp__timeGetTime@0       00470274     winmm:WINMM.dll
 0002:00000278       __imp__timeEndPeriod@4     00470278     winmm:WINMM.dll
 0002:0000027c       __imp__timeBeginPeriod@4   0047027c     winmm:WINMM.dll
 0002:00000280       \177WINMM_NULL_THUNK_DATA  00470280     winmm:WINMM.dll
 0002:00000284       __imp__ntohs@4             00470284     wsock32:WSOCK32.dll
 0002:00000288       __imp__gethostbyname@4     00470288     wsock32:WSOCK32.dll
 0002:0000028c       __imp__inet_addr@4         0047028c     wsock32:WSOCK32.dll
 0002:00000290       __imp__htons@4             00470290     wsock32:WSOCK32.dll
 0002:00000294       __imp__WSAGetLastError@0   00470294     wsock32:WSOCK32.dll
 0002:00000298       __imp__recvfrom@24         00470298     wsock32:WSOCK32.dll
 0002:0000029c       __imp__sendto@24           0047029c     wsock32:WSOCK32.dll
 0002:000002a0       __imp__closesocket@4       004702a0     wsock32:WSOCK32.dll
 0002:000002a4       __imp__bind@12             004702a4     wsock32:WSOCK32.dll
 0002:000002a8       __imp__setsockopt@20       004702a8     wsock32:WSOCK32.dll
 0002:000002ac       __imp__ioctlsocket@12      004702ac     wsock32:WSOCK32.dll
 0002:000002b0       __imp__socket@12           004702b0     wsock32:WSOCK32.dll
 0002:000002b4       __imp__WSAStartup@8        004702b4     wsock32:WSOCK32.dll
 0002:000002b8       \177WSOCK32_NULL_THUNK_DATA 004702b8     wsock32:WSOCK32.dll
 0002:000002d4       __real@4@3ff583126e978d4fe000 004702d4     cl_cin.obj
 0002:0000033c       __real@4@3ffe8000000000000000 0047033c     cl_ents.obj
 0002:00000340       __real@8@40088000000000000000 00470340     cl_ents.obj
 0002:00000348       __real@8@3ff78080808080808000 00470348     cl_ents.obj
 0002:00000350       __real@8@3ffd8000000000000000 00470350     cl_ents.obj
 0002:00000358       __real@4@3ffc8000000000000000 00470358     cl_ents.obj
 0002:0000035c       __real@4@3fff8000000000000000 0047035c     cl_ents.obj
 0002:00000360       __real@4@4004a000000000000000 00470360     cl_ents.obj
 0002:00000364       __real@4@3ff8a3d70a0000000000 00470364     cl_ents.obj
 0002:00000368       __real@8@3fff8000000000000000 00470368     cl_ents.obj
 0002:00000370       __real@4@3ff8a3d70a3d70a3d800 00470370     cl_ents.obj
 0002:00000384       __real@4@40068200000000000000 00470384     cl_ents.obj
 0002:00000388       __real@4@4006c800000000000000 00470388     cl_ents.obj
 0002:0000038c       __real@4@40069b00000000000000 0047038c     cl_ents.obj
 0002:00000390       __real@8@4004c800000000000000 00470390     cl_ents.obj
 0002:00000398       __real@8@4007fa00000000000000 00470398     cl_ents.obj
 0002:000003a0       __real@8@3ff683126e978d4fe000 004703a0     cl_ents.obj
 0002:000003a8       __real@4@4006dc00000000000000 004703a8     cl_ents.obj
 0002:000003ac       __real@4@4005e600000000000000 004703ac     cl_ents.obj
 0002:000003b0       __real@4@4006f200000000000000 004703b0     cl_ents.obj
 0002:000003b4       __real@4@3ffecccccd0000000000 004703b4     cl_ents.obj
 0002:000003b8       __real@4@40048000000000000000 004703b8     cl_ents.obj
 0002:000003bc       __real@4@3ffdaaaaaaaaaaaaa800 004703bc     cl_ents.obj
 0002:000003c0       __real@4@4001a000000000000000 004703c0     cl_ents.obj
 0002:000003c8       __real@8@3ffe8000000000000000 004703c8     cl_ents.obj
 0002:000003d0       __real@8@3ffd9999999999999800 004703d0     cl_ents.obj
 0002:000003d8       __real@8@3ffe9999999999999800 004703d8     cl_ents.obj
 0002:000003e0       __real@4@bfff8000000000000000 004703e0     cl_ents.obj
 0002:000003e4       __real@4@3ffbcccccd0000000000 004703e4     cl_ents.obj
 0002:000003e8       __real@4@40058000000000000000 004703e8     cl_ents.obj
 0002:000003ec       __real@4@4005c800000000000000 004703ec     cl_ents.obj
 0002:000003f0       __real@4@4005b400000000000000 004703f0     cl_ents.obj
 0002:00000408       __real@4@00000000000000000000 00470408     cl_fx.obj
 0002:0000041c       __real@4@3ffaccccccccccccd000 0047041c     cl_fx.obj
 0002:00000420       __real@4@40089600000000000000 00470420     cl_fx.obj
 0002:00000424       __real@4@3ffd99999a0000000000 00470424     cl_fx.obj
 0002:00000428       __real@4@3ff69999999999999800 00470428     cl_fx.obj
 0002:0000042c       __real@4@40019000000000000000 0047042c     cl_fx.obj
 0002:00000430       __real@4@40098000000000000000 00470430     cl_fx.obj
 0002:00000434       __real@4@40068000000000000000 00470434     cl_fx.obj
 0002:00000438       __real@4@bffbcccccd0000000000 00470438     cl_fx.obj
 0002:00000440       __real@8@4000c90fdaa22168c000 00470440     cl_fx.obj
 0002:00000448       __real@4@3ff6b60b60b60b60b800 00470448     cl_fx.obj
 0002:0000044c       __real@4@4006ff00000000000000 0047044c     cl_fx.obj
 0002:00000450       __real@4@3ffccccccd0000000000 00470450     cl_fx.obj
 0002:00000454       __real@4@3ffacccccd0000000000 00470454     cl_fx.obj
 0002:00000458       __real@4@3ffea3d70a0000000000 00470458     cl_fx.obj
 0002:0000045c       __real@4@40008000000000000000 0047045c     cl_fx.obj
 0002:00000460       __real@4@4003f000000000000000 00470460     cl_fx.obj
 0002:00000464       __real@4@40069600000000000000 00470464     cl_fx.obj
 0002:00000468       __real@4@3ffb872b020000000000 00470468     cl_fx.obj
 0002:0000046c       __real@4@3ffa872b020000000000 0047046c     cl_fx.obj
 0002:00000470       __real@4@40038000000000000000 00470470     cl_fx.obj
 0002:00000474       __real@4@40039000000000000000 00470474     cl_fx.obj
 0002:00000478       __real@8@bfff8000000000000000 00470478     cl_fx.obj
 0002:00000480       __real@4@4003a000000000000000 00470480     cl_fx.obj
 0002:00000484       __real@4@40028000000000000000 00470484     cl_fx.obj
 0002:00000488       __real@4@4002e000000000000000 00470488     cl_fx.obj
 0002:0000048c       __real@4@4003c000000000000000 0047048c     cl_fx.obj
 0002:00000490       __real@4@4004e000000000000000 00470490     cl_fx.obj
 0002:00000498       __real@8@bffeccccccccccccd000 00470498     cl_fx.obj
 0002:000004a0       __real@8@bffd9999999999999800 004704a0     cl_fx.obj
 0002:000004a8       __real@8@c006c800000000000000 004704a8     cl_fx.obj
 0002:000004b0       __real@8@3ff7c9422b2ceca3e800 004704b0     cl_fx.obj
 0002:000004b8       __real@8@3ffcccccccccccccd000 004704b8     cl_fx.obj
 0002:000004c0       __real@8@3ffeccccccccccccd000 004704c0     cl_fx.obj
 0002:000004c8       __real@4@4005a000000000000000 004704c8     cl_fx.obj
 0002:000004d0       __real@8@3ffdccccccccccccd000 004704d0     cl_fx.obj
 0002:000004d8       __real@4@3ffec000000000000000 004704d8     cl_fx.obj
 0002:000004dc       __real@4@4001c000000000000000 004704dc     cl_fx.obj
 0002:000004e0       __real@4@4000c000000000000000 004704e0     cl_fx.obj
 0002:000004e8       __real@8@3ffbccccccccccccd000 004704e8     cl_fx.obj
 0002:000004f0       __real@4@3ffe99999a0000000000 004704f0     cl_fx.obj
 0002:000004f8       __real@8@40058000000000000000 004704f8     cl_fx.obj
 0002:00000500       __real@8@3ff8a3d70a3d70a3d800 00470500     cl_fx.obj
 0002:00000508       __real@8@3ff0d1b71758e2196800 00470508     cl_fx.obj
 0002:00000510       ?h@?1??appFloor@@YAHM@Z@4MB 00470510     cl_fx.obj
 0002:00000514       __real@4@4006d000000000000000 00470514     cl_fx.obj
 0002:00000518       __real@4@4001e000000000000000 00470518     cl_fx.obj
 0002:00000520       __real@8@3ff8b60b60b60b60b800 00470520     cl_fx.obj
 0002:00000528       __real@8@3ff9a3d70a3d70a3d800 00470528     cl_fx.obj
 0002:00000530       __real@4@4002f000000000000000 00470530     cl_fx.obj
 0002:00000534       __real@4@3ff7b400000000000000 00470534     cl_input.obj
 0002:00000538       __real@4@3ffee666660000000000 00470538     cl_input.obj
 0002:0000053c       __real@4@3ff98000000000000000 0047053c     cl_input.obj
 0002:00000540       __real@4@4006b60aaaaaaaaab000 00470540     cl_input.obj
 0002:00000544       __real@4@4008fa00000000000000 00470544     cl_input.obj
 0002:00000548       __real@4@c005b200000000000000 00470548     cl_input.obj
 0002:0000054c       __real@4@4005b200000000000000 0047054c     cl_input.obj
 0002:00000550       __real@4@4007b400000000000000 00470550     cl_input.obj
 0002:00000554       __real@4@4006b400000000000000 00470554     cl_input.obj
 0002:00000870       __real@4@400abb80000000000000 00470870     cl_main.obj
 0002:000008a4       __real@4@400b9c40000000000000 004708a4     cl_main.obj
 0002:000008c4       __real@4@c004a000000000000000 004708c4     cl_newfx.obj
 0002:000008c8       __real@4@4002a000000000000000 004708c8     cl_newfx.obj
 0002:000008d0       __real@8@4000c000000000000000 004708d0     cl_newfx.obj
 0002:000008d8       __real@4@40018000000000000000 004708d8     cl_newfx.obj
 0002:000008e0       __real@8@4001c90fdaa22168c000 004708e0     cl_newfx.obj
 0002:000008e8       __real@4@3ffda0d97c0000000000 004708e8     cl_newfx.obj
 0002:000008ec       __real@4@4006a000000000000000 004708ec     cl_newfx.obj
 0002:000008f0       __real@8@4005c000000000000000 004708f0     cl_newfx.obj
 0002:000008f8       __real@8@40048000000000000000 004708f8     cl_newfx.obj
 0002:00000900       __real@4@400b8000000000000000 00470900     cl_newfx.obj
 0002:00000908       __real@8@40028000000000000000 00470908     cl_newfx.obj
 0002:00000910       __real@8@4004b400000000000000 00470910     cl_newfx.obj
 0002:00000918       __real@8@3ff3f9a9342cdc676000 00470918     cl_newfx.obj
 0002:00000920       __real@8@4006c800000000000000 00470920     cl_newfx.obj
 0002:00000928       __real@8@3ff583126e978d4fe000 00470928     cl_newfx.obj
 0002:00000930       __real@8@bffdccccccccccccd000 00470930     cl_newfx.obj
 0002:00000960       __real@8@3ff98000000000000000 00470960     cl_parse.obj
 0002:00000a0c       __real@4@4007fa00000000000000 00470a0c     cl_pred.obj
 0002:00000b6c       __real@4@40079600000000000000 00470b6c     cl_scrn.obj
 0002:00000b70       __real@4@bffe8000000000000000 00470b70     cl_scrn.obj
 0002:00000b84       __real@4@3ffdb333330000000000 00470b84     cl_scrn.obj
 0002:00000b98       __real@8@4000b400000000000000 00470b98     cl_scrn.obj
 0002:00000ba0       __real@4@3ffb8000000000000000 00470ba0     cl_tent.obj
 0002:00000ba8       __real@8@4004e52ee0d31e0fc000 00470ba8     cl_tent.obj
 0002:00000bb0       __real@8@4006b400000000000000 00470bb0     cl_tent.obj
 0002:00000bb8       ?h@?1??appCeil@@YAHM@Z@4MB 00470bb8     cl_tent.obj
 0002:00000bc0       __real@8@4003a000000000000000 00470bc0     cl_tent.obj
 0002:00000bc8       __real@4@40048c00000000000000 00470bc8     cl_tent.obj
 0002:00000bd0       __real@8@4007b400000000000000 00470bd0     cl_tent.obj
 0002:00000bd8       __real@8@c004e52ee0d31e0fc000 00470bd8     cl_tent.obj
 0002:00000c44       __real@4@4000e000000000000000 00470c44     cl_view.obj
 0002:00000c48       __real@4@3ffd8000000000000000 00470c48     cl_view.obj
 0002:00000c50       __real@8@3fffc000000000000000 00470c50     cl_view.obj
 0002:00000c58       __real@8@3ffda2f9836e4e441800 00470c58     cl_view.obj
 0002:00000c60       __real@4@4006b300000000000000 00470c60     cl_view.obj
 0002:00000c68       __real@8@4000a0d97bb4e7870000 00470c68     cl_view.obj
 0002:00000c7c       __real@4@4004f000000000000000 00470c7c     cl_view.obj
 0002:00000c80       __real@8@40029000000000000000 00470c80     cl_view.obj
 0002:00000c88       __real@8@40019000000000000000 00470c88     cl_view.obj
 0002:00000ce4       __real@4@3ffbccccccccccccd000 00470ce4     menu.obj
 0002:00000ce8       __real@8@4005f000000000000000 00470ce8     menu.obj
 0002:00000d0c       __real@4@40059000000000000000 00470d0c     qmenu.obj
 0002:00000e14       __real@4@3ff483126f0000000000 00470e14     snd_dma.obj
 0002:00000e18       __real@4@3ff583126f0000000000 00470e18     snd_dma.obj
 0002:00000e1c       __real@4@3ff6c49ba60000000000 00470e1c     snd_dma.obj
 0002:00000e2c       __real@4@40078000000000000000 00470e2c     snd_mem.obj
 0002:00000e50       __real@8@40159c40000000000000 00470e50     snd_mix.obj
 0002:00000ea8       __real@4@4007c800000000000000 00470ea8     sv_ents.obj
 0002:00001380       __real@8@40018333333333333000 00471380     sv_main.obj
 0002:000013d4       __real@4@4007a200000000000000 004713d4     sv_main.obj
 0002:00001480       __real@8@3ffd828f5c28f5c29000 00471480     sv_send.obj
 0002:000015bc       __real@4@bffc8000000000000000 004715bc     sv_world.obj
 0002:000017f4       __real@4@3ffa8000000000000000 004717f4     cmodel.obj
 0002:000018e8       __real@4@3ff08001000000000000 004718e8     common.obj
 0002:000018ec       __real@4@3ff18001000000000000 004718ec     common.obj
 0002:000018f0       __real@4@3ffeb60b60b60b60b800 004718f0     common.obj
 0002:000018f4       __real@4@3fffb400000000000000 004718f4     common.obj
 0002:00001914       __real@4@3ff1d1b7170000000000 00471914     cvar.obj
 0002:000019a8       __real@8@3ff98efa351294e9c800 004719a8     model.obj
 0002:000019b0       __real@4@c0008000000000000000 004719b0     model.obj
 0002:000019d0       __real@8@3ffeb333333333333000 004719d0     pmove.obj
 0002:000019d8       __real@4@3fff8147ae0000000000 004719d8     pmove.obj
 0002:000019e0       __real@8@bffbccccccccccccd000 004719e0     pmove.obj
 0002:000019e8       __real@4@40058c00000000000000 004719e8     pmove.obj
 0002:000019ec       __real@4@c0058c00000000000000 004719ec     pmove.obj
 0002:000019f0       __real@4@c0018000000000000000 004719f0     pmove.obj
 0002:000019f4       __real@4@c002f000000000000000 004719f4     pmove.obj
 0002:000019f8       __real@4@c006c800000000000000 004719f8     pmove.obj
 0002:000019fc       __real@4@c007c800000000000000 004719fc     pmove.obj
 0002:00001a00       __real@4@40078700000000000000 00471a00     pmove.obj
 0002:00001a04       __real@4@c0079600000000000000 00471a04     pmove.obj
 0002:00001a08       __real@4@4004c800000000000000 00471a08     pmove.obj
 0002:00001a0c       __real@4@3fffc000000000000000 00471a0c     pmove.obj
 0002:00001a10       __real@4@4003b000000000000000 00471a10     pmove.obj
 0002:00001a14       __real@4@c0038000000000000000 00471a14     pmove.obj
 0002:00001a18       __real@8@bffcccccccccccccd000 00471a18     pmove.obj
 0002:00001a20       __real@4@40078780000000000000 00471a20     pmove.obj
 0002:00001a28       __real@8@3ff7b60b60b60b60b800 00471a28     q_shared2.obj
 0002:00001a30       __real@4@c006b400000000000000 00471a30     q_shared2.obj
 0002:00001a34       __real@4@4006b60b610000000000 00471a34     q_shared2.obj
 0002:00001a38       __real@4@c0178000000000000000 00471a38     q_shared2.obj
 0002:00001a3c       __real@4@40178000000000000000 00471a3c     q_shared2.obj
 0002:00001a68       _CLSID_DirectInput         00471a68     in_win.obj
 0002:00001a78       _CLSID_DirectInputDevice   00471a78     in_win.obj
 0002:00001a88       _IID_IDirectInputA         00471a88     in_win.obj
 0002:00001a98       _IID_IDirectInputW         00471a98     in_win.obj
 0002:00001aa8       _IID_IDirectInput2A        00471aa8     in_win.obj
 0002:00001ab8       _IID_IDirectInput2W        00471ab8     in_win.obj
 0002:00001ac8       _IID_IDirectInputDeviceA   00471ac8     in_win.obj
 0002:00001ad8       _IID_IDirectInputDeviceW   00471ad8     in_win.obj
 0002:00001ae8       _IID_IDirectInputDevice2A  00471ae8     in_win.obj
 0002:00001af8       _IID_IDirectInputDevice2W  00471af8     in_win.obj
 0002:00001b08       _IID_IDirectInputEffect    00471b08     in_win.obj
 0002:00001b18       _GUID_XAxis                00471b18     in_win.obj
 0002:00001b28       _GUID_YAxis                00471b28     in_win.obj
 0002:00001b38       _GUID_ZAxis                00471b38     in_win.obj
 0002:00001b48       _GUID_RxAxis               00471b48     in_win.obj
 0002:00001b58       _GUID_RyAxis               00471b58     in_win.obj
 0002:00001b68       _GUID_RzAxis               00471b68     in_win.obj
 0002:00001b78       _GUID_Slider               00471b78     in_win.obj
 0002:00001b88       _GUID_Button               00471b88     in_win.obj
 0002:00001b98       _GUID_Key                  00471b98     in_win.obj
 0002:00001ba8       _GUID_POV                  00471ba8     in_win.obj
 0002:00001bb8       _GUID_Unknown              00471bb8     in_win.obj
 0002:00001bc8       _GUID_SysMouse             00471bc8     in_win.obj
 0002:00001bd8       _GUID_SysKeyboard          00471bd8     in_win.obj
 0002:00001be8       _GUID_Joystick             00471be8     in_win.obj
 0002:00001bf8       _GUID_ConstantForce        00471bf8     in_win.obj
 0002:00001c08       _GUID_RampForce            00471c08     in_win.obj
 0002:00001c18       _GUID_Square               00471c18     in_win.obj
 0002:00001c28       _GUID_Sine                 00471c28     in_win.obj
 0002:00001c38       _GUID_Triangle             00471c38     in_win.obj
 0002:00001c48       _GUID_SawtoothUp           00471c48     in_win.obj
 0002:00001c58       _GUID_SawtoothDown         00471c58     in_win.obj
 0002:00001c68       _GUID_Spring               00471c68     in_win.obj
 0002:00001c78       _GUID_Damper               00471c78     in_win.obj
 0002:00001c88       _GUID_Inertia              00471c88     in_win.obj
 0002:00001c98       _GUID_Friction             00471c98     in_win.obj
 0002:00001ca8       _GUID_CustomForce          00471ca8     in_win.obj
 0002:00001dc0       __real@4@3ff08000000000000000 00471dc0     in_win.obj
 0002:00001dc4       __real@4@400e8000000000000000 00471dc4     in_win.obj
 0002:00001ef8       __real@8@3feb8637bd05af6c6800 00471ef8     sys_win.obj
 0002:00001f00       __real@8@4008fa00000000000000 00471f00     sys_win.obj
 0002:00002098       _zresource_start           00472098     makeres.obj
 0002:00002a86       _zresource_end             00472a86     makeres.obj
 0002:00002b1c       __real@4@3ff58000000000000000 00472b1c     gl_backend.obj
 0002:00002b20       __real@8@40098000000000000000 00472b20     gl_backend.obj
 0002:00002b28       __real@8@3ffca2f9836e4e441800 00472b28     gl_backend.obj
 0002:00002b30       __real@4@bff7b60b60b60b60b800 00472b30     gl_backend.obj
 0002:00002b34       __real@4@3ff78000000000000000 00472b34     gl_backend.obj
 0002:00002b44       __real@4@4007aaaaaaaaaaaaa800 00472b44     gl_backend.obj
 0002:00002b58       __real@8@3fff8666666666666800 00472b58     gl_backend.obj
 0002:00002b60       __real@4@3fff8800000000000000 00472b60     gl_backend.obj
 0002:00002b64       __real@4@3ff683126e978d4fe000 00472b64     gl_backend.obj
 0002:00002b68       __real@4@c0028000000000000000 00472b68     gl_frontend.obj
 0002:00002b70       __real@8@4001a000000000000000 00472b70     gl_frontend.obj
 0002:00002b78       __real@4@3ff5aaaaaaaaaaaaa800 00472b78     gl_frontend.obj
 0002:00002b7c       __real@4@4008c000000000000000 00472b7c     gl_frontend.obj
 0002:00002b80       __real@4@3ff797b425ed097b4000 00472b80     gl_frontend.obj
 0002:00002b84       __real@4@4000cccccd0000000000 00472b84     gl_frontend.obj
 0002:00002b88       __real@4@4008fff99a0000000000 00472b88     gl_frontend.obj
 0002:00002b8c       __real@4@3ffcaaaaab0000000000 00472b8c     gl_frontend.obj
 0002:00002d14       __real@4@3ffeaaaaaaaaaaaaa800 00472d14     gl_image.obj
 0002:00002d38       __real@8@4006ff00000000000000 00472d38     gl_image.obj
 0002:00002d40       __real@4@3ff78080808080808000 00472d40     gl_image.obj
 0002:00002d44       __real@4@3ff18000000000000000 00472d44     gl_image.obj
 0002:00002d48       __real@8@3ffc8000000000000000 00472d48     gl_image.obj
 0002:00002d5c       __real@4@3ff9a3d70a0000000000 00472d5c     gl_image.obj
 0002:00002eb0       __real@4@400e855b000000000000 00472eb0     gl_interface.obj
 0002:00002ed8       __real@4@3ff88000000000000000 00472ed8     gl_light.obj
 0002:00002edc       __real@4@4005ff00000000000000 00472edc     gl_light.obj
 0002:00002ee0       __real@4@4007ff00000000000000 00472ee0     gl_light.obj
 0002:00002ee4       __real@4@400d8000000000000000 00472ee4     gl_light.obj
 0002:00002ee8       __real@4@3ff68000000000000000 00472ee8     gl_light.obj
 0002:00002eec       __real@4@3ff7c000000000000000 00472eec     gl_light.obj
 0002:00002ef0       __real@4@3ffda8f5c30000000000 00472ef0     gl_lightmap.obj
 0002:00002ef4       __real@4@3ffeaf5c290000000000 00472ef4     gl_lightmap.obj
 0002:00002ef8       __real@4@3ffb8106250000000000 00472ef8     gl_lightmap.obj
 0002:00003108       __real@8@3ff88efa351294e9c800 00473108     gl_main.obj
 0002:00003110       __real@8@3ff5b60b60b60b60b800 00473110     gl_main.obj
 0002:00003118       __real@4@3ff08001000200040000 00473118     gl_math.obj
 0002:0000311c       __real@4@3ff7ff01fe03fc07f800 0047311c     gl_math.obj
 0002:00003120       __real@4@3ff7b60b60b60b60b800 00473120     gl_math.obj
 0002:0000322c       __real@4@3fef8000000000000000 0047322c     gl_model.obj
 0002:00003260       __real@8@4004a25689eadff5d000 00473260     gl_model.obj
 0002:00003278       __real@8@bfffc90fdaa22168c000 00473278     gl_model.obj
 0002:00003280       __real@8@3fffc90fdaa22168c000 00473280     gl_model.obj
 0002:00003288       __real@8@3ff583126f0000000000 00473288     gl_poly.obj
 0002:00003438       __real@8@400d8000000000000000 00473438     glw_imp.obj
 0002:00003440       __real@8@400effff000000000000 00473440     glw_imp.obj
 0002:00003448       __real@8@400e8000000000000000 00473448     glw_imp.obj
 0002:00003450       __real@8@4005a9fba5e353f7d000 00473450     r_alias.obj
 0002:00003458       __real@8@40069600000000000000 00473458     r_alias.obj
 0002:00003460       __real@8@3ffea8f5c28f5c28f800 00473460     r_alias.obj
 0002:00003468       __real@8@3ffda8f5c28f5c28f800 00473468     r_alias.obj
 0002:00003470       __real@8@bff8a3d70a3d70a3d800 00473470     r_bsp.obj
 0002:000035a8       __real@8@3fff8147ae147ae14800 004735a8     r_edge.obj
 0002:000035b0       __real@8@3ffefd70a3d70a3d7000 004735b0     r_edge.obj
 0002:000035b8       __real@8@3feb8000000000000000 004735b8     r_edge.obj
 0002:000035c0       __real@8@3ffec51eb851eb852000 004735c0     r_edge.obj
 0002:000035c8       __real@8@400f8000000000000000 004735c8     r_edge.obj
 0002:000035d0       __real@8@c0068000000000000000 004735d0     r_edge.obj
 0002:000035d8       __real@4@400f8000000000000000 004735d8     r_edge.obj
 0002:000035e0       __real@8@3ff78000000000000000 004735e0     r_light.obj
 0002:000035e8       __real@4@400a8000000000000000 004735e8     r_light.obj
 0002:00003738       __real@8@40128000000000000000 00473738     r_main.obj
 0002:00003740       __real@8@3ffac90fcf80dc337000 00473740     r_main.obj
 0002:00003788       __real@8@40068000000000000000 00473788     r_main.obj
 0002:00003790       __real@8@4004f000000000000000 00473790     r_main.obj
 0002:00003798       __real@8@3ffdaaaaaaaaaaaaa800 00473798     r_main.obj
 0002:000037ac       __real@4@3ffd804d1a1a1a1a1800 004737ac     r_main.obj
 0002:000037b0       __real@4@3ffc8019b33333333000 004737b0     r_main.obj
 0002:000037b8       __real@8@3ff6ccccccccccccd000 004737b8     r_misc.obj
 0002:000037c0       __real@8@3ff8ccccccccccccd000 004737c0     r_misc.obj
 0002:000037c8       __real@8@3ffdfae147ae147ae000 004737c8     r_model.obj
 0002:000037d0       __real@8@3ffda3d70a3d70a3d800 004737d0     r_model.obj
 0002:000037d8       __real@4@3ffdaaaaab0000000000 004737d8     r_part.obj
 0002:000037dc       __real@4@401e8000000000000000 004737dc     r_poly.obj
 0002:000037e0       __real@4@4012fffff00000000000 004737e0     r_rast.obj
 0002:000037e4       __real@4@40138000000000000000 004737e4     r_rast.obj
 0002:00003858       _c_dfDIMouse               00473858     dinput:dilib1.obj
 0002:00003c68       _jpeg_natural_order        00473c68     lib:jutils.obj
 0002:00003da8       _z_errmsg                  00473da8     lib:zutil.obj
 0002:00003dd0       _inflate_copyright         00473dd0     lib:inftrees.obj
 0002:00004050       __real@4@400d8001000000000000 00474050     lib:jcdctmgr.obj
 0002:00004218       __real@4@3fffa73d750000000000 00474218     lib:jfdctflt.obj
 0002:0000421c       __real@4@3ffe8a8bd40000000000 0047421c     lib:jfdctflt.obj
 0002:00004220       __real@4@3ffdc3ef150000000000 00474220     lib:jfdctflt.obj
 0002:00004224       __real@4@3ffeb504f30000000000 00474224     lib:jfdctflt.obj
 0002:00004228       __real@4@3fff8a8bd40000000000 00474228     lib:jidctflt.obj
 0002:0000422c       __real@4@4000a73d750000000000 0047422c     lib:jidctflt.obj
 0002:00004230       __real@4@3fffec835e0000000000 00474230     lib:jidctflt.obj
 0002:00004234       __real@4@3fffb504f30000000000 00474234     lib:jidctflt.obj
 0002:0000423c       ??_7type_info@@6B@         0047423c     MSVCRT:ti_inst.obj
 0002:00004250       ??_R1A@?0A@A@type_info@@8  00474250     MSVCRT:ti_inst.obj
 0002:00004268       ??_R2type_info@@8          00474268     MSVCRT:ti_inst.obj
 0002:00004270       ??_R3type_info@@8          00474270     MSVCRT:ti_inst.obj
 0002:00004280       ??_R4type_info@@6B@        00474280     MSVCRT:ti_inst.obj
 0002:00004298       __CT??_R0H@84              00474298     common.obj
 0002:000042b8       __CTA1H                    004742b8     common.obj
 0002:000042c0       __TI1H                     004742c0     common.obj
 0002:000042d0       __IMPORT_DESCRIPTOR_KERNEL32 004742d0     kernel32:KERNEL32.dll
 0002:000042e4       __IMPORT_DESCRIPTOR_USER32 004742e4     user32:USER32.dll
 0002:000042f8       __IMPORT_DESCRIPTOR_GDI32  004742f8     gdi32:GDI32.dll
 0002:0000430c       __IMPORT_DESCRIPTOR_WINMM  0047430c     winmm:WINMM.dll
 0002:00004320       __IMPORT_DESCRIPTOR_WSOCK32 00474320     wsock32:WSOCK32.dll
 0002:00004334       __IMPORT_DESCRIPTOR_MSVCRT 00474334     MSVCRT:MSVCRT.dll
 0002:00004348       __NULL_IMPORT_DESCRIPTOR   00474348     kernel32:KERNEL32.dll
 0003:00000000       ___xc_a                    00475000     MSVCRT:cinitexe.obj
 0003:00000004       ___xc_z                    00475004     MSVCRT:cinitexe.obj
 0003:00000008       ___xi_a                    00475008     MSVCRT:cinitexe.obj
 0003:0000000c       ___xi_z                    0047500c     MSVCRT:cinitexe.obj
 0003:00000010       ??_C@_0P@FHKN@nextserver?5?$CFi?6?$AA@ 00475010     cl_cin.obj
 0003:00000020       ??_C@_0CB@FBLK@RunCinematic?3?5dropped?5?$CFd?5frames?6@ 00475020     cl_cin.obj
 0003:00000044       ??_C@_0BP@CIDL@Bad?5compressed?5frame?5size?3?5?$CFd?6?$AA@ 00475044     cl_cin.obj
 0003:00000064       ??_C@_0BN@GLIN@Decompression?5overread?5by?5?$CFd?$AA@ 00475064     cl_cin.obj
 0003:00000084       ??_C@_05KNK@s_khz?$AA@     00475084     cl_cin.obj
 0003:0000008c       ??_C@_0BJ@PPM@Cinematic?5?$CFs?5not?5found?4?6?$AA@ 0047508c     cl_cin.obj
 0003:000000a8       ??_C@_08MMAN@video?1?$CFs?$AA@ 004750a8     cl_cin.obj
 0003:000000b4       ??_C@_0P@ECEO@?$CFs?5not?5found?4?6?$AA@ 004750b4     cl_cin.obj
 0003:000000c4       ??_C@_04LCGE@?4tga?$AA@    004750c4     cl_cin.obj
 0003:000000cc       ??_C@_04BLEC@?4jpg?$AA@    004750cc     cl_cin.obj
 0003:000000d4       ??_C@_04PHML@?4pcx?$AA@    004750d4     cl_cin.obj
 0003:000000f4       ??_C@_02HJLH@dn?$AA@       004750f4     cl_download.obj
 0003:000000f8       ??_C@_02HAO@up?$AA@        004750f8     cl_download.obj
 0003:000000fc       ??_C@_02PMAE@ft?$AA@       004750fc     cl_download.obj
 0003:00000100       ??_C@_02JIFL@lf?$AA@       00475100     cl_download.obj
 0003:00000104       ??_C@_02OID@bk?$AA@        00475104     cl_download.obj
 0003:00000108       ??_C@_02MMAH@rt?$AA@       00475108     cl_download.obj
 0003:0000010c       ??_C@_0BM@JKMO@Usage?3?5download?5?$DMfilename?$DO?6?$AA@ 0047510c     cl_download.obj
 0003:00000128       ??_C@_0BG@FFKD@File?5already?5exists?4?6?$AA@ 00475128     cl_download.obj
 0003:00000140       ??_C@_0P@FDLO@Not?5connected?6?$AA@ 00475140     cl_download.obj
 0003:00000150       ??_C@_07GHGM@file?$DN?$CFs?$AA@ 00475150     cl_download.obj
 0003:00000158       ??_C@_0M@FCFA@download?5?$CFs?$AA@ 00475158     cl_download.obj
 0003:00000164       ??_C@_0BA@LOJL@Downloading?5?$CFs?6?$AA@ 00475164     cl_download.obj
 0003:00000174       ??_C@_0P@NHCB@download?5?$CFs?5?$CFi?$AA@ 00475174     cl_download.obj
 0003:00000184       ??_C@_0N@CLGM@Resuming?5?$CFs?6?$AA@ 00475184     cl_download.obj
 0003:00000194       ??_C@_03LLMP@r?$CLb?$AA@   00475194     cl_download.obj
 0003:00000198       ??_C@_06LBGC@?$CFs?4tmp?$AA@ 00475198     cl_download.obj
 0003:000001a0       ??_C@_04GHND@?4wal?$AA@    004751a0     cl_download.obj
 0003:000001a8       ??_C@_04EMJN@?4bsp?$AA@    004751a8     cl_download.obj
 0003:000001b0       ??_C@_0CF@BGCJ@Refusing?5to?5download?5a?5path?5with@ 004751b0     cl_download.obj
 0003:000001d8       ??_C@_03HKFD@?4?4?1?$AA@   004751d8     cl_download.obj
 0003:000001dc       ??_C@_05LELA@?$CFs?1?$CFs?$AA@ 004751dc     cl_download.obj
 0003:000001e4       ??_C@_06OOPP@baseq2?$AA@   004751e4     cl_download.obj
 0003:000001ec       ??_C@_07PECE@players?$AA@  004751ec     cl_download.obj
 0003:000001f4       ??_C@_0BP@EHBN@failed?5to?5rename?5?$CC?$CFs?$CC?5to?5?$CC?$CFs?$CC?6?$AA@ 004751f4     cl_download.obj
 0003:00000214       ??_C@_06CCCC@nextdl?$AA@   00475214     cl_download.obj
 0003:0000021c       ??_C@_0BD@LGC@Failed?5to?5open?5?$CFs?6?$AA@ 0047521c     cl_download.obj
 0003:00000230       ??_C@_02NGAF@wb?$AA@       00475230     cl_download.obj
 0003:00000234       ??_C@_0CB@INBI@Server?5does?5not?5have?5this?5file?4?6@ 00475234     cl_download.obj
 0003:00000258       ??_C@_06MFNJ@idx?$DN?$CFd?$AA@ 00475258     cl_download.obj
 0003:00000260       ??_C@_09HJPO@begin?5?$CFd?6?$AA@ 00475260     cl_download.obj
 0003:0000026c       ??_C@_0BA@IDAI@textures?1?$CFs?4wal?$AA@ 0047526c     cl_download.obj
 0003:0000027c       ??_C@_0N@OLHP@env?1?$CFs?$CFs?4pcx?$AA@ 0047527c     cl_download.obj
 0003:0000028c       ??_C@_0DC@MFAM@Local?5map?5version?5differs?5from?5s@ 0047528c     cl_download.obj
 0003:000002c0       ??_C@_0BE@HMKI@players?1?$CFs?1?$CFs_i?4pcx?$AA@ 004752c0     cl_download.obj
 0003:000002d4       ??_C@_0BC@LCAL@players?1?$CFs?1?$CFs?4pcx?$AA@ 004752d4     cl_download.obj
 0003:000002e8       ??_C@_0BG@GDGF@players?1?$CFs?1weapon?4pcx?$AA@ 004752e8     cl_download.obj
 0003:00000300       ??_C@_0BG@NPF@players?1?$CFs?1weapon?4md2?$AA@ 00475300     cl_download.obj
 0003:00000318       ??_C@_0BE@CNDM@players?1?$CFs?1tris?4md2?$AA@ 00475318     cl_download.obj
 0003:0000032c       ??_C@_0M@GKBO@pics?1?$CFs?4pcx?$AA@ 0047532c     cl_download.obj
 0003:00000338       ??_C@_08CIGF@sound?1?$CFs?$AA@ 00475338     cl_download.obj
 0003:00000344       ??_C@_06CKJG@?$CFs?4add?$AA@ 00475344     cl_download.obj
 0003:0000034c       ??_C@_0BC@FDNF@levelshots?1?$CFs?4jpg?$AA@ 0047534c     cl_download.obj
 0003:00000394       ??_C@_0CH@IKH@CL_ParsePacketEntities?3?5bad?5numb@ 00475394     cl_ents.obj
 0003:000003bc       ??_C@_0CH@CHFO@CL_ParsePacketEntities?3?5end?5of?5m@ 004753bc     cl_ents.obj
 0003:000003e4       ??_C@_0BB@GIOP@?5?5?5baseline?3?5?$CFd?6?$AA@ 004753e4     cl_ents.obj
 0003:000003f8       ??_C@_0O@HFOL@?5?5?5delta?3?5?$CFd?6?$AA@ 004753f8     cl_ents.obj
 0003:00000408       ??_C@_0BM@JPAC@U_REMOVE?3?5oldnum?5?$CB?$DN?5newnum?6?$AA@ 00475408     cl_ents.obj
 0003:00000424       ??_C@_0P@OPIO@?5?5?5remove?3?5?$CFd?6?$AA@ 00475424     cl_ents.obj
 0003:00000434       ??_C@_0BC@NCCI@?5?5?5unchanged?3?5?$CFd?6?$AA@ 00475434     cl_ents.obj
 0003:00000448       ??_C@_0CC@PCKK@CL_ParseFrame?3?5not?5packetentitie@ 00475448     cl_ents.obj
 0003:0000046c       ??_C@_0BO@OOHG@CL_ParseFrame?3?5not?5playerinfo?$AA@ 0047546c     cl_ents.obj
 0003:0000048c       ??_C@_07HDAD@?$CF3d?3?$CFs?6?$AA@ 0047548c     cl_ents.obj
 0003:00000494       ??_C@_0BP@NGAC@Delta?5parse_entities?5too?5old?4?6?$AA@ 00475494     cl_ents.obj
 0003:000004b4       ??_C@_0BG@OFIJ@Delta?5frame?5too?5old?4?6?$AA@ 004754b4     cl_ents.obj
 0003:000004cc       ??_C@_0DF@HHME@Delta?5from?5invalid?5frame?5?$CInot?5su@ 004754cc     cl_ents.obj
 0003:00000504       ??_C@_0BH@PDM@?5?5?5frame?3?$CFi?5?5delta?3?$CFi?6?$AA@ 00475504     cl_ents.obj
 0003:0000051c       ??_C@_0BI@JBNJ@players?1male?1weapon?4md2?$AA@ 0047551c     cl_ents.obj
 0003:00000534       ??_C@_0O@MGPF@players?1?$CFs?1?$CFs?$AA@ 00475534     cl_ents.obj
 0003:00000544       ??_C@_04JGMG@male?$AA@     00475544     cl_ents.obj
 0003:0000054c       ??_C@_0O@BPNL@low?5clamp?5?$CFi?6?$AA@ 0047554c     cl_ents.obj
 0003:0000055c       ??_C@_0P@BBIF@high?5clamp?5?$CFi?6?$AA@ 0047555c     cl_ents.obj
 0003:0000056c       ??_C@_0BM@CAHA@models?1items?1shell?1tris?4md2?$AA@ 0047556c     cl_ents.obj
 0003:00000588       ??_C@_0BI@NKGA@players?1cyborg?1tris?4md2?$AA@ 00475588     cl_ents.obj
 0003:000005a0       ??_C@_0BM@KEMI@players?1cyborg?1disguise?4pcx?$AA@ 004755a0     cl_ents.obj
 0003:000005bc       ??_C@_0P@BODN@players?1cyborg?$AA@ 004755bc     cl_ents.obj
 0003:000005cc       ??_C@_0BI@DGPK@players?1female?1tris?4md2?$AA@ 004755cc     cl_ents.obj
 0003:000005e4       ??_C@_0BM@FCKM@players?1female?1disguise?4pcx?$AA@ 004755e4     cl_ents.obj
 0003:00000600       ??_C@_0P@PDH@players?1female?$AA@ 00475600     cl_ents.obj
 0003:00000610       ??_C@_0BG@EKNO@players?1male?1tris?4md2?$AA@ 00475610     cl_ents.obj
 0003:00000628       ??_C@_0BK@POLB@players?1male?1disguise?4pcx?$AA@ 00475628     cl_ents.obj
 0003:00000644       ??_C@_0N@NDJC@players?1male?$AA@ 00475644     cl_ents.obj
 0003:00000654       ??_C@_05LGKD@rogue?$AA@    00475654     cl_ents.obj
 0003:0000065c       ??_C@_0CB@CNO@CL_GetEntitySoundOrigin?3?5bad?5ent@ 0047565c     cl_ents.obj
 0003:000006d0       ??_C@_0BJ@OFEO@aaaaaaaaaaaaaaaazzzzzzzz?$AA@ 004756d0     cl_fx.obj
 0003:000006ec       ??_C@_0BJ@CMIG@aaaaaaaazzzzzzzzaaaaaaaa?$AA@ 004756ec     cl_fx.obj
 0003:00000708       ??_C@_0BJ@OAFP@zzzzzzzzaaaaaaaaaaaaaaaa?$AA@ 00475708     cl_fx.obj
 0003:00000724       ??_C@_0BB@EEPB@zzzzzzzzaaaaaaaa?$AA@ 00475724     cl_fx.obj
 0003:00000738       ??_C@_0CC@LDEI@mmmmnonmmmmnmmmmmnonmmmmmnmmmmmm@ 00475738     cl_fx.obj
 0003:0000075c       ??_C@_0CB@KHEF@mmnnoonnmmmmmmmmmnmmmmnonmmmmmmm@ 0047575c     cl_fx.obj
 0003:00000780       ??_C@_0BP@NKDG@kmmmakakmmaaamammamkmamakmmmma?$AA@ 00475780     cl_fx.obj
 0003:000007a0       ??_C@_0BN@JIKL@kmamaamakmmmaakmamakmakmmmma?$AA@ 004757a0     cl_fx.obj
 0003:000007c0       ??_C@_0BL@DCOL@mmnommomhkmmomnonmmonqnmmo?$AA@ 004757c0     cl_fx.obj
 0003:000007dc       ??_C@_0BH@NBBL@Lightstyle?5length?5?$DN?5?$CFd?$AA@ 004757dc     cl_fx.obj
 0003:000007f4       ??_C@_0CA@DHIG@CL_ParseMuzzleFlash?3?5bad?5entity?$AA@ 004757f4     cl_fx.obj
 0003:00000814       ??_C@_0BE@GKPM@weapons?1disint2?4wav?$AA@ 00475814     cl_fx.obj
 0003:00000828       ??_C@_0BF@NHEL@weapons?1hyprbf1a?4wav?$AA@ 00475828     cl_fx.obj
 0003:00000840       ??_C@_0BF@FKIN@weapons?1rippfire?4wav?$AA@ 00475840     cl_fx.obj
 0003:00000858       ??_C@_0BF@KGGN@weapons?1plasshot?4wav?$AA@ 00475858     cl_fx.obj
 0003:00000870       ??_C@_0BC@GLHK@weapons?1nail1?4wav?$AA@ 00475870     cl_fx.obj
 0003:00000884       ??_C@_0BD@DJAL@weapons?1shotg2?4wav?$AA@ 00475884     cl_fx.obj
 0003:00000898       ??_C@_0BF@PMBF@weapons?1sshotf1b?4wav?$AA@ 00475898     cl_fx.obj
 0003:000008b0       ??_C@_0BF@GEAE@weapons?1bfg__f1y?4wav?$AA@ 004758b0     cl_fx.obj
 0003:000008c8       ??_C@_0BF@ODJI@weapons?1grenlr1b?4wav?$AA@ 004758c8     cl_fx.obj
 0003:000008e0       ??_C@_0BF@FAPL@weapons?1grenlf1a?4wav?$AA@ 004758e0     cl_fx.obj
 0003:000008f8       ??_C@_0BF@LAKH@weapons?1rocklr1b?4wav?$AA@ 004758f8     cl_fx.obj
 0003:00000910       ??_C@_0BF@DME@weapons?1rocklf1a?4wav?$AA@ 00475910     cl_fx.obj
 0003:00000928       ??_C@_0BF@JPPD@weapons?1railgf1a?4wav?$AA@ 00475928     cl_fx.obj
 0003:00000940       ??_C@_0BF@OJMF@weapons?1shotgr1b?4wav?$AA@ 00475940     cl_fx.obj
 0003:00000958       ??_C@_0BF@LKMJ@weapons?1shotgf1b?4wav?$AA@ 00475958     cl_fx.obj
 0003:00000970       ??_C@_0BG@GNAE@weapons?1machgf?$CFib?4wav?$AA@ 00475970     cl_fx.obj
 0003:00000988       ??_C@_0BF@ICG@weapons?1blastf1a?4wav?$AA@ 00475988     cl_fx.obj
 0003:000009a0       ??_C@_0CB@HIMD@CL_ParseMuzzleFlash2?3?5bad?5entity@ 004759a0     cl_fx.obj
 0003:000009c4       ??_C@_0BC@DLIN@tank?1tnkatck3?4wav?$AA@ 004759c4     cl_fx.obj
 0003:000009d8       ??_C@_0BA@OGNC@boss3?1xfire?4wav?$AA@ 004759d8     cl_fx.obj
 0003:000009e8       ??_C@_0BD@NNP@makron?1blaster?4wav?$AA@ 004759e8     cl_fx.obj
 0003:000009fc       ??_C@_0BE@FGKE@gunner?1gunatck3?4wav?$AA@ 004759fc     cl_fx.obj
 0003:00000a10       ??_C@_0BA@GCOI@tank?1rocket?4wav?$AA@ 00475a10     cl_fx.obj
 0003:00000a20       ??_C@_0BC@HLMH@tank?1tnkatck1?4wav?$AA@ 00475a20     cl_fx.obj
 0003:00000a34       ??_C@_0BD@CGIG@chick?1chkatck2?4wav?$AA@ 00475a34     cl_fx.obj
 0003:00000a48       ??_C@_0BD@FLOM@tank?1tnkatk2?$CFc?4wav?$AA@ 00475a48     cl_fx.obj
 0003:00000a5c       ??_C@_0BF@ILOJ@soldier?1solatck1?4wav?$AA@ 00475a5c     cl_fx.obj
 0003:00000a74       ??_C@_0BF@ONDD@floater?1fltatck1?4wav?$AA@ 00475a74     cl_fx.obj
 0003:00000a8c       ??_C@_0BD@DKPH@hover?1hovatck1?4wav?$AA@ 00475a8c     cl_fx.obj
 0003:00000aa0       ??_C@_0BD@GMHE@medic?1medatck1?4wav?$AA@ 00475aa0     cl_fx.obj
 0003:00000ab4       ??_C@_0BD@LDPI@flyer?1flyatck3?4wav?$AA@ 00475ab4     cl_fx.obj
 0003:00000ac8       ??_C@_0BF@GLIG@soldier?1solatck2?4wav?$AA@ 00475ac8     cl_fx.obj
 0003:00000ae0       ??_C@_0BE@PGIB@gunner?1gunatck2?4wav?$AA@ 00475ae0     cl_fx.obj
 0003:00000af4       ??_C@_0BF@MLKD@soldier?1solatck3?4wav?$AA@ 00475af4     cl_fx.obj
 0003:00000b0c       ??_C@_0BG@JHIL@infantry?1infatck1?4wav?$AA@ 00475b0c     cl_fx.obj
 0003:00000b24       ??_C@_0BD@NMFF@items?1respawn1?4wav?$AA@ 00475b24     cl_fx.obj
 0003:00000b38       ??_C@_0BB@IJGC@player?1land1?4wav?$AA@ 00475b38     cl_fx.obj
 0003:00000b4c       ??_C@_0L@JOBD@?$CKfall2?4wav?$AA@ 00475b4c     cl_fx.obj
 0003:00000b58       ??_C@_0L@HOHM@?$CKfall1?4wav?$AA@ 00475b58     cl_fx.obj
 0003:00000b64       ??_C@_0P@IFGP@misc?1tele1?4wav?$AA@ 00475b64     cl_fx.obj
 0003:00000b74       ??_C@_0L@NLAG@cl_nodelta?$AA@ 00475b74     cl_input.obj
 0003:00000b80       ??_C@_01PLJA@0?$AA@        00475b80     cl_input.obj
 0003:00000b84       ??_C@_06MDLE@lookup?$AA@   00475b84     cl_input.obj
 0003:00000b8c       ??_C@_08HKDC@lookdown?$AA@ 00475b8c     cl_input.obj
 0003:00000b98       ??_C@_06GJPN@?9klook?$AA@  00475b98     cl_input.obj
 0003:00000ba0       ??_C@_06BEDN@?$CLklook?$AA@ 00475ba0     cl_input.obj
 0003:00000ba8       ??_C@_04BFNL@?9use?$AA@    00475ba8     cl_input.obj
 0003:00000bb0       ??_C@_04MKDH@?$CLuse?$AA@  00475bb0     cl_input.obj
 0003:00000bb8       ??_C@_07EHKH@?9attack?$AA@ 00475bb8     cl_input.obj
 0003:00000bc0       ??_C@_07KANK@?$CLattack?$AA@ 00475bc0     cl_input.obj
 0003:00000bc8       ??_C@_06CNLP@?9speed?$AA@  00475bc8     cl_input.obj
 0003:00000bd0       ??_C@_06FAHP@?$CLspeed?$AA@ 00475bd0     cl_input.obj
 0003:00000bd8       ??_C@_0L@BMPO@?9moveright?$AA@ 00475bd8     cl_input.obj
 0003:00000be4       ??_C@_0L@DMHD@?$CLmoveright?$AA@ 00475be4     cl_input.obj
 0003:00000bf0       ??_C@_09MLIL@?9moveleft?$AA@ 00475bf0     cl_input.obj
 0003:00000bfc       ??_C@_09EGDL@?$CLmoveleft?$AA@ 00475bfc     cl_input.obj
 0003:00000c08       ??_C@_07OMD@?9strafe?$AA@  00475c08     cl_input.obj
 0003:00000c10       ??_C@_07OJLO@?$CLstrafe?$AA@ 00475c10     cl_input.obj
 0003:00000c18       ??_C@_09OKBO@?9lookdown?$AA@ 00475c18     cl_input.obj
 0003:00000c24       ??_C@_09GHKO@?$CLlookdown?$AA@ 00475c24     cl_input.obj
 0003:00000c30       ??_C@_07PBGO@?9lookup?$AA@ 00475c30     cl_input.obj
 0003:00000c38       ??_C@_07BGBD@?$CLlookup?$AA@ 00475c38     cl_input.obj
 0003:00000c40       ??_C@_05BMBD@?9back?$AA@   00475c40     cl_input.obj
 0003:00000c48       ??_C@_05NMMM@?$CLback?$AA@ 00475c48     cl_input.obj
 0003:00000c50       ??_C@_08MLFI@?9forward?$AA@ 00475c50     cl_input.obj
 0003:00000c5c       ??_C@_08HLLP@?$CLforward?$AA@ 00475c5c     cl_input.obj
 0003:00000c68       ??_C@_06CDHA@?9right?$AA@  00475c68     cl_input.obj
 0003:00000c70       ??_C@_06FOLA@?$CLright?$AA@ 00475c70     cl_input.obj
 0003:00000c78       ??_C@_05EFBI@?9left?$AA@   00475c78     cl_input.obj
 0003:00000c80       ??_C@_05IFMH@?$CLleft?$AA@ 00475c80     cl_input.obj
 0003:00000c88       ??_C@_09BGG@?9movedown?$AA@ 00475c88     cl_input.obj
 0003:00000c94       ??_C@_09IMNG@?$CLmovedown?$AA@ 00475c94     cl_input.obj
 0003:00000ca0       ??_C@_07ECOP@?9moveup?$AA@ 00475ca0     cl_input.obj
 0003:00000ca8       ??_C@_07KFJC@?$CLmoveup?$AA@ 00475ca8     cl_input.obj
 0003:00000cb0       ??_C@_0L@EKJH@centerview?$AA@ 00475cb0     cl_input.obj
 0003:00000cbc       ??_C@_0BP@GHEI@Three?5keys?5down?5for?5a?5button?$CB?6?$AA@ 00475cbc     cl_input.obj
 0003:00000cdc       ??_C@_0BJ@DBCF@Usage?3?5lookdown?5?$DMangle?$DO?6?$AA@ 00475cdc     cl_input.obj
 0003:00000cf8       ??_C@_0BH@LPO@Usage?3?5lookup?5?$DMangle?$DO?6?$AA@ 00475cf8     cl_input.obj
 0003:00000d10       ??_C@_0BA@PGJB@cl_showbboxes?$DN0?$AA@ 00475d10     cl_main.obj
 0003:00000d20       ??_C@_0M@POEG@cl_infps?$DN80?$AA@ 00475d20     cl_main.obj
 0003:00000d2c       ??_C@_0O@MECK@r_sfx_pause?$DN0?$AA@ 00475d2c     cl_main.obj
 0003:00000d3c       ??_C@_0L@LMFA@cl_newfx?$DN1?$AA@ 00475d3c     cl_main.obj
 0003:00000d48       ??_C@_0BB@OJBC@cl_extProtocol?$DN1?$AA@ 00475d48     cl_main.obj
 0003:00000d5c       ??_C@_0BD@EBLI@cl_cameraheight?$DN10?$AA@ 00475d5c     cl_main.obj
 0003:00000d70       ??_C@_0BB@BHJJ@cl_cameradist?$DN80?$AA@ 00475d70     cl_main.obj
 0003:00000d84       ??_C@_0BA@NFCC@cl_3rd_person?$DN0?$AA@ 00475d84     cl_main.obj
 0003:00000d94       ??_C@_09CIOG@cl_vwep?$DN1?$AA@ 00475d94     cl_main.obj
 0003:00000da0       ??_C@_0O@GIDJ@gender_auto?$DN1?$AA@ 00475da0     cl_main.obj
 0003:00000db0       ??_C@_0M@EKHG@gender?$DNmale?$AA@ 00475db0     cl_main.obj
 0003:00000dbc       ??_C@_06LHDK@fov?$DN90?$AA@ 00475dbc     cl_main.obj
 0003:00000dc4       ??_C@_06OFHG@hand?$DN0?$AA@ 00475dc4     cl_main.obj
 0003:00000dcc       ??_C@_05IGMC@msg?$DN1?$AA@ 00475dcc     cl_main.obj
 0003:00000dd4       ??_C@_0L@BDDJ@rate?$DN25000?$AA@ 00475dd4     cl_main.obj
 0003:00000de0       ??_C@_0L@FDGB@railtype?$DN1?$AA@ 00475de0     cl_main.obj
 0003:00000dec       ??_C@_0M@KMON@railcolor?$DN0?$AA@ 00475dec     cl_main.obj
 0003:00000df8       ??_C@_0BA@HDOL@skin?$DNmale?1grunt?$AA@ 00475df8     cl_main.obj
 0003:00000e08       ??_C@_0N@JGPL@name?$DNunnamed?$AA@ 00475e08     cl_main.obj
 0003:00000e18       ??_C@_0M@GEFE@spectator?$DN0?$AA@ 00475e18     cl_main.obj
 0003:00000e24       ??_C@_09OFDM@password?$DN?$AA@ 00475e24     cl_main.obj
 0003:00000e30       ??_C@_0O@KMKM@rcon_address?$DN?$AA@ 00475e30     cl_main.obj
 0003:00000e40       ??_C@_0P@JGAB@rcon_password?$DN?$AA@ 00475e40     cl_main.obj
 0003:00000e50       ??_C@_08DPL@paused?$DN0?$AA@ 00475e50     cl_main.obj
 0003:00000e5c       ??_C@_0P@NMKC@cl_timeout?$DN120?$AA@ 00475e5c     cl_main.obj
 0003:00000e6c       ??_C@_0M@FABP@showclamp?$DN0?$AA@ 00475e6c     cl_main.obj
 0003:00000e78       ??_C@_0O@GKCO@cl_showmiss?$DN0?$AA@ 00475e78     cl_main.obj
 0003:00000e88       ??_C@_0N@GDGI@cl_shownet?$DN0?$AA@ 00475e88     cl_main.obj
 0003:00000e98       ??_C@_08ODOK@m_side?$DN1?$AA@ 00475e98     cl_main.obj
 0003:00000ea4       ??_C@_0M@KDIP@m_forward?$DN1?$AA@ 00475ea4     cl_main.obj
 0003:00000eb0       ??_C@_0M@IDNG@m_yaw?$DN0?4022?$AA@ 00475eb0     cl_main.obj
 0003:00000ebc       ??_C@_0O@CFNH@m_pitch?$DN0?4022?$AA@ 00475ebc     cl_main.obj
 0003:00000ecc       ??_C@_0O@LGJF@sensitivity?$DN3?$AA@ 00475ecc     cl_main.obj
 0003:00000edc       ??_C@_0N@ELEK@lookstrafe?$DN0?$AA@ 00475edc     cl_main.obj
 0003:00000eec       ??_C@_0N@HOIL@lookspring?$DN0?$AA@ 00475eec     cl_main.obj
 0003:00000efc       ??_C@_0L@FKE@freelook?$DN1?$AA@ 00475efc     cl_main.obj
 0003:00000f08       ??_C@_08EKNG@cl_run?$DN0?$AA@ 00475f08     cl_main.obj
 0003:00000f14       ??_C@_0BF@FBAC@cl_anglespeedkey?$DN1?45?$AA@ 00475f14     cl_main.obj
 0003:00000f2c       ??_C@_0BC@DBAH@cl_pitchspeed?$DN150?$AA@ 00475f2c     cl_main.obj
 0003:00000f40       ??_C@_0BA@EN@cl_yawspeed?$DN140?$AA@ 00475f40     cl_main.obj
 0003:00000f50       ??_C@_0BB@KPBB@cl_sidespeed?$DN200?$AA@ 00475f50     cl_main.obj
 0003:00000f64       ??_C@_0BE@EMPB@cl_forwardspeed?$DN200?$AA@ 00475f64     cl_main.obj
 0003:00000f78       ??_C@_0P@MAGI@cl_upspeed?$DN200?$AA@ 00475f78     cl_main.obj
 0003:00000f88       ??_C@_0M@PBGO@cl_maxfps?$DN0?$AA@ 00475f88     cl_main.obj
 0003:00000f94       ??_C@_0N@KOJF@cl_predict?$DN1?$AA@ 00475f94     cl_main.obj
 0003:00000fa4       ??_C@_0P@LJAK@cl_autoskins?$DN0?$AA@ 00475fa4     cl_main.obj
 0003:00000fb4       ??_C@_0N@HLNF@cl_noskins?$DN0?$AA@ 00475fb4     cl_main.obj
 0003:00000fc4       ??_C@_0P@EOPE@cl_footsteps?$DN1?$AA@ 00475fc4     cl_main.obj
 0003:00000fd4       ??_C@_08MCKE@cl_gun?$DN1?$AA@ 00475fd4     cl_main.obj
 0003:00000fe0       ??_C@_0O@BIKK@cl_entities?$DN1?$AA@ 00475fe0     cl_main.obj
 0003:00000ff0       ??_C@_0P@MJG@cl_particles?$DN1?$AA@ 00475ff0     cl_main.obj
 0003:00001000       ??_C@_0M@CMKE@cl_lights?$DN1?$AA@ 00476000     cl_main.obj
 0003:0000100c       ??_C@_0L@NLAA@cl_blend?$DN1?$AA@ 0047600c     cl_main.obj
 0003:00001018       ??_C@_0M@FFNA@cl_stereo?$DN0?$AA@ 00476018     cl_main.obj
 0003:00001024       ??_C@_0BJ@FGJG@cl_stereo_separation?$DN0?44?$AA@ 00476024     cl_main.obj
 0003:00001040       ??_C@_04EDEH@echo?$AA@     00476040     cl_main.obj
 0003:00001048       ??_C@_09DMHI@challenge?$AA@ 00476048     cl_main.obj
 0003:00001054       ??_C@_04LBKD@ping?$AA@     00476054     cl_main.obj
 0003:0000105c       ??_C@_05KCGF@print?$AA@    0047605c     cl_main.obj
 0003:00001064       ??_C@_03OKJL@cmd?$AA@      00476064     cl_main.obj
 0003:00001068       ??_C@_04LEMN@info?$AA@     00476068     cl_main.obj
 0003:00001070       ??_C@_0P@JGPO@client_connect?$AA@ 00476070     cl_main.obj
 0003:00001080       ??_C@_0BG@GPBN@Unknown?5command?5?$CC?$CFs?$CC?6?$AA@ 00476080     cl_main.obj
 0003:00001098       ??_C@_01FCOA@?5?$AA@       00476098     cl_main.obj
 0003:0000109c       ??_C@_0BL@GCG@Can?8t?5?$CC?$CFs?$CC?0?5not?5connected?6?$AA@ 0047609c     cl_main.obj
 0003:000010b8       ??_C@_06EOIN@paused?$AA@   004760b8     cl_main.obj
 0003:000010c0       ??_C@_0L@IGMM@maxclients?$AA@ 004760c0     cl_main.obj
 0003:000010cc       ??_C@_0BG@NFBH@connect?5?$CFd?5?$CFd?5?$CFd?5?$CC?$CFs?$CC?$AA@ 004760cc     cl_main.obj
 0003:000010e4       ??_C@_0BM@JLFG@Extended?5protocol?5disabled?6?$AA@ 004760e4     cl_main.obj
 0003:00001100       ??_C@_0BJ@MDJI@connect?5?$CFd?5?$CFd?5?$CFd?5?$CC?$CFs?$CC?5?$CFs?$AA@ 00476100     cl_main.obj
 0003:0000111c       ??_C@_06PGCO@gildor?$AA@   0047611c     cl_main.obj
 0003:00001124       ??_C@_05CBME@qport?$AA@    00476124     cl_main.obj
 0003:0000112c       ??_C@_0BH@NING@Bad?5server?5address?5?$CFs?6?$AA@ 0047612c     cl_main.obj
 0003:00001144       ??_C@_0N@IDFB@getchallenge?$AA@ 00476144     cl_main.obj
 0003:00001154       ??_C@_06DKLM@status?$AA@   00476154     cl_main.obj
 0003:0000115c       ??_C@_0BF@DHHM@Connecting?5to?5?$CFs?4?4?4?6?$AA@ 0047615c     cl_main.obj
 0003:00001174       ??_C@_09FBHK@localhost?$AA@ 00476174     cl_main.obj
 0003:00001180       ??_C@_0BJ@DOD@Usage?3?5connect?5?$DMserver?$DO?6?$AA@ 00476180     cl_main.obj
 0003:0000119c       ??_C@_0N@NHEN@Server?5quit?6?$AA@ 0047619c     cl_main.obj
 0003:000011ac       ??_C@_0CN@HEPM@Not?5connected?5and?5?$CCrcon_address?$CC@ 004761ac     cl_main.obj
 0003:000011dc       ??_C@_0N@NPOA@?$PP?$PP?$PP?$PPrcon?5?$CFs?5?$AA@ 004761dc     cl_main.obj
 0003:000011ec       ??_C@_0BM@ENGC@?$CCrcon_password?$CC?5is?5not?5set?6?$AA@ 004761ec     cl_main.obj
 0003:00001208       ??_C@_0L@FPLB@disconnect?$AA@ 00476208     cl_main.obj
 0003:00001214       ??_C@_0DP@HCOC@?$FO2Total?5?$CFd?5frames?0?5?$CF3?41f?5seconds@ 00476214     cl_main.obj
 0003:00001254       ??_C@_0P@DHN@Stopped?5demo?4?6?$AA@ 00476254     cl_main.obj
 0003:00001264       ??_C@_0BH@BFNH@Not?5recording?5a?5demo?4?6?$AA@ 00476264     cl_main.obj
 0003:0000127c       ??_C@_0BJ@NAGC@Disconnected?5from?5server?$AA@ 0047627c     cl_main.obj
 0003:00001298       ??_C@_0BC@PNFB@?6Changing?5map?4?4?4?6?$AA@ 00476298     cl_main.obj
 0003:000012ac       ??_C@_03IDPP@new?$AA@      004762ac     cl_main.obj
 0003:000012b0       ??_C@_0BB@DJEH@reconnecting?4?4?4?6?$AA@ 004762b0     cl_main.obj
 0003:000012c4       ??_C@_0BB@CILL@Bad?5address?3?5?$CFs?6?$AA@ 004762c4     cl_main.obj
 0003:000012d8       ??_C@_0P@GCID@pinging?5?$CFs?4?4?4?6?$AA@ 004762d8     cl_main.obj
 0003:000012e8       ??_C@_05EAEC@adr?$CFd?$AA@ 004762e8     cl_main.obj
 0003:000012f0       ??_C@_05PIII@noipx?$AA@    004762f0     cl_main.obj
 0003:000012f8       ??_C@_09FCOK@127?40?40?41?$AA@ 004762f8     cl_main.obj
 0003:00001304       ??_C@_07FFPN@info?534?$AA@ 00476304     cl_main.obj
 0003:0000130c       ??_C@_05GFLG@noudp?$AA@    0047630c     cl_main.obj
 0003:00001314       ??_C@_0BG@GFC@pinging?5broadcast?4?4?4?6?$AA@ 00476314     cl_main.obj
 0003:0000132c       ??_C@_0P@MCNN@client?5?$CFd?3?5?$CFs?6?$AA@ 0047632c     cl_main.obj
 0003:0000133c       ??_C@_0CL@CMKN@Server?5does?5not?5support?5extended@ 0047633c     cl_main.obj
 0003:00001368       ??_C@_0CD@FDEJ@Connected?5using?5extended?5protoco@ 00476368     cl_main.obj
 0003:0000138c       ??_C@_0BP@CDLO@dup?5connect?5received?3?5ignored?6?$AA@ 0047638c     cl_main.obj
 0003:000013ac       ??_C@_03HHKO@?$CFs?6?$AA@  004763ac     cl_main.obj
 0003:000013b0       ??_C@_01BJG@?6?$AA@        004763b0     cl_main.obj
 0003:000013b4       ??_C@_0CL@EEOE@Command?5packet?5from?5remote?5host?4@ 004763b4     cl_main.obj
 0003:000013e0       ??_C@_02DILL@?$CFs?$AA@    004763e0     cl_main.obj
 0003:000013e4       ??_C@_06FLJA@cheats?$AA@   004763e4     cl_main.obj
 0003:000013ec       ??_C@_08NPAP@gamename?$AA@ 004763ec     cl_main.obj
 0003:000013f8       ??_C@_07DOCO@mapname?$AA@  004763f8     cl_main.obj
 0003:00001400       ??_C@_03INEA@ack?$AA@      00476400     cl_main.obj
 0003:00001404       ??_C@_0BC@JBMH@no?5status?5answer?6?$AA@ 00476404     cl_main.obj
 0003:00001418       ??_C@_0BH@OOAB@Unknown?5command?5?$CC?$CFs?$CC?4?6?$AA@ 00476418     cl_main.obj
 0003:00001430       ??_C@_07OEOL@?$CFs?3?5?$CFs?6?$AA@ 00476430     cl_main.obj
 0003:00001438       ??_C@_0BP@BEPE@?6Server?5connection?5timed?5out?4?6?$AA@ 00476438     cl_main.obj
 0003:00001458       ??_C@_0CJ@EGIC@?$CFs?3?5sequenced?5packet?5without?5con@ 00476458     cl_main.obj
 0003:00001484       ??_C@_0BB@HD@?$CFs?3?5runt?5packet?6?$AA@ 00476484     cl_main.obj
 0003:00001498       ??_C@_06KFDE@gender?$AA@   00476498     cl_main.obj
 0003:000014a0       ??_C@_04KIKH@none?$AA@     004764a0     cl_main.obj
 0003:000014a8       ??_C@_06BKEF@female?$AA@   004764a8     cl_main.obj
 0003:000014b0       ??_C@_06LEP@cyborg?$AA@    004764b0     cl_main.obj
 0003:000014b8       ??_C@_0CG@CFCD@?$FO2?9?9?9?9?9?9?9?5User?5info?5settings?5?9?9?9@ 004764b8     cl_main.obj
 0003:000014e0       ??_C@_0BC@DCMP@?1?1?6?1?1?5Aliases?6?1?1?6?$AA@ 004764e0     cl_main.obj
 0003:000014f4       ??_C@_0BL@EGCA@?1?1?5game?5created?5variables?6?$AA@ 004764f4     cl_main.obj
 0003:00001510       ??_C@_0BL@NGBM@?1?1?5user?5created?5variables?6?$AA@ 00476510     cl_main.obj
 0003:0000152c       ??_C@_0BA@IKF@?1?1?6?1?1?5Cvars?6?1?1?6?$AA@ 0047652c     cl_main.obj
 0003:0000153c       ??_C@_0BH@IHL@?1?1?6?1?1?5Key?5bindings?6?1?1?6?$AA@ 0047653c     cl_main.obj
 0003:00001554       ??_C@_0CH@DJHP@?1?1?5generated?5by?5Quake2?0?5do?5not?5m@ 00476554     cl_main.obj
 0003:0000157c       ??_C@_0BE@OCEN@Couldn?8t?5write?5?$CFs?4?6?$AA@ 0047657c     cl_main.obj
 0003:00001590       ??_C@_01LLF@w?$AA@         00476590     cl_main.obj
 0003:00001594       ??_C@_0BP@JGGC@Usage?3?5writeconfig?5?$DMfilename?$DO?6?$AA@ 00476594     cl_main.obj
 0003:000015b4       ??_C@_04MELH@?4cfg?$AA@    004765b4     cl_main.obj
 0003:000015bc       ??_C@_0M@DAKA@writeconfig?$AA@ 004765bc     cl_main.obj
 0003:000015c8       ??_C@_08NKKF@download?$AA@ 004765c8     cl_main.obj
 0003:000015d4       ??_C@_08GKBG@precache?$AA@ 004765d4     cl_main.obj
 0003:000015e0       ??_C@_04CHBK@rcon?$AA@     004765e0     cl_main.obj
 0003:000015e8       ??_C@_09CKHG@reconnect?$AA@ 004765e8     cl_main.obj
 0003:000015f4       ??_C@_07DHIJ@connect?$AA@  004765f4     cl_main.obj
 0003:000015fc       ??_C@_04FKOI@quit?$AA@     004765fc     cl_main.obj
 0003:00001604       ??_C@_04JPPJ@stop?$AA@     00476604     cl_main.obj
 0003:0000160c       ??_C@_06JNOM@record?$AA@   0047660c     cl_main.obj
 0003:00001614       ??_C@_08EOOP@changing?$AA@ 00476614     cl_main.obj
 0003:00001620       ??_C@_0M@IFHL@snd_restart?$AA@ 00476620     cl_main.obj
 0003:0000162c       ??_C@_08ONDD@userinfo?$AA@ 0047662c     cl_main.obj
 0003:00001638       ??_C@_05ENAM@skins?$AA@    00476638     cl_main.obj
 0003:00001640       ??_C@_0M@JMJB@pingservers?$AA@ 00476640     cl_main.obj
 0003:0000164c       ??_C@_05PBCN@pause?$AA@    0047664c     cl_main.obj
 0003:00001654       ??_C@_0BK@LHPO@Usage?3?5record?5?$DMdemoname?$DO?6?$AA@ 00476654     cl_main.obj
 0003:00001670       ??_C@_09DLPM@precache?6?$AA@ 00476670     cl_main.obj
 0003:0000167c       ??_C@_0BH@KJBL@Cannot?5create?5file?5?$CFs?6?$AA@ 0047667c     cl_main.obj
 0003:00001694       ??_C@_0BC@JCJK@recording?5to?5?$CFs?4?6?$AA@ 00476694     cl_main.obj
 0003:000016a8       ??_C@_0BA@KOME@?$CFs?1demos?1?$CFs?4dm2?$AA@ 004766a8     cl_main.obj
 0003:000016b8       ??_C@_0CD@JMHA@You?5must?5be?5in?5a?5level?5to?5record@ 004766b8     cl_main.obj
 0003:000016dc       ??_C@_0BE@LCIN@Already?5recording?4?6?$AA@ 004766dc     cl_main.obj
 0003:000016f0       ??_C@_07ILLO@cfgfile?$AA@  004766f0     cl_main.obj
 0003:00001728       ?svc_strings@@3PAPADA      00476728     cl_parse.obj
 0003:0000177c       ??_C@_09DOGH@svc_frame?$AA@ 0047677c     cl_parse.obj
 0003:00001788       ??_C@_0BI@ELFI@svc_deltapacketentities?$AA@ 00476788     cl_parse.obj
 0003:000017a0       ??_C@_0BD@GJCL@svc_packetentities?$AA@ 004767a0     cl_parse.obj
 0003:000017b4       ??_C@_0P@JFIA@svc_playerinfo?$AA@ 004767b4     cl_parse.obj
 0003:000017c4       ??_C@_0N@CDLJ@svc_download?$AA@ 004767c4     cl_parse.obj
 0003:000017d4       ??_C@_0BA@HFKB@svc_centerprint?$AA@ 004767d4     cl_parse.obj
 0003:000017e4       ??_C@_0BC@NKGK@svc_spawnbaseline?$AA@ 004767e4     cl_parse.obj
 0003:000017f8       ??_C@_0BB@FGCF@svc_configstring?$AA@ 004767f8     cl_parse.obj
 0003:0000180c       ??_C@_0P@GKHI@svc_serverdata?$AA@ 0047680c     cl_parse.obj
 0003:0000181c       ??_C@_0O@DCLL@svc_stufftext?$AA@ 0047681c     cl_parse.obj
 0003:0000182c       ??_C@_09FEEA@svc_print?$AA@ 0047682c     cl_parse.obj
 0003:00001838       ??_C@_09CLHB@svc_sound?$AA@ 00476838     cl_parse.obj
 0003:00001844       ??_C@_0O@NMIP@svc_reconnect?$AA@ 00476844     cl_parse.obj
 0003:00001854       ??_C@_0P@JIEH@svc_disconnect?$AA@ 00476854     cl_parse.obj
 0003:00001864       ??_C@_07GEPH@svc_nop?$AA@  00476864     cl_parse.obj
 0003:0000186c       ??_C@_0O@OHLG@svc_inventory?$AA@ 0047686c     cl_parse.obj
 0003:0000187c       ??_C@_0L@FLHM@svc_layout?$AA@ 0047687c     cl_parse.obj
 0003:00001888       ??_C@_0BA@DEAN@svc_temp_entity?$AA@ 00476888     cl_parse.obj
 0003:00001898       ??_C@_0BA@KJNC@svc_muzzlflash2?$AA@ 00476898     cl_parse.obj
 0003:000018a8       ??_C@_0BA@KALL@svc_muzzleflash?$AA@ 004768a8     cl_parse.obj
 0003:000018b8       ??_C@_07HNJP@svc_bad?$AA@  004768b8     cl_parse.obj
 0003:000018c0       ??_C@_0BK@CLKF@?1players?1male?1grunt_i?4pcx?$AA@ 004768c0     cl_parse.obj
 0003:000018dc       ??_C@_0BH@BKPO@players?1male?1grunt?4pcx?$AA@ 004768dc     cl_parse.obj
 0003:000018f4       ??_C@_0BF@NHGA@?1players?1?$CFs?1?$CFs_i?4pcx?$AA@ 004768f4     cl_parse.obj
 0003:0000190c       ??_C@_0BH@PF@?1pics?1default_icon?4pcx?$AA@ 0047690c     cl_parse.obj
 0003:00001924       ??_C@_04NFFA@skn_?$AA@     00476924     cl_parse.obj
 0003:0000192c       ??_C@_0BA@GDCM@players?1male?1?$CFs?$AA@ 0047692c     cl_parse.obj
 0003:0000193c       ??_C@_0BF@DGJJ@players?1?$CFs?1grunt?4pcx?$AA@ 0047693c     cl_parse.obj
 0003:00001954       ??_C@_06PEPL@cmd?$DN?$CFs?$AA@ 00476954     cl_parse.obj
 0003:0000195c       ??_C@_0CN@IFNF@CL_ParseServerMessage?3?5bad?5serve@ 0047695c     cl_parse.obj
 0003:0000198c       ??_C@_0BI@ENJH@Out?5of?5place?5frame?5data?$AA@ 0047698c     cl_parse.obj
 0003:000019a4       ??_C@_0P@IIMB@stufftext?3?5?$CFs?6?$AA@ 004769a4     cl_parse.obj
 0003:000019b4       ??_C@_0BG@CAAE@stuff?5?$CIdisabled?$CJ?3?5?$CFs?6?$AA@ 004769b4     cl_parse.obj
 0003:000019cc       ??_C@_04DCMN@?$CFs?$CFs?$AA@ 004769cc     cl_parse.obj
 0003:000019d4       ??_C@_02KMBJ@?$FO2?$AA@    004769d4     cl_parse.obj
 0003:000019d8       ??_C@_0O@DEBE@misc?1talk?4wav?$AA@ 004769d8     cl_parse.obj
 0003:000019e8       ??_C@_0CD@KNJE@Server?5disconnected?0?5reconnectin@ 004769e8     cl_parse.obj
 0003:00001a0c       ??_C@_0P@MDJB@bad?5net?5cmd?5?$CFd?$AA@ 00476a0c     cl_parse.obj
 0003:00001a1c       ??_C@_0P@HHDF@END?5OF?5MESSAGE?$AA@ 00476a1c     cl_parse.obj
 0003:00001a2c       ??_C@_0CK@FPGD@CL_ParseServerMessage?3?5Bad?5serve@ 00476a2c     cl_parse.obj
 0003:00001a58       ??_C@_0BE@DLJO@?9?9?9?9?9?9?9?9?9?9?9?9?9?9?9?9?9?9?6?$AA@ 00476a58     cl_parse.obj
 0003:00001a6c       ??_C@_03NGHA@?$CFi?5?$AA@  00476a6c     cl_parse.obj
 0003:00001a70       ??_C@_05GHGL@?$FO1?$CFs?6?$AA@ 00476a70     cl_parse.obj
 0003:00001a78       ??_C@_0CM@ONGP@?$FO1?6?6?$BN?$BO?$BO?$BO?$BO?$BO?$BO?$BO?$BO?$BO?$BO?$BO?$BO?$BO?$BO?$BO?$BO?$BO?$BO?$BO?$BO?$BO?$BO?$BO?$BO?$BO?$BO?$BO@ 00476a78     cl_parse.obj
 0003:00001aa4       ??_C@_0CB@NPI@Server?5returned?5version?5?$CFd?5?$DM?$DO?534@ 00476aa4     cl_parse.obj
 0003:00001ac8       ??_C@_0CA@CGFB@demo?5recorded?5with?5protocol?5?$CFd?6?$AA@ 00476ac8     cl_parse.obj
 0003:00001ae8       ??_C@_04OAFI@game?$AA@     00476ae8     cl_parse.obj
 0003:00001af0       ??_C@_0CG@DIKG@demo?5recorded?5with?5extended?5prot@ 00476af0     cl_parse.obj
 0003:00001b18       ??_C@_0BN@BOK@Serverdata?5packet?5received?4?6?$AA@ 00476b18     cl_parse.obj
 0003:00001b38       ??_C@_0CB@BGFE@configstring?5?$DO?5MAX_CONFIGSTRINGS@ 00476b38     cl_parse.obj
 0003:00001b5c       ??_C@_0CA@ONJO@ParseStartSoundPacket?3?5ent?5?$DN?5?$CFi?$AA@ 00476b5c     cl_parse.obj
 0003:00001b80       ??_C@_0CB@IDNM@prediction?5miss?5on?5?$CFd?3?5?$CFg?5?$CFg?5?$CFg?6@ 00476b80     cl_pred.obj
 0003:00001ba4       ??_C@_0CJ@GOCP@CL_PredictMovement?3?5exceeded?5CMD@ 00476ba4     cl_pred.obj
 0003:00001bd0       ??_C@_0N@HMIE@graphshift?$DN0?$AA@ 00476bd0     cl_scrn.obj
 0003:00001be0       ??_C@_0N@NHJA@graphscale?$DN1?$AA@ 00476be0     cl_scrn.obj
 0003:00001bf0       ??_C@_0P@HMIE@graphheight?$DN32?$AA@ 00476bf0     cl_scrn.obj
 0003:00001c00       ??_C@_0N@OIFG@debuggraph?$DN0?$AA@ 00476c00     cl_scrn.obj
 0003:00001c10       ??_C@_0M@JCLH@timegraph?$DN0?$AA@ 00476c10     cl_scrn.obj
 0003:00001c1c       ??_C@_0L@BFLF@netgraph?$DN0?$AA@ 00476c1c     cl_scrn.obj
 0003:00001c28       ??_C@_0M@IJLO@cl_draw2d?$DN1?$AA@ 00476c28     cl_scrn.obj
 0003:00001c34       ??_C@_0BD@MECE@scr_centertime?$DN2?45?$AA@ 00476c34     cl_scrn.obj
 0003:00001c48       ??_C@_0BB@NDPN@scr_viewsize?$DN100?$AA@ 00476c48     cl_scrn.obj
 0003:00001c5c       ??_C@_0BA@HFPF@con_maxSize?$DN0?48?$AA@ 00476c5c     cl_scrn.obj
 0003:00001c6c       ??_C@_0BB@EJDK@crosshairColor?$DN7?$AA@ 00476c6c     cl_scrn.obj
 0003:00001c80       ??_C@_0M@MLFE@crosshair?$DN0?$AA@ 00476c80     cl_scrn.obj
 0003:00001c8c       ??_C@_0CH@HDJB@?$BN?$BO?$BO?$BO?$BO?$BO?$BO?$BO?$BO?$BO?$BO?$BO?$BO?$BO?$BO?$BO?$BO?$BO?$BO?$BO?$BO?$BO?$BO?$BO?$BO?$BO?$BO?$BO?$BO?$BO?$BO?$BO@ 00476c8c     cl_scrn.obj
 0003:00001cb4       ??_C@_0CJ@FHMD@?6?$BN?$BO?$BO?$BO?$BO?$BO?$BO?$BO?$BO?$BO?$BO?$BO?$BO?$BO?$BO?$BO?$BO?$BO?$BO?$BO?$BO?$BO?$BO?$BO?$BO?$BO?$BO?$BO?$BO?$BO?$BO@ 00476cb4     cl_scrn.obj
 0003:00001ce0       ??_C@_02PJJB@?$CC?6?$AA@   00476ce0     cl_scrn.obj
 0003:00001ce4       ??_C@_05MCHL@say?5?$CC?$AA@ 00476ce4     cl_scrn.obj
 0003:00001cec       ??_C@_0L@LAAC@say_team?5?$CC?$AA@ 00476cec     cl_scrn.obj
 0003:00001cf8       ??_C@_0BC@GJEH@SetLevelshot?3?5?$CFs?6?$AA@ 00476cf8     cl_scrn.obj
 0003:00001d0c       ??_C@_0P@EAHC@?1levelshots?1?$CFs?$AA@ 00476d0c     cl_scrn.obj
 0003:00001d1c       ??_C@_09KOO@crosshair?$AA@ 00476d1c     cl_scrn.obj
 0003:00001d28       ??_C@_04CNF@ch?$CFd?$AA@   00476d28     cl_scrn.obj
 0003:00001d30       ??_C@_07GICG@conback?$AA@  00476d30     cl_scrn.obj
 0003:00001d38       ??_C@_03HMEG@net?$AA@      00476d38     cl_scrn.obj
 0003:00001d3c       ??_C@_04BNNP@say?3?$AA@    00476d3c     cl_scrn.obj
 0003:00001d44       ??_C@_09GEPG@say_team?3?$AA@ 00476d44     cl_scrn.obj
 0003:00001d50       ??_C@_0O@NMNJ@?$CFd?$CF?$CF?5complete?$AA@ 00476d50     cl_scrn.obj
 0003:00001d60       ??_C@_0BA@IGEO@Downloading?3?5?$CFs?$AA@ 00476d60     cl_scrn.obj
 0003:00001d70       ??_C@_07PMFK@loading?$AA@  00476d70     cl_scrn.obj
 0003:00001d78       ??_C@_08BFKF@backtile?$AA@ 00476d78     cl_scrn.obj
 0003:00001d84       ??_C@_0N@DGEG@?$CFs?$CF6s?5?$CF3i?5?$CFs?$AA@ 00476d84     cl_scrn.obj
 0003:00001d94       ??_C@_02KMNC@?$FO7?$AA@    00476d94     cl_scrn.obj
 0003:00001d98       ??_C@_06JOFI@use?5?$CFs?$AA@ 00476d98     cl_scrn.obj
 0003:00001da0       ??_C@_0BC@IGDO@?$FO2?9?9?9?9?9?9?5?9?9?9?5?9?9?9?9?$AA@ 00476da0     cl_scrn.obj
 0003:00001db4       ??_C@_0BC@FIKE@?$FO2hotkey?5?$CD?$CD?$CD?5item?$AA@ 00476db4     cl_scrn.obj
 0003:00001dc8       ??_C@_09BBEP@inventory?$AA@ 00476dc8     cl_scrn.obj
 0003:00001dd4       ??_C@_05HNIL@endif?$AA@    00476dd4     cl_scrn.obj
 0003:00001ddc       ??_C@_02NEFL@if?$AA@       00476ddc     cl_scrn.obj
 0003:00001de0       ??_C@_07IIPC@string2?$AA@  00476de0     cl_scrn.obj
 0003:00001de8       ??_C@_06EMNG@string?$AA@   00476de8     cl_scrn.obj
 0003:00001df0       ??_C@_08FOPG@cstring2?$AA@ 00476df0     cl_scrn.obj
 0003:00001dfc       ??_C@_07EILE@cstring?$AA@  00476dfc     cl_scrn.obj
 0003:00001e04       ??_C@_0BG@HMBM@Bad?5stat_string?5index?$AA@ 00476e04     cl_scrn.obj
 0003:00001e1c       ??_C@_0M@KGFB@stat_string?$AA@ 00476e1c     cl_scrn.obj
 0003:00001e28       ??_C@_04KAPC@rnum?$AA@     00476e28     cl_scrn.obj
 0003:00001e30       ??_C@_04JKCF@anum?$AA@     00476e30     cl_scrn.obj
 0003:00001e38       ??_C@_07IHFN@field_3?$AA@  00476e38     cl_scrn.obj
 0003:00001e40       ??_C@_04JFOH@hnum?$AA@     00476e40     cl_scrn.obj
 0003:00001e48       ??_C@_03EBLA@num?$AA@      00476e48     cl_scrn.obj
 0003:00001e4c       ??_C@_04LGNI@picn?$AA@     00476e4c     cl_scrn.obj
 0003:00001e54       ??_C@_04PNMK@?$FO1?$CFs?$AA@ 00476e54     cl_scrn.obj
 0003:00001e5c       ??_C@_0BB@PFPA@?$CF3d?5?$CF3d?5?$CF?912?412s?$AA@ 00476e5c     cl_scrn.obj
 0003:00001e70       ??_C@_03HGOC@ctf?$AA@      00476e70     cl_scrn.obj
 0003:00001e74       ??_C@_0BG@HCFE@client?5?$DO?$DN?5MAX_CLIENTS?$AA@ 00476e74     cl_scrn.obj
 0003:00001e8c       ??_C@_09FLDN@Time?3?5?5?$CFd?$AA@ 00476e8c     cl_scrn.obj
 0003:00001e98       ??_C@_09KOD@Ping?3?5?5?$CFd?$AA@ 00476e98     cl_scrn.obj
 0003:00001ea4       ??_C@_0M@EOOD@Score?3?5?$FO2?$CFd?$AA@ 00476ea4     cl_scrn.obj
 0003:00001eb0       ??_C@_04LPB@?$FO2?$CFs?$AA@ 00476eb0     cl_scrn.obj
 0003:00001eb8       ??_C@_06ILMK@client?$AA@   00476eb8     cl_scrn.obj
 0003:00001ec0       ??_C@_0BC@DMHA@Pic?5?$DO?$DN?5MAX_IMAGES?$AA@ 00476ec0     cl_scrn.obj
 0003:00001ed4       ??_C@_03DCIF@pic?$AA@      00476ed4     cl_scrn.obj
 0003:00001ed8       ??_C@_02BHIC@yv?$AA@       00476ed8     cl_scrn.obj
 0003:00001edc       ??_C@_02BEKO@yb?$AA@       00476edc     cl_scrn.obj
 0003:00001ee0       ??_C@_02ECKM@yt?$AA@       00476ee0     cl_scrn.obj
 0003:00001ee4       ??_C@_02BCI@xv?$AA@        00476ee4     cl_scrn.obj
 0003:00001ee8       ??_C@_02KLHE@xr?$AA@       00476ee8     cl_scrn.obj
 0003:00001eec       ??_C@_02KJMO@xl?$AA@       00476eec     cl_scrn.obj
 0003:00001ef0       ??_C@_08NMDL@?$CFsnum_?$CFc?$AA@ 00476ef0     cl_scrn.obj
 0003:00001efc       ??_C@_0M@KLLH@?$CFsnum_minus?$AA@ 00476efc     cl_scrn.obj
 0003:00001f08       ??_C@_01FNLH@a?$AA@        00476f08     cl_scrn.obj
 0003:00001f0c       ??_C@_02MECO@?$CFd?$AA@    00476f0c     cl_scrn.obj
 0003:00001f10       ??_C@_0L@BJLF@screenshot?$AA@ 00476f10     cl_scrn.obj
 0003:00001f1c       ??_C@_0N@OKBC@messagemode2?$AA@ 00476f1c     cl_scrn.obj
 0003:00001f2c       ??_C@_0M@KMFF@messagemode?$AA@ 00476f2c     cl_scrn.obj
 0003:00001f38       ??_C@_0O@PBHO@toggleconsole?$AA@ 00476f38     cl_scrn.obj
 0003:00001f48       ??_C@_0M@MNON@timerefresh?$AA@ 00476f48     cl_scrn.obj
 0003:00001f54       ??_C@_0BE@NCII@Unknown?5option?3?5?$CFs?6?$AA@ 00476f54     cl_scrn.obj
 0003:00001f68       ??_C@_0BG@NDOP@Invalid?5map_name?3?5?$CFs?6?$AA@ 00476f68     cl_scrn.obj
 0003:00001f80       ??_C@_0CF@IJKE@No?5levelshots?5in?5disconnected?5st@ 00476f80     cl_scrn.obj
 0003:00001fa8       ??_C@_0BC@LJDI@?$CFs?1screenshots?1?$CFs?$AA@ 00476fa8     cl_scrn.obj
 0003:00001fbc       ??_C@_0DA@BHOJ@WARNING?3?5name?5already?5specified?5@ 00476fbc     cl_scrn.obj
 0003:00001fec       ??_C@_04OJNE@jpeg?$AA@     00476fec     cl_scrn.obj
 0003:00001ff4       ??_C@_06EBGC@silent?$AA@   00476ff4     cl_scrn.obj
 0003:00001ffc       ??_C@_07FNGD@nogamma?$AA@  00476ffc     cl_scrn.obj
 0003:00002004       ??_C@_04CNMC@no2d?$AA@     00477004     cl_scrn.obj
 0003:0000200c       ??_C@_0BB@EPBF@?$CFs?1levelshots?1?$CFs?$AA@ 0047700c     cl_scrn.obj
 0003:00002020       ??_C@_09IADL@levelshot?$AA@ 00477020     cl_scrn.obj
 0003:0000202c       ??_C@_0FC@BNHE@Usage?3?5screenshot?5?$FL?9levelshot?$FN?5?$FL@ 0047702c     cl_scrn.obj
 0003:00002080       ??_C@_0BF@NAIN@?$CFf?5seconds?5?$CI?$CFf?5fps?$CJ?6?$AA@ 00477080     cl_scrn.obj
 0003:00002164       ??_C@_0CD@EFEH@models?1objects?1gibs?1bone2?1tris?4m@ 00477164     cl_tent.obj
 0003:00002188       ??_C@_0CF@MFJE@models?1objects?1gibs?1sm_meat?1tris@ 00477188     cl_tent.obj
 0003:000021b0       ??_C@_0CC@EBEB@models?1objects?1gibs?1bone?1tris?4md@ 004771b0     cl_tent.obj
 0003:000021d4       ??_C@_0CB@LBHC@models?1weapons?1v_shotg2?1tris?4md2@ 004771d4     cl_tent.obj
 0003:000021f8       ??_C@_0CB@BEBI@models?1weapons?1v_handgr?1tris?4md2@ 004771f8     cl_tent.obj
 0003:0000221c       ??_C@_0CA@BHPB@models?1weapons?1v_machn?1tris?4md2?$AA@ 0047721c     cl_tent.obj
 0003:0000223c       ??_C@_0CB@DCNA@models?1objects?1grenade2?1tris?4md2@ 0047723c     cl_tent.obj
 0003:00002260       ??_C@_0BO@EPDP@models?1objects?1laser?1tris?4md2?$AA@ 00477260     cl_tent.obj
 0003:00002280       ??_C@_05FPAN@spit1?$AA@    00477280     cl_tent.obj
 0003:00002288       ??_C@_05FACJ@burp1?$AA@    00477288     cl_tent.obj
 0003:00002290       ??_C@_05DOKH@yawn2?$AA@    00477290     cl_tent.obj
 0003:00002298       ??_C@_05MBBO@yawn1?$AA@    00477298     cl_tent.obj
 0003:000022a0       ??_C@_07MNKD@sneeze2?$AA@  004772a0     cl_tent.obj
 0003:000022a8       ??_C@_07DCBK@sneeze1?$AA@  004772a8     cl_tent.obj
 0003:000022b0       ??_C@_06IDM@cough2?$AA@    004772b0     cl_tent.obj
 0003:000022b8       ??_C@_06PHIF@cough1?$AA@   004772b8     cl_tent.obj
 0003:000022c0       ??_C@_08FLON@tinyfart?$AA@ 004772c0     cl_tent.obj
 0003:000022cc       ??_C@_05HCHG@stone?$AA@    004772cc     cl_tent.obj
 0003:000022d4       ??_C@_04KCFE@dirt?$AA@     004772d4     cl_tent.obj
 0003:000022dc       ??_C@_05DGDK@glass?$AA@    004772dc     cl_tent.obj
 0003:000022e4       ??_C@_05CCAC@water?$AA@    004772e4     cl_tent.obj
 0003:000022ec       ??_C@_04EOHJ@wood?$AA@     004772ec     cl_tent.obj
 0003:000022f4       ??_C@_06PKAF@marble?$AA@   004772f4     cl_tent.obj
 0003:000022fc       ??_C@_03COKM@tin?$AA@      004772fc     cl_tent.obj
 0003:00002300       ??_C@_04NPOO@snow?$AA@     00477300     cl_tent.obj
 0003:00002308       ??_C@_0M@BKJL@metal_light?$AA@ 00477308     cl_tent.obj
 0003:00002314       ??_C@_05KMGP@metal?$AA@    00477314     cl_tent.obj
 0003:0000231c       ??_C@_06JAEI@gravel?$AA@   0047731c     cl_tent.obj
 0003:00002324       ??_C@_03LJKD@rug?$AA@      00477324     cl_tent.obj
 0003:00002328       ??_C@_08PDHI@pavement?$AA@ 00477328     cl_tent.obj
 0003:00002334       ??_C@_0BH@HPKN@weapons?1disrupthit?4wav?$AA@ 00477334     cl_tent.obj
 0003:0000234c       ??_C@_0BC@DCEO@weapons?1tesla?4wav?$AA@ 0047734c     cl_tent.obj
 0003:00002360       ??_C@_0BH@DCAE@player?1reallife?1?$CFs?4wav?$AA@ 00477360     cl_tent.obj
 0003:00002378       ??_C@_0BI@EICK@weapons?1?$CFs?1impact?$CFd?4wav?$AA@ 00477378     cl_tent.obj
 0003:00002390       ??_C@_0BP@DFHN@player?1footsteps?1?$CFs?1step?$CFd?4wav?$AA@ 00477390     cl_tent.obj
 0003:000023b0       ??_C@_0BO@PGGG@player?1footsteps?1?$CFs?1land1?4wav?$AA@ 004773b0     cl_tent.obj
 0003:000023d0       ??_C@_0BC@OHAC@player?1step?$CFd?4wav?$AA@ 004773d0     cl_tent.obj
 0003:000023e4       ??_C@_0BB@PPG@player?1fall2?4wav?$AA@ 004773e4     cl_tent.obj
 0003:000023f8       ??_C@_0BB@OPJJ@player?1fall1?4wav?$AA@ 004773f8     cl_tent.obj
 0003:0000240c       ??_C@_0BF@NKOF@weapons?1xpld_wat?4wav?$AA@ 0047740c     cl_tent.obj
 0003:00002424       ??_C@_0BF@CKHB@weapons?1grenlx1a?4wav?$AA@ 00477424     cl_tent.obj
 0003:0000243c       ??_C@_0BF@HJEO@weapons?1rocklx1a?4wav?$AA@ 0047743c     cl_tent.obj
 0003:00002454       ??_C@_0BB@GOFH@world?1spark7?4wav?$AA@ 00477454     cl_tent.obj
 0003:00002468       ??_C@_0BB@MOHC@world?1spark6?4wav?$AA@ 00477468     cl_tent.obj
 0003:0000247c       ??_C@_0BB@COBN@world?1spark5?4wav?$AA@ 0047747c     cl_tent.obj
 0003:00002490       ??_C@_0BD@BJLH@weapons?1lashit?4wav?$AA@ 00477490     cl_tent.obj
 0003:000024a4       ??_C@_0BA@HPF@world?1ric?$CFd?4wav?$AA@ 004774a4     cl_tent.obj
 0003:000024b4       ??_C@_0BP@HEGE@models?1proj?1widowbeam?1tris?4md2?$AA@ 004774b4     cl_tent.obj
 0003:000024d4       ??_C@_0BK@OHJH@models?1proj?1beam?1tris?4md2?$AA@ 004774d4     cl_tent.obj
 0003:000024f0       ??_C@_0BP@MDCP@models?1proj?1lightning?1tris?4md2?$AA@ 004774f0     cl_tent.obj
 0003:00002510       ??_C@_0CD@DCIM@models?1objects?1r_explode2?1tris?4m@ 00477510     cl_tent.obj
 0003:00002534       ??_C@_0L@EMLC@a_grenades?$AA@ 00477534     cl_tent.obj
 0003:00002540       ??_C@_08ICHB@i_health?$AA@ 00477540     cl_tent.obj
 0003:0000254c       ??_C@_09LIBP@a_bullets?$AA@ 0047754c     cl_tent.obj
 0003:00002558       ??_C@_0N@MCPD@w_machinegun?$AA@ 00477558     cl_tent.obj
 0003:00002568       ??_C@_0CD@BEEO@models?1items?1armor?1effect?1tris?4m@ 00477568     cl_tent.obj
 0003:0000258c       ??_C@_0BD@JADH@sprites?1s_bfg2?4sp2?$AA@ 0047758c     cl_tent.obj
 0003:000025a0       ??_C@_0CC@IKHK@models?1objects?1r_explode?1tris?4md@ 004775a0     cl_tent.obj
 0003:000025c4       ??_C@_0CG@OKHI@models?1monsters?1parasite?1tip?1tri@ 004775c4     cl_tent.obj
 0003:000025ec       ??_C@_0BM@JJKF@models?1ctf?1segment?1tris?4md2?$AA@ 004775ec     cl_tent.obj
 0003:00002608       ??_C@_0CK@PFNN@models?1monsters?1parasite?1segment@ 00477608     cl_tent.obj
 0003:00002634       ??_C@_0BO@NNLA@models?1objects?1flash?1tris?4md2?$AA@ 00477634     cl_tent.obj
 0003:00002654       ??_C@_0BO@JJKP@models?1objects?1smoke?1tris?4md2?$AA@ 00477654     cl_tent.obj
 0003:00002674       ??_C@_0CA@IAJE@models?1objects?1explode?1tris?4md2?$AA@ 00477674     cl_tent.obj
 0003:00002694       ??_C@_0BF@FOL@beam?5list?5overflow?$CB?6?$AA@ 00477694     cl_tent.obj
 0003:000026ac       ??_C@_0BH@OMGP@CL_ParseTEnt?3?5bad?5type?$AA@ 004776ac     cl_tent.obj
 0003:000026c4       ??_C@_0BB@KGMJ@misc?1bigtele?4wav?$AA@ 004776c4     cl_tent.obj
 0003:000026d8       ??_C@_0N@IJHF@r_surfinfo?$DN0?$AA@ 004776d8     cl_view.obj
 0003:000026e8       ??_C@_0O@EFLN@r_playerpos?$DN0?$AA@ 004776e8     cl_view.obj
 0003:000026f8       ??_C@_0M@GABN@r_drawfps?$DN0?$AA@ 004776f8     cl_view.obj
 0003:00002704       ??_C@_0BA@DBIK@cl_testlights?$DN0?$AA@ 00477704     cl_view.obj
 0003:00002714       ??_C@_0BC@MOLA@cl_testentities?$DN0?$AA@ 00477714     cl_view.obj
 0003:00002728       ??_C@_0BD@HDHN@cl_testparticles?$DN0?$AA@ 00477728     cl_view.obj
 0003:0000273c       ??_C@_0P@MIGP@cl_testblend?$DN0?$AA@ 0047773c     cl_view.obj
 0003:000028ac       ??_C@_04FMJA@tile?$AA@     004778ac     cl_view.obj
 0003:000028b4       ??_C@_07NOGN@metal_l?$AA@  004778b4     cl_view.obj
 0003:000028bc       ??_C@_06CONN@fabric?$AA@   004778bc     cl_view.obj
 0003:000028c4       ??_C@_08HJKO@concrete?$AA@ 004778c4     cl_view.obj
 0003:000028d0       ??_C@_09NHKP@AUTOFLARE?$AA@ 004778d0     cl_view.obj
 0003:000028dc       ??_C@_08FGHF@SPECULAR?$AA@ 004778dc     cl_view.obj
 0003:000028e8       ??_C@_07ONAA@DIFFUSE?$AA@  004778e8     cl_view.obj
 0003:000028f0       ??_C@_06PEDG@NODRAW?$AA@   004778f0     cl_view.obj
 0003:000028f8       ??_C@_07JNCB@FLOWING?$AA@  004778f8     cl_view.obj
 0003:00002900       ??_C@_07HJLK@TRANS66?$AA@  00477900     cl_view.obj
 0003:00002908       ??_C@_07DFHB@TRANS33?$AA@  00477908     cl_view.obj
 0003:00002910       ??_C@_04MNEP@WARP?$AA@     00477910     cl_view.obj
 0003:00002918       ??_C@_03IEGK@SKY?$AA@      00477918     cl_view.obj
 0003:0000291c       ??_C@_05NIKB@SLICK?$AA@    0047791c     cl_view.obj
 0003:00002924       ??_C@_05FBHK@LIGHT?$AA@    00477924     cl_view.obj
 0003:0000292c       ??_C@_06IJPP@LADDER?$AA@   0047792c     cl_view.obj
 0003:00002934       ??_C@_0M@PFLG@TRANSLUCENT?$AA@ 00477934     cl_view.obj
 0003:00002940       ??_C@_06GEC@DETAIL?$AA@    00477940     cl_view.obj
 0003:00002948       ??_C@_0M@KPPG@DEADMONSTER?$AA@ 00477948     cl_view.obj
 0003:00002954       ??_C@_07JNDM@MONSTER?$AA@  00477954     cl_view.obj
 0003:0000295c       ??_C@_06BPO@ORIGIN?$AA@    0047795c     cl_view.obj
 0003:00002964       ??_C@_0N@DIDI@CURRENT_DOWN?$AA@ 00477964     cl_view.obj
 0003:00002974       ??_C@_0L@OIPB@CURRENT_UP?$AA@ 00477974     cl_view.obj
 0003:00002980       ??_C@_0M@DKME@CURRENT_270?$AA@ 00477980     cl_view.obj
 0003:0000298c       ??_C@_0M@BIPO@CURRENT_180?$AA@ 0047798c     cl_view.obj
 0003:00002998       ??_C@_0L@IPNI@CURRENT_90?$AA@ 00477998     cl_view.obj
 0003:000029a4       ??_C@_09LGED@CURRENT_0?$AA@ 004779a4     cl_view.obj
 0003:000029b0       ??_C@_0M@LPOP@MONSTERCLIP?$AA@ 004779b0     cl_view.obj
 0003:000029bc       ??_C@_0L@FDOC@PLAYERCLIP?$AA@ 004779bc     cl_view.obj
 0003:000029c8       ??_C@_0L@LPLL@AREAPORTAL?$AA@ 004779c8     cl_view.obj
 0003:000029d4       ??_C@_05PGEK@ALPHA?$AA@    004779d4     cl_view.obj
 0003:000029dc       ??_C@_04NEBJ@MIST?$AA@     004779dc     cl_view.obj
 0003:000029e4       ??_C@_05EJIN@WATER?$AA@    004779e4     cl_view.obj
 0003:000029ec       ??_C@_05LBMA@SLIME?$AA@    004779ec     cl_view.obj
 0003:000029f4       ??_C@_04IEEF@LAVA?$AA@     004779f4     cl_view.obj
 0003:000029fc       ??_C@_03DLI@AUX?$AA@       004779fc     cl_view.obj
 0003:00002a00       ??_C@_06DJMI@WINDOW?$AA@   00477a00     cl_view.obj
 0003:00002a08       ??_C@_05DEEH@SOLID?$AA@    00477a08     cl_view.obj
 0003:00002a10       ??_C@_01FEHD@?$AN?$AA@     00477a10     cl_view.obj
 0003:00002a14       ??_C@_08JPAH@?$CFf?5?$CFf?5?$CFf?$AA@ 00477a14     cl_view.obj
 0003:00002a20       ??_C@_04IHDC@sky?$AN?$AA@  00477a20     cl_view.obj
 0003:00002a28       ??_C@_0BD@DGJJ@unnamed?2male?1grunt?$AA@ 00477a28     cl_view.obj
 0003:00002a3c       ??_C@_0L@EFJD@client?5?$CFi?$AN?$AA@ 00477a3c     cl_view.obj
 0003:00002a48       ??_C@_07JBIL@images?$AN?$AA@ 00477a48     cl_view.obj
 0003:00002a50       ??_C@_03CCEL@?$CFs?$AN?$AA@ 00477a50     cl_view.obj
 0003:00002a54       ??_C@_0L@FPDF@weapon?4md2?$AA@ 00477a54     cl_view.obj
 0003:00002a60       ??_C@_05LFDI@pics?$AN?$AA@ 00477a60     cl_view.obj
 0003:00002a68       ??_C@_08DCJF@Map?3?5?$CFs?$AN?$AA@ 00477a68     cl_view.obj
 0003:00002a74       ??_C@_0M@KMDB@Bad?5fov?3?5?$CFf?$AA@ 00477a74     cl_view.obj
 0003:00002a80       ??_C@_0L@MJLI@model4?3?5?$CFs?$AA@ 00477a80     cl_view.obj
 0003:00002a8c       ??_C@_0L@KJEC@model3?3?5?$CFs?$AA@ 00477a8c     cl_view.obj
 0003:00002a98       ??_C@_0L@JGH@model2?3?5?$CFs?$AA@ 00477a98     cl_view.obj
 0003:00002aa4       ??_C@_09ODC@model?3?5?$CFs?$AA@ 00477aa4     cl_view.obj
 0003:00002ab0       ??_C@_0BA@JKLA@fx?3?5?$CFX?5?5rfx?3?5?$CFX?$AA@ 00477ab0     cl_view.obj
 0003:00002ac0       ??_C@_0BB@LKHC@Origin?3?5?$CFg?5?$CFg?5?$CFg?$AA@ 00477ac0     cl_view.obj
 0003:00002ad4       ??_C@_07BPLO@?9?9?9?9?9?9?9?$AA@ 00477ad4     cl_view.obj
 0003:00002adc       ??_C@_07KBLF@Entity?3?$AA@ 00477adc     cl_view.obj
 0003:00002ae4       ??_C@_0N@BNFC@Material?3?5?$CFs?$AA@ 00477ae4     cl_view.obj
 0003:00002af4       ??_C@_09DOPH@?$DP?$DP?5bad?5?$DP?$DP?$AA@ 00477af4     cl_view.obj
 0003:00002b00       ??_C@_05IKIK@SURF_?$AA@    00477b00     cl_view.obj
 0003:00002b08       ??_C@_09LFIK@Value?3?5?$CFd?$AA@ 00477b08     cl_view.obj
 0003:00002b14       ??_C@_0BD@DLNG@Normal?3?5?$CFg?5?5?$CFg?5?5?$CFg?$AA@ 00477b14     cl_view.obj
 0003:00002b28       ??_C@_0M@DHLH@Texture?3?5?$CFs?$AA@ 00477b28     cl_view.obj
 0003:00002b34       ??_C@_0BC@HOHC@Point?3?5?$CFg?5?5?$CFg?5?5?$CFg?$AA@ 00477b34     cl_view.obj
 0003:00002b48       ??_C@_0O@GKEL@?9?9?9?9?9?9?9?9?9?9?9?9?9?$AA@ 00477b48     cl_view.obj
 0003:00002b58       ??_C@_0O@JPFO@Surface?5info?3?$AA@ 00477b58     cl_view.obj
 0003:00002b68       ??_C@_08ODFJ@?$CFsUNK_?$CFX?$AA@ 00477b68     cl_view.obj
 0003:00002b74       ??_C@_05DGGH@?5?$CFs?$CFs?$AA@ 00477b74     cl_view.obj
 0003:00002b7c       ??_C@_09KGGB@CONTENTS_?$AA@ 00477b7c     cl_view.obj
 0003:00002b88       ??_C@_0P@MNKG@CONTENTS_EMPTY?$AA@ 00477b88     cl_view.obj
 0003:00002b98       ??_C@_08BHEG@?$CIcustom?$CJ?$AA@ 00477b98     cl_view.obj
 0003:00002ba4       ??_C@_0CH@GJAA@Leaf?5number?3?5?$CFd?0?5cluster?3?5?$CFi?0?5ar@ 00477ba4     cl_view.obj
 0003:00002bcc       ??_C@_0BL@LAHG@View?5direction?3?5?$CFg?5?5?$CFg?5?5?$CFg?$AA@ 00477bcc     cl_view.obj
 0003:00002be8       ??_C@_0BI@MGLN@Point?3?5?$CF?40f?5?5?$CF?40f?5?5?$CF?40f?$AA@ 00477be8     cl_view.obj
 0003:00002c00       ??_C@_0BB@FKFJ@?9?9?9?9?9?9?9?9?9?9?9?9?9?9?9?9?$AA@ 00477c00     cl_view.obj
 0003:00002c14       ??_C@_0BB@HACL@Player?5position?3?$AA@ 00477c14     cl_view.obj
 0003:00002c28       ??_C@_0CA@NEDD@FPS?3?5?$CF?42f?5?5min?3?5?$CF?42f?5?5max?3?5?$CF?42f?$AA@ 00477c28     cl_view.obj
 0003:00002c48       ??_C@_03EBAN@sky?$AA@      00477c48     cl_view.obj
 0003:00002c4c       ??_C@_0CN@NEC@Usage?3?5sky?5?$DMbasename?$DO?5?$DMrotate?$DO?5?$DM@ 00477c4c     cl_view.obj
 0003:00002c7c       ??_C@_0BA@MHPJ@con_colorText?$DN1?$AA@ 00477c7c     console.obj
 0003:00002c8c       ??_C@_0P@IME@con_wordWrap?$DN1?$AA@ 00477c8c     console.obj
 0003:00002c9c       ??_C@_0BB@FNEL@con_notifyTime?$DN3?$AA@ 00477c9c     console.obj
 0003:00002cb4       ??_C@_0BB@NPBD@0123456789?4?1?$CK?9?$CL?$AN?$AA@ 00477cb4     console.obj
 0003:00002cc8       ??_C@_07BOCA@condump?$AA@  00477cc8     console.obj
 0003:00002cd0       ??_C@_05BDJO@clear?$AA@    00477cd0     console.obj
 0003:00002cd8       ??_C@_0BL@NJLE@Usage?3?5condump?5?$DMfilename?$DO?6?$AA@ 00477cd8     console.obj
 0003:00002cf4       ??_C@_0BP@LMEF@Console?5text?5was?5dumped?5to?5?$CFs?6?$AA@ 00477cf4     console.obj
 0003:00002d14       ??_C@_0BJ@EGMD@ERROR?3?5couldn?8t?5open?5?$CFs?6?$AA@ 00477d14     console.obj
 0003:00002d30       ??_C@_09IEOG@?$CFs?1?$CFs?4txt?$AA@ 00477d30     console.obj
 0003:00003104       ??_C@_09CJGN@BackSlash?$AA@ 00478104     keys.obj
 0003:00003110       ??_C@_05LCCB@Slash?$AA@    00478110     keys.obj
 0003:00003118       ??_C@_0N@HDIE@RigntBracket?$AA@ 00478118     keys.obj
 0003:00003128       ??_C@_0M@BANH@LeftBracket?$AA@ 00478128     keys.obj
 0003:00003134       ??_C@_06LLNC@Equals?$AA@   00478134     keys.obj
 0003:0000313c       ??_C@_05JKMB@Minus?$AA@    0047813c     keys.obj
 0003:00003144       ??_C@_09MOFI@Semicolon?$AA@ 00478144     keys.obj
 0003:00003150       ??_C@_06NFB@Period?$AA@    00478150     keys.obj
 0003:00003158       ??_C@_05FBEA@Comma?$AA@    00478158     keys.obj
 0003:00003160       ??_C@_09DPKL@PrintScrn?$AA@ 00478160     keys.obj
 0003:0000316c       ??_C@_07IFP@ScrLock?$AA@   0047816c     keys.obj
 0003:00003174       ??_C@_07EFCM@NumLock?$AA@  00478174     keys.obj
 0003:0000317c       ??_C@_08PJIL@CapsLock?$AA@ 0047817c     keys.obj
 0003:00003188       ??_C@_05PFIH@Pause?$AA@    00478188     keys.obj
 0003:00003190       ??_C@_05OOJH@Aux32?$AA@    00478190     keys.obj
 0003:00003198       ??_C@_05BBCO@Aux31?$AA@    00478198     keys.obj
 0003:000031a0       ??_C@_05LLLJ@Aux30?$AA@    004781a0     keys.obj
 0003:000031a8       ??_C@_05FDDM@Aux29?$AA@    004781a8     keys.obj
 0003:000031b0       ??_C@_05PJKL@Aux28?$AA@    004781b0     keys.obj
 0003:000031b8       ??_C@_05PIPG@Aux27?$AA@    004781b8     keys.obj
 0003:000031c0       ??_C@_05FCGB@Aux26?$AA@    004781c0     keys.obj
 0003:000031c8       ??_C@_05KNNI@Aux25?$AA@    004781c8     keys.obj
 0003:000031d0       ??_C@_05HEP@Aux24?$AA@     004781d0     keys.obj
 0003:000031d8       ??_C@_05FCKK@Aux23?$AA@    004781d8     keys.obj
 0003:000031e0       ??_C@_05PIDN@Aux22?$AA@    004781e0     keys.obj
 0003:000031e8       ??_C@_05HIE@Aux21?$AA@     004781e8     keys.obj
 0003:000031f0       ??_C@_05KNBD@Aux20?$AA@    004781f0     keys.obj
 0003:000031f8       ??_C@_05GIMD@Aux19?$AA@    004781f8     keys.obj
 0003:00003200       ??_C@_05MCFE@Aux18?$AA@    00478200     keys.obj
 0003:00003208       ??_C@_05MDAJ@Aux17?$AA@    00478208     keys.obj
 0003:00003210       ??_C@_05GJJO@Aux16?$AA@    00478210     keys.obj
 0003:00003218       ??_C@_05JGCH@Aux15?$AA@    00478218     keys.obj
 0003:00003220       ??_C@_05DMLA@Aux14?$AA@    00478220     keys.obj
 0003:00003228       ??_C@_05GJFF@Aux13?$AA@    00478228     keys.obj
 0003:00003230       ??_C@_05MDMC@Aux12?$AA@    00478230     keys.obj
 0003:00003238       ??_C@_05DMHL@Aux11?$AA@    00478238     keys.obj
 0003:00003240       ??_C@_05JGOM@Aux10?$AA@    00478240     keys.obj
 0003:00003248       ??_C@_04CIDL@Aux9?$AA@     00478248     keys.obj
 0003:00003250       ??_C@_04ICKM@Aux8?$AA@     00478250     keys.obj
 0003:00003258       ??_C@_04IDPB@Aux7?$AA@     00478258     keys.obj
 0003:00003260       ??_C@_04CJGG@Aux6?$AA@     00478260     keys.obj
 0003:00003268       ??_C@_04NGNP@Aux5?$AA@     00478268     keys.obj
 0003:00003270       ??_C@_04HMEI@Aux4?$AA@     00478270     keys.obj
 0003:00003278       ??_C@_04CJKN@Aux3?$AA@     00478278     keys.obj
 0003:00003280       ??_C@_04IDDK@Aux2?$AA@     00478280     keys.obj
 0003:00003288       ??_C@_04HMID@Aux1?$AA@     00478288     keys.obj
 0003:00003290       ??_C@_04DKHG@Joy4?$AA@     00478290     keys.obj
 0003:00003298       ??_C@_04GPJD@Joy3?$AA@     00478298     keys.obj
 0003:000032a0       ??_C@_04MFAE@Joy2?$AA@     004782a0     keys.obj
 0003:000032a8       ??_C@_04DKLN@Joy1?$AA@     004782a8     keys.obj
 0003:000032b0       ??_C@_0L@PIMN@MWheelDown?$AA@ 004782b0     keys.obj
 0003:000032bc       ??_C@_08HIMM@MWheelUp?$AA@ 004782bc     keys.obj
 0003:000032c8       ??_C@_06FGAK@Mouse3?$AA@   004782c8     keys.obj
 0003:000032d0       ??_C@_06PMJN@Mouse2?$AA@   004782d0     keys.obj
 0003:000032d8       ??_C@_06DCE@Mouse1?$AA@    004782d8     keys.obj
 0003:000032e0       ??_C@_08BNGD@KP_Enter?$AA@ 004782e0     keys.obj
 0003:000032ec       ??_C@_07BMCC@KP_Plus?$AA@  004782ec     keys.obj
 0003:000032f4       ??_C@_08DDDL@KP_Minus?$AA@ 004782f4     keys.obj
 0003:00003300       ??_C@_07FIJP@KP_Star?$AA@  00478300     keys.obj
 0003:00003308       ??_C@_08BLNL@KP_Slash?$AA@ 00478308     keys.obj
 0003:00003314       ??_C@_06FGKA@KP_Del?$AA@   00478314     keys.obj
 0003:0000331c       ??_C@_07FAEH@KP_PgUp?$AA@  0047831c     keys.obj
 0003:00003324       ??_C@_0L@GMAI@KP_UpArrow?$AA@ 00478324     keys.obj
 0003:00003330       ??_C@_07BMFH@KP_Home?$AA@  00478330     keys.obj
 0003:00003338       ??_C@_0O@NKEI@KP_RightArrow?$AA@ 00478338     keys.obj
 0003:00003348       ??_C@_04FKHF@KP_5?$AA@     00478348     keys.obj
 0003:00003350       ??_C@_0N@HAMA@KP_LeftArrow?$AA@ 00478350     keys.obj
 0003:00003360       ??_C@_07COPO@KP_PgDn?$AA@  00478360     keys.obj
 0003:00003368       ??_C@_0N@KICE@KP_DownArrow?$AA@ 00478368     keys.obj
 0003:00003378       ??_C@_06NOKF@KP_End?$AA@   00478378     keys.obj
 0003:00003380       ??_C@_06PKNP@KP_Ins?$AA@   00478380     keys.obj
 0003:00003388       ??_C@_03HPMG@End?$AA@      00478388     keys.obj
 0003:0000338c       ??_C@_04OGPG@Home?$AA@     0047838c     keys.obj
 0003:00003394       ??_C@_04KKOG@PgUp?$AA@     00478394     keys.obj
 0003:0000339c       ??_C@_04NEFP@PgDn?$AA@     0047839c     keys.obj
 0003:000033a4       ??_C@_03PHMD@Del?$AA@      004783a4     keys.obj
 0003:000033a8       ??_C@_03FLLM@Ins?$AA@      004783a8     keys.obj
 0003:000033ac       ??_C@_03KKLP@F24?$AA@      004783ac     keys.obj
 0003:000033b0       ??_C@_03PPFK@F23?$AA@      004783b0     keys.obj
 0003:000033b4       ??_C@_03FFMN@F22?$AA@      004783b4     keys.obj
 0003:000033b8       ??_C@_03KKHE@F21?$AA@      004783b8     keys.obj
 0003:000033bc       ??_C@_03OD@F20?$AA@        004783bc     keys.obj
 0003:000033c0       ??_C@_03MFDD@F19?$AA@      004783c0     keys.obj
 0003:000033c4       ??_C@_03GPKE@F18?$AA@      004783c4     keys.obj
 0003:000033c8       ??_C@_03GOPJ@F17?$AA@      004783c8     keys.obj
 0003:000033cc       ??_C@_03MEGO@F16?$AA@      004783cc     keys.obj
 0003:000033d0       ??_C@_03DLNH@F15?$AA@      004783d0     keys.obj
 0003:000033d4       ??_C@_03JBEA@F14?$AA@      004783d4     keys.obj
 0003:000033d8       ??_C@_03MEKF@F13?$AA@      004783d8     keys.obj
 0003:000033dc       ??_C@_03GODC@F12?$AA@      004783dc     keys.obj
 0003:000033e0       ??_C@_03JBIL@F11?$AA@      004783e0     keys.obj
 0003:000033e4       ??_C@_03DLBM@F10?$AA@      004783e4     keys.obj
 0003:000033e8       ??_C@_02NIOF@F9?$AA@       004783e8     keys.obj
 0003:000033ec       ??_C@_02HCHC@F8?$AA@       004783ec     keys.obj
 0003:000033f0       ??_C@_02HDCP@F7?$AA@       004783f0     keys.obj
 0003:000033f4       ??_C@_02NJLI@F6?$AA@       004783f4     keys.obj
 0003:000033f8       ??_C@_02CGAB@F5?$AA@       004783f8     keys.obj
 0003:000033fc       ??_C@_02IMJG@F4?$AA@       004783fc     keys.obj
 0003:00003400       ??_C@_02NJHD@F3?$AA@       00478400     keys.obj
 0003:00003404       ??_C@_02HDOE@F2?$AA@       00478404     keys.obj
 0003:00003408       ??_C@_02IMFN@F1?$AA@       00478408     keys.obj
 0003:0000340c       ??_C@_05MGOB@Shift?$AA@    0047840c     keys.obj
 0003:00003414       ??_C@_05OPLI@RCtrl?$AA@    00478414     keys.obj
 0003:0000341c       ??_C@_04KEPD@Ctrl?$AA@     0047841c     keys.obj
 0003:00003424       ??_C@_04PILJ@RAlt?$AA@     00478424     keys.obj
 0003:0000342c       ??_C@_03LDLJ@Alt?$AA@      0047842c     keys.obj
 0003:00003430       ??_C@_0L@JHDN@RightArrow?$AA@ 00478430     keys.obj
 0003:0000343c       ??_C@_09FOP@LeftArrow?$AA@ 0047843c     keys.obj
 0003:00003448       ??_C@_09NNAL@DownArrow?$AA@ 00478448     keys.obj
 0003:00003454       ??_C@_07PELG@UpArrow?$AA@  00478454     keys.obj
 0003:0000345c       ??_C@_09PNEO@BackSpace?$AA@ 0047845c     keys.obj
 0003:00003468       ??_C@_05GGAC@Space?$AA@    00478468     keys.obj
 0003:00003470       ??_C@_06KCAA@Escape?$AA@   00478470     keys.obj
 0003:00003478       ??_C@_05LEJJ@Enter?$AA@    00478478     keys.obj
 0003:00003480       ??_C@_03CHMJ@Tab?$AA@      00478480     keys.obj
 0003:00003484       ??_C@_0BD@NPOJ@?$FO1?$DMUNKNOWN?5KEYNUM?$DO?$AA@ 00478484     keys.obj
 0003:00003498       ??_C@_04JLLN@?$CFs?$CFc?$AA@ 00478498     keys.obj
 0003:000034a0       ??_C@_09FNEH@?$CFsUnk?$CF02X?$AA@ 004784a0     keys.obj
 0003:000034ac       ??_C@_05PMEF@Ctrl?$CL?$AA@ 004784ac     keys.obj
 0003:000034b4       ??_C@_04NIFC@Alt?$CL?$AA@  004784b4     keys.obj
 0003:000034bc       ??_C@_0BC@HGGL@?$FO1?$DMKEY?5NOT?5FOUND?$DO?$AA@ 004784bc     keys.obj
 0003:000034d0       ??_C@_04JBBA@?$CC?$CFs?$CC?$AA@ 004784d0     keys.obj
 0003:000034d8       ??_C@_06KMHK@?$CFs?1?$CK?$CFs?$AA@ 004784d8     keys.obj
 0003:000034e0       ??_C@_02OOND@?4?4?$AA@     004784e0     keys.obj
 0003:000034e4       ??_C@_04PIAG@?4dm2?$AA@    004784e4     keys.obj
 0003:000034ec       ??_C@_05IECP@demos?$AA@    004784ec     keys.obj
 0003:000034f4       ??_C@_07KKKB@demomap?$AA@  004784f4     keys.obj
 0003:000034fc       ??_C@_04EFJD@maps?$AA@     004784fc     keys.obj
 0003:00003504       ??_C@_03HKIL@map?$AA@      00478504     keys.obj
 0003:00003508       ??_C@_05JKGE@?$CFs?5?$CFs?$AA@ 00478508     keys.obj
 0003:00003510       ??_C@_05CHFJ@?$FN?1?$CFs?6?$AA@ 00478510     keys.obj
 0003:00003518       ??_C@_0L@FG@bind?5?$CFs?5?$CFs?$AA@ 00478518     keys.obj
 0003:00003524       ??_C@_04FBJP@bind?$AA@     00478524     keys.obj
 0003:0000352c       ??_C@_0M@NPEB@alias?5?$CFs?5?$CFs?$AA@ 0047852c     keys.obj
 0003:00003538       ??_C@_05CBKM@alias?$AA@    00478538     keys.obj
 0003:00003540       ??_C@_05PIOP@ctrl?$CL?$AA@ 00478540     keys.obj
 0003:00003548       ??_C@_04HCBA@alt?$CL?$AA@  00478548     keys.obj
 0003:00003550       ??_C@_0O@PPPM@?5?5?$FO2?$CFc?$FO7?5?5?$CFs?6?$AA@ 00478550     keys.obj
 0003:00003560       ??_C@_03CENI@?$CFs?5?$AA@  00478560     keys.obj
 0003:00003564       ??_C@_06BGHK@?$CFs?5?$CFs?5?$AA@ 00478564     keys.obj
 0003:0000356c       ??_C@_0M@CDJG@bind?5?$CFs?5?$CFs?6?$AA@ 0047856c     keys.obj
 0003:00003578       ??_C@_08KMAH@bindlist?$AA@ 00478578     keys.obj
 0003:00003584       ??_C@_09KOHL@unbindall?$AA@ 00478584     keys.obj
 0003:00003590       ??_C@_06NILL@unbind?$AA@   00478590     keys.obj
 0003:00003598       ??_C@_0BK@ECNJ@Usage?3?5unbind?5?$DMkey?5mask?$DO?6?$AA@ 00478598     keys.obj
 0003:000035b4       ??_C@_0BI@GELF@?$CC?$CFs?$CC?5isn?8t?5a?5valid?5key?6?$AA@ 004785b4     keys.obj
 0003:000035cc       ??_C@_0BD@FLKM@?$CFd?5key?$CIs?$CJ?5unbound?6?$AA@ 004785cc     keys.obj
 0003:000035e0       ??_C@_0L@OPEO@unbind?5?$CFs?6?$AA@ 004785e0     keys.obj
 0003:000035ec       ??_C@_0BN@OCDO@Usage?3?5bind?5?$DMkey?$DO?5?$FLcommand?$FN?6?$AA@ 004785ec     keys.obj
 0003:0000360c       ??_C@_0BD@DLNG@?$CC?$CFs?$CC?5is?5not?5bound?6?$AA@ 0047860c     keys.obj
 0003:00003620       ??_C@_0N@DLB@?$CC?$CFs?$CC?5?$DN?5?$CC?$CFs?$CC?6?$AA@ 00478620     keys.obj
 0003:00003630       ??_C@_0CB@GLPL@Usage?3?5bindlist?5?$FL?$DMaction?5mask?$DO?$FN?6@ 00478630     keys.obj
 0003:00003654       ??_C@_0BE@PFHH@?5?5?5?5?$CFd?5binds?5found?6?$AA@ 00478654     keys.obj
 0003:00003668       ??_C@_0N@NGMA@?$FO3?$CF?99s?5?$FO7?$CFs?6?$AA@ 00478668     keys.obj
 0003:00003678       ??_C@_0BL@KKPI@?9?9?9key?9?9?9?9action?9?9?9?9?9?9?9?9?9?6?$AA@ 00478678     keys.obj
 0003:00003694       ??_C@_09CIGL@?$CFs?5?$CFd?5?$CFd?6?$AA@ 00478694     keys.obj
 0003:000036a0       ??_C@_0L@BOPL@?9?$CFs?5?$CFd?5?$CFd?6?$AA@ 004786a0     keys.obj
 0003:000036ac       ??_C@_0BE@HLJC@Bad?5cls?4key_dest?5?$CFd?$AA@ 004786ac     keys.obj
 0003:000036c0       ??_C@_0N@GBFE@cmd?5putaway?6?$AA@ 004786c0     keys.obj
 0003:000038d0       ??_C@_04KDFO@beam?$AA@     004788d0     menu.obj
 0003:000038d8       ??_C@_05LKBC@rings?$AA@    004788d8     menu.obj
 0003:000038e0       ??_C@_06OEOA@spiral?$AA@   004788e0     menu.obj
 0003:000038e8       ??_C@_08NHOO@original?$AA@ 004788e8     menu.obj
 0003:000038f4       ??_C@_05GMF@white?$AA@     004788f4     menu.obj
 0003:000038fc       ??_C@_04IADA@cyan?$AA@     004788fc     menu.obj
 0003:00003904       ??_C@_07FEDI@magenta?$AA@  00478904     menu.obj
 0003:0000390c       ??_C@_04FEG@blue?$AA@      0047890c     menu.obj
 0003:00003914       ??_C@_06GNCM@yellow?$AA@   00478914     menu.obj
 0003:0000391c       ??_C@_05DOGI@green?$AA@    0047891c     menu.obj
 0003:00003924       ??_C@_03CMLD@red?$AA@      00478924     menu.obj
 0003:00003928       ??_C@_07FMEP@default?$AA@  00478928     menu.obj
 0003:00003930       ??_C@_06NCNO@center?$AA@   00478930     menu.obj
 0003:00003938       ??_C@_04GACI@left?$AA@     00478938     menu.obj
 0003:00003940       ??_C@_05PJFF@right?$AA@    00478940     menu.obj
 0003:00003948       ??_C@_0N@OGEE@User?5defined?$AA@ 00478948     menu.obj
 0003:00003958       ??_C@_06FHHN@T1?1LAN?$AA@  00478958     menu.obj
 0003:00003960       ??_C@_0BA@NKHA@Dual?5ISDN?1Cable?$AA@ 00478960     menu.obj
 0003:00003970       ??_C@_0M@CKMP@Single?5ISDN?$AA@ 00478970     menu.obj
 0003:0000397c       ??_C@_0L@DKAE@33?46?5Modem?$AA@ 0047897c     menu.obj
 0003:00003988       ??_C@_0L@HCIP@28?48?5Modem?$AA@ 00478988     menu.obj
 0003:00003994       ??_C@_08FJAL@by?5model?$AA@ 00478994     menu.obj
 0003:000039a0       ??_C@_07HFPB@by?5skin?$AA@ 004789a0     menu.obj
 0003:000039a8       ??_C@_03GFNH@tag?$AA@      004789a8     menu.obj
 0003:000039ac       ??_C@_0M@FDIE@cooperative?$AA@ 004789ac     menu.obj
 0003:000039b8       ??_C@_0L@IKBP@deathmatch?$AA@ 004789b8     menu.obj
 0003:000039c4       ??_C@_04CEEJ@hard?$AA@     004789c4     menu.obj
 0003:000039cc       ??_C@_06LDM@medium?$AA@    004789cc     menu.obj
 0003:000039d4       ??_C@_04FFGK@easy?$AA@     004789d4     menu.obj
 0003:000039dc       ??_C@_03LGKI@yes?$AA@      004789dc     menu.obj
 0003:000039e0       ??_C@_02ELCB@no?$AA@       004789e0     menu.obj
 0003:000039e4       ??_C@_0BA@HGCM@max?5performance?$AA@ 004789e4     menu.obj
 0003:000039f4       ??_C@_0BC@PPOD@max?5compatibility?$AA@ 004789f4     menu.obj
 0003:00003a08       ??_C@_06KADK@44?5khz?$AA@  00478a08     menu.obj
 0003:00003a10       ??_C@_06BNCF@22?5khz?$AA@  00478a10     menu.obj
 0003:00003a18       ??_C@_06EDKK@11?5khz?$AA@  00478a18     menu.obj
 0003:00003a20       ??_C@_07IHHA@enabled?$AA@  00478a20     menu.obj
 0003:00003a28       ??_C@_08FDGF@disabled?$AA@ 00478a28     menu.obj
 0003:00003a34       ??_C@_0M@GOEC@m_main_quit?$AA@ 00478a34     menu.obj
 0003:00003a40       ??_C@_0N@IHOK@m_main_video?$AA@ 00478a40     menu.obj
 0003:00003a50       ??_C@_0P@GNPE@m_main_options?$AA@ 00478a50     menu.obj
 0003:00003a60       ??_C@_0BD@JFAK@m_main_multiplayer?$AA@ 00478a60     menu.obj
 0003:00003a74       ??_C@_0M@NEPC@m_main_game?$AA@ 00478a74     menu.obj
 0003:00003a80       ??_C@_0P@DGIH@misc?1menu3?4wav?$AA@ 00478a80     menu.obj
 0003:00003a90       ??_C@_0P@JGKC@misc?1menu2?4wav?$AA@ 00478a90     menu.obj
 0003:00003aa0       ??_C@_0P@HGMN@misc?1menu1?4wav?$AA@ 00478aa0     menu.obj
 0003:00003ab0       ??_C@_0BL@LDPL@M_PushMenu?3?5MAX_MENU_DEPTH?$AA@ 00478ab0     menu.obj
 0003:00003acc       ??_C@_0BF@CFFI@M_PopMenu?3?5depth?5?$DM?51?$AA@ 00478acc     menu.obj
 0003:00003ae4       ??_C@_0L@BLAH@m_cursor?$CFd?$AA@ 00478ae4     menu.obj
 0003:00003af0       ??_C@_0M@HEMB@m_main_logo?$AA@ 00478af0     menu.obj
 0003:00003afc       ??_C@_0O@IMJO@m_main_plaque?$AA@ 00478afc     menu.obj
 0003:00003b0c       ??_C@_04PLJH@_sel?$AA@     00478b0c     menu.obj
 0003:00003b14       ??_C@_0BF@NADA@m_banner_multiplayer?$AA@ 00478b14     menu.obj
 0003:00003b2c       ??_C@_0N@KEJN@player?5setup?$AA@ 00478b2c     menu.obj
 0003:00003b3c       ??_C@_0BF@KNCM@start?5network?5server?$AA@ 00478b3c     menu.obj
 0003:00003b54       ??_C@_0BE@LOFH@join?5network?5server?$AA@ 00478b54     menu.obj
 0003:00003b68       ??_C@_0M@PFMJ@disconnect?6?$AA@ 00478b68     menu.obj
 0003:00003b74       ??_C@_0CE@JBIB@enter?5to?5change?0?5backspace?5to?5cl@ 00478b74     menu.obj
 0003:00003b98       ??_C@_09EDPF@binds?4lst?$AA@ 00478b98     menu.obj
 0003:00003ba4       ??_C@_0L@KFLF@?$CFs?5or?5?$CFs?$CFs?$AA@ 00478ba4     menu.obj
 0003:00003bb0       ??_C@_04HKIG@?5?4?4?4?$AA@ 00478bb0     menu.obj
 0003:00003bb8       ??_C@_0O@DGOB@?$FO1?$CInot?5bound?$CJ?$AA@ 00478bb8     menu.obj
 0003:00003bc8       ??_C@_0CG@FAHM@press?5a?5key?5or?5button?5for?5this?5a@ 00478bc8     menu.obj
 0003:00003bf0       ??_C@_0BB@JHPD@?$FO1reset?5defaults?$AA@ 00478bf0     menu.obj
 0003:00003c04       ??_C@_0BD@CAPK@customize?5controls?$AA@ 00478c04     menu.obj
 0003:00003c18       ??_C@_0N@DAJN@use?5joystick?$AA@ 00478c18     menu.obj
 0003:00003c28       ??_C@_0BA@CPP@crosshair?5color?$AA@ 00478c28     menu.obj
 0003:00003c38       ??_C@_0BA@DCNA@crosshair?5shape?$AA@ 00478c38     menu.obj
 0003:00003c48       ??_C@_09ONIG@free?5look?$AA@ 00478c48     menu.obj
 0003:00003c54       ??_C@_0L@DEGL@lookstrafe?$AA@ 00478c54     menu.obj
 0003:00003c60       ??_C@_0L@MEDB@lookspring?$AA@ 00478c60     menu.obj
 0003:00003c6c       ??_C@_0N@HDIH@invert?5mouse?$AA@ 00478c6c     menu.obj
 0003:00003c7c       ??_C@_0L@NGMM@always?5run?$AA@ 00478c7c     menu.obj
 0003:00003c88       ??_C@_0M@PPMI@mouse?5speed?$AA@ 00478c88     menu.obj
 0003:00003c94       ??_C@_0BE@GDGM@sound?5compatibility?$AA@ 00478c94     menu.obj
 0003:00003ca8       ??_C@_0P@GGIE@reverse?5stereo?$AA@ 00478ca8     menu.obj
 0003:00003cb8       ??_C@_0M@EAAA@8?5bit?5sound?$AA@ 00478cb8     menu.obj
 0003:00003cc4       ??_C@_0O@FCMP@sound?5quality?$AA@ 00478cc4     menu.obj
 0003:00003cd4       ??_C@_08ILMK@CD?5music?$AA@ 00478cd4     menu.obj
 0003:00003ce0       ??_C@_0P@EHL@effects?5volume?$AA@ 00478ce0     menu.obj
 0003:00003cf0       ??_C@_09HPMN@s_primary?$AA@ 00478cf0     menu.obj
 0003:00003cfc       ??_C@_0P@ODNO@crosshairColor?$AA@ 00478cfc     menu.obj
 0003:00003d0c       ??_C@_0M@JGHL@in_joystick?$AA@ 00478d0c     menu.obj
 0003:00003d18       ??_C@_06HIKK@cl_run?$AA@   00478d18     menu.obj
 0003:00003d20       ??_C@_08BADN@freelook?$AA@ 00478d20     menu.obj
 0003:00003d2c       ??_C@_0M@CKB@sensitivity?$AA@ 00478d2c     menu.obj
 0003:00003d38       ??_C@_0BB@KJKE@s_reverse_stereo?$AA@ 00478d38     menu.obj
 0003:00003d4c       ??_C@_0N@BJNB@s_loadas8bit?$AA@ 00478d4c     menu.obj
 0003:00003d5c       ??_C@_07BPFK@cd_nocd?$AA@  00478d5c     menu.obj
 0003:00003d64       ??_C@_08POHF@s_volume?$AA@ 00478d64     menu.obj
 0003:00003d70       ??_C@_0BC@LCK@exec?5default?4cfg?6?$AA@ 00478d70     menu.obj
 0003:00003d84       ??_C@_07FHKJ@m_pitch?$AA@  00478d84     menu.obj
 0003:00003d8c       ??_C@_0BD@KJEP@please?5be?5patient?4?$AA@ 00478d8c     menu.obj
 0003:00003da0       ??_C@_0BO@LNLI@could?5take?5up?5to?5a?5minute?0?5so?$AA@ 00478da0     menu.obj
 0003:00003dc0       ??_C@_0CC@BPKH@Restarting?5the?5sound?5system?4?5Thi@ 00478dc0     menu.obj
 0003:00003de4       ??_C@_09KDID@pics?1ch?$CFd?$AA@ 00478de4     menu.obj
 0003:00003df0       ??_C@_08LCMG@?$FO1?$CInone?$CJ?$AA@ 00478df0     menu.obj
 0003:00003dfc       ??_C@_0BB@GKOM@m_banner_options?$AA@ 00478dfc     menu.obj
 0003:00003e10       ??_C@_08BIOO@rcredits?$AA@ 00478e10     menu.obj
 0003:00003e1c       ??_C@_08MJMH@xcredits?$AA@ 00478e1c     menu.obj
 0003:00003e28       ??_C@_06CMKC@xatrix?$AA@   00478e28     menu.obj
 0003:00003e30       ??_C@_07ECN@credits?$AA@   00478e30     menu.obj
 0003:00003e38       ??_C@_09HNCJ@save?5game?$AA@ 00478e38     menu.obj
 0003:00003e44       ??_C@_09EAJD@load?5game?$AA@ 00478e44     menu.obj
 0003:00003e50       ??_C@_05MIHE@skill?$AA@    00478e50     menu.obj
 0003:00003e58       ??_C@_0CB@PGGM@killserver?6loading?6wait?6newgame?6@ 00478e58     menu.obj
 0003:00003e7c       ??_C@_09IDKD@gamerules?$AA@ 00478e7c     menu.obj
 0003:00003e88       ??_C@_04INDM@coop?$AA@     00478e88     menu.obj
 0003:00003e90       ??_C@_01FBAH@1?$AA@        00478e90     menu.obj
 0003:00003e94       ??_C@_01KOLO@2?$AA@        00478e94     menu.obj
 0003:00003e98       ??_C@_0O@PMHE@m_banner_game?$AA@ 00478e98     menu.obj
 0003:00003ea8       ??_C@_0BG@BDPF@?1save?1save?$CFd?1shot?4pcx?$AA@ 00478ea8     menu.obj
 0003:00003ec0       ??_C@_07KIGE@?$DMEMPTY?$DO?$AA@ 00478ec0     menu.obj
 0003:00003ec8       ??_C@_0BK@HGCJ@?$CFs?1save?1save?$CFd?1server?4ssv?$AA@ 00478ec8     menu.obj
 0003:00003ee4       ??_C@_02JKAF@rb?$AA@       00478ee4     menu.obj
 0003:00003ee8       ??_C@_0N@CFFO@load?5save?$CFd?6?$AA@ 00478ee8     menu.obj
 0003:00003ef8       ??_C@_0BD@JKMN@m_banner_load_game?$AA@ 00478ef8     menu.obj
 0003:00003f0c       ??_C@_0BD@KHHH@m_banner_save_game?$AA@ 00478f0c     menu.obj
 0003:00003f20       ??_C@_0N@CPEK@save?5save?$CFd?6?$AA@ 00478f20     menu.obj
 0003:00003f30       ??_C@_0N@KDGA@address?5book?$AA@ 00478f30     menu.obj
 0003:00003f40       ??_C@_0BD@CJGK@search?5for?5servers?$AA@ 00478f40     menu.obj
 0003:00003f54       ??_C@_0BH@EHAO@press?5ENTER?5to?5connect?$AA@ 00478f54     menu.obj
 0003:00003f6c       ??_C@_0M@KOPI@?$DMno?5server?$DO?$AA@ 00478f6c     menu.obj
 0003:00003f78       ??_C@_0O@IEPF@connect?5to?4?4?4?$AA@ 00478f78     menu.obj
 0003:00003f88       ??_C@_0M@HMCF@connect?5?$CFs?6?$AA@ 00478f88     menu.obj
 0003:00003f94       ??_C@_0CC@IHBN@Searching?5for?5local?5servers?0?5thi@ 00478f94     menu.obj
 0003:00003fb8       ??_C@_0BF@JHPK@m_banner_join_server?$AA@ 00478fb8     menu.obj
 0003:00003fd0       ??_C@_05PKJE@begin?$AA@    00478fd0     menu.obj
 0003:00003fd8       ??_C@_0M@INKA@browse?5maps?$AA@ 00478fd8     menu.obj
 0003:00003fe4       ??_C@_0BB@JIPI@deathmatch?5flags?$AA@ 00478fe4     menu.obj
 0003:00003ff8       ??_C@_08NNNB@hostname?$AA@ 00478ff8     menu.obj
 0003:00004004       ??_C@_01KPCI@8?$AA@        00479004     menu.obj
 0003:00004008       ??_C@_0M@HNOE@max?5players?$AA@ 00479008     menu.obj
 0003:00004014       ??_C@_0L@HOE@frag?5limit?$AA@ 00479014     menu.obj
 0003:00004020       ??_C@_09DPJO@fraglimit?$AA@ 00479020     menu.obj
 0003:0000402c       ??_C@_09GBNJ@timelimit?$AA@ 0047902c     menu.obj
 0003:00004038       ??_C@_0N@CIAO@0?5?$DN?5no?5limit?$AA@ 00479038     menu.obj
 0003:00004048       ??_C@_0L@KILK@time?5limit?$AA@ 00479048     menu.obj
 0003:00004054       ??_C@_05NJJD@rules?$AA@    00479054     menu.obj
 0003:0000405c       ??_C@_0M@IFFP@initial?5map?$AA@ 0047905c     menu.obj
 0003:00004068       ??_C@_05OMCJ@?$CFs?6?$CFs?$AA@ 00479068     menu.obj
 0003:00004070       ??_C@_0BI@OHHO@Couldn?8t?5find?5maps?4lst?6?$AA@ 00479070     menu.obj
 0003:00004088       ??_C@_08INBG@maps?4lst?$AA@ 00479088     menu.obj
 0003:00004094       ??_C@_0M@OMFL@?$CFs?1maps?4lst?$AA@ 00479094     menu.obj
 0003:000040a0       ??_C@_0BE@OPMB@N?1A?5for?5cooperative?$AA@ 004790a0     menu.obj
 0003:000040b4       ??_C@_01FBMM@4?$AA@        004790b4     menu.obj
 0003:000040b8       ??_C@_0BK@PAEC@4?5maximum?5for?5cooperative?$AA@ 004790b8     menu.obj
 0003:000040d4       ??_C@_07MFI@map?5?$CFs?6?$AA@ 004790d4     menu.obj
 0003:000040dc       ??_C@_0BC@MGDF@gamemap?5?$CC?$CK?$CFs$?$CFs?$CC?6?$AA@ 004790dc     menu.obj
 0003:000040f0       ??_C@_05IIAE@start?$AA@    004790f0     menu.obj
 0003:000040f8       ??_C@_09LOGP@unitstart?$AA@ 004790f8     menu.obj
 0003:00004104       ??_C@_08OEFI@bosstart?$AA@ 00479104     menu.obj
 0003:00004110       ??_C@_05MNF@boss1?$AA@     00479110     menu.obj
 0003:00004118       ??_C@_05FFHM@city1?$AA@    00479118     menu.obj
 0003:00004120       ??_C@_07HOML@hangar1?$AA@  00479120     menu.obj
 0003:00004128       ??_C@_06HPEJ@bstart?$AA@   00479128     menu.obj
 0003:00004130       ??_C@_06CDGP@biggun?$AA@   00479130     menu.obj
 0003:00004138       ??_C@_06OAL@pstart?$AA@    00479138     menu.obj
 0003:00004140       ??_C@_06PEG@power1?$AA@    00479140     menu.obj
 0003:00004148       ??_C@_05DJAD@fact1?$AA@    00479148     menu.obj
 0003:00004150       ??_C@_06HFFP@mintro?$AA@   00479150     menu.obj
 0003:00004158       ??_C@_05ENKO@bunk1?$AA@    00479158     menu.obj
 0003:00004160       ??_C@_0P@EADO@remove?5spheres?$AA@ 00479160     menu.obj
 0003:00004170       ??_C@_0BD@OLCO@2x?14x?5stacking?5off?$AA@ 00479170     menu.obj
 0003:00004184       ??_C@_0N@LPPI@remove?5nukes?$AA@ 00479184     menu.obj
 0003:00004194       ??_C@_0N@KPCC@remove?5mines?$AA@ 00479194     menu.obj
 0003:000041a4       ??_C@_0O@CFML@friendly?5fire?$AA@ 004791a4     menu.obj
 0003:000041b4       ??_C@_09NCLB@quad?5drop?$AA@ 004791b4     menu.obj
 0003:000041c0       ??_C@_09GHAH@fixed?5FOV?$AA@ 004791c0     menu.obj
 0003:000041cc       ??_C@_0O@IGHH@infinite?5ammo?$AA@ 004791cc     menu.obj
 0003:000041dc       ??_C@_0L@JIOL@allow?5exit?$AA@ 004791dc     menu.obj
 0003:000041e8       ??_C@_08FHKG@teamplay?$AA@ 004791e8     menu.obj
 0003:000041f4       ??_C@_0O@BPHA@force?5respawn?$AA@ 004791f4     menu.obj
 0003:00004204       ??_C@_08ECAP@same?5map?$AA@ 00479204     menu.obj
 0003:00004210       ??_C@_0P@PHOJ@spawn?5farthest?$AA@ 00479210     menu.obj
 0003:00004220       ??_C@_0M@GEBP@allow?5armor?$AA@ 00479220     menu.obj
 0003:0000422c       ??_C@_0N@LLOO@allow?5health?$AA@ 0047922c     menu.obj
 0003:0000423c       ??_C@_0P@JENC@allow?5powerups?$AA@ 0047923c     menu.obj
 0003:0000424c       ??_C@_0BB@ICPM@instant?5powerups?$AA@ 0047924c     menu.obj
 0003:00004260       ??_C@_0N@BOBM@weapons?5stay?$AA@ 00479260     menu.obj
 0003:00004270       ??_C@_0P@ENLL@falling?5damage?$AA@ 00479270     menu.obj
 0003:00004280       ??_C@_07NJLK@dmflags?$AA@  00479280     menu.obj
 0003:00004288       ??_C@_0N@FJJN@dmflags?5?$DN?5?$CFd?$AA@ 00479288     menu.obj
 0003:00004298       ??_C@_0BG@CNCP@allow_download_sounds?$AA@ 00479298     menu.obj
 0003:000042b0       ??_C@_06HADE@sounds?$AA@   004792b0     menu.obj
 0003:000042b8       ??_C@_0BG@EEF@allow_download_models?$AA@ 004792b8     menu.obj
 0003:000042d0       ??_C@_06FJFO@models?$AA@   004792d0     menu.obj
 0003:000042d8       ??_C@_0BH@EOHJ@allow_download_players?$AA@ 004792d8     menu.obj
 0003:000042f0       ??_C@_0BE@IECK@player?5models?1skins?$AA@ 004792f0     menu.obj
 0003:00004304       ??_C@_0BE@LNDL@allow_download_maps?$AA@ 00479304     menu.obj
 0003:00004318       ??_C@_0BC@HOGO@allow?5downloading?$AA@ 00479318     menu.obj
 0003:0000432c       ??_C@_0BB@FKPK@Download?5Options?$AA@ 0047932c     menu.obj
 0003:00004340       ??_C@_0P@EAMI@allow_download?$AA@ 00479340     menu.obj
 0003:00004350       ??_C@_0BF@IBBK@m_banner_addressbook?$AA@ 00479350     menu.obj
 0003:00004368       ??_C@_0BP@OBEJ@?$FO1No?5valid?5player?5models?5found?$AA@ 00479368     menu.obj
 0003:00004388       ??_C@_0BB@LABK@download?5options?$AA@ 00479388     menu.obj
 0003:0000439c       ??_C@_0O@CHM@connect?5speed?$AA@ 0047939c     menu.obj
 0003:000043ac       ??_C@_04MMDE@rate?$AA@     004793ac     menu.obj
 0003:000043b4       ??_C@_0L@JGGH@handedness?$AA@ 004793b4     menu.obj
 0003:000043c0       ??_C@_0L@IEFD@rail?5color?$AA@ 004793c0     menu.obj
 0003:000043cc       ??_C@_09ELEN@railcolor?$AA@ 004793cc     menu.obj
 0003:000043d8       ??_C@_09MLCK@rail?5type?$AA@ 004793d8     menu.obj
 0003:000043e4       ??_C@_08NFMK@railtype?$AA@ 004793e4     menu.obj
 0003:000043f0       ??_C@_04OFAC@skin?$AA@     004793f0     menu.obj
 0003:000043f8       ??_C@_05LHJL@model?$AA@    004793f8     menu.obj
 0003:00004400       ??_C@_04OPJK@name?$AA@     00479400     menu.obj
 0003:00004408       ??_C@_05DJEP@grunt?$AA@    00479408     menu.obj
 0003:00004410       ??_C@_04KBBO@hand?$AA@     00479410     menu.obj
 0003:00004418       ??_C@_0BJ@MLOE@ModelCallback?3?5bad?5index?$AA@ 00479418     menu.obj
 0003:00004434       ??_C@_06NAEO@?$CFs?1?$CK?4?$CK?$AA@ 00479434     menu.obj
 0003:0000443c       ??_C@_0M@JMPH@?$CFs?1tris?4md2?$AA@ 0047943c     menu.obj
 0003:00004448       ??_C@_0P@NIK@?$CFs?1players?1?$CK?4?$CK?$AA@ 00479448     menu.obj
 0003:00004458       ??_C@_06CMFA@_i?4pcx?$AA@  00479458     menu.obj
 0003:00004460       ??_C@_04KGKE@?$CFs?$FO7?$AA@ 00479460     menu.obj
 0003:00004468       ??_C@_0BE@DNIO@No?5levelshots?5found?$AA@ 00479468     menu.obj
 0003:0000447c       ??_C@_0CG@NOJD@Maximum?5number?5of?5levelshots?5rea@ 0047947c     menu.obj
 0003:000044a4       ??_C@_0M@HBDC@maps?1?$CFs?4bsp?$AA@ 004794a4     menu.obj
 0003:000044b0       ??_C@_0BC@KALF@?$CFs?1levelshots?1?$CK?4?$CK?$AA@ 004794b0     menu.obj
 0003:000044c4       ??_C@_03NAME@?4?4?4?$AA@   004794c4     menu.obj
 0003:000044c8       ??_C@_0BD@MHLF@?1levelshots?1?$CFs?4pcx?$AA@ 004794c8     menu.obj
 0003:000044dc       ??_C@_09PFNO@menu_quit?$AA@ 004794dc     menu.obj
 0003:000044e8       ??_C@_09NOON@menu_keys?$AA@ 004794e8     menu.obj
 0003:000044f4       ??_C@_0N@FFLM@menu_options?$AA@ 004794f4     menu.obj
 0003:00004504       ??_C@_0L@CAHB@menu_video?$AA@ 00479504     menu.obj
 0003:00004510       ??_C@_0BB@JJLE@menu_multiplayer?$AA@ 00479510     menu.obj
 0003:00004524       ??_C@_0N@JGCC@menu_credits?$AA@ 00479524     menu.obj
 0003:00004534       ??_C@_0BF@FDOP@menu_downloadoptions?$AA@ 00479534     menu.obj
 0003:0000454c       ??_C@_0BC@IDMK@menu_playerconfig?$AA@ 0047954c     menu.obj
 0003:00004560       ??_C@_0O@CMJG@menu_dmbrowse?$AA@ 00479560     menu.obj
 0003:00004570       ??_C@_0P@GOII@menu_dmoptions?$AA@ 00479570     menu.obj
 0003:00004580       ??_C@_0BB@POMC@menu_startserver?$AA@ 00479580     menu.obj
 0003:00004594       ??_C@_0BB@MIJO@menu_addressbook?$AA@ 00479594     menu.obj
 0003:000045a8       ??_C@_0BA@MHIP@menu_joinserver?$AA@ 004795a8     menu.obj
 0003:000045b8       ??_C@_0O@LJOP@menu_savegame?$AA@ 004795b8     menu.obj
 0003:000045c8       ??_C@_0O@DCM@menu_loadgame?$AA@ 004795c8     menu.obj
 0003:000045d8       ??_C@_09EPGO@menu_game?$AA@ 004795d8     menu.obj
 0003:000045e4       ??_C@_09NOPB@menu_main?$AA@ 004795e4     menu.obj
 0003:000045f0       ??_C@_0DA@KOFB@GetMenuItem?3?5item?5index?5?$CFd?5is?5ou@ 004795f0     qmenu.obj
 0003:00004620       ??_C@_0BC@NAF@invalid?5item?5list?$AA@ 00479620     qmenu.obj
 0003:00004634       ??_C@_0CN@IICF@double?5item?5?$CC?$CFs?$CC?5in?5menu?0?5index?$DN@ 00479634     qmenu.obj
 0003:00004664       ??_C@_0N@MDAO@r_lightmap?$DN0?$AA@ 00479664     ref_vars.obj
 0003:00004674       ??_C@_0P@GG@r_fullbright?$DN0?$AA@ 00479674     ref_vars.obj
 0003:00004684       ??_C@_0P@NIPA@r_saturation?$DN1?$AA@ 00479684     ref_vars.obj
 0003:00004694       ??_C@_0N@LACP@r_contrast?$DN1?$AA@ 00479694     ref_vars.obj
 0003:000046a4       ??_C@_0P@FMPO@r_brightness?$DN1?$AA@ 004796a4     ref_vars.obj
 0003:000046b4       ??_C@_09HGJM@r_gamma?$DN1?$AA@ 004796b4     ref_vars.obj
 0003:000046c0       ??_C@_0P@CBCI@r_fullscreen?$DN1?$AA@ 004796c0     ref_vars.obj
 0003:000046d0       ??_C@_0L@FPMF@vid_ref?$DNgl?$AA@ 004796d0     ref_vars.obj
 0003:000046dc       ??_C@_0M@BBBI@s_primary?$DN0?$AA@ 004796dc     snd_dma.obj
 0003:000046e8       ??_C@_0O@GGCA@s_testsound?$DN0?$AA@ 004796e8     snd_dma.obj
 0003:000046f8       ??_C@_08FKAD@s_show?$DN0?$AA@ 004796f8     snd_dma.obj
 0003:00004704       ??_C@_0P@PBCG@s_mixahead?$DN0?42?$AA@ 00479704     snd_dma.obj
 0003:00004714       ??_C@_0BD@NANA@s_reverse_stereo?$DN0?$AA@ 00479714     snd_dma.obj
 0003:00004728       ??_C@_0P@LFBM@s_loadas8bit?$DN0?$AA@ 00479728     snd_dma.obj
 0003:00004738       ??_C@_08HICG@s_khz?$DN22?$AA@ 00479738     snd_dma.obj
 0003:00004744       ??_C@_0N@HCDJ@s_volume?$DN0?47?$AA@ 00479744     snd_dma.obj
 0003:00004754       ??_C@_0BB@FCBJ@0x?$CFX?5dma?5buffer?6?$AA@ 00479754     snd_dma.obj
 0003:00004768       ??_C@_0L@JCHF@?$CF5d?5speed?6?$AA@ 00479768     snd_dma.obj
 0003:00004774       ??_C@_0BG@JJMA@?$CF5d?5submission_chunk?6?$AA@ 00479774     snd_dma.obj
 0003:0000478c       ??_C@_0BA@MLCC@?$CF5d?5samplebits?6?$AA@ 0047978c     snd_dma.obj
 0003:0000479c       ??_C@_0P@IGHG@?$CF5d?5samplepos?6?$AA@ 0047979c     snd_dma.obj
 0003:000047ac       ??_C@_0N@KDEK@?$CF5d?5samples?6?$AA@ 004797ac     snd_dma.obj
 0003:000047bc       ??_C@_0M@PEPK@?$CF5d?5stereo?6?$AA@ 004797bc     snd_dma.obj
 0003:000047c8       ??_C@_0BK@JHHA@sound?5system?5not?5started?6?$AA@ 004797c8     snd_dma.obj
 0003:000047e4       ??_C@_0BJ@ODPP@Parsed?5?$CFi?5model?5genders?6?$AA@ 004797e4     snd_dma.obj
 0003:00004800       ??_C@_0BI@CIPL@model?4lst?5is?5too?5large?6?$AA@ 00479800     snd_dma.obj
 0003:00004818       ??_C@_0BC@IFFH@Female?5model?3?5?$CFs?6?$AA@ 00479818     snd_dma.obj
 0003:0000482c       ??_C@_0CA@KOBO@players?1model?4lst?5is?5not?5found?6?$AA@ 0047982c     snd_dma.obj
 0003:0000484c       ??_C@_0BC@BFFJ@players?1model?4lst?$AA@ 0047984c     snd_dma.obj
 0003:00004860       ??_C@_07EIBF@crakhor?$AA@  00479860     snd_dma.obj
 0003:00004868       ??_C@_0CG@MIPN@?9?9?9?9?9?9?9?9?9?9?9?9?9?9?9?9?9?9?9?9?9?9?9?9?9?9?9?9?9?9?9?9@ 00479868     snd_dma.obj
 0003:00004890       ??_C@_0BJ@NJE@sound?5sampling?5rate?3?5?$CFd?6?$AA@ 00479890     snd_dma.obj
 0003:000048ac       ??_C@_09DBLB@soundinfo?$AA@ 004798ac     snd_dma.obj
 0003:000048b8       ??_C@_09BLBC@soundlist?$AA@ 004798b8     snd_dma.obj
 0003:000048c4       ??_C@_09IELC@stopsound?$AA@ 004798c4     snd_dma.obj
 0003:000048d0       ??_C@_04HNFE@play?$AA@     004798d0     snd_dma.obj
 0003:000048d8       ??_C@_0CH@MEDF@?6?9?9?9?9?9?9?9?5Sound?5initialization?5?9?9@ 004798d8     snd_dma.obj
 0003:00004900       ??_C@_0BC@BPEM@?$FO6Sound?5disabled?6?$AA@ 00479900     snd_dma.obj
 0003:00004914       ??_C@_07KADE@nosound?$AA@  00479914     snd_dma.obj
 0003:0000491c       ??_C@_0BF@EALM@too?5much?5sfx?5records?$AA@ 0047991c     snd_dma.obj
 0003:00004934       ??_C@_0BI@HAHM@Sound?5name?5too?5long?3?5?$CFs?$AA@ 00479934     snd_dma.obj
 0003:0000494c       ??_C@_0M@DPNB@empty?5name?6?$AA@ 0047994c     snd_dma.obj
 0003:00004958       ??_C@_0L@OGJ@NULL?5name?6?$AA@ 00479958     snd_dma.obj
 0003:00004964       ??_C@_0BM@MBGK@S_PickChannel?3?5entchannel?$DM0?$AA@ 00479964     snd_dma.obj
 0003:00004980       ??_C@_0CC@LLJ@Sound?3?5?$CFs?5begin?3?$CFd?5ent?3?$CFd?5chn?3?$CFd@ 00479980     snd_dma.obj
 0003:000049a4       ??_C@_0P@NKDI@player?1male?1?$CFs?$AA@ 004799a4     snd_dma.obj
 0003:000049b4       ??_C@_0BB@HAFO@player?1female?1?$CFs?$AA@ 004799b4     snd_dma.obj
 0003:000049c8       ??_C@_0P@CMCL@?$CDplayers?1?$CFs?1?$CFs?$AA@ 004799c8     snd_dma.obj
 0003:000049d8       ??_C@_0CD@BKPA@S_StartLocalSound?3?5can?8t?5cache?5?$CF@ 004799d8     snd_dma.obj
 0003:000049fc       ??_C@_0BK@NGAB@?9?9?9?9?$CI?$CFi?$CJ?9?9?9?9?5painted?3?5?$CFi?6?$AA@ 004799fc     snd_dma.obj
 0003:00004a18       ??_C@_0M@OMDK@?$CF3i?5?$CF3i?5?$CFs?6?$AA@ 00479a18     snd_dma.obj
 0003:00004a24       ??_C@_0BG@DBOM@S_Update_?5?3?5overflow?6?$AA@ 00479a24     snd_dma.obj
 0003:00004a3c       ??_C@_04MPDF@?4wav?$AA@    00479a3c     snd_dma.obj
 0003:00004a44       ??_C@_0BL@HBKE@Usage?3?5soundlist?5?$FL?$DMmask?$DO?$FN?6?$AA@ 00479a44     snd_dma.obj
 0003:00004a60       ??_C@_0CM@BIJL@Displayed?5?$CFd?1?$CFd?5sounds?$DL?5resident@ 00479a60     snd_dma.obj
 0003:00004a8c       ??_C@_0M@LFPC@?$CF?93d?5?$CFs?5?$CFs?6?$AA@ 00479a8c     snd_dma.obj
 0003:00004a98       ??_C@_0O@JMLC@not?5loaded?5?5?5?$AA@ 00479a98     snd_dma.obj
 0003:00004aa8       ??_C@_0BC@PDLM@?$FO1not?5found?5?5?5?5?$FO7?$AA@ 00479aa8     snd_dma.obj
 0003:00004abc       ??_C@_0O@ELED@placeholder?5?5?$AA@ 00479abc     snd_dma.obj
 0003:00004acc       ??_C@_0BH@CDPA@?$CF?93d?5?$CFc?5?$CF?92d?5?5?$CF?97d?5?$CFs?6?$AA@ 00479acc     snd_dma.obj
 0003:00004ae4       ??_C@_0CC@HMGF@?9?9?9lp?9bit?9size?9?9?9?9name?9?9?9?9?9?9?9?9?9?9@ 00479ae4     snd_dma.obj
 0003:00004b08       ??_C@_0BH@BKDA@?$CFs?5is?5a?5stereo?5sample?6?$AA@ 00479b08     snd_mem.obj
 0003:00004b20       ??_C@_0BC@DJDD@Couldn?8t?5load?5?$CFs?6?$AA@ 00479b20     snd_mem.obj
 0003:00004b34       ??_C@_0BK@HDNC@Missing?5RIFF?1WAVE?5chunks?6?$AA@ 00479b34     snd_mem.obj
 0003:00004b50       ??_C@_0BP@CLHH@Sound?5?$CFs?5has?5a?5bad?5loop?5length?$AA@ 00479b50     snd_mem.obj
 0003:00004b70       ??_C@_0BE@OGAC@Missing?5data?5chunk?6?$AA@ 00479b70     snd_mem.obj
 0003:00004b84       ??_C@_04OMKF@data?$AA@     00479b84     snd_mem.obj
 0003:00004b8c       ??_C@_04JFAO@mark?$AA@     00479b8c     snd_mem.obj
 0003:00004b94       ??_C@_04PBEL@LIST?$AA@     00479b94     snd_mem.obj
 0003:00004b9c       ??_C@_04MHP@cue?5?$AA@     00479b9c     snd_mem.obj
 0003:00004ba4       ??_C@_0BL@CPKL@Microsoft?5PCM?5format?5only?6?$AA@ 00479ba4     snd_mem.obj
 0003:00004bc0       ??_C@_0BD@LFCE@Missing?5fmt?5chunk?6?$AA@ 00479bc0     snd_mem.obj
 0003:00004bd4       ??_C@_04HBLJ@fmt?5?$AA@    00479bd4     snd_mem.obj
 0003:00004bdc       ??_C@_04DOFO@WAVE?$AA@     00479bdc     snd_mem.obj
 0003:00004be4       ??_C@_04ILOB@RIFF?$AA@     00479be4     snd_mem.obj
 0003:00004bec       ??_C@_06EOJG@snd?$DN?$CFs?$AA@ 00479bec     snd_mix.obj
 0003:00004bf4       _monster_flash_offset      00479bf4     m_flash.obj
 0003:000055e4       ??_C@_0P@CCBL@?$CFs?1save?1?$CFs?1?$CK?4?$CK?$AA@ 0047a5e4     sv_ccmds.obj
 0003:000055f4       ??_C@_0BF@GKPD@SV_WipeSaveGame?$CI?$CFs?$CJ?6?$AA@ 0047a5f4     sv_ccmds.obj
 0003:0000560c       ??_C@_0M@OFIB@?$CFs?1save?1?$CFs?1?$AA@ 0047a60c     sv_ccmds.obj
 0003:00005618       ??_C@_0BJ@KHEP@SV_CopySaveGame?$CI?$CFs?0?5?$CFs?$CJ?6?$AA@ 0047a618     sv_ccmds.obj
 0003:00005634       ??_C@_0BH@GEOK@?$CFs?1save?1current?1?$CFs?4sav?$AA@ 0047a634     sv_ccmds.obj
 0003:0000564c       ??_C@_0BH@GAIK@?$CFs?1save?1current?1?$CFs?4sv2?$AA@ 0047a64c     sv_ccmds.obj
 0003:00005664       ??_C@_0BF@LIHG@SV_WriteLevelFile?$CI?$CJ?6?$AA@ 0047a664     sv_ccmds.obj
 0003:0000567c       ??_C@_0BE@PDLB@SV_ReadLevelFile?$CI?$CJ?6?$AA@ 0047a67c     sv_ccmds.obj
 0003:00005690       ??_C@_0BA@GPDA@?$CFs?1save?1?$CFs?1shot?$AA@ 0047a690     sv_ccmds.obj
 0003:000056a0       ??_C@_0BE@HNJD@?$CFs?1save?1?$CFs?1game?4ssv?$AA@ 0047a6a0     sv_ccmds.obj
 0003:000056b4       ??_C@_0BI@GKOA@Cvar?5too?5long?3?5?$CFs?5?$DN?5?$CFs?6?$AA@ 0047a6b4     sv_ccmds.obj
 0003:000056cc       ??_C@_0M@MMJA@ENTERING?5?$CFs?$AA@ 0047a6cc     sv_ccmds.obj
 0003:000056d8       ??_C@_0BF@IALG@?$CF2d?3?$CFd?$CFd?5?$CF2d?1?$CF2d?5?5?$CFs?$AA@ 0047a6d8     sv_ccmds.obj
 0003:000056f0       ??_C@_0BD@CDPL@Couldn?8t?5write?5?$CFs?6?$AA@ 0047a6f0     sv_ccmds.obj
 0003:00005704       ??_C@_0BG@PKLB@?$CFs?1save?1?$CFs?1server?4ssv?$AA@ 0047a704     sv_ccmds.obj
 0003:0000571c       ??_C@_0BM@MEBO@SV_WriteServerFile?$CI?$CFs?0?5?$CFs?$CJ?6?$AA@ 0047a71c     sv_ccmds.obj
 0003:00005738       ??_C@_05NAGO@false?$AA@    0047a738     sv_ccmds.obj
 0003:00005740       ??_C@_04NCCD@true?$AA@     0047a740     sv_ccmds.obj
 0003:00005748       ??_C@_0BJ@HBCM@?$CFs?1save?1current?1game?4ssv?$AA@ 0047a748     sv_ccmds.obj
 0003:00005764       ??_C@_0N@OMIM@Set?5?$CFs?5?$DN?5?$CFs?6?$AA@ 0047a764     sv_ccmds.obj
 0003:00005774       ??_C@_0BC@GDMP@Couldn?8t?5read?5?$CFs?6?$AA@ 0047a774     sv_ccmds.obj
 0003:00005788       ??_C@_0BL@KAFO@?$CFs?1save?1current?1server?4ssv?$AA@ 0047a788     sv_ccmds.obj
 0003:000057a4       ??_C@_0BD@LFFO@?1save?1current?1shot?$AA@ 0047a7a4     sv_ccmds.obj
 0003:000057b8       ??_C@_0BF@FIGK@SV_ReadServerFile?$CI?$CJ?6?$AA@ 0047a7b8     sv_ccmds.obj
 0003:000057d0       ??_C@_02IPID@sv?$AA@       0047a7d0     sv_ccmds.obj
 0003:000057d4       ??_C@_0L@PNBO@killserver?$AA@ 0047a7d4     sv_ccmds.obj
 0003:000057e0       ??_C@_04JMJF@load?$AA@     0047a7e0     sv_ccmds.obj
 0003:000057e8       ??_C@_04MEDD@save?$AA@     0047a7e8     sv_ccmds.obj
 0003:000057f0       ??_C@_0L@NONC@serverstop?$AA@ 0047a7f0     sv_ccmds.obj
 0003:000057fc       ??_C@_0N@LMDI@serverrecord?$AA@ 0047a7fc     sv_ccmds.obj
 0003:0000580c       ??_C@_03NJAM@say?$AA@      0047a80c     sv_ccmds.obj
 0003:00005810       ??_C@_09LGEG@setmaster?$AA@ 0047a810     sv_ccmds.obj
 0003:0000581c       ??_C@_07OPKL@gamemap?$AA@  0047a81c     sv_ccmds.obj
 0003:00005824       ??_C@_08KKFE@dumpuser?$AA@ 0047a824     sv_ccmds.obj
 0003:00005830       ??_C@_0L@PFOG@serverinfo?$AA@ 0047a830     sv_ccmds.obj
 0003:0000583c       ??_C@_09GFGG@banremove?$AA@ 0047a83c     sv_ccmds.obj
 0003:00005848       ??_C@_07DBDP@banlist?$AA@  0047a848     sv_ccmds.obj
 0003:00005850       ??_C@_05KPMF@banip?$AA@    0047a850     sv_ccmds.obj
 0003:00005858       ??_C@_03FGOF@ban?$AA@      0047a858     sv_ccmds.obj
 0003:0000585c       ??_C@_04KGFE@kick?$AA@     0047a85c     sv_ccmds.obj
 0003:00005864       ??_C@_09CAJF@heartbeat?$AA@ 0047a864     sv_ccmds.obj
 0003:00005870       ??_C@_0BB@PMMC@Sending?5a?5ping?4?6?$AA@ 0047a870     sv_ccmds.obj
 0003:00005884       ??_C@_0BF@OAM@Master?5server?5at?5?$CFs?6?$AA@ 0047a884     sv_ccmds.obj
 0003:0000589c       ??_C@_06NGHH@public?$AA@   0047a89c     sv_ccmds.obj
 0003:000058a4       ??_C@_0CF@FEG@Only?5dedicated?5servers?5use?5maste@ 0047a8a4     sv_ccmds.obj
 0003:000058cc       ??_C@_06GAOG@?$CFs?4dm2?$AA@ 0047a8cc     sv_ccmds.obj
 0003:000058d4       ??_C@_0P@CGJ@nextserver?$DN?$CC?$CC?6?$AA@ 0047a8d4     sv_ccmds.obj
 0003:000058e4       ??_C@_04OOJJ@?4cin?$AA@    0047a8e4     sv_ccmds.obj
 0003:000058ec       ??_C@_07LKBD@nointro?$AA@  0047a8ec     sv_ccmds.obj
 0003:000058f4       ??_C@_0BG@FJEL@Usage?3?5gamemap?5?$DMmap?$DO?6?$AA@ 0047a8f4     sv_ccmds.obj
 0003:0000590c       ??_C@_05PGFE@save0?$AA@    0047a90c     sv_ccmds.obj
 0003:00005914       ??_C@_07HLIN@current?$AA@  0047a914     sv_ccmds.obj
 0003:0000591c       ??_C@_0BB@BHO@?$CFs?1save?1current?1?$AA@ 0047a91c     sv_ccmds.obj
 0003:00005930       ??_C@_0BA@FFIL@SV_GameMap?$CI?$CFs?$CJ?6?$AA@ 0047a930     sv_ccmds.obj
 0003:00005940       ??_C@_0P@JOEA@Can?8t?5find?5?$CFs?6?$AA@ 0047a940     sv_ccmds.obj
 0003:00005950       ??_C@_0BN@FADC@Usage?3?5loadgame?5?$DMdirectory?$DO?6?$AA@ 0047a950     sv_ccmds.obj
 0003:00005970       ??_C@_0N@ELMN@Bad?5savedir?6?$AA@ 0047a970     sv_ccmds.obj
 0003:00005980       ??_C@_0BG@IAAB@No?5such?5savegame?3?5?$CFs?6?$AA@ 0047a980     sv_ccmds.obj
 0003:00005998       ??_C@_0BB@GFMF@Loading?5game?4?4?4?6?$AA@ 0047a998     sv_ccmds.obj
 0003:000059ac       ??_C@_0BN@LOOP@Usage?3?5savegame?5?$DMdirectory?$DO?6?$AA@ 0047a9ac     sv_ccmds.obj
 0003:000059cc       ??_C@_06JCEA@Done?4?6?$AA@ 0047a9cc     sv_ccmds.obj
 0003:000059d4       ??_C@_0BA@EJPL@Saving?5game?4?4?4?6?$AA@ 0047a9d4     sv_ccmds.obj
 0003:000059e4       ??_C@_0BN@HNDE@?6Can?8t?5savegame?5while?5dead?$CB?6?$AA@ 0047a9e4     sv_ccmds.obj
 0003:00005a04       ??_C@_0BJ@MDNH@Can?8t?5save?5to?5?8current?8?6?$AA@ 0047aa04     sv_ccmds.obj
 0003:00005a20       ??_C@_0CA@PPCA@Can?8t?5savegame?5in?5a?5deathmatch?6?$AA@ 0047aa20     sv_ccmds.obj
 0003:00005a40       ??_C@_0CA@FPJJ@You?5must?5be?5in?5a?5game?5to?5save?4?6?$AA@ 0047aa40     sv_ccmds.obj
 0003:00005a60       ??_C@_0BG@FFOD@Usage?3?5kick?5?$DMuserid?$DO?6?$AA@ 0047aa60     sv_ccmds.obj
 0003:00005a78       ??_C@_0L@PJPJ@was?5kicked?$AA@ 0047aa78     sv_ccmds.obj
 0003:00005a84       ??_C@_0BJ@LHLB@Cannot?5kick?5host?5player?6?$AA@ 0047aa84     sv_ccmds.obj
 0003:00005aa0       ??_C@_0BE@PLJD@No?5server?5running?4?6?$AA@ 0047aaa0     sv_ccmds.obj
 0003:00005ab4       ??_C@_0CA@HDFP@Userid?5?$CFs?5is?5not?5on?5the?5server?6?$AA@ 0047aab4     sv_ccmds.obj
 0003:00005ad4       ??_C@_0BJ@PCKC@Client?5?$CFd?5is?5not?5active?6?$AA@ 0047aad4     sv_ccmds.obj
 0003:00005af0       ??_C@_0BF@FHHD@Bad?5client?5slot?3?5?$CFd?6?$AA@ 0047aaf0     sv_ccmds.obj
 0003:00005b08       ??_C@_0BF@MGKE@Usage?3?5ban?5?$DMuserid?$DO?6?$AA@ 0047ab08     sv_ccmds.obj
 0003:00005b20       ??_C@_0L@EALE@was?5banned?$AA@ 0047ab20     sv_ccmds.obj
 0003:00005b2c       ??_C@_0M@IBML@?$CFd?4?$CFd?4?$CFd?4?$CFd?$AA@ 0047ab2c     sv_ccmds.obj
 0003:00005b38       ??_C@_0BK@NJOK@Cannot?5ban?5non?9IP?5client?6?$AA@ 0047ab38     sv_ccmds.obj
 0003:00005b54       ??_C@_0BD@CCOH@Add?5?$CFs?5to?5banlist?6?$AA@ 0047ab54     sv_ccmds.obj
 0003:00005b68       ??_C@_0BO@DECP@Cannot?5ban?5?$CFs?3?5ban?5list?5full?6?$AA@ 0047ab68     sv_ccmds.obj
 0003:00005b88       ??_C@_0BD@DCKE@?$CFs?5already?5banned?6?$AA@ 0047ab88     sv_ccmds.obj
 0003:00005b9c       ??_C@_0BI@OAG@Usage?3?5banip?5?$DMip?9mask?$DO?6?$AA@ 0047ab9c     sv_ccmds.obj
 0003:00005bb4       ??_C@_0BF@NFIF@IP?9mask?5is?5too?5long?6?$AA@ 0047abb4     sv_ccmds.obj
 0003:00005bcc       ??_C@_09NIGE@?$CF?92d?3?5?$CFs?6?$AA@ 0047abcc     sv_ccmds.obj
 0003:00005bd8       ??_C@_0O@NKD@Banned?5IP?8s?3?6?$AA@ 0047abd8     sv_ccmds.obj
 0003:00005be8       ??_C@_0CK@OPDJ@Usage?3?5banremove?5?$DMlist?9index?5or?5@ 0047abe8     sv_ccmds.obj
 0003:00005c14       ??_C@_0BD@NNDK@Bad?5list?5index?5?$CFd?6?$AA@ 0047ac14     sv_ccmds.obj
 0003:00005c28       ??_C@_0CA@MOJ@Index?5?$CFd?5is?5out?5of?5list?5bounds?6?$AA@ 0047ac28     sv_ccmds.obj
 0003:00005c48       ??_C@_0BM@HBKB@Mask?5?$CFs?5is?5not?5in?5ban?5list?6?$AA@ 0047ac48     sv_ccmds.obj
 0003:00005c64       ??_C@_0BK@PMOC@Usage?3?5dumpuser?5?$DMuserid?$DO?6?$AA@ 0047ac64     sv_ccmds.obj
 0003:00005c80       ??_C@_0BF@MCOG@?$FO2userinfo?6?9?9?9?9?9?9?9?9?6?$AA@ 0047ac80     sv_ccmds.obj
 0003:00005c98       ??_C@_0BF@FFNB@?$CF?915s?5?$CF7d?5?$CF?921s?5?$CF5d?6?$AA@ 0047ac98     sv_ccmds.obj
 0003:00005cb0       ??_C@_04EGAA@?$CF4d?5?$AA@ 0047acb0     sv_ccmds.obj
 0003:00005cb8       ??_C@_09HJKP@?$FO1ZMBI?5?$FO7?$AA@ 0047acb8     sv_ccmds.obj
 0003:00005cc4       ??_C@_05PDBF@CNCT?5?$AA@   0047acc4     sv_ccmds.obj
 0003:00005ccc       ??_C@_0P@JI@?$CF3d?5?$FO1?9?9?9?9?9?5?$FO7?$AA@ 0047accc     sv_ccmds.obj
 0003:00005cdc       ??_C@_08LPCH@?$CF3d?5?$CF5d?5?$AA@ 0047acdc     sv_ccmds.obj
 0003:00005ce8       ??_C@_0EF@EIN@?9?9n?9score?9ping?9name?9?9?9?9?9?9?9?9?9?9?9?9l@ 0047ace8     sv_ccmds.obj
 0003:00005d30       ??_C@_08GCKC@map?3?5?$CFs?6?$AA@ 0047ad30     sv_ccmds.obj
 0003:00005d3c       ??_C@_03HKGO@?5?$CFs?$AA@  0047ad3c     sv_ccmds.obj
 0003:00005d40       ??_C@_08HBN@console?3?$AA@ 0047ad40     sv_ccmds.obj
 0003:00005d4c       ??_C@_0CG@MAJP@?$FO2?9?9?9?9?9?9?5Server?5info?5settings?5?9?9@ 0047ad4c     sv_ccmds.obj
 0003:00005d74       ??_C@_0CA@KCOO@Usage?3?5serverrecord?5?$DMdemoname?$DO?6?$AA@ 0047ad74     sv_ccmds.obj
 0003:00005d94       ??_C@_07MNHC@gamedir?$AA@  0047ad94     sv_ccmds.obj
 0003:00005d9c       ??_C@_0BG@PICA@ERROR?3?5couldn?8t?5open?6?$AA@ 0047ad9c     sv_ccmds.obj
 0003:00005db4       ??_C@_0BB@PEEL@recording?5to?5?$CFs?6?$AA@ 0047adb4     sv_ccmds.obj
 0003:00005dc8       ??_C@_0CC@BOAA@You?5must?5be?5in?5a?5level?5to?5record@ 0047adc8     sv_ccmds.obj
 0003:00005dec       ??_C@_0BD@ODDC@Already?5recording?6?$AA@ 0047adec     sv_ccmds.obj
 0003:00005e00       ??_C@_0BG@LOMO@Recording?5completed?4?6?$AA@ 0047ae00     sv_ccmds.obj
 0003:00005e18       ??_C@_0BL@GMKD@Not?5doing?5a?5serverrecord?4?6?$AA@ 0047ae18     sv_ccmds.obj
 0003:00005e34       ??_C@_0BE@PIIA@Server?5was?5killed?4?6?$AA@ 0047ae34     sv_ccmds.obj
 0003:00005e48       ??_C@_0BB@NPBO@No?5game?5loaded?4?6?$AA@ 0047ae48     sv_ccmds.obj
 0003:00005e5c       ??_C@_0BF@BKHO@SV_FatPVS?3?5count?5?$DM?51?$AA@ 0047ae5c     sv_ents.obj
 0003:00005e74       ??_C@_0BJ@BDMB@FIXING?5ENT?9?$DOS?4NUMBER?$CB?$CB?$CB?6?$AA@ 0047ae74     sv_ents.obj
 0003:00005f38       ??_C@_08KKEF@weapprev?$AA@ 0047af38     sv_game.obj
 0003:00005f44       ??_C@_08FDMA@weapnext?$AA@ 0047af44     sv_game.obj
 0003:00005f50       ??_C@_07DCEN@invdrop?$AA@  0047af50     sv_game.obj
 0003:00005f58       ??_C@_07GMNC@invnext?$AA@  0047af58     sv_game.obj
 0003:00005f60       ??_C@_07JFFH@invprev?$AA@  0047af60     sv_game.obj
 0003:00005f68       ??_C@_06HJLO@invuse?$AA@   0047af68     sv_game.obj
 0003:00005f70       ??_C@_06GMBK@noclip?$AA@   0047af70     sv_game.obj
 0003:00005f78       ??_C@_08BHIO@notarget?$AA@ 0047af78     sv_game.obj
 0003:00005f84       ??_C@_03IPJE@god?$AA@      0047af84     sv_game.obj
 0003:00005f88       ??_C@_04JEOP@give?$AA@     0047af88     sv_game.obj
 0003:00005f90       ??_C@_08PAEI@say_team?$AA@ 0047af90     sv_game.obj
 0003:00005f9c       ??_C@_04NMBB@drop?$AA@     0047af9c     sv_game.obj
 0003:00005fa4       ??_C@_03CFBD@use?$AA@      0047afa4     sv_game.obj
 0003:00005fa8       ??_C@_04CHLA@kill?$AA@     0047afa8     sv_game.obj
 0003:00005fb0       ??_C@_05MCDF@inven?$AA@    0047afb0     sv_game.obj
 0003:00005fb8       ??_C@_04FBHL@wave?$AA@     0047afb8     sv_game.obj
 0003:00005fc0       ??_C@_0BI@DKJ@cprintf?5to?5a?5non?9client?$AA@ 0047afc0     sv_game.obj
 0003:00005fd8       ??_C@_0P@NPOJ@Game?5Error?3?5?$CFs?$AA@ 0047afd8     sv_game.obj
 0003:00005fe8       ??_C@_0BH@IKIP@PF_setmodel?3?5NULL?5name?$AA@ 0047afe8     sv_game.obj
 0003:00006000       ??_C@_0BM@CNAK@configstring?3?5bad?5index?5?$CFi?6?$AA@ 0047b000     sv_game.obj
 0003:0000601c       ??_C@_08JMMK@gz_stats?$AA@ 0047b01c     sv_game.obj
 0003:00006028       ??_C@_0BK@ODIF@game?5is?5version?5?$CFd?0?5not?53?$AA@ 0047b028     sv_game.obj
 0003:00006044       ??_C@_0BM@EHHK@failed?5to?5load?5game?5library?$AA@ 0047b044     sv_game.obj
 0003:00006060       ??_C@_0CE@NOEA@Game?5memory?3?6?$CFd?5bytes?5in?5?$CFd?5bloc@ 0047b060     sv_game.obj
 0003:00006084       ??_C@_0DI@KENO@Game?5library?5have?5memory?5leak?5of@ 0047b084     sv_game.obj
 0003:000060bc       ??_C@_0BB@NLNL@?$CKIndex?3?5overflow?$AA@ 0047b0bc     sv_init.obj
 0003:000060d0       ??_C@_0CH@OFFJ@?9?9?9?9?9?9?9?9?9?9?9?9?9?9?9?9?9?9?9?9?9?9?9?9?9?9?9?9?9?9?9?9@ 0047b0d0     sv_init.obj
 0003:000060f8       ??_C@_03OGBA@?$CK?$CFi?$AA@ 0047b0f8     sv_init.obj
 0003:000060fc       ??_C@_02JAFN@?$CFi?$AA@    0047b0fc     sv_init.obj
 0003:00006100       ??_C@_02DLJH@?$CFg?$AA@    0047b100     sv_init.obj
 0003:00006104       ??_C@_0BB@GLPC@SpawnServer?3?5?$CFs?6?$AA@ 0047b104     sv_init.obj
 0003:00006118       ??_C@_0CI@KMKP@?6?9?9?9?9?9?9?9?5Server?5Initialization?5?9@ 0047b118     sv_init.obj
 0003:00006140       ??_C@_0BB@GHKI@192?4246?440?437?3?$CFi?$AA@ 0047b140     sv_init.obj
 0003:00006154       ??_C@_03DAIL@256?$AA@      0047b154     sv_init.obj
 0003:00006158       ??_C@_0DE@CELL@?$CCdeathmatch?$CC?5and?5?$CCcoop?$CC?5both?5set@ 0047b158     sv_init.obj
 0003:0000618c       ??_C@_0BC@IKLG@Server?5restarted?6?$AA@ 0047b18c     sv_init.obj
 0003:000061a0       ??_C@_0L@BGLM@reconnect?6?$AA@ 0047b1a0     sv_init.obj
 0003:000061ac       ??_C@_09LPNI@changing?6?$AA@ 0047b1ac     sv_init.obj
 0003:000061b8       ??_C@_0BB@JIPH@gamemap?5?$CC?$CKbase1?$CC?$AA@ 0047b1b8     sv_init.obj
 0003:000061cc       ??_C@_0M@NDJE@victory?4pcx?$AA@ 0047b1cc     sv_init.obj
 0003:000061d8       ??_C@_0L@GJBA@nextserver?$AA@ 0047b1d8     sv_init.obj
 0003:000061e4       ??_C@_0N@GFOP@gamemap?5?$CC?$CFs?$CC?$AA@ 0047b1e4     sv_init.obj
 0003:000061f4       ??_C@_0L@JGAO@dmflags?$DN16?$AA@ 0047b1f4     sv_main.obj
 0003:00006200       ??_C@_0BC@NEKH@sv_camperSounds?$DN1?$AA@ 0047b200     sv_main.obj
 0003:00006214       ??_C@_0BB@EPHP@sv_extProtocol?$DN1?$AA@ 0047b214     sv_main.obj
 0003:00006228       ??_C@_0BF@GNLD@sv_reconnect_limit?$DN3?$AA@ 0047b228     sv_main.obj
 0003:00006240       ??_C@_08IAKJ@public?$DN0?$AA@ 0047b240     sv_main.obj
 0003:0000624c       ??_C@_0BD@KOKD@sv_airaccelerate?$DN0?$AA@ 0047b24c     sv_main.obj
 0003:00006260       ??_C@_0O@KBFF@sv_noreload?$DN0?$AA@ 0047b260     sv_main.obj
 0003:00006270       ??_C@_0M@CCNH@protocol?$DN34?$AA@ 0047b270     sv_main.obj
 0003:0000627c       ??_C@_0BG@OOIM@allow_download_maps?$DN1?$AA@ 0047b27c     sv_main.obj
 0003:00006294       ??_C@_0BI@GOD@allow_download_sounds?$DN1?$AA@ 0047b294     sv_main.obj
 0003:000062ac       ??_C@_0BI@HBOO@allow_download_models?$DN1?$AA@ 0047b2ac     sv_main.obj
 0003:000062c4       ??_C@_0BJ@BOLC@allow_download_players?$DN0?$AA@ 0047b2c4     sv_main.obj
 0003:000062e0       ??_C@_0BB@KHCE@allow_download?$DN1?$AA@ 0047b2e0     sv_main.obj
 0003:000062f4       ??_C@_0BB@NJGJ@sv_enforcetime?$DN0?$AA@ 0047b2f4     sv_main.obj
 0003:00006308       ??_C@_0N@MOLN@zombietime?$DN2?$AA@ 0047b308     sv_main.obj
 0003:00006318       ??_C@_0M@FADJ@timeout?$DN125?$AA@ 0047b318     sv_main.obj
 0003:00006324       ??_C@_0BA@MHHL@hostname?$DNnoname?$AA@ 0047b324     sv_main.obj
 0003:00006334       ??_C@_0N@NFAJ@maxclients?$DN1?$AA@ 0047b334     sv_main.obj
 0003:00006344       ??_C@_0M@POJO@timelimit?$DN0?$AA@ 0047b344     sv_main.obj
 0003:00006350       ??_C@_0M@BKDB@fraglimit?$DN0?$AA@ 0047b350     sv_main.obj
 0003:0000635c       ??_C@_06HLAA@coop?$DN0?$AA@ 0047b35c     sv_main.obj
 0003:00006364       ??_C@_0N@NGLD@deathmatch?$DN0?$AA@ 0047b364     sv_main.obj
 0003:00006374       ??_C@_07MHAC@skill?$DN1?$AA@ 0047b374     sv_main.obj
 0003:00006394       ??_C@_06EFAM@?$CFs?5?$CFs?6?$AA@ 0047b394     sv_main.obj
 0003:0000639c       ??_C@_0BK@HJDC@Ping?5acknowledge?5from?5?$CFs?6?$AA@ 0047b39c     sv_main.obj
 0003:000063b8       ??_C@_0M@MMFA@?$CFd?5?$CFd?5?$CC?$CFs?$CC?6?$AA@ 0047b3b8     sv_main.obj
 0003:000063c4       ??_C@_08FFBJ@print?6?$CFs?$AA@ 0047b3c4     sv_main.obj
 0003:000063d0       ??_C@_07MOMD@info?6?$CFs?$AA@ 0047b3d0     sv_main.obj
 0003:000063d8       ??_C@_0BC@HIGA@?$CF16s?5?$CF8s?5?$CF2d?1?$CF2d?6?$AA@ 0047b3d8     sv_main.obj
 0003:000063ec       ??_C@_0BG@DOMC@?$CFs?3?5wrong?5version?5?$CFd?6?$AA@ 0047b3ec     sv_main.obj
 0003:00006404       ??_C@_0BI@ELEG@rejected?5?$CCinfo?$CC?5answer?6?$AA@ 0047b404     sv_main.obj
 0003:0000641c       ??_C@_0N@LFIF@challenge?5?$CFd?$AA@ 0047b41c     sv_main.obj
 0003:0000642c       ??_C@_0BC@IIEA@client_connect?5?$CFs?$AA@ 0047b42c     sv_main.obj
 0003:00006440       ??_C@_0CL@EBBP@Connecting?5client?5using?5extended@ 0047b440     sv_main.obj
 0003:0000646c       ??_C@_0BN@MCHJ@Game?5rejected?5a?5connection?4?6?$AA@ 0047b46c     sv_main.obj
 0003:0000648c       ??_C@_0BO@JIEH@print?6?$CFs?6Connection?5refused?4?6?$AA@ 0047b48c     sv_main.obj
 0003:000064ac       ??_C@_06NPBA@rejmsg?$AA@   0047b4ac     sv_main.obj
 0003:000064b4       ??_C@_0BI@NPCI@Rejected?5a?5connection?4?6?$AA@ 0047b4b4     sv_main.obj
 0003:000064cc       ??_C@_0BH@EJBL@print?6Server?5is?5full?4?6?$AA@ 0047b4cc     sv_main.obj
 0003:000064e4       ??_C@_0O@PINL@?$CFs?3reconnect?6?$AA@ 0047b4e4     sv_main.obj
 0003:000064f4       ??_C@_0CC@HDAG@?$CFs?3reconnect?5rejected?5?3?5too?5soon@ 0047b4f4     sv_main.obj
 0003:00006518       ??_C@_0BG@FLBC@print?6Bad?5challenge?4?6?$AA@ 0047b518     sv_main.obj
 0003:00006530       ??_C@_0CB@NJKI@print?6No?5challenge?5for?5address?4?6@ 0047b530     sv_main.obj
 0003:00006554       ??_C@_0BL@MOAJ@print?6Connection?5refused?4?6?$AA@ 0047b554     sv_main.obj
 0003:00006570       ??_C@_0CL@HPIH@Remote?5connect?5in?5attract?5loop?4?5@ 0047b570     sv_main.obj
 0003:0000659c       ??_C@_02ICFJ@ip?$AA@       0047b59c     sv_main.obj
 0003:000065a0       ??_C@_0CE@CCFI@?5?5rejected?5connect?5from?5version?5@ 0047b5a0     sv_main.obj
 0003:000065c4       ??_C@_0CA@DFPL@print?6Server?5is?5version?5?$CF4?42f?4?6?$AA@ 0047b5c4     sv_main.obj
 0003:000065e4       ??_C@_0BF@PAKP@SVC_DirectConnect?$CI?$CJ?6?$AA@ 0047b5e4     sv_main.obj
 0003:000065fc       ??_C@_0BJ@KKDO@print?6Bad?5rcon?5password?6?$AA@ 0047b5fc     sv_main.obj
 0003:00006618       ??_C@_0BG@HOCP@Bad?5rcon?5from?5?$CFs?3?6?$CFs?6?$AA@ 0047b618     sv_main.obj
 0003:00006630       ??_C@_0BJ@BICJ@Bad?5remote?5command?5?$CC?$CFs?$CC?6?$AA@ 0047b630     sv_main.obj
 0003:0000664c       ??_C@_0BC@IMG@Rcon?5from?5?$CFs?3?6?$CFs?6?$AA@ 0047b64c     sv_main.obj
 0003:00006660       ??_C@_0CJ@FIJF@Bad?5connectionless?5packet?5from?5?$CF@ 0047b660     sv_main.obj
 0003:0000668c       ??_C@_0M@FCEE@?4?4?4?5banned?6?$AA@ 0047b68c     sv_main.obj
 0003:00006698       ??_C@_0BA@DJJM@Packet?5?$CFs?5?3?5?$CFs?6?$AA@ 0047b698     sv_main.obj
 0003:000066a8       ??_C@_0CN@JDAA@SV_ReadPackets?3?5fixing?5up?5a?5tran@ 0047b6a8     sv_main.obj
 0003:000066d8       ??_C@_09BKMO@timed?5out?$AA@ 0047b6d8     sv_main.obj
 0003:000066e4       ??_C@_09FMPF@?$CKfall?4wav?$AA@ 0047b6e4     sv_main.obj
 0003:000066f0       ??_C@_0BO@IAGK@sv?5highclamp?5s?3?$CFd?5r?3?$CFd?5?9?$DO?5?$CFd?6?$AA@ 0047b6f0     sv_main.obj
 0003:00006710       ??_C@_0CA@LEIA@sv?5lowclamp?5s?3?$CFd?5?9?9?5r?3?$CFd?5?9?$DO?5?$CFd?6?$AA@ 0047b710     sv_main.obj
 0003:00006730       ??_C@_0N@OALD@heartbeat?6?$CFs?$AA@ 0047b730     sv_main.obj
 0003:00006740       ??_C@_0BJ@BMKD@Sending?5heartbeat?5to?5?$CFs?6?$AA@ 0047b740     sv_main.obj
 0003:0000675c       ??_C@_03MBOC@msg?$AA@      0047b75c     sv_main.obj
 0003:00006760       ??_C@_08DHEI@shutdown?$AA@ 0047b760     sv_main.obj
 0003:0000676c       ??_C@_0BI@KKOF@SV_Multicast?3?5bad?5to?3?$CFi?$AA@ 0047b76c     sv_send.obj
 0003:00006784       ??_C@_0BL@LNPI@SV_StartSound?3?5volume?5?$DN?5?$CFf?$AA@ 0047b784     sv_send.obj
 0003:000067a0       ??_C@_0CA@JBBE@SV_StartSound?3?5attenuation?5?$DN?5?$CFf?$AA@ 0047b7a0     sv_send.obj
 0003:000067c0       ??_C@_0BM@BECA@SV_StartSound?3?5timeofs?5?$DN?5?$CFf?$AA@ 0047b7c0     sv_send.obj
 0003:000067dc       ??_C@_0BH@FOOP@Msg?5overflowed?5for?5?$CFs?6?$AA@ 0047b7dc     sv_send.obj
 0003:000067f4       ??_C@_0BM@JJLC@Datagram?5overflowed?5for?5?$CFs?6?$AA@ 0047b7f4     sv_send.obj
 0003:00006810       ??_C@_0L@DLGO@overflowed?$AA@ 0047b810     sv_send.obj
 0003:0000681c       ??_C@_0CL@JPLE@SV_SendClientMessages?3?5msglen?5?$DO?5@ 0047b81c     sv_send.obj
 0003:00006848       ??_C@_09LPDF@baselines?$AA@ 0047b848     sv_user.obj
 0003:00006854       ??_C@_0O@KHFO@configstrings?$AA@ 0047b854     sv_user.obj
 0003:00006864       ??_C@_0BI@BJGL@cmd?5configstrings?5?$CFi?50?6?$AA@ 0047b864     sv_user.obj
 0003:0000687c       ??_C@_0BC@KCLP@Couldn?8t?5open?5?$CFs?6?$AA@ 0047b87c     sv_user.obj
 0003:00006890       ??_C@_08IDHK@demos?1?$CFs?$AA@ 0047b890     sv_user.obj
 0003:0000689c       ??_C@_0CC@OENI@New?5not?5valid?5?9?9?5already?5spawned@ 0047b89c     sv_user.obj
 0003:000068c0       ??_C@_0P@PNCG@New?$CI?$CJ?5from?5?$CFs?6?$AA@ 0047b8c0     sv_user.obj
 0003:000068d0       ??_C@_0BJ@KDKB@cmd?5configstrings?5?$CFi?5?$CFi?6?$AA@ 0047b8d0     sv_user.obj
 0003:000068ec       ??_C@_0BE@OBMO@cmd?5baselines?5?$CFi?50?6?$AA@ 0047b8ec     sv_user.obj
 0003:00006900       ??_C@_0CJ@PHAB@SV_Configstrings_f?5from?5differen@ 0047b900     sv_user.obj
 0003:0000692c       ??_C@_0CM@BIPJ@configstrings?5not?5valid?5?9?9?5alrea@ 0047b92c     sv_user.obj
 0003:00006958       ??_C@_0BJ@LAHB@Configstrings?$CI?$CJ?5from?5?$CFs?6?$AA@ 0047b958     sv_user.obj
 0003:00006974       ??_C@_0BF@COFJ@cmd?5baselines?5?$CFi?5?$CFi?6?$AA@ 0047b974     sv_user.obj
 0003:0000698c       ??_C@_0N@ICEK@precache?5?$CFi?6?$AA@ 0047b98c     sv_user.obj
 0003:0000699c       ??_C@_0CF@HKKI@SV_Baselines_f?5from?5different?5le@ 0047b99c     sv_user.obj
 0003:000069c4       ??_C@_0CI@DKBH@baselines?5not?5valid?5?9?9?5already?5s@ 0047b9c4     sv_user.obj
 0003:000069ec       ??_C@_0BF@GBGN@Baselines?$CI?$CJ?5from?5?$CFs?6?$AA@ 0047b9ec     sv_user.obj
 0003:00006a04       ??_C@_0CB@ILDH@SV_Begin_f?5from?5different?5level?6@ 0047ba04     sv_user.obj
 0003:00006a28       ??_C@_0BB@EAAN@Begin?$CI?$CJ?5from?5?$CFs?6?$AA@ 0047ba28     sv_user.obj
 0003:00006a3c       ??_C@_0BG@CEDO@Downloading?5?$CFs?5to?5?$CFs?6?$AA@ 0047ba3c     sv_user.obj
 0003:00006a54       ??_C@_0BM@GAAA@Couldn?8t?5download?5?$CFs?5to?5?$CFs?6?$AA@ 0047ba54     sv_user.obj
 0003:00006a70       ??_C@_05GMPI@maps?1?$AA@   0047ba70     sv_user.obj
 0003:00006a78       ??_C@_06ICGA@sound?1?$AA@  0047ba78     sv_user.obj
 0003:00006a80       ??_C@_07KPOE@models?1?$AA@ 0047ba80     sv_user.obj
 0003:00006a88       ??_C@_08KDEJ@players?1?$AA@ 0047ba88     sv_user.obj
 0003:00006a94       ??_C@_0M@OCGL@killserver?6?$AA@ 0047ba94     sv_user.obj
 0003:00006aa0       ??_C@_0BG@OHIL@Nextserver?$CI?$CJ?5from?5?$CFs?6?$AA@ 0047baa0     sv_user.obj
 0003:00006ab8       ??_C@_0CI@GELI@Nextserver?$CI?$CJ?5from?5wrong?5level?0?5f@ 0047bab8     sv_user.obj
 0003:00006ae0       ??_C@_0BP@PHFB@commandMsec?5underflow?5from?5?$CFs?6?$AA@ 0047bae0     sv_user.obj
 0003:00006b00       ??_C@_0CO@HDIJ@Failed?5command?5checksum?5for?5?$CFs?5?$CI@ 0047bb00     sv_user.obj
 0003:00006b30       ??_C@_0CM@FKEM@SV_ReadClientMessage?3?5unknown?5co@ 0047bb30     sv_user.obj
 0003:00006b5c       ??_C@_0BP@JOFM@SV_ReadClientMessage?3?5badread?6?$AA@ 0047bb5c     sv_user.obj
 0003:00006b7c       ??_C@_0CF@CPLA@Object?5touching?53?5areas?5at?5?$CFf?5?$CFf@ 0047bb7c     sv_world.obj
 0003:00006ba4       ??_C@_0CD@JLKE@MOVETYPE_PUSH?5with?5a?5non?5bsp?5mod@ 0047bba4     sv_world.obj
 0003:00006bc8       ??_C@_0BJ@DAAG@SV_AreaEdicts?3?5MAXCOUNT?6?$AA@ 0047bbc8     sv_world.obj
 0003:00006be4       ??_C@_0BB@GMBF@?$FO4AddText?3?5?$CC?$CFs?$CC?6?$AA@ 0047bbe4     cmd.obj
 0003:00006bf8       ??_C@_0BF@KDAM@?$FO4AddText?3?5?$CFd?5chars?6?$AA@ 0047bbf8     cmd.obj
 0003:00006c10       ??_C@_0BI@FHKM@Cbuf_AddText?3?5overflow?6?$AA@ 0047bc10     cmd.obj
 0003:00006c28       ??_C@_0BB@JIBH@?$FO4InsText?3?5?$CC?$CFs?$CC?6?$AA@ 0047bc28     cmd.obj
 0003:00006c3c       ??_C@_0BF@LMIH@?$FO4InsText?3?5?$CFd?5chars?6?$AA@ 0047bc3c     cmd.obj
 0003:00006c54       ??_C@_0BL@CAL@Cbuf_InsertText?3?5overflow?6?$AA@ 0047bc54     cmd.obj
 0003:00006c70       ??_C@_0BB@JHCO@?$FO4DeferCommands?6?$AA@ 0047bc70     cmd.obj
 0003:00006c84       ??_C@_0BE@NNBP@?$FO4UndeferCommands?3?5?$AA@ 0047bc84     cmd.obj
 0003:00006c98       ??_C@_0BH@CGBN@Usage?3?5unalias?5?$DMmask?$DO?6?$AA@ 0047bc98     cmd.obj
 0003:00006cb0       ??_C@_0BE@FJHA@?$CFd?5aliases?5removed?6?$AA@ 0047bcb0     cmd.obj
 0003:00006cc4       ??_C@_0N@IFEJ@alias?5?$CFs?5?$CFs?6?$AA@ 0047bcc4     cmd.obj
 0003:00006cd4       ??_C@_0CF@JIGM@RegisterCommand?3?5?$CFs?5already?5defi@ 0047bcd4     cmd.obj
 0003:00006cfc       ??_C@_0CB@OHKH@UnregisterCommand?3?5?$CFs?5not?5found?6@ 0047bcfc     cmd.obj
 0003:00006d20       ??_C@_0BC@BMPO@ALIAS_LOOP_COUNT?6?$AA@ 0047bd20     cmd.obj
 0003:00006d34       ??_C@_02PLJO@?1?$DP?$AA@   0047bd34     cmd.obj
 0003:00006d38       ??_C@_06FPGI@cmd?5?$CFs?$AA@ 0047bd38     cmd.obj
 0003:00006d40       ??_C@_0L@ODFG@?$FO6cmd?3?5?$CFs?6?$AA@ 0047bd40     cmd.obj
 0003:00006d4c       ??_C@_0CB@CKOM@Macro?5expansion?5loop?0?5discarded?6@ 0047bd4c     cmd.obj
 0003:00006d70       ??_C@_0CO@EPI@Expanded?5line?5exceeded?51024?5char@ 0047bd70     cmd.obj
 0003:00006da0       ??_C@_0BH@OMAJ@bad?5str?3?5?$DM?$CFs?$DO?5?9?$DO?5?$DM?$CFs?$DO?6?$AA@ 0047bda0     cmd.obj
 0003:00006db8       ??_C@_0CG@GFJO@Line?5has?5unmatched?5quote?0?5discar@ 0047bdb8     cmd.obj
 0003:00006de0       ??_C@_04NNOM@?5?$CFs?6?$AA@ 0047bde0     cmd.obj
 0003:00006de8       ??_C@_06DAD@?5?$CC?$CFs?$CC?6?$AA@ 0047bde8     cmd.obj
 0003:00006df0       ??_C@_04EDH@set?5?$AA@     0047bdf0     cmd.obj
 0003:00006df8       ??_C@_0CF@PFBF@Line?5exceeded?51024?5chars?0?5discar@ 0047bdf8     cmd.obj
 0003:00006e20       ??_C@_09FLNO@cmd_debug?$AA@ 0047be20     cmd.obj
 0003:00006e2c       ??_C@_04OMDE@wait?$AA@     0047be2c     cmd.obj
 0003:00006e34       ??_C@_07CHCF@unalias?$AA@  0047be34     cmd.obj
 0003:00006e3c       ??_C@_04DBD@exec?$AA@      0047be3c     cmd.obj
 0003:00006e44       ??_C@_07KFEL@cmdlist?$AA@  0047be44     cmd.obj
 0003:00006e4c       ??_C@_0BM@GCKF@Usage?3?5wait?5?$FL?$DMnum_frames?$DO?$FN?6?$AA@ 0047be4c     cmd.obj
 0003:00006e68       ??_C@_0BI@BCCL@Usage?3?5exec?5?$DMfilename?$DO?6?$AA@ 0047be68     cmd.obj
 0003:00006e80       ??_C@_0M@DOAP@Execing?5?$CFs?6?$AA@ 0047be80     cmd.obj
 0003:00006e8c       ??_C@_0BC@CGKB@Couldn?8t?5exec?5?$CFs?6?$AA@ 0047be8c     cmd.obj
 0003:00006ea0       ??_C@_0BP@KHHI@Usage?3?5alias?5?$FL?$DMname?$DO?5?$DMvalue?$DO?$FN?6?$AA@ 0047bea0     cmd.obj
 0003:00006ec0       ??_C@_08IDHN@?$CFs?5?$CC?$CFs?$CC?6?$AA@ 0047bec0     cmd.obj
 0003:00006ecc       ??_C@_0BJ@KMBC@Current?5alias?5commands?3?6?$AA@ 0047becc     cmd.obj
 0003:00006ee8       ??_C@_0BJ@PKNG@Usage?3?5cmdlist?5?$FL?$DMmask?$DO?$FN?6?$AA@ 0047bee8     cmd.obj
 0003:00006f04       ??_C@_0BK@HMMH@Displayed?5?$CFd?1?$CFd?5commands?6?$AA@ 0047bf04     cmd.obj
 0003:00006f20       ??_C@_0P@CNAN@?$CF?93d?5?$CFc?5?$CFc?5?$CFs?6?$AA@ 0047bf20     cmd.obj
 0003:00006f30       ??_C@_0BO@OMDO@?9?9?9?9i?9a?9name?9?9?9?9?9?9?9?9?9?9?9?9?9?9?9?9?6?$AA@ 0047bf30     cmd.obj
 0003:00006f5c       ??_C@_08DIA@flushmap?$AA@  0047bf5c     cmodel.obj
 0003:00006f68       ??_C@_0M@IKNM@map_noareas?$AA@ 0047bf68     cmodel.obj
 0003:00006f74       ??_C@_0BO@KMOK@map?5has?5invalid?5headnode?5?$DN?5?$CFd?$AA@ 0047bf74     cmodel.obj
 0003:00006f94       ??_C@_0BE@CKNK@sound?1materials?4lst?$AA@ 0047bf94     cmodel.obj
 0003:00006fa8       ??_C@_0BK@CAPH@Map?5has?5too?5many?5surfaces?$AA@ 0047bfa8     cmodel.obj
 0003:00006fc4       ??_C@_0BF@ECHE@Map?5with?5no?5surfaces?$AA@ 0047bfc4     cmodel.obj
 0003:00006fdc       ??_C@_0BL@EKH@Unexpected?5end?5of?5file?5?$CFs?6?$AA@ 0047bfdc     cmodel.obj
 0003:00006ff8       ??_C@_0CC@HCFK@Unknown?5material?5mark?5?$CC?$CFs?$CC?5in?5?$CFs@ 0047bff8     cmodel.obj
 0003:0000701c       ??_C@_0CE@JLFE@ReadSurfMaterials?3?5?$CFs?5is?5not?5fou@ 0047c01c     cmodel.obj
 0003:00007040       ??_C@_0BH@MFMD@Map?5has?5too?5many?5nodes?$AA@ 0047c040     cmodel.obj
 0003:00007058       ??_C@_0BB@DDCL@Map?5has?5no?5nodes?$AA@ 0047c058     cmodel.obj
 0003:0000706c       ??_C@_0BJ@FHAC@Map?5has?5too?5many?5brushes?$AA@ 0047c06c     cmodel.obj
 0003:00007088       ??_C@_0CA@NLGE@Map?5does?5not?5have?5an?5empty?5leaf?$AA@ 0047c088     cmodel.obj
 0003:000070a8       ??_C@_0CB@GIMM@Map?5leaf?50?5is?5not?5CONTENTS_SOLID@ 0047c0a8     cmodel.obj
 0003:000070cc       ??_C@_0BH@MEAO@Map?5has?5too?5many?5leafs?$AA@ 0047c0cc     cmodel.obj
 0003:000070e4       ??_C@_0BC@JLOO@Map?5with?5no?5leafs?$AA@ 0047c0e4     cmodel.obj
 0003:000070f8       ??_C@_0BI@JNEC@Map?5has?5too?5many?5planes?$AA@ 0047c0f8     cmodel.obj
 0003:00007110       ??_C@_0BD@BHBN@Map?5with?5no?5planes?$AA@ 0047c110     cmodel.obj
 0003:00007124       ??_C@_0BN@GCPJ@Map?5has?5too?5many?5leafbrushes?$AA@ 0047c124     cmodel.obj
 0003:00007144       ??_C@_0BI@HDCD@Map?5with?5no?5leafbrushes?$AA@ 0047c144     cmodel.obj
 0003:0000715c       ??_C@_0BG@NJMD@Bad?5brushside?5texinfo?$AA@ 0047c15c     cmodel.obj
 0003:00007174       ??_C@_0BM@GOH@Map?5has?5too?5many?5brushsides?$AA@ 0047c174     cmodel.obj
 0003:00007190       ??_C@_0BH@GDAE@Map?5has?5too?5many?5areas?$AA@ 0047c190     cmodel.obj
 0003:000071a8       ??_C@_0BJ@CPOG@CM_InlineModel?3?5bad?5name?$AA@ 0047c1a8     cmodel.obj
 0003:000071c4       ??_C@_0BL@ONMA@CM_InlineModel?3?5bad?5number?$AA@ 0047c1c4     cmodel.obj
 0003:000071e0       ??_C@_0BM@DMDO@CM_LeafContents?3?5bad?5number?$AA@ 0047c1e0     cmodel.obj
 0003:000071fc       ??_C@_0BL@JBNK@CM_LeafCluster?3?5bad?5number?$AA@ 0047c1fc     cmodel.obj
 0003:00007218       ??_C@_0BI@MLDM@CM_LeafArea?3?5bad?5number?$AA@ 0047c218     cmodel.obj
 0003:00007230       ??_C@_0CE@MHHN@WARNING?3?5Vis?5decompression?5overr@ 0047c230     cmodel.obj
 0003:00007254       ??_C@_0BH@HHDN@FloodArea_r?3?5reflooded?$AA@ 0047c254     cmodel.obj
 0003:0000726c       ??_C@_0BM@IGEP@areaportal?5?$DO?5numareaportals?$AA@ 0047c26c     cmodel.obj
 0003:00007288       ??_C@_0BA@PBOF@area?5?$DO?5numareas?$AA@ 0047c288     cmodel.obj
 0003:00007298       ?linewidth@@3HA            0047c298     common.obj
 0003:0000729c       ?bytedirs@@3PAY02MA        0047c29c     common.obj
 0003:00007e64       ??_C@_08PEEC@FreeTags?$AA@ 0047ce64     common.obj
 0003:00007e70       ??_C@_04NEN@Free?$AA@      0047ce70     common.obj
 0003:00007e78       ??_C@_06FGBD@Malloc?$AA@   0047ce78     common.obj
 0003:00007e80       ??_C@_08CKGE@SndIndex?$AA@ 0047ce80     common.obj
 0003:00007e8c       ??_C@_08LEPK@ImgIndex?$AA@ 0047ce8c     common.obj
 0003:00007e98       ??_C@_08HHIL@ModIndex?$AA@ 0047ce98     common.obj
 0003:00007ea4       ??_C@_05BDKN@Pmove?$AA@    0047cea4     common.obj
 0003:00007eac       ??_C@_0L@HLNK@PtContents?$AA@ 0047ceac     common.obj
 0003:00007eb8       ??_C@_05EMFM@Trace?$AA@    0047ceb8     common.obj
 0003:00007ec0       ??_C@_0L@DDPI@AreaEdicts?$AA@ 0047cec0     common.obj
 0003:00007ecc       ??_C@_0M@GOJ@UnlinkEdict?$AA@ 0047cecc     common.obj
 0003:00007ed8       ??_C@_09FCBE@LinkEdict?$AA@ 0047ced8     common.obj
 0003:00007ee4       ??_C@_0M@ILBC@dedicated?$DN0?$AA@ 0047cee4     common.obj
 0003:00007ef0       ??_C@_08PEDM@cheats?$DN0?$AA@ 0047cef0     common.obj
 0003:00007efc       ??_C@_09OFLO@logfile?$DN0?$AA@ 0047cefc     common.obj
 0003:00007f08       ??_C@_09OIPF@nointro?$DN0?$AA@ 0047cf08     common.obj
 0003:00007f14       ??_C@_0L@JDGD@timedemo?$DN0?$AA@ 0047cf14     common.obj
 0003:00007f20       ??_C@_0M@MEIO@timescale?$DN1?$AA@ 0047cf20     common.obj
 0003:00007f2c       ??_C@_0M@GKMC@developer?$DN0?$AA@ 0047cf2c     common.obj
 0003:00007f38       ??_C@_0N@FBLA@com_speeds?$DN0?$AA@ 0047cf38     common.obj
 0003:00007f48       ??_C@_0O@BPOE@?4?1console?4log?$AA@ 0047cf48     common.obj
 0003:00007f58       ??_C@_04OHIG@?$FO4?$CFs?$AA@ 0047cf58     common.obj
 0003:00007f60       ??_C@_0CG@OBIB@?6?6?9?9?9?9?9?5Quake2?5debug?5log?5on?5?$CFs?5?9@ 0047cf60     common.obj
 0003:00007f88       ??_C@_0BI@HGMM@?$CFa?5?$CFb?5?$CFd?0?5?$CFY?5?$CI?$CFH?3?$CFM?3?$CFS?$CJ?$AA@ 0047cf88     common.obj
 0003:00007fa0       ??_C@_09PPIM@debug?4log?$AA@ 0047cfa0     common.obj
 0003:00007fac       ??_C@_02JALM@a?$CL?$AA@    0047cfac     common.obj
 0003:00007fb0       ??_C@_04FJOH@?$FO3?$CFs?$AA@ 0047cfb0     common.obj
 0003:00007fb8       ??_C@_0BB@EHGN@FATAL?5ERROR?3?5?$CFs?6?$AA@ 0047cfb8     common.obj
 0003:00007fcc       ??_C@_0BK@LBEM@Server?5fatal?5crashed?3?5?$CFs?6?$AA@ 0047cfcc     common.obj
 0003:00007fe8       ??_C@_0BK@GCKO@recursive?5error?5after?3?5?$CFs?$AA@ 0047cfe8     common.obj
 0003:00008008       ??_R0H@8                   0047d008     common.obj
 0003:00008014       ??_C@_0BE@GPDD@Server?5crashed?3?5?$CFs?6?$AA@ 0047d014     common.obj
 0003:00008028       ??_C@_0N@EEOP@?$FO1ERROR?3?5?$CFs?6?$AA@ 0047d028     common.obj
 0003:00008038       ??_C@_03IMDO@?$CFs?3?$AA@  0047d038     common.obj
 0003:0000803c       ??_C@_07MEHP@?5?$DM?9?5?$CFs?3?$AA@ 0047d03c     common.obj
 0003:00008044       ??_C@_0CG@LNFM@CheckMask?$CI?$CJ?3?5skip?5empty?5mask?5in?5@ 0047d044     common.obj
 0003:0000806c       ??_C@_0CP@ILPI@appSprintf?3?5overflow?5?$CFd?5?$DO?5?$CFd?5?$CIca@ 0047d06c     common.obj
 0003:0000809c       ??_C@_0BO@KBHK@IPWildcard?3?5bad?5char?5in?5?$CC?$CFs?$CC?6?$AA@ 0047d09c     common.obj
 0003:000080bc       ??_C@_0BN@JGPE@IPWildcard?3?5short?5mask?5?$CC?$CFs?$CC?6?$AA@ 0047d0bc     common.obj
 0003:000080dc       ??_C@_0BK@OJBA@MSG_ReadDir?3?5out?5of?5range?$AA@ 0047d0dc     common.obj
 0003:000080f8       ??_C@_0BM@PCGB@Entity?5number?5?$DO?$DN?5MAX_EDICTS?$AA@ 0047d0f8     common.obj
 0003:00008114       ??_C@_0BE@IKFJ@Unset?5entity?5number?$AA@ 0047d114     common.obj
 0003:00008128       ??_C@_0CJ@MBBM@SZ_GetSpace?3?5overflow?5?$CImax?$DN?$CFd?0?5n@ 0047d128     common.obj
 0003:00008154       ??_C@_0CG@CHOB@SZ_GetSpace?3?5?$CFd?5is?5?$DO?5full?5buffer@ 0047d154     common.obj
 0003:0000817c       ??_C@_0DJ@OLNN@SZ_GetSpace?3?5overflow?5without?5al@ 0047d17c     common.obj
 0003:000081b8       ??_C@_0BN@KHMC@Info_Print?$CI?$CJ?3?5missing?5value?6?$AA@ 0047d1b8     common.obj
 0003:000081d8       ??_C@_0BH@JNPH@BlockCRC?3?5sequence?5?$DM?50?$AA@ 0047d1d8     common.obj
 0003:000081f0       ??_C@_0CG@EKON@?$FO2?6?$DN?$DN?$DN?$DN?$DN?$DN?5Quake2?5Initialized?5?$DN?$DN?$DN@ 0047d1f0     common.obj
 0003:00008218       ??_C@_0BB@MFEB@dedicated_start?6?$AA@ 0047d218     common.obj
 0003:0000822c       ??_C@_03CHOC@d1?6?$AA@     0047d22c     common.obj
 0003:00008230       ??_C@_05COLM@error?$AA@    0047d230     common.obj
 0003:00008238       ??_C@_07BPOH@version?$AA@  0047d238     common.obj
 0003:00008240       ??_C@_0CD@IPOI@4?410?5x86?5Feb?516?52005?5Win32?5RELEA@ 0047d240     common.obj
 0003:00008264       ??_C@_0BD@EHDG@testing?5drop?5error?$AA@ 0047d264     common.obj
 0003:00008278       ??_C@_05PJCB@?9drop?$AA@   0047d278     common.obj
 0003:00008280       ??_C@_04FENK@?9gpf?$AA@    0047d280     common.obj
 0003:00008288       ??_C@_0CC@GBGI@ParseCmdline?3?5unable?5to?5set?5?$CC?$CFs?$CC@ 0047d288     common.obj
 0003:000082ac       ??_C@_0BI@FIGH@ParseCmdline?3?5overflow?6?$AA@ 0047d2ac     common.obj
 0003:000082c4       ??_C@_02JBML@?$CFc?$AA@    0047d2c4     common.obj
 0003:000082c8       ??_C@_0BN@FNHH@ParseCmdline?3?5bad?5argument?5?$CC?$AA@ 0047d2c8     common.obj
 0003:000082e8       ??_C@_0M@PFH@?$CFs?3?5?$CF3d?5?$CF4f?$AA@ 0047d2e8     common.obj
 0003:000082f4       ??_C@_0BM@DFMO@tr?3?5?$CF4d?5?$CI?$CF4d?$CJ?5pt?3?5?$CF4d?5?$CI?$CF4d?$CJ?$AA@ 0047d2f4     common.obj
 0003:00008310       ??_C@_0CK@IONG@sv?3?$CF2d?5gm?3?$CF2d?5?$CI?$CF2d?$CJ?5cl?3?$CF2d?5rf?3?$CF2@ 0047d310     common.obj
 0003:00008540       ??_C@_0BJ@JIGN@Invalid?5info?5cvar?5value?6?$AA@ 0047d540     cvar.obj
 0003:0000855c       ??_C@_0CP@CFHC@Different?5default?5value?5for?5cvar@ 0047d55c     cvar.obj
 0003:0000858c       ??_C@_0BI@DGEI@Invalid?5info?5cvar?5name?6?$AA@ 0047d58c     cvar.obj
 0003:000085a4       ??_C@_0CD@GBGG@?$CFs?5will?5be?5changed?5for?5next?5game@ 0047d5a4     cvar.obj
 0003:000085c8       ??_C@_0BH@FDIH@?$CFs?5is?5cheat?5protected?6?$AA@ 0047d5c8     cvar.obj
 0003:000085e0       ??_C@_0BH@EAGI@?$CFs?5is?5write?5protected?6?$AA@ 0047d5e0     cvar.obj
 0003:000085f8       ??_C@_0BD@DOLD@?$CC?$CFs?$CC?5is?3?$CC?$CFs?$CC?5?$CFs?$CFs?6?$AA@ 0047d5f8     cvar.obj
 0003:0000860c       ??_C@_0N@LNED@?$CIno?5default?$CJ?$AA@ 0047d60c     cvar.obj
 0003:0000861c       ??_C@_0N@KINN@default?3?$CC?$CFs?$CC?$AA@ 0047d61c     cvar.obj
 0003:0000862c       ??_C@_09HNNH@?$CIdefault?$CJ?$AA@ 0047d62c     cvar.obj
 0003:00008638       ??_C@_08NEHJ@?9?$DO?5?$CC?$CFs?$CC?5?$AA@ 0047d638     cvar.obj
 0003:00008644       ??_C@_0P@HEND@set?$CFc?5?$CFs?5?$CC?$CFs?$CC?6?$AA@ 0047d644     cvar.obj
 0003:00008654       ??_C@_0BG@JGCG@fixing?5cheat?5cvar?5?$CFs?6?$AA@ 0047d654     cvar.obj
 0003:0000866c       ??_C@_05BPBD@cycle?$AA@    0047d66c     cvar.obj
 0003:00008674       ??_C@_06KGCE@toggle?$AA@   0047d674     cvar.obj
 0003:0000867c       ??_C@_05IMHO@scale?$AA@    0047d67c     cvar.obj
 0003:00008684       ??_C@_03ONEI@add?$AA@      0047d684     cvar.obj
 0003:00008688       ??_C@_08DHNN@cvarlist?$AA@ 0047d688     cvar.obj
 0003:00008694       ??_C@_05NGOJ@reset?$AA@    0047d694     cvar.obj
 0003:0000869c       ??_C@_04PHDO@sets?$AA@     0047d69c     cvar.obj
 0003:000086a4       ??_C@_04IEM@setu?$AA@      0047d6a4     cvar.obj
 0003:000086ac       ??_C@_04LGA@seta?$AA@      0047d6ac     cvar.obj
 0003:000086b4       ??_C@_03NHNF@set?$AA@      0047d6b4     cvar.obj
 0003:000086b8       ??_C@_0BK@HFIG@Invalid?5flag?5for?5set?3?5?$CFc?6?$AA@ 0047d6b8     cvar.obj
 0003:000086d4       ??_C@_0EH@DNNB@Usage?3?5set?5?$DMvariable?$DO?5?$DMvalue?$DO?5?$FLu@ 0047d6d4     cvar.obj
 0003:0000871c       ??_C@_0CA@DHAI@Usage?3?5seta?5?$DMvariable?$DO?5?$DMvalue?$DO?6?$AA@ 0047d71c     cvar.obj
 0003:0000873c       ??_C@_0CA@HCDI@Usage?3?5setu?5?$DMvariable?$DO?5?$DMvalue?$DO?6?$AA@ 0047d73c     cvar.obj
 0003:0000875c       ??_C@_0CA@BDLA@Usage?3?5sets?5?$DMvariable?$DO?5?$DMvalue?$DO?6?$AA@ 0047d75c     cvar.obj
 0003:0000877c       ??_C@_0BF@LGPO@Usage?3?5reset?5?$DMmask?$DO?6?$AA@ 0047d77c     cvar.obj
 0003:00008794       ??_C@_0BK@FEJA@Usage?3?5cvarlist?5?$FL?$DMmask?$DO?$FN?6?$AA@ 0047d794     cvar.obj
 0003:000087b0       ??_C@_0BH@NELE@Displayed?5?$CFd?1?$CFd?5cvars?6?$AA@ 0047d7b0     cvar.obj
 0003:000087c8       ??_C@_0O@LFFB@?$CFs?5?$CFs?$CFs?5?$CC?$CFs?$CC?6?$AA@ 0047d7c8     cvar.obj
 0003:000087d8       ??_C@_02FDKA@?$FO1?$AA@    0047d7d8     cvar.obj
 0003:000087dc       ??_C@_02PJPM@?$FO5?$AA@    0047d7dc     cvar.obj
 0003:000087e0       ??_C@_02GEF@?$FO6?$AA@     0047d7e0     cvar.obj
 0003:000087e4       ??_C@_06NPIL@?5?5?5?5?5?5?$AA@ 0047d7e4     cvar.obj
 0003:000087ec       ??_C@_0BB@LABI@?$CFs?5is?5not?5found?6?$AA@ 0047d7ec     cvar.obj
 0003:00008800       ??_C@_0BB@FAIO@add?3?5MIN?5?$DO?$DN?5MAX?6?$AA@ 0047d800     cvar.obj
 0003:00008814       ??_C@_0BK@BDKF@Invalid?5flag?5for?5add?3?5?$CFc?6?$AA@ 0047d814     cvar.obj
 0003:00008830       ??_C@_0DI@CJMF@Usage?3?5add?5?$DMvariable?$DO?5?$DMincrement@ 0047d830     cvar.obj
 0003:00008868       ??_C@_0CB@KHPP@Usage?3?5scale?5?$DMvariable?$DO?5?$DMscale?$DO?6@ 0047d868     cvar.obj
 0003:0000888c       ??_C@_0BK@DBGB@Usage?3?5toggle?5?$DMvariable?$DO?6?$AA@ 0047d88c     cvar.obj
 0003:000088a8       ??_C@_0DP@BGLF@Usage?3?5cycle?5?$FL?9r?$FN?5?$DMvariable?$DO?5?$DMva@ 0047d8a8     cvar.obj
 0003:000088e8       ??_C@_02CHHI@?9r?$AA@      0047d8e8     cvar.obj
 0003:000088ec       ??_C@_0L@OBDN@fs_debug?$DN0?$AA@ 0047d8ec     files.obj
 0003:000088f8       ??_C@_05GHAD@game?$DN?$AA@ 0047d8f8     files.obj
 0003:00008900       ??_C@_06BGDN@cddir?$DN?$AA@ 0047d900     files.obj
 0003:00008908       ??_C@_0BD@FPMJ@cfgfile?$DNconfig?4cfg?$AA@ 0047d908     files.obj
 0003:0000891c       ??_C@_09GKAB@basedir?$DN?4?$AA@ 0047d91c     files.obj
 0003:00008930       ??_C@_06NNND@?5?$FLzip?$FN?$AA@ 0047d930     files.obj
 0003:00008938       ??_C@_09HGHK@path?3?5?$CFs?6?$AA@ 0047d938     files.obj
 0003:00008944       ??_C@_0N@CAF@?3?5can?8t?5dst?6?$AA@ 0047d944     files.obj
 0003:00008954       ??_C@_09EEPI@?3?5no?5src?6?$AA@ 0047d954     files.obj
 0003:00008960       ??_C@_0P@KHIG@copy?$CI?$CFs?5?9?$DO?5?$CFs?$CJ?$AA@ 0047d960     files.obj
 0003:00008970       ??_C@_0BN@EANL@CopyFiles?3?5bad?5srcMask?5?$CC?$CFs?$CC?6?$AA@ 0047d970     files.obj
 0003:00008990       ??_C@_0BD@PMPF@CopyFiles?$CI?$CFs?9?$DO?$CFs?$CJ?6?$AA@ 0047d990     files.obj
 0003:000089a4       ??_C@_08JCJC@del?$CI?$CFs?$CJ?6?$AA@ 0047d9a4     files.obj
 0003:000089b0       ??_C@_0BB@LNHI@RemoveFiles?$CI?$CFs?$CJ?6?$AA@ 0047d9b0     files.obj
 0003:000089c4       ??_C@_0CG@FFIO@FS_FCloseFile?3?5damaged?5zip?5file?5@ 0047d9c4     files.obj
 0003:000089ec       ??_C@_0DE@OMMO@FS_FCloseFile?3?5invalid?5file?5hand@ 0047d9ec     files.obj
 0003:00008a20       ??_C@_0M@NIP@no?5file?5?$CFs?6?$AA@ 0047da20     files.obj
 0003:00008a2c       ??_C@_0L@IGJB@rfile?3?5?$CFs?6?$AA@ 0047da2c     files.obj
 0003:00008a38       ??_C@_0BA@GILD@pfile?3?5?$CFs?5?$CI?$CFs?$CJ?6?$AA@ 0047da38     files.obj
 0003:00008a48       ??_C@_09GNOK@file?3?5?$CFs?6?$AA@ 0047da48     files.obj
 0003:00008a54       ??_C@_09HGNB@link?3?5?$CFs?6?$AA@ 0047da54     files.obj
 0003:00008a60       ??_C@_0BL@MAPJ@FS_FOpenFile?3?5bad?5path?5?$CFs?6?$AA@ 0047da60     files.obj
 0003:00008a7c       ??_C@_0BN@NHIO@FS_FileExists?3?5bad?5path?3?5?$CFs?6?$AA@ 0047da7c     files.obj
 0003:00008a9c       ??_C@_0L@GGMM@check?3?5?$CFs?6?$AA@ 0047da9c     files.obj
 0003:00008aa8       ??_C@_0BB@PLOO@cannot?5read?5file?$AA@ 0047daa8     files.obj
 0003:00008abc       ??_C@_0BH@NBOD@error?5reading?5zip?5file?$AA@ 0047dabc     files.obj
 0003:00008ad4       ??_C@_0BO@IMOA@cannot?5open?5file?5?$CFs?5in?5zip?5?$CFs?$AA@ 0047dad4     files.obj
 0003:00008af4       ??_C@_0BH@JMEA@couldn?8t?5reopen?5zip?5?$CFs?$AA@ 0047daf4     files.obj
 0003:00008b0c       ??_C@_0P@PKOB@Cannot?5seek?5?$CFs?$AA@ 0047db0c     files.obj
 0003:00008b1c       ??_C@_0BD@DBPD@couldn?8t?5reopen?5?$CFs?$AA@ 0047db1c     files.obj
 0003:00008b30       ??_C@_0BE@NBIB@cannot?5open?5file?5?$CFs?$AA@ 0047db30     files.obj
 0003:00008b44       ??_C@_0CO@EJPB@FS_Read?3?5invalid?5file?5handle?5?$CIca@ 0047db44     files.obj
 0003:00008b74       ??_C@_0BD@EAME@exec?5autoexec?4cfg?6?$AA@ 0047db74     files.obj
 0003:00008b88       ??_C@_0BA@DALF@?$CFs?1autoexec?4cfg?$AA@ 0047db88     files.obj
 0003:00008b98       ??_C@_0CF@DFHG@unbindall?6reset?5?$CK?6unalias?5?$CK?6exec@ 0047db98     files.obj
 0003:00008bc0       ??_C@_01LHO@r?$AA@         0047dbc0     files.obj
 0003:00008bc4       ??_C@_0DB@BEAB@Gamedir?5should?5be?5a?5single?5filen@ 0047dbc4     files.obj
 0003:00008bf8       ??_C@_0BM@GIMG@Invalid?5game?5directory?3?5?$CFs?6?$AA@ 0047dbf8     files.obj
 0003:00008c14       ??_C@_0BJ@FGHA@vid_restart?6snd_restart?6?$AA@ 0047dc14     files.obj
 0003:00008c30       ??_C@_07EDLB@?$CFs?1?$CFs?1?$CK?$AA@ 0047dc30     files.obj
 0003:00008c38       ??_C@_0BN@FKDH@Unloading?5pak?5?$CFs?5?$CI?$CFd?5files?$CJ?6?$AA@ 0047dc38     files.obj
 0003:00008c58       ??_C@_0CK@CCBE@AddGameDirectory?3?5path?5?$CC?$CFs?$CC?5is?5n@ 0047dc58     files.obj
 0003:00008c84       ??_C@_08LIIG@?$CFs?1?$CK?4pak?$AA@ 0047dc84     files.obj
 0003:00008c90       ??_C@_04FIFD@?$CFs?1?$CK?$AA@ 0047dc90     files.obj
 0003:00008c98       ??_C@_01FDHG@?$CK?$AA@     0047dc98     files.obj
 0003:00008c9c       ??_C@_0CA@LGJK@Added?5packfile?$CFs?5?$CFs?5?$CI?$CFd?5files?$CJ?6?$AA@ 0047dc9c     files.obj
 0003:00008cbc       ??_C@_0BH@PBHF@Cannot?5seek?5pakfile?5?$CFs?$AA@ 0047dcbc     files.obj
 0003:00008cd4       ??_C@_0BG@PDLL@?$CFs?5is?5not?5a?5packfile?6?$AA@ 0047dcd4     files.obj
 0003:00008cec       ??_C@_0BJ@MFIO@Cannot?5read?5packfile?5?$CFs?6?$AA@ 0047dcec     files.obj
 0003:00008d08       ??_C@_0BJ@PAHA@Cannot?5open?5packfile?5?$CFs?6?$AA@ 0047dd08     files.obj
 0003:00008d24       ??_C@_0BL@LMGH@FS_ListFiles?3?5bad?5path?5?$CFs?6?$AA@ 0047dd24     files.obj
 0003:00008d40       ??_C@_09GAIG@list?3?5?$CFs?6?$AA@ 0047dd40     files.obj
 0003:00008d4c       ??_C@_09FHIO@?$CFs?1baseq2?$AA@ 0047dd4c     files.obj
 0003:00008d58       ??_C@_04PIKN@type?$AA@     0047dd58     files.obj
 0003:00008d60       ??_C@_03KMBF@cat?$AA@      0047dd60     files.obj
 0003:00008d64       ??_C@_09POHG@unloadpak?$AA@ 0047dd64     files.obj
 0003:00008d70       ??_C@_07DFHG@loadpak?$AA@  0047dd70     files.obj
 0003:00008d78       ??_C@_03FIFC@dir?$AA@      0047dd78     files.obj
 0003:00008d7c       ??_C@_04KFLO@link?$AA@     0047dd7c     files.obj
 0003:00008d84       ??_C@_04NCOD@path?$AA@     0047dd84     files.obj
 0003:00008d8c       ??_C@_0BH@EIKK@Added?5?$CFd?5inline?5files?6?$AA@ 0047dd8c     files.obj
 0003:00008da4       ??_C@_0DK@OKCK@Usage?3?5loadpak?5?$DMpakname?$DO?$FL?4pak?$FN?6?5@ 0047dda4     files.obj
 0003:00008de0       ??_C@_0BK@IALJ@Packfile?5?$CFs?5is?5not?5found?6?$AA@ 0047dde0     files.obj
 0003:00008dfc       ??_C@_04IMFH@?4pak?$AA@    0047ddfc     files.obj
 0003:00008e04       ??_C@_0BP@CBNL@Packfile?5?$CFs?5is?5already?5loaded?6?$AA@ 0047de04     files.obj
 0003:00008e24       ??_C@_0DO@FKGH@Usage?3?5unloadpak?5?$DMpakname?$DO?$FL?4pak?$FN@ 0047de24     files.obj
 0003:00008e64       ??_C@_03FELK@?1?$CFs?$AA@  0047de64     files.obj
 0003:00008e68       ??_C@_0BL@LOCO@Packfile?5?$CFs?5is?5not?5loaded?6?$AA@ 0047de68     files.obj
 0003:00008e84       ??_C@_0BJ@CCLN@Usage?3?5link?5?$DMfrom?$DO?5?$DMto?$DO?6?$AA@ 0047de84     files.obj
 0003:00008ea0       ??_C@_0BF@JMPD@Usage?3?5dir?5?$FL?$DMmask?$DO?$FN?6?$AA@ 0047dea0     files.obj
 0003:00008eb8       ??_C@_0CH@CLHC@?$FO2Directory?5of?5?$CFs?6?9?9?9?9?9?9?9?9?9?9?9?9?9?9@ 0047deb8     files.obj
 0003:00008ee0       ??_C@_04EIKO@?1?$CK?4?$CK?$AA@ 0047dee0     files.obj
 0003:00008ee8       ??_C@_03DCMC@?$CK?4?$CK?$AA@ 0047dee8     files.obj
 0003:00008eec       ??_C@_08KOAJ@?$CFs?5?3?5?$CFs?6?$AA@ 0047deec     files.obj
 0003:00008ef8       ??_C@_0L@KEMA@?$FO2?6Links?3?6?$AA@ 0047def8     files.obj
 0003:00008f04       ??_C@_0BD@HNAO@?$CF?93d?5?5?5?5?5?9?9?5?5?5?5?$CFs?6?$AA@ 0047df04     files.obj
 0003:00008f18       ??_C@_0BD@FDPO@?$CF?93d?5?5?$CFc?5?5?$CF?95d?5?$CFs?6?$AA@ 0047df18     files.obj
 0003:00008f2c       ??_C@_0BM@PJJB@?$FO2?9?9?9?9?9?9?9?9?9?9?9?9?9?9?9?9?9?9?9?9?9?9?9?9?6?$AA@ 0047df2c     files.obj
 0003:00008f48       ??_C@_0CA@EGOF@?9?9?9?9zip?9files?9name?9?9?9?9?9?9?9?9?9?9?9?9?6?$AA@ 0047df48     files.obj
 0003:00008f68       ??_C@_0BI@IIED@?$FO2Current?5search?5path?3?6?$AA@ 0047df68     files.obj
 0003:00008f80       ??_C@_0BH@IAD@Usage?3?5cat?5?$DMfilename?$DO?6?$AA@ 0047df80     files.obj
 0003:00008f98       ??_C@_0BL@DFHA@?6binary?5file?5?4?4?4?5stopped?4?6?$AA@ 0047df98     files.obj
 0003:00008fb4       ??_C@_0L@MFDD@?6?9?9?9?9?9?9?9?9?6?$AA@ 0047dfb4     files.obj
 0003:00008fc0       ??_C@_0BG@FHIN@File?5?$CFs?5is?5not?5found?6?$AA@ 0047dfc0     files.obj
 0003:00008fd8       ??_C@_0BI@COAN@Usage?3?5type?5?$DMfilename?$DO?6?$AA@ 0047dfd8     files.obj
 0003:00008ff0       ??_C@_0BC@OMJL@length?3?5?$CFd?5bytes?6?$AA@ 0047dff0     files.obj
 0003:00009004       ??_C@_0BI@POEI@File?5?$CC?$CFs?$CC?5is?5not?5found?6?$AA@ 0047e004     files.obj
 0003:0000901c       ??_C@_08HPLN@fs_debug?$AA@ 0047e01c     files.obj
 0003:00009028       ??_C@_0BL@CIA@LoadPCX?$CI?$CFs?$CJ?3?5bad?5pcx?5file?6?$AA@ 0047e028     images.obj
 0003:00009044       ??_C@_0CB@CEAM@LoadPCX?$CI?$CFs?$CJ?3?5image?5is?5too?5large?6@ 0047e044     images.obj
 0003:00009068       ??_C@_0CB@HMLA@LoadTGA?$CI?$CFs?$CJ?3?5image?5is?5too?5large?6@ 0047e068     images.obj
 0003:0000908c       ??_C@_0DD@HGIG@LoadTGA?$CI?$CFs?$CJ?3?5invalid?5color?5depth@ 0047e08c     images.obj
 0003:000090c0       ??_C@_0CG@MDFJ@LoadTGA?$CI?$CFs?$CJ?3?5colormaps?5not?5suppo@ 0047e0c0     images.obj
 0003:000090e8       ??_C@_0FG@DMPC@LoadTGA?$CI?$CFs?$CJ?3?5Only?5type?52?5?$CIRGB?$CJ?0?5@ 0047e0e8     images.obj
 0003:00009140       ??_C@_0CB@NKB@LoadJPG?$CI?$CFs?$CJ?3?5image?5is?5too?5large?6@ 0047e140     images.obj
 0003:00009164       ??_C@_0CL@KMKN@LoadJPG?$CI?$CFs?$CJ?3?5color?5components?5no@ 0047e164     images.obj
 0003:00009190       ??_C@_0BL@EPMH@LoadJPG?$CI?$CFs?$CJ?3?5damaged?5file?6?$AA@ 0047e190     images.obj
 0003:000091ac       ??_C@_0L@LCIE@JPEG?5error?$AA@ 0047e1ac     images.obj
 0003:000091b8       ??_C@_0BB@IMMK@JPEG?5warning?5?$CFd?6?$AA@ 0047e1b8     images.obj
 0003:000091cc       ??_C@_07FFBL@?$CFs?1?$CFs?4?$CK?$AA@ 0047e1cc     images.obj
 0003:000091d4       ??_C@_0CE@LMLN@WriteTGA?$CI?$CJ?3?5revert?5to?5uncompress@ 0047e1d4     images.obj
 0003:000091f8       ??_C@_0BN@JDMJ@WriteTGA?$CI?$CJ?3?5packed?5?$CFd?5?9?$DO?5?$CFd?6?$AA@ 0047e1f8     images.obj
 0003:00009218       ??_C@_0CC@NEH@WriteTGA?$CI?$CFs?$CJ?3?5cannot?5create?5file@ 0047e218     images.obj
 0003:0000923c       ??_C@_0CC@HMFG@WriteJPG?$CI?$CFs?$CJ?3?5cannot?5create?5file@ 0047e23c     images.obj
 0003:000092b0       ??_C@_0CH@LCIC@appFree?3?5bad?5magic?5?$CFX?5?$CIcall?5from@ 0047e2b0     memory.obj
 0003:000092d8       ??_C@_0CM@LAJC@appMalloc?3?5failed?5on?5allocation?5@ 0047e2d8     memory.obj
 0003:00009304       ??_C@_0CN@KCBF@AllocChunk?3?5failed?5on?5allocation@ 0047e304     memory.obj
 0003:00009334       ??_C@_08NNMC@MemStats?$AA@ 0047e334     memory.obj
 0003:00009340       ??_C@_0CG@MIHG@System?5memory?3?6?$CFd?5bytes?5in?5?$CFd?5bl@ 0047e340     memory.obj
 0003:00009368       ??_C@_0BK@KONB@?$CFs?5is?5version?5?$CFd?0?5not?538?6?$AA@ 0047e368     model.obj
 0003:00009384       ??_C@_0BD@LGDL@Map?5with?5no?5models?$AA@ 0047e384     model.obj
 0003:00009398       ??_C@_0CB@NLEG@LoadBSPFile?3?5incorrect?5lump?5size@ 0047e398     model.obj
 0003:000093bc       ??_C@_0BL@NOEB@?$CFs?5has?5a?5wrong?5BSP?5header?6?$AA@ 0047e3bc     model.obj
 0003:000093d8       ??_C@_0BB@KFPO@Couldn?8t?5load?5?$CFs?$AA@ 0047e3d8     model.obj
 0003:000093ec       ??_C@_0DJ@OEDL@client?5trying?5to?5load?5map?5?$CC?$CFs?$CC?5w@ 0047e3ec     model.obj
 0003:00009428       ??_C@_0DC@ECOH@ProcessEntstring?$CI?$CJ?3?5old?5size?5?$DN?5?$CF@ 0047e428     model.obj
 0003:0000945c       ??_C@_0BJ@MIIC@Adding?5entity?5patch?5?4?4?4?6?$AA@ 0047e45c     model.obj
 0003:00009478       ??_C@_0BG@GGJC@Kingpin?5map?5detected?6?$AA@ 0047e478     model.obj
 0003:00009490       ??_C@_0O@PLAB@?$CCfogdensity2?$CC?$AA@ 0047e490     model.obj
 0003:000094a0       ??_C@_0BJ@PIJA@?$CCclassname?$CC?5?$CClightflare?$CC?$AA@ 0047e4a0     model.obj
 0003:000094bc       ??_C@_0BF@KIIB@?$CCclassname?$CC?5?$CCjunior?$CC?$AA@ 0047e4bc     model.obj
 0003:000094d4       ??_C@_0N@EHLC@expected?5?$CC?$HL?$CC?$AA@ 0047e4d4     model.obj
 0003:000094e4       ??_C@_0P@CODN@MAX_ENT_FIELDS?$AA@ 0047e4e4     model.obj
 0003:000094f4       ??_C@_0BH@ENLB@unexpected?5end?5of?5data?$AA@ 0047e4f4     model.obj
 0003:0000950c       ??_C@_0BF@OJJ@EntString?5error?3?5?$CFs?6?$AA@ 0047e50c     model.obj
 0003:00009524       ??_C@_02ONJM@?$HN?6?$AA@   0047e524     model.obj
 0003:00009528       ??_C@_0L@LNNB@?$CC?$CFs?$CC?5?$CC?$CFs?$CC?6?$AA@ 0047e528     model.obj
 0003:00009534       ??_C@_02JKGD@?$HL?6?$AA@   0047e534     model.obj
 0003:00009538       ??_C@_06NOHF@origin?$AA@   0047e538     model.obj
 0003:00009540       ??_C@_0BF@OCLF@MAX_TARGETS?5reached?6?$AA@ 0047e540     model.obj
 0003:00009558       ??_C@_0L@PMO@targetname?$AA@ 0047e558     model.obj
 0003:00009564       ??_C@_0O@IEPH@target_splash?$AA@ 0047e564     model.obj
 0003:00009574       ??_C@_07LLBN@fogval2?$AA@  0047e574     model.obj
 0003:0000957c       ??_C@_0M@KJNG@fogdensity2?$AA@ 0047e57c     model.obj
 0003:00009588       ??_C@_0N@HPMD@_sun_surface?$AA@ 0047e588     model.obj
 0003:00009598       ??_C@_0N@FMCD@_sun_ambient?$AA@ 0047e598     model.obj
 0003:000095a8       ??_C@_0N@ECDG@_sun?$CFd_light?$AA@ 0047e5a8     model.obj
 0003:000095b8       ??_C@_0L@CJCG@_sun_light?$AA@ 0047e5b8     model.obj
 0003:000095c4       ??_C@_0L@GPLD@_sun_color?$AA@ 0047e5c4     model.obj
 0003:000095d0       ??_C@_0BH@JLFC@_sun_angle?0_sun_mangle?$AA@ 0047e5d0     model.obj
 0003:000095e8       ??_C@_04MEBA@_sun?$AA@     0047e5e8     model.obj
 0003:000095f0       ??_C@_0M@NNGE@_sun_vector?$AA@ 0047e5f0     model.obj
 0003:000095fc       ??_C@_05LMLC@_sun?$CK?$AA@ 0047e5fc     model.obj
 0003:00009604       ??_C@_0L@GILE@fogdensity?$AA@ 0047e604     model.obj
 0003:00009610       ??_C@_06KDGB@fogval?$AA@   0047e610     model.obj
 0003:00009618       ??_C@_02CFNP@sr?$AA@       0047e618     model.obj
 0003:0000961c       ??_C@_0L@LME@worldspawn?$AA@ 0047e61c     model.obj
 0003:00009628       ??_C@_09OGED@func_lift?$AA@ 0047e628     model.obj
 0003:00009634       ??_C@_0BE@PEIJ@func_train_rotating?$AA@ 0047e634     model.obj
 0003:00009648       ??_C@_0L@OLKI@func_train?$AA@ 0047e648     model.obj
 0003:00009654       ??_C@_0P@CDNG@func_explosive?$AA@ 0047e654     model.obj
 0003:00009664       ??_C@_0BD@DIJK@func_door_rotating?$AA@ 0047e664     model.obj
 0003:00009678       ??_C@_09HMCI@func_door?$AA@ 0047e678     model.obj
 0003:00009684       ??_C@_09DHI@func_wall?$AA@ 0047e684     model.obj
 0003:00009690       ??_C@_06NLLI@junior?$AA@   0047e690     model.obj
 0003:00009698       ??_C@_0BL@HJNM@no?5flags?5specified?5for?5?$CFs?6?$AA@ 0047e698     model.obj
 0003:000096b4       ??_C@_0BJ@IEPG@texinfo?5?$CFs?5is?5not?5found?6?$AA@ 0047e6b4     model.obj
 0003:000096d0       ??_C@_05MJGO@?$CFd?5?$CFd?$AA@ 0047e6d0     model.obj
 0003:000096d8       ??_C@_07IHDE@inflags?$AA@  0047e6d8     model.obj
 0003:000096e0       ??_C@_05KGBM@flags?$AA@    0047e6e0     model.obj
 0003:000096e8       ??_C@_09GDDG@surfparam?$AA@ 0047e6e8     model.obj
 0003:000096f4       ??_C@_06FNFB@_focus?$AA@   0047e6f4     model.obj
 0003:000096fc       ??_C@_05FIPM@_cone?$AA@    0047e6fc     model.obj
 0003:00009704       ??_C@_0BN@PHIO@spotlight?5without?5direction?6?$AA@ 0047e704     model.obj
 0003:00009724       ??_C@_05LIJM@angle?$AA@    0047e724     model.obj
 0003:0000972c       ??_C@_05NGOE@?$CFf?5?$CFf?$AA@ 0047e72c     model.obj
 0003:00009734       ??_C@_0BD@NNFL@_mangle?0_spotangle?$AA@ 0047e734     model.obj
 0003:00009748       ??_C@_0L@JPPJ@_spotpoint?$AA@ 0047e748     model.obj
 0003:00009754       ??_C@_0M@ILIF@_spotvector?$AA@ 0047e754     model.obj
 0003:00009760       ??_C@_0CK@IHFG@_spotvector?0_spotpoint?0_mangle?0_@ 0047e760     model.obj
 0003:0000978c       ??_C@_05BHCO@_spot?$AA@    0047e78c     model.obj
 0003:00009794       ??_C@_06CCPD@target?$AA@   0047e794     model.obj
 0003:0000979c       ??_C@_0M@OIHG@_wait?0_fade?$AA@ 0047e79c     model.obj
 0003:000097a8       ??_C@_08MNFC@_falloff?$AA@ 0047e7a8     model.obj
 0003:000097b4       ??_C@_0N@IGOF@color?0_color?$AA@ 0047e7b4     model.obj
 0003:000097c4       ??_C@_0N@MANK@light?0_light?$AA@ 0047e7c4     model.obj
 0003:000097d4       ??_C@_08NNKG@?$CFd?5?$CFd?5?$CFd?$AA@ 0047e7d4     model.obj
 0003:000097e0       ??_C@_05HMGA@color?$AA@    0047e7e0     model.obj
 0003:000097e8       ??_C@_06JGHA@radius?$AA@   0047e7e8     model.obj
 0003:000097f0       ??_C@_0BE@FHOB@HAVE?5SUN?5FLARE?3?5?$CFs?6?$AA@ 0047e7f0     model.obj
 0003:00009804       ??_C@_03KLED@dmg?$AA@      0047e804     model.obj
 0003:00009808       ??_C@_06HECL@health?$AA@   0047e808     model.obj
 0003:00009810       ??_C@_05NGLH@flare?$AA@    0047e810     model.obj
 0003:00009818       ??_C@_0N@FBG@style?0_style?$AA@ 0047e818     model.obj
 0003:00009828       ??_C@_05DKPF@light?$AA@    0047e828     model.obj
 0003:00009830       ??_C@_0CO@CFNM@func_plat?0func_?$CKrotating?0func_do@ 0047e830     model.obj
 0003:00009860       ??_C@_0BI@BJJF@invalid?5model?5index?5?$CFd?6?$AA@ 0047e860     model.obj
 0003:00009878       ??_C@_03LCGD@?$CK?$CFd?$AA@ 0047e878     model.obj
 0003:0000987c       ??_C@_0L@CANC@spawnflags?$AA@ 0047e87c     model.obj
 0003:00009888       ??_C@_09JDJH@classname?$AA@ 0047e888     model.obj
 0003:00009894       ??_C@_0BK@MBJG@target?5?$CC?$CFs?$CC?5is?5not?5found?6?$AA@ 0047e894     model.obj
 0003:000098b0       ??_C@_08HNLA@showdrop?$AA@ 0047e8b0     net_chan.obj
 0003:000098bc       ??_C@_0M@FDHI@showpackets?$AA@ 0047e8bc     net_chan.obj
 0003:000098c8       ??_C@_0CA@FAJD@send?5?$CF4i?5?3?5s?$DN?$CFi?5ack?$DN?$CFi?5rack?$DN?$CFi?6?$AA@ 0047e8c8     net_chan.obj
 0003:000098e8       ??_C@_0CM@NEJP@send?5?$CF4i?5?3?5s?$DN?$CFi?5reliable?$DN?$CFi?5ack?$DN@ 0047e8e8     net_chan.obj
 0003:00009914       ??_C@_0CF@LMMD@Netchan_Transmit?3?5dumped?5unrelia@ 0047e914     net_chan.obj
 0003:0000993c       ??_C@_0BP@DHDF@?$CFs?3?5outgoing?5message?5overflow?6?$AA@ 0047e93c     net_chan.obj
 0003:0000995c       ??_C@_0BN@HPPO@?$CFs?3Dropped?5?$CFi?5packets?5at?5?$CFi?6?$AA@ 0047e95c     net_chan.obj
 0003:0000997c       ??_C@_0CB@MPHL@?$CFs?3Out?5of?5order?5packet?5?$CFi?5at?5?$CFi?6@ 0047e97c     net_chan.obj
 0003:000099a0       ??_C@_0CA@OEMD@recv?5?$CF4i?5?3?5s?$DN?$CFi?5ack?$DN?$CFi?5rack?$DN?$CFi?6?$AA@ 0047e9a0     net_chan.obj
 0003:000099c0       ??_C@_0CM@HAFP@recv?5?$CF4i?5?3?5s?$DN?$CFi?5reliable?$DN?$CFi?5ack?$DN@ 0047e9c0     net_chan.obj
 0003:00009a24       ??_C@_0BJ@GBLJ@Bad?5InitialSnapPosition?6?$AA@ 0047ea24     pmove.obj
 0003:00009a40       ??_C@_0CF@BJNI@Can?8t?5use?5keys?5or?5values?5with?5a?5@ 0047ea40     q_shared2.obj
 0003:00009a68       ??_C@_0CF@IDAP@Can?8t?5use?5keys?5or?5values?5with?5a?5@ 0047ea68     q_shared2.obj
 0003:00009a90       ??_C@_0CJ@KFGO@Keys?5and?5values?5must?5be?5?$DM?564?5cha@ 0047ea90     q_shared2.obj
 0003:00009abc       ??_C@_0BN@DPCF@Info?5string?5length?5exceeded?6?$AA@ 0047eabc     q_shared2.obj
 0003:00009adc       ??_C@_06GNBE@?2?$CFs?2?$CFs?$AA@ 0047eadc     q_shared2.obj
 0003:00009ae4       ??_C@_0CL@GPCB@Can?8t?5use?5keys?5or?5values?5with?5a?5@ 0047eae4     q_shared2.obj
 0003:00009b10       ??_C@_05HIII@1?42?41?$AA@  0047eb10     zip.obj
 0003:00009b18       ??_C@_0BA@DPNM@cd_looptrack?$DN11?$AA@ 0047eb18     cd_win.obj
 0003:00009b28       ??_C@_0P@NIFL@cd_loopcount?$DN4?$AA@ 0047eb28     cd_win.obj
 0003:00009b38       ??_C@_09IBKF@cd_nocd?$DN0?$AA@ 0047eb38     cd_win.obj
 0003:00009b44       ??_C@_0BP@IAAN@CDAudio?3?5MCI_PLAY?5failed?5?$CI?$CFi?$CJ?6?$AA@ 0047eb44     cd_win.obj
 0003:00009b64       ??_C@_0CA@JLLD@CDAudio?3?5track?5?$CFi?5is?5not?5audio?6?$AA@ 0047eb64     cd_win.obj
 0003:00009b84       ??_C@_0BI@DDPM@MCI_STATUS?5failed?5?$CI?$CFi?$CJ?6?$AA@ 0047eb84     cd_win.obj
 0003:00009b9c       ??_C@_0BK@FODH@CDAudio?3?5no?5music?5tracks?6?$AA@ 0047eb9c     cd_win.obj
 0003:00009bb8       ??_C@_0CF@NJAE@CDAudio?3?5get?5tracks?5?9?5status?5fai@ 0047ebb8     cd_win.obj
 0003:00009be0       ??_C@_0BK@EBGL@CDAudio?3?5drive?5not?5ready?6?$AA@ 0047ebe0     cd_win.obj
 0003:00009bfc       ??_C@_0CP@CDKN@CDAudio?3?5drive?5ready?5test?5?9?5get?5@ 0047ebfc     cd_win.obj
 0003:00009c2c       ??_C@_0BF@GBBG@MCI_STOP?5failed?5?$CI?$CFi?$CJ?$AA@ 0047ec2c     cd_win.obj
 0003:00009c44       ??_C@_0BG@OOII@MCI_PAUSE?5failed?5?$CI?$CFi?$CJ?$AA@ 0047ec44     cd_win.obj
 0003:00009c5c       ??_C@_0BE@KLKE@MCI_NOTIFY_FAILURE?6?$AA@ 0047ec5c     cd_win.obj
 0003:00009c70       ??_C@_0CD@KMGL@Unexpected?5MM_MCINOTIFY?5type?5?$CI?$CFi@ 0047ec70     cd_win.obj
 0003:00009c94       ??_C@_0BG@ONJF@CD?5Audio?5Initialized?6?$AA@ 0047ec94     cd_win.obj
 0003:00009cac       ??_C@_02BJHE@cd?$AA@       0047ecac     cd_win.obj
 0003:00009cb0       ??_C@_0CB@HHAK@MCI_SET_TIME_FORMAT?5failed?5?$CI?$CFi?$CJ?6@ 0047ecb0     cd_win.obj
 0003:00009cd4       ??_C@_0CE@KOHC@CDAudio_Init?3?5MCI_OPEN?5failed?5?$CI?$CF@ 0047ecd4     cd_win.obj
 0003:00009cf8       ??_C@_07JNJJ@cdaudio?$AA@  0047ecf8     cd_win.obj
 0003:00009d00       ??_C@_0BE@IFNH@Paused?5?$CFs?5track?5?$CFu?6?$AA@ 0047ed00     cd_win.obj
 0003:00009d14       ??_C@_0BH@DJIN@Currently?5?$CFs?5track?5?$CFu?6?$AA@ 0047ed14     cd_win.obj
 0003:00009d2c       ??_C@_07KKLA@playing?$AA@  0047ed2c     cd_win.obj
 0003:00009d34       ??_C@_07PNMG@looping?$AA@  0047ed34     cd_win.obj
 0003:00009d3c       ??_C@_0L@ECAH@?$CFu?5tracks?6?$AA@ 0047ed3c     cd_win.obj
 0003:00009d48       ??_C@_05NOIK@eject?$AA@    0047ed48     cd_win.obj
 0003:00009d50       ??_C@_06MJAA@resume?$AA@   0047ed50     cd_win.obj
 0003:00009d58       ??_C@_04FNBC@loop?$AA@     0047ed58     cd_win.obj
 0003:00009d60       ??_C@_0BC@KKKC@No?5CD?5in?5player?4?6?$AA@ 0047ed60     cd_win.obj
 0003:00009d74       ??_C@_05JMGP@close?$AA@    0047ed74     cd_win.obj
 0003:00009d7c       ??_C@_0M@KKFO@?5?5?$CFu?5?9?$DO?5?$CFu?6?$AA@ 0047ed7c     cd_win.obj
 0003:00009d88       ??_C@_05HLLH@remap?$AA@    0047ed88     cd_win.obj
 0003:00009d90       ??_C@_03OJPB@off?$AA@      0047ed90     cd_win.obj
 0003:00009d94       ??_C@_02PHBM@on?$AA@       0047ed94     cd_win.obj
 0003:00009d98       ??_C@_0BP@KBID@MCI_SET_DOOR_OPEN?5failed?5?$CI?$CFi?$CJ?6?$AA@ 0047ed98     cd_win.obj
 0003:00009db8       ??_C@_0CB@HHPB@MCI_SET_DOOR_CLOSED?5failed?5?$CI?$CFi?$CJ?6@ 0047edb8     cd_win.obj
 0003:00009ddc       ??_C@_0CE@HFAL@CDAudio_Shutdown?3?5MCI_CLOSE?5fail@ 0047eddc     cd_win.obj
 0003:00009e00       ??_C@_0BG@NJNI@joy_yawsensitivity?$DN?91?$AA@ 0047ee00     in_win.obj
 0003:00009e18       ??_C@_0BH@KDGP@joy_pitchsensitivity?$DN1?$AA@ 0047ee18     in_win.obj
 0003:00009e30       ??_C@_0BF@GCOE@joy_upsensitivity?$DN?91?$AA@ 0047ee30     in_win.obj
 0003:00009e48       ??_C@_0BH@ODGN@joy_sidesensitivity?$DN?91?$AA@ 0047ee48     in_win.obj
 0003:00009e60       ??_C@_0BK@CILO@joy_forwardsensitivity?$DN?91?$AA@ 0047ee60     in_win.obj
 0003:00009e7c       ??_C@_0BG@EBFM@joy_yawthreshold?$DN0?415?$AA@ 0047ee7c     in_win.obj
 0003:00009e94       ??_C@_0BI@OBHH@joy_pitchthreshold?$DN0?415?$AA@ 0047ee94     in_win.obj
 0003:00009eac       ??_C@_0BF@PKGA@joy_upthreshold?$DN0?415?$AA@ 0047eeac     in_win.obj
 0003:00009ec4       ??_C@_0BH@HLOJ@joy_sidethreshold?$DN0?415?$AA@ 0047eec4     in_win.obj
 0003:00009edc       ??_C@_0BK@LADK@joy_forwardthreshold?$DN0?415?$AA@ 0047eedc     in_win.obj
 0003:00009ef8       ??_C@_0P@CHK@joy_advaxisv?$DN0?$AA@ 0047eef8     in_win.obj
 0003:00009f08       ??_C@_0P@PEEB@joy_advaxisu?$DN0?$AA@ 0047ef08     in_win.obj
 0003:00009f18       ??_C@_0P@EKCA@joy_advaxisr?$DN0?$AA@ 0047ef18     in_win.obj
 0003:00009f28       ??_C@_0P@NKJF@joy_advaxisz?$DN0?$AA@ 0047ef28     in_win.obj
 0003:00009f38       ??_C@_0P@CMKO@joy_advaxisy?$DN0?$AA@ 0047ef38     in_win.obj
 0003:00009f48       ??_C@_0P@HOLI@joy_advaxisx?$DN0?$AA@ 0047ef48     in_win.obj
 0003:00009f58       ??_C@_0P@GLFC@joy_advanced?$DN0?$AA@ 0047ef58     in_win.obj
 0003:00009f68       ??_C@_0BC@CIDK@joy_name?$DNjoystick?$AA@ 0047ef68     in_win.obj
 0003:00009f7c       ??_C@_0O@NEEG@in_joystick?$DN0?$AA@ 0047ef7c     in_win.obj
 0003:00009f8c       ??_C@_0L@FNPC@in_mouse?$DN2?$AA@ 0047ef8c     in_win.obj
 0003:00009f98       ??_C@_0L@KHCO@m_filter?$DN0?$AA@ 0047ef98     in_win.obj
 0003:00009fc0       ??_C@_0BD@ILGG@joy_advancedupdate?$AA@ 0047efc0     in_win.obj
 0003:00009fd4       ??_C@_06KJCC@?9mlook?$AA@  0047efd4     in_win.obj
 0003:00009fdc       ??_C@_06NEOC@?$CLmlook?$AA@ 0047efdc     in_win.obj
 0003:00009fe4       ??_C@_0BD@HBGN@Joystick?5detected?6?$AA@ 0047efe4     in_win.obj
 0003:00009ff8       ??_C@_0CI@GKIJ@Invalid?5joystick?5capabilities?5?$CIe@ 0047eff8     in_win.obj
 0003:0000a020       ??_C@_0BN@JHAO@No?5valid?5joysticks?5?$CIerr?$DN?$CFX?$CJ?6?$AA@ 0047f020     in_win.obj
 0003:0000a040       ??_C@_0BO@JBOO@No?5connected?5joysticks?5found?6?$AA@ 0047f040     in_win.obj
 0003:0000a060       ??_C@_0BB@KOMD@?6?$CFs?5configured?6?6?$AA@ 0047f060     in_win.obj
 0003:0000a074       ??_C@_08GHPG@joystick?$AA@ 0047f074     in_win.obj
 0003:0000a080       ??_C@_0BM@EBOM@Shutdown?5DirectInput?5mouse?6?$AA@ 0047f080     in_win.obj
 0003:0000a09c       ??_C@_0BG@HCNK@Shutdown?5Win32?5mouse?6?$AA@ 0047f09c     in_win.obj
 0003:0000a0b4       ??_C@_0BO@DHIK@error?5on?5DI?5mouse?5GetState?$CI?$CJ?6?$AA@ 0047f0b4     in_win.obj
 0003:0000a0d4       ??_C@_0BF@JOKN@Changing?5mouse?5type?6?$AA@ 0047f0d4     in_win.obj
 0003:0000a0ec       ??_C@_0BK@BBAH@?4?4?4?5cannot?5acquire?5mouse?6?$AA@ 0047f0ec     in_win.obj
 0003:0000a108       ??_C@_0CC@DIBO@?4?4?4?5cannot?5set?5cooperative?5level@ 0047f108     in_win.obj
 0003:0000a12c       ??_C@_0CF@GOEL@?4?4?4?5cannot?5create?5DirectInput?5mo@ 0047f12c     in_win.obj
 0003:0000a154       ??_C@_0CG@JDI@?4?4?4?5cannot?5create?5DirectInput?5ob@ 0047f154     in_win.obj
 0003:0000a17c       ??_C@_0CC@OFG@?4?4?4?5couldn?8t?5get?5DI?5proc?5address@ 0047f17c     in_win.obj
 0003:0000a1a0       ??_C@_0BD@NJCB@DirectInputCreateA?$AA@ 0047f1a0     in_win.obj
 0003:0000a1b4       ??_C@_0BP@OKC@?4?4?4?5loading?5dinput?4dll?5failed?6?$AA@ 0047f1b4     in_win.obj
 0003:0000a1d4       ??_C@_0L@NOHA@dinput?4dll?$AA@ 0047f1d4     in_win.obj
 0003:0000a1e0       ??_C@_0BK@HAJB@Initializing?5DirectInput?6?$AA@ 0047f1e0     in_win.obj
 0003:0000a1fc       ??_C@_0CC@PKCJ@Initializing?5Win32?5mouse?5support@ 0047f1fc     in_win.obj
 0003:0000a220       ??_C@_0O@OJFB@net_shownet?$DN0?$AA@ 0047f220     net_wins.obj
 0003:0000a230       ??_C@_07LBOI@noipx?$DN0?$AA@ 0047f230     net_wins.obj
 0003:0000a238       ??_C@_07GCNO@noudp?$DN0?$AA@ 0047f238     net_wins.obj
 0003:0000a440       ??_C@_07PCIB@NO_DATA?$AA@  0047f440     net_wins.obj
 0003:0000a448       ??_C@_0M@IKOO@NO_RECOVERY?$AA@ 0047f448     net_wins.obj
 0003:0000a454       ??_C@_09BAHP@TRY_AGAIN?$AA@ 0047f454     net_wins.obj
 0003:0000a460       ??_C@_0P@LEPK@HOST_NOT_FOUND?$AA@ 0047f460     net_wins.obj
 0003:0000a470       ??_C@_08BKPG@EREFUSED?$AA@ 0047f470     net_wins.obj
 0003:0000a47c       ??_C@_0N@PFKN@_E_CANCELLED?$AA@ 0047f47c     net_wins.obj
 0003:0000a48c       ??_C@_0L@OIFL@_E_NO_MORE?$AA@ 0047f48c     net_wins.obj
 0003:0000a498       ??_C@_0P@DHNM@TYPE_NOT_FOUND?$AA@ 0047f498     net_wins.obj
 0003:0000a4a8       ??_C@_0BC@IOAI@SERVICE_NOT_FOUND?$AA@ 0047f4a8     net_wins.obj
 0003:0000a4bc       ??_C@_0P@HOHJ@SYSCALLFAILURE?$AA@ 0047f4bc     net_wins.obj
 0003:0000a4cc       ??_C@_0BE@IFIG@EPROVIDERFAILEDINIT?$AA@ 0047f4cc     net_wins.obj
 0003:0000a4e0       ??_C@_0BB@FDNH@EINVALIDPROVIDER?$AA@ 0047f4e0     net_wins.obj
 0003:0000a4f4       ??_C@_0BC@LBMM@EINVALIDPROCTABLE?$AA@ 0047f4f4     net_wins.obj
 0003:0000a508       ??_C@_0L@EBJF@ECANCELLED?$AA@ 0047f508     net_wins.obj
 0003:0000a514       ??_C@_07MMME@ENOMORE?$AA@  0047f514     net_wins.obj
 0003:0000a51c       ??_C@_0P@JAON@NOTINITIALISED?$AA@ 0047f51c     net_wins.obj
 0003:0000a52c       ??_C@_0BA@LGGB@VERNOTSUPPORTED?$AA@ 0047f52c     net_wins.obj
 0003:0000a53c       ??_C@_0M@MFMD@SYSNOTREADY?$AA@ 0047f53c     net_wins.obj
 0003:0000a548       ??_C@_07FLNI@EREMOTE?$AA@  0047f548     net_wins.obj
 0003:0000a550       ??_C@_06ODEH@ESTALE?$AA@   0047f550     net_wins.obj
 0003:0000a558       ??_C@_06GANK@EDQUOT?$AA@   0047f558     net_wins.obj
 0003:0000a560       ??_C@_06GPHM@EUSERS?$AA@   0047f560     net_wins.obj
 0003:0000a568       ??_C@_08MABC@EPROCLIM?$AA@ 0047f568     net_wins.obj
 0003:0000a574       ??_C@_09PEOB@ENOTEMPTY?$AA@ 0047f574     net_wins.obj
 0003:0000a580       ??_C@_0N@FHHG@EHOSTUNREACH?$AA@ 0047f580     net_wins.obj
 0003:0000a590       ??_C@_09MJAA@EHOSTDOWN?$AA@ 0047f590     net_wins.obj
 0003:0000a59c       ??_C@_0N@BEIO@ENAMETOOLONG?$AA@ 0047f59c     net_wins.obj
 0003:0000a5ac       ??_C@_05BLND@ELOOP?$AA@    0047f5ac     net_wins.obj
 0003:0000a5b4       ??_C@_0N@JDEH@ECONNREFUSED?$AA@ 0047f5b4     net_wins.obj
 0003:0000a5c4       ??_C@_09GAFK@ETIMEDOUT?$AA@ 0047f5c4     net_wins.obj
 0003:0000a5d0       ??_C@_0N@KOGG@ETOOMANYREFS?$AA@ 0047f5d0     net_wins.obj
 0003:0000a5e0       ??_C@_09GGMG@ESHUTDOWN?$AA@ 0047f5e0     net_wins.obj
 0003:0000a5ec       ??_C@_08FHM@ENOTCONN?$AA@  0047f5ec     net_wins.obj
 0003:0000a5f8       ??_C@_07HMGE@EISCONN?$AA@  0047f5f8     net_wins.obj
 0003:0000a600       ??_C@_07GPBJ@ENOBUFS?$AA@  0047f600     net_wins.obj
 0003:0000a608       ??_C@_0L@BFIE@ECONNRESET?$AA@ 0047f608     net_wins.obj
 0003:0000a614       ??_C@_0N@EBD@ECONNABORTED?$AA@ 0047f614     net_wins.obj
 0003:0000a624       ??_C@_09ELBD@ENETRESET?$AA@ 0047f624     net_wins.obj
 0003:0000a630       ??_C@_0M@MFKL@ENETUNREACH?$AA@ 0047f630     net_wins.obj
 0003:0000a63c       ??_C@_08LANE@ENETDOWN?$AA@ 0047f63c     net_wins.obj
 0003:0000a648       ??_C@_0O@NIMO@EADDRNOTAVAIL?$AA@ 0047f648     net_wins.obj
 0003:0000a658       ??_C@_0L@NEKG@EADDRINUSE?$AA@ 0047f658     net_wins.obj
 0003:0000a664       ??_C@_0N@KCKI@EAFNOSUPPORT?$AA@ 0047f664     net_wins.obj
 0003:0000a674       ??_C@_0N@OANL@EPFNOSUPPORT?$AA@ 0047f674     net_wins.obj
 0003:0000a684       ??_C@_0L@IKIB@EOPNOTSUPP?$AA@ 0047f684     net_wins.obj
 0003:0000a690       ??_C@_0BA@FLIJ@ESOCKTNOSUPPORT?$AA@ 0047f690     net_wins.obj
 0003:0000a6a0       ??_C@_0BA@JBLC@EPROTONOSUPPORT?$AA@ 0047f6a0     net_wins.obj
 0003:0000a6b0       ??_C@_0M@PFGD@ENOPROTOOPT?$AA@ 0047f6b0     net_wins.obj
 0003:0000a6bc       ??_C@_0L@GMGL@EPROTOTYPE?$AA@ 0047f6bc     net_wins.obj
 0003:0000a6c8       ??_C@_08BHCP@EMSGSIZE?$AA@ 0047f6c8     net_wins.obj
 0003:0000a6d4       ??_C@_0N@IHAI@EDESTADDRREQ?$AA@ 0047f6d4     net_wins.obj
 0003:0000a6e4       ??_C@_08KJMC@ENOTSOCK?$AA@ 0047f6e4     net_wins.obj
 0003:0000a6f0       ??_C@_08BLM@EALREADY?$AA@  0047f6f0     net_wins.obj
 0003:0000a6fc       ??_C@_0M@OPHH@EINPROGRESS?$AA@ 0047f6fc     net_wins.obj
 0003:0000a708       ??_C@_0M@KNGP@EWOULDBLOCK?$AA@ 0047f708     net_wins.obj
 0003:0000a714       ??_C@_06KPNH@EMFILE?$AA@   0047f714     net_wins.obj
 0003:0000a71c       ??_C@_06NBH@EINVAL?$AA@    0047f71c     net_wins.obj
 0003:0000a724       ??_C@_06EOEO@EFAULT?$AA@   0047f724     net_wins.obj
 0003:0000a72c       ??_C@_07MKBE@EDISCON?$AA@  0047f72c     net_wins.obj
 0003:0000a734       ??_C@_06FPBG@EACCES?$AA@   0047f734     net_wins.obj
 0003:0000a73c       ??_C@_05EKME@EBADF?$AA@    0047f73c     net_wins.obj
 0003:0000a744       ??_C@_05EIPD@EINTR?$AA@    0047f744     net_wins.obj
 0003:0000a74c       ??_C@_0CN@LMOE@?$CF02x?$CF02x?$CF02x?$CF02x?3?$CF02x?$CF02x?$CF02x?$CF02@ 0047f74c     net_wins.obj
 0003:0000a77c       ??_C@_0P@EOMI@?$CFd?4?$CFd?4?$CFd?4?$CFd?3?$CFd?$AA@ 0047f77c     net_wins.obj
 0003:0000a78c       ??_C@_08KME@loopback?$AA@  0047f78c     net_wins.obj
 0003:0000a798       ??_C@_02MHMJ@?$CFu?$AA@    0047f798     net_wins.obj
 0003:0000a79c       ??_C@_02JDLK@?$CFx?$AA@    0047f79c     net_wins.obj
 0003:0000a7a0       ??_C@_0BH@LDLC@NET_GetPacket?$CI?$CFs?$CJ?3?5?$CFs?6?$AA@ 0047f7a0     net_wins.obj
 0003:0000a7b8       ??_C@_0BJ@DNJE@Oversize?5packet?5from?5?$CFs?6?$AA@ 0047f7b8     net_wins.obj
 0003:0000a7d4       ??_C@_05OKKO@WSA?$CFs?$AA@ 0047f7d4     net_wins.obj
 0003:0000a7dc       ??_C@_0L@EAM@WSA_ERR_?$CFd?$AA@ 0047f7dc     net_wins.obj
 0003:0000a7e8       ??_C@_0BL@JFAD@NET_SendPacket?$CI?$CFs?0?$CFd?$CJ?3?5?$CFs?6?$AA@ 0047f7e8     net_wins.obj
 0003:0000a804       ??_C@_0CE@PAEP@NET_SendPacket?3?5bad?5address?5type@ 0047f804     net_wins.obj
 0003:0000a828       ??_C@_0BK@FCJP@UDP_OpenSocket?3?5bind?3?5?$CFs?6?$AA@ 0047f828     net_wins.obj
 0003:0000a844       ??_C@_0CN@BFOC@UDP_OpenSocket?3?5setsockopt?5SO_BR@ 0047f844     net_wins.obj
 0003:0000a874       ??_C@_0CD@GOMM@UDP_OpenSocket?3?5ioctl?5FIONBIO?3?5?$CF@ 0047f874     net_wins.obj
 0003:0000a898       ??_C@_0BL@DOBB@UDP_OpenSocket?3?5socket?3?5?$CFs?$AA@ 0047f898     net_wins.obj
 0003:0000a8b4       ??_C@_0CG@HIGE@OpenIP?3?5Unable?5to?5allocate?5IP?5so@ 0047f8b4     net_wins.obj
 0003:0000a8dc       ??_C@_04IOEK@port?$AA@     0047f8dc     net_wins.obj
 0003:0000a8e4       ??_C@_0DC@JLDM@OpenIPX?3?5unable?5to?5allocate?5sock@ 0047f8e4     net_wins.obj
 0003:0000a918       ??_C@_0BG@OALH@IPX_Socket?3?5bind?3?5?$CFs?6?$AA@ 0047f918     net_wins.obj
 0003:0000a930       ??_C@_0CJ@MPHA@IPX_Socket?3?5setsockopt?5SO_BROADC@ 0047f930     net_wins.obj
 0003:0000a95c       ??_C@_0BP@PPBG@IPX_Socket?3?5ioctl?5FIONBIO?3?5?$CFs?6?$AA@ 0047f95c     net_wins.obj
 0003:0000a97c       ??_C@_0BI@ENEN@IPX_Socket?3?5socket?3?5?$CFs?6?$AA@ 0047f97c     net_wins.obj
 0003:0000a994       ??_C@_0BF@PC@Winsock?5Initialized?6?$AA@ 0047f994     net_wins.obj
 0003:0000a9ac       ??_C@_0BP@CEKH@Winsock?5initialization?5failed?4?$AA@ 0047f9ac     net_wins.obj
 0003:0000a9cc       ??_C@_0M@PDJP@net_restart?$AA@ 0047f9cc     net_wins.obj
 0003:0000a9d8       ??_C@_0BF@FMH@Network?5not?5started?6?$AA@ 0047f9d8     net_wins.obj
 0003:0000a9f0       ??_C@_0BM@HKED@VirtualAlloc?5reserve?5failed?$AA@ 0047f9f0     q_shwin.obj
 0003:0000aa0c       ??_C@_0BE@LBDL@Hunk_Alloc?5overflow?$AA@ 0047fa0c     q_shwin.obj
 0003:0000aa20       ??_C@_0BM@OBIG@VirtualAlloc?5commit?5failed?4?$AA@ 0047fa20     q_shwin.obj
 0003:0000aa40       ??_C@_0BM@GEGJ@?$CK?$CK?$CK?5dsound?5init?5failed?5?$CK?$CK?$CK?6?$AA@ 0047fa40     snd_win.obj
 0003:0000aa5c       ??_C@_0BH@DHHL@dsound?5init?5succeeded?6?$AA@ 0047fa5c     snd_win.obj
 0003:0000aa74       ??_C@_0CB@OELN@failed?0?5hardware?5already?5in?5use?6@ 0047fa74     snd_win.obj
 0003:0000aa98       ??_C@_0BL@PJEE@?4?4?4completed?5successfully?6?$AA@ 0047fa98     snd_win.obj
 0003:0000aab4       ??_C@_0N@HOHD@retrying?4?4?4?6?$AA@ 0047fab4     snd_win.obj
 0003:0000aac4       ??_C@_0BI@FMOF@?4?4?4creating?5DS?5object?3?5?$AA@ 0047fac4     snd_win.obj
 0003:0000aadc       ??_C@_0CD@EFCI@?$CK?$CK?$CK?5couldn?8t?5get?5DS?5proc?5addr?5?$CK?$CK@ 0047fadc     snd_win.obj
 0003:0000ab00       ??_C@_0BC@OJFH@DirectSoundCreate?$AA@ 0047fb00     snd_win.obj
 0003:0000ab14       ??_C@_07MNBK@failed?6?$AA@ 0047fb14     snd_win.obj
 0003:0000ab1c       ??_C@_0L@PLHI@dsound?4dll?$AA@ 0047fb1c     snd_win.obj
 0003:0000ab28       ??_C@_0BI@JDCH@?4?4?4loading?5dsound?4dll?3?5?$AA@ 0047fb28     snd_win.obj
 0003:0000ab40       ??_C@_03BJGB@ok?6?$AA@     0047fb40     snd_win.obj
 0003:0000ab44       ??_C@_0BK@JBKA@Initializing?5DirectSound?6?$AA@ 0047fb44     snd_win.obj
 0003:0000ab60       ??_C@_0DE@DCGK@?5?5?5?$CFd?5channel?$CIs?$CJ?6?5?5?5?$CFd?5bits?1samp@ 0047fb60     snd_win.obj
 0003:0000ab94       ??_C@_0CB@CFEN@?4?4?4using?5secondary?5sound?5buffer?6@ 0047fb94     snd_win.obj
 0003:0000abb8       ??_C@_0BP@EBHA@?4?4?4creating?5secondary?5buffer?3?5?$AA@ 0047fbb8     snd_win.obj
 0003:0000abd8       ??_C@_0BI@EOFF@?$CK?$CK?$CK?5GetCaps?5failed?5?$CK?$CK?$CK?6?$AA@ 0047fbd8     snd_win.obj
 0003:0000abf0       ??_C@_0CF@KFBO@?4?4?4setting?5WRITEPRIMARY?5coop?5lev@ 0047fbf0     snd_win.obj
 0003:0000ac18       ??_C@_0BJ@KLHA@?4?4?4using?5primary?5buffer?6?$AA@ 0047fc18     snd_win.obj
 0003:0000ac34       ??_C@_0CF@OENB@?4?4?4setting?5primary?5sound?5format?3@ 0047fc34     snd_win.obj
 0003:0000ac5c       ??_C@_0CJ@HPFH@?4?4?4setting?5primary?5sound?5format?3@ 0047fc5c     snd_win.obj
 0003:0000ac88       ??_C@_0BN@IKOP@?4?4?4creating?5primary?5buffer?3?5?$AA@ 0047fc88     snd_win.obj
 0003:0000aca8       ??_C@_0CB@BHNP@?4?4?4setting?5PRIORITY?5coop?5level?3?5@ 0047fca8     snd_win.obj
 0003:0000accc       ??_C@_0BF@MHHH@Creating?5DS?5buffers?6?$AA@ 0047fccc     snd_win.obj
 0003:0000ace4       ??_C@_0BH@MNDJ@?4?4?4freeing?5DSOUND?4DLL?6?$AA@ 0047fce4     snd_win.obj
 0003:0000acfc       ??_C@_0BI@MGAJ@?4?4?4releasing?5DS?5object?6?$AA@ 0047fcfc     snd_win.obj
 0003:0000ad14       ??_C@_0BM@MLMO@Shutting?5down?5sound?5system?6?$AA@ 0047fd14     snd_win.obj
 0003:0000ad30       ??_C@_0BN@OBDC@?4?4?4releasing?5primary?5buffer?6?$AA@ 0047fd30     snd_win.obj
 0003:0000ad50       ??_C@_0CI@NPAP@?4?4?4stopping?5and?5releasing?5sound?5@ 0047fd50     snd_win.obj
 0003:0000ad78       ??_C@_0BO@FPOK@?4?4?4setting?5NORMAL?5coop?5level?6?$AA@ 0047fd78     snd_win.obj
 0003:0000ad98       ??_C@_0BH@IDCM@Destroying?5DS?5buffers?6?$AA@ 0047fd98     snd_win.obj
 0003:0000adb0       ??_C@_0DB@MAFM@S_TransferStereo16?3?5Lock?5failed?5@ 0047fdb0     snd_win.obj
 0003:0000ade4       ??_C@_0CC@PILE@Couldn?8t?5get?5sound?5buffer?5status@ 0047fde4     snd_win.obj
 0003:0000ae08       ??_C@_0BD@JMDM@DSERR_INVALIDPARAM?$AA@ 0047fe08     snd_win.obj
 0003:0000ae1c       ??_C@_0BD@NIEA@DSERR_INVALIDCALLS?$AA@ 0047fe1c     snd_win.obj
 0003:0000ae30       ??_C@_0BG@MDBD@DSERR_PRIOLEVELNEEDED?$AA@ 0047fe30     snd_win.obj
 0003:0000ae48       ??_C@_0BB@MLJO@DSERR_BUFFERLOST?$AA@ 0047fe48     snd_win.obj
 0003:0000ae5c       ??_C@_07CAMD@unknown?$AA@  0047fe5c     snd_win.obj
 0003:0000aebc       ??_C@_03DEAG@EDI?$AA@      0047febc     sys_win.obj
 0003:0000aec0       ??_C@_03DPPK@ESI?$AA@      0047fec0     sys_win.obj
 0003:0000aec4       ??_C@_03DHOB@EDX?$AA@      0047fec4     sys_win.obj
 0003:0000aec8       ??_C@_03FGLE@ECX?$AA@      0047fec8     sys_win.obj
 0003:0000aecc       ??_C@_03EABO@EBX?$AA@      0047fecc     sys_win.obj
 0003:0000aed0       ??_C@_03HLOB@EAX?$AA@      0047fed0     sys_win.obj
 0003:0000aed4       ??_C@_03BEKG@EBP?$AA@      0047fed4     sys_win.obj
 0003:0000aed8       ??_C@_03GIKF@ESP?$AA@      0047fed8     sys_win.obj
 0003:0000aedc       ??_C@_03JKAN@EIP?$AA@      0047fedc     sys_win.obj
 0003:0000aee0       ??_C@_0P@GHLE@?$CFsinstall?1data?$AA@ 0047fee0     sys_win.obj
 0003:0000aef0       ??_C@_0BK@BEMN@?$CFsinstall?1data?1quake2?4exe?$AA@ 0047fef0     sys_win.obj
 0003:0000af0c       ??_C@_0BF@FMGH@Error?3?5?$CFs?6?6History?3?5?$AA@ 0047ff0c     sys_win.obj
 0003:0000af24       ??_C@_05MIHC@?$CFs?$CB?$CFs?$AA@ 0047ff24     sys_win.obj
 0003:0000af2c       ??_C@_03HAMA@?$CD?$CFd?$AA@ 0047ff2c     sys_win.obj
 0003:0000af30       ??_C@_05FAL@?$CFs?$CL?$CFX?$AA@ 0047ff30     sys_win.obj
 0003:0000af38       ??_C@_04CLEA@?$CF08X?$AA@  0047ff38     sys_win.obj
 0003:0000af40       ??_C@_0P@FHLD@?6Stack?5frame?3?6?$AA@ 0047ff40     sys_win.obj
 0003:0000af50       ??_C@_0BA@FDKH@?5?5EFLAGS?3?5?$CF08X?6?$AA@ 0047ff50     sys_win.obj
 0003:0000af60       ??_C@_02DIPJ@GS?$AA@       0047ff60     sys_win.obj
 0003:0000af64       ??_C@_02COFD@FS?$AA@       0047ff64     sys_win.obj
 0003:0000af68       ??_C@_02BFKM@ES?$AA@       0047ff68     sys_win.obj
 0003:0000af6c       ??_C@_02DAG@DS?$AA@        0047ff6c     sys_win.obj
 0003:0000af70       ??_C@_02IPK@SS?$AA@        0047ff70     sys_win.obj
 0003:0000af74       ??_C@_02GCFD@CS?$AA@       0047ff74     sys_win.obj
 0003:0000af78       ??_C@_0L@HIG@?6History?3?5?$AA@ 0047ff78     sys_win.obj
 0003:0000af84       ??_C@_0CA@OBNK@?9?9?9?9?9?5Quake2?5crash?5at?5?$CFs?5?9?9?9?9?9?6?$AA@ 0047ff84     sys_win.obj
 0003:0000afa4       ??_C@_0M@FNHO@?$CFs?5at?5?$CC?$CFs?$CC?6?$AA@ 0047ffa4     sys_win.obj
 0003:0000afb0       ??_C@_09KFPK@crash?4log?$AA@ 0047ffb0     sys_win.obj
 0003:0000afbc       ??_C@_0BB@LNPF@Access?5violation?$AA@ 0047ffbc     sys_win.obj
 0003:0000afd0       ??_C@_0P@JMBO@Illegal?5opcode?$AA@ 0047ffd0     sys_win.obj
 0003:0000afe0       ??_C@_0BC@ILAJ@Float?5zero?5divide?$AA@ 0047ffe0     sys_win.obj
 0003:0000aff4       ??_C@_0BE@GCEA@Integer?5zero?5divide?$AA@ 0047fff4     sys_win.obj
 0003:0000b008       ??_C@_0BH@HFFE@Priveleged?5instruction?$AA@ 00480008     sys_win.obj
 0003:0000b020       ??_C@_0P@BMBP@Stack?5overflow?$AA@ 00480020     sys_win.obj
 0003:0000b030       ??_C@_09EMAD@Exception?$AA@ 00480030     sys_win.obj
 0003:0000b03c       ??_C@_02IHLC@?5?5?$AA@     0048003c     sys_win.obj
 0003:0000b040       ??_C@_05LHOL@?5?$CF02X?$AA@ 00480040     sys_win.obj
 0003:0000b048       ??_C@_06BCOJ@?5?$DMN?1A?$DO?$AA@ 00480048     sys_win.obj
 0003:0000b050       ??_C@_0N@IODG@?5?5?$CFs?3?5?$CF08X?5?5?$AA@ 00480050     sys_win.obj
 0003:0000b060       ??_C@_0L@JJGB@?5?5?$CFs?3?5?$CF04X?$AA@ 00480060     sys_win.obj
 0003:0000b06c       ??_C@_08NLFG@?5?5?$DMN?1A?$DO?6?$AA@ 0048006c     sys_win.obj
 0003:0000b078       ??_C@_06LDKA@?$CFs?$CF08X?$AA@ 00480078     sys_win.obj
 0003:0000b080       ??_C@_06ONMO@?6?5?5?5?5?5?$AA@ 00480080     sys_win.obj
 0003:0000b088       ??_C@_0O@CNMB@?$CFs?$CFs?$CF08X?5?$DN?5?$CFs?$AA@ 00480088     sys_win.obj
 0003:0000b098       ??_C@_04HGCK@?$CFs?9?$DO?$AA@ 00480098     sys_win.obj
 0003:0000b0a0       ??_C@_05GLIP@?5?5?5?5?5?$AA@ 004800a0     sys_win.obj
 0003:0000b0a8       ??_C@_03HBPG@?$CFs?$CC?$AA@ 004800a8     sys_win.obj
 0003:0000b0ac       ??_C@_02HDBI@?2n?$AA@      004800ac     sys_win.obj
 0003:0000b0b0       ??_C@_04JBJI@?5?$DN?5?$CC?$AA@ 004800b0     sys_win.obj
 0003:0000b0b8       ??_C@_0O@KPHI@CPU?5name?3?5?$CFs?6?$AA@ 004800b8     sys_win.obj
 0003:0000b0c8       ??_C@_0BF@JFNP@Unknown?5386?1486?5CPU?6?$AA@ 004800c8     sys_win.obj
 0003:0000b0e0       ??_C@_02DIMO@?$FN?6?$AA@   004800e0     sys_win.obj
 0003:0000b0e4       ??_C@_07FJPN@3DNow?$CB?5?$AA@ 004800e4     sys_win.obj
 0003:0000b0ec       ??_C@_06JFCH@RDTSC?5?$AA@  004800ec     sys_win.obj
 0003:0000b0f4       ??_C@_05NKJE@SSE2?5?$AA@   004800f4     sys_win.obj
 0003:0000b0fc       ??_C@_04IIOM@SSE?5?$AA@    004800fc     sys_win.obj
 0003:0000b104       ??_C@_04OGOE@MMX?5?$AA@    00480104     sys_win.obj
 0003:0000b10c       ??_C@_04PBEF@FPU?5?$AA@    0048010c     sys_win.obj
 0003:0000b114       ??_C@_0N@BFKL@CPU?5caps?3?5?$FL?5?$AA@ 00480114     sys_win.obj
 0003:0000b124       ??_C@_0BD@ELIH@CPU?5speed?3?5?$CFg?5MHz?6?$AA@ 00480124     sys_win.obj
 0003:0000b138       ??_C@_03BBFP@?$AI?5?$AI?$AA@ 00480138     sys_win.obj
 0003:0000b13c       ??_C@_03BGIC@?$FN?$CFs?$AA@ 0048013c     sys_win.obj
 0003:0000b140       ??_C@_02PIMC@?$AN?6?$AA@   00480140     sys_win.obj
 0003:0000b144       ??_C@_01FIMD@?$FN?$AA@     00480144     sys_win.obj
 0003:0000b148       ??_C@_06HBIN@msg?$DN?$CFX?$AA@ 00480148     sys_win.obj
 0003:0000b150       ??_C@_0BH@BGHD@FreeLibrary?$CIgame?4dll?$CJ?6?$AA@ 00480150     sys_win.obj
 0003:0000b168       ??_C@_0BL@OIKG@Cannot?5unload?5game?5library?$AA@ 00480168     sys_win.obj
 0003:0000b184       ??_C@_0L@OIFE@GetGameAPI?$AA@ 00480184     sys_win.obj
 0003:0000b190       ??_C@_0CE@KA@Sys_GetGameAPI?$CI?$CFs?$CJ?3?5file?5not?5fou@ 00480190     sys_win.obj
 0003:0000b1b4       ??_C@_0CM@JHGH@Sys_GetGameAPI?$CI?$CFs?$CJ?3?5failed?5to?5lo@ 004801b4     sys_win.obj
 0003:0000b1e0       ??_C@_0BC@OKKB@LoadLibrary?5?$CI?$CFs?$CJ?6?$AA@ 004801e0     sys_win.obj
 0003:0000b1f4       ??_C@_0CK@HGID@Sys_GetGameAPI?$CI?$CJ?5without?5Sys_Unl@ 004801f4     sys_win.obj
 0003:0000b220       ??_C@_0M@KCKA@gamex86?4dll?$AA@ 00480220     sys_win.obj
 0003:0000b22c       ??_C@_0BE@FFGB@Quake2?3?5fatal?5error?$AA@ 0048022c     sys_win.obj
 0003:0000b240       ??_C@_0CI@DAGB@?$CK?$CK?$CK?$CK?$CK?5CRASH?5?$CK?$CK?$CK?$CK?$CK?6?$CFs?6?$CK?$CK?$CK?$CK?$CK?$CK?$CK?$CK?$CK?$CK?$CK@ 00480240     sys_win.obj
 0003:0000b268       ??_C@_04JDOB@?$CFs?6?6?$AA@ 00480268     sys_win.obj
 0003:0000b270       ??_C@_0CL@DJIE@?9?9?9?9?9?5Quake2?5software?5exception?5@ 00480270     sys_win.obj
 0003:0000b29c       ??_C@_0N@JLKB@History?3?5?$CFs?6?$AA@ 0048029c     sys_win.obj
 0003:0000b2ac       ??_C@_0P@BCFB@?$CFs?5?9cddir?$DN?$CC?$CFs?$CC?$AA@ 004802ac     sys_win.obj
 0003:0000b2bc       ??_C@_0BE@OALC@win_priorityBoost?$DN0?$AA@ 004802bc     vid_dll.obj
 0003:0000b2d0       ??_C@_0P@KNND@win_noalttab?$DN0?$AA@ 004802d0     vid_dll.obj
 0003:0000b2e0       ??_C@_0L@DCDC@vid_ypos?$DN0?$AA@ 004802e0     vid_dll.obj
 0003:0000b2ec       ??_C@_0L@KHJC@vid_xpos?$DN0?$AA@ 004802ec     vid_dll.obj
 0003:0000b538       ??_C@_0BH@EAPI@Couldn?8t?5create?5window?$AA@ 00480538     vid_dll.obj
 0003:0000b550       ??_C@_0BP@ODO@Couldn?8t?5register?5window?5class?$AA@ 00480550     vid_dll.obj
 0003:0000b570       ??_C@_06GPJN@Quake2?$AA@   00480570     vid_dll.obj
 0003:0000b578       ??_C@_0N@EEGM@r_fullscreen?$AA@ 00480578     vid_dll.obj
 0003:0000b588       ??_C@_0BA@CLBL@MSWHEEL_ROLLMSG?$AA@ 00480588     vid_dll.obj
 0003:0000b598       ??_C@_08LJOP@vid_ypos?$AA@ 00480598     vid_dll.obj
 0003:0000b5a4       ??_C@_08JMLN@vid_xpos?$AA@ 004805a4     vid_dll.obj
 0003:0000b5b0       ??_C@_0BJ@HGPI@Setting?5game?5resolution?6?$AA@ 004805b0     vid_dll.obj
 0003:0000b5cc       ??_C@_0BM@BCCJ@Setting?5desktop?5resolution?6?$AA@ 004805cc     vid_dll.obj
 0003:0000b5e8       ??_C@_0BG@OLGM@?4?4?4destroying?5window?6?$AA@ 004805e8     vid_dll.obj
 0003:0000b600       ??_C@_0BM@OEEC@Reflib?5FreeLibrary?$CI?$CJ?5failed?$AA@ 00480600     vid_dll.obj
 0003:0000b61c       ??_C@_0CH@DLII@Couldn?8t?5fall?5back?5to?5software?5r@ 0048061c     vid_dll.obj
 0003:0000b644       ??_C@_07LICL@vid_ref?$AA@  00480644     vid_dll.obj
 0003:0000b64c       ??_C@_04NBLP@soft?$AA@     0048064c     vid_dll.obj
 0003:0000b654       ??_C@_0BP@MBIM@GetProcAddress?$CI?$CJ?5failed?5on?5?$CFs?6?$AA@ 00480654     vid_dll.obj
 0003:0000b674       ??_C@_09MGLB@GetRefAPI?$AA@ 00480674     vid_dll.obj
 0003:0000b680       ??_C@_0BK@JHO@LoadLibrary?$CI?$CC?$CFs?$CC?$CJ?5failed?6?$AA@ 00480680     vid_dll.obj
 0003:0000b69c       ??_C@_0BO@FMNM@?$CFs?5has?5incompatible?5renderer?6?$AA@ 0048069c     vid_dll.obj
 0003:0000b6bc       ??_C@_02BHGG@gl?$AA@       004806bc     vid_dll.obj
 0003:0000b6c0       ??_C@_0M@CCHM@Loading?5?$CFs?6?$AA@ 004806c0     vid_dll.obj
 0003:0000b6cc       ??_C@_0L@GFMM@ref_?$CFs?4dll?$AA@ 004806cc     vid_dll.obj
 0003:0000b6d8       ??_C@_0CO@OMOF@Screenshots?5are?5unsupported?5by?5t@ 004806d8     vid_dll.obj
 0003:0000b708       ??_C@_0BF@PGBM@FX_GLIDE_NO_SPLASH?$DN0?$AA@ 00480708     vid_dll.obj
 0003:0000b720       ??_C@_09EDGJ@vid_front?$AA@ 00480720     vid_dll.obj
 0003:0000b72c       ??_C@_0M@GKIE@vid_restart?$AA@ 0048072c     vid_dll.obj
 0003:0000b7bc       ??_C@_0BA@FFMA@gl_overbright?$DN2?$AA@ 004807bc     vid_menu.obj
 0003:0000b7cc       ??_C@_0BB@BKBG@gl_vertexLight?$DN0?$AA@ 004807cc     vid_menu.obj
 0003:0000b7e0       ??_C@_0BB@HGAD@gl_textureBits?$DN0?$AA@ 004807e0     vid_menu.obj
 0003:0000b7f4       ??_C@_0O@KMDM@gl_bitdepth?$DN0?$AA@ 004807f4     vid_menu.obj
 0003:0000b804       ??_C@_0M@IAIL@gl_picmip?$DN0?$AA@ 00480804     vid_menu.obj
 0003:0000b810       ??_C@_09PIFN@trilinear?$AA@ 00480810     vid_menu.obj
 0003:0000b81c       ??_C@_08IMBI@bilinear?$AA@ 0048081c     vid_menu.obj
 0003:0000b828       ??_C@_06KAJD@vertex?$AA@   00480828     vid_menu.obj
 0003:0000b830       ??_C@_08DOMB@lightmap?$AA@ 00480830     vid_menu.obj
 0003:0000b83c       ??_C@_06PHEG@32?5bit?$AA@  0048083c     vid_menu.obj
 0003:0000b844       ??_C@_06FMJD@16?5bit?$AA@  00480844     vid_menu.obj
 0003:0000b84c       ??_C@_04JOEF@auto?$AA@     0048084c     vid_menu.obj
 0003:0000b854       ??_C@_0M@FBMK@?$FLOpenGL?5?5?5?$FN?$AA@ 00480854     vid_menu.obj
 0003:0000b860       ??_C@_0M@JCLB@?$FLSoftware?5?$FN?$AA@ 00480860     vid_menu.obj
 0003:0000b86c       ??_C@_0M@KGKK@?$FL2048?51536?$FN?$AA@ 0048086c     vid_menu.obj
 0003:0000b878       ??_C@_0M@JEDB@?$FL1600?51200?$FN?$AA@ 00480878     vid_menu.obj
 0003:0000b884       ??_C@_0M@CCKO@?$FL1280?5960?5?$FN?$AA@ 00480884     vid_menu.obj
 0003:0000b890       ??_C@_0M@PIMC@?$FL1152?5864?5?$FN?$AA@ 00480890     vid_menu.obj
 0003:0000b89c       ??_C@_0M@JMAB@?$FL1024?5768?5?$FN?$AA@ 0048089c     vid_menu.obj
 0003:0000b8a8       ??_C@_0M@KJAP@?$FL960?5?5720?5?$FN?$AA@ 004808a8     vid_menu.obj
 0003:0000b8b4       ??_C@_0M@EBPM@?$FL800?5?5600?5?$FN?$AA@ 004808b4     vid_menu.obj
 0003:0000b8c0       ??_C@_0M@HMJJ@?$FL640?5?5480?5?$FN?$AA@ 004808c0     vid_menu.obj
 0003:0000b8cc       ??_C@_0M@JPEK@?$FL512?5?5384?5?$FN?$AA@ 004808cc     vid_menu.obj
 0003:0000b8d8       ??_C@_0M@CAFH@?$FL400?5?5300?5?$FN?$AA@ 004808d8     vid_menu.obj
 0003:0000b8e4       ??_C@_0M@DOOF@?$FL320?5?5240?5?$FN?$AA@ 004808e4     vid_menu.obj
 0003:0000b8f0       ??_C@_0BB@IF@sync?5every?5frame?$AA@ 004808f0     vid_menu.obj
 0003:0000b904       ??_C@_09IEFK@gl_finish?$AA@ 00480904     vid_menu.obj
 0003:0000b910       ??_C@_0P@CPGH@texture?5filter?$AA@ 00480910     vid_menu.obj
 0003:0000b920       ??_C@_0P@NBDD@gl_texturemode?$AA@ 00480920     vid_menu.obj
 0003:0000b930       ??_C@_0BA@LBFK@texture?5quality?$AA@ 00480930     vid_menu.obj
 0003:0000b940       ??_C@_0P@CMEL@texture?5detail?$AA@ 00480940     vid_menu.obj
 0003:0000b950       ??_C@_08LLEH@fast?5sky?$AA@ 00480950     vid_menu.obj
 0003:0000b95c       ??_C@_0L@BOGB@gl_fastsky?$AA@ 0048095c     vid_menu.obj
 0003:0000b968       ??_C@_08FOAP@lighting?$AA@ 00480968     vid_menu.obj
 0003:0000b974       ??_C@_0BB@LMJI@gamma?5overbright?$AA@ 00480974     vid_menu.obj
 0003:0000b988       ??_C@_0M@NNNN@color?5depth?$AA@ 00480988     vid_menu.obj
 0003:0000b994       ??_C@_0O@NPLC@stipple?5alpha?$AA@ 00480994     vid_menu.obj
 0003:0000b9a4       ??_C@_0BA@HFJP@sw_stipplealpha?$AA@ 004809a4     vid_menu.obj
 0003:0000b9b4       ??_C@_0N@JGPF@undo?5changes?$AA@ 004809b4     vid_menu.obj
 0003:0000b9c4       ??_C@_06MPPK@cancel?$AA@   004809c4     vid_menu.obj
 0003:0000b9cc       ??_C@_0L@EMDO@fullscreen?$AA@ 004809cc     vid_menu.obj
 0003:0000b9d8       ??_C@_0L@BHGE@saturation?$AA@ 004809d8     vid_menu.obj
 0003:0000b9e4       ??_C@_08DBOJ@contrast?$AA@ 004809e4     vid_menu.obj
 0003:0000b9f0       ??_C@_0L@HCKI@brightness?$AA@ 004809f0     vid_menu.obj
 0003:0000b9fc       ??_C@_0L@NADB@video?5mode?$AA@ 004809fc     vid_menu.obj
 0003:0000ba08       ??_C@_0M@LAAH@screen?5size?$AA@ 00480a08     vid_menu.obj
 0003:0000ba14       ??_C@_06GIC@driver?$AA@    00480a14     vid_menu.obj
 0003:0000ba1c       ??_C@_07KMDJ@gl_mode?$AA@  00480a1c     vid_menu.obj
 0003:0000ba24       ??_C@_01ECJ@3?$AA@         00480a24     vid_menu.obj
 0003:0000ba28       ??_C@_07LGNG@sw_mode?$AA@  00480a28     vid_menu.obj
 0003:0000ba30       ??_C@_0N@LICP@scr_viewsize?$AA@ 00480a30     vid_menu.obj
 0003:0000ba40       ??_C@_07JEME@r_gamma?$AA@  00480a40     vid_menu.obj
 0003:0000ba48       ??_C@_0N@HKPK@r_brightness?$AA@ 00480a48     vid_menu.obj
 0003:0000ba58       ??_C@_0L@DBKC@r_contrast?$AA@ 00480a58     vid_menu.obj
 0003:0000ba64       ??_C@_0P@PNMC@m_banner_video?$AA@ 00480a64     vid_menu.obj
 0003:0000ba74       ??_C@_0P@LBKH@gl_vertexLight?$AA@ 00480a74     vid_menu.obj
 0003:0000ba84       ??_C@_0P@HLID@gl_textureBits?$AA@ 00480a84     vid_menu.obj
 0003:0000ba94       ??_C@_0O@BFPL@gl_overbright?$AA@ 00480a94     vid_menu.obj
 0003:0000baa4       ??_C@_0M@GPNJ@gl_bitdepth?$AA@ 00480aa4     vid_menu.obj
 0003:0000bab0       ??_C@_09HOCI@gl_picmip?$AA@ 00480ab0     vid_menu.obj
 0003:0000babc       ??_C@_0N@BPDG@r_saturation?$AA@ 00480abc     vid_menu.obj
 0003:0000bacc       ??_C@_0BB@OFFI@gl_showNormals?$DN0?$AA@ 00480acc     gl_backend.obj
 0003:0000bae0       ??_C@_0O@CPDL@gl_showTris?$DN0?$AA@ 00480ae0     gl_backend.obj
 0003:0000baf0       ??_C@_0BA@PMBA@gl_showbboxes?$DN0?$AA@ 00480af0     gl_backend.obj
 0003:0000bb00       ??_C@_0L@HNDI@gl_clear?$DN0?$AA@ 00480b00     gl_backend.obj
 0003:0000bbfc       ??_C@_0BJ@CEAG@?9?9?5pass?5?$CFd?5?$CImtex?5?$CFd?$CJ?5?9?9?6?$AA@ 00480bfc     gl_backend.obj
 0003:0000bc18       ??_C@_0CD@KFNF@?$CK?$CK?$CK?5StageIterator?$CI?$CFs?0?5?$CFd?0?5?$CFd?$CJ?5?$CK?$CK@ 00480c18     gl_backend.obj
 0003:0000bc3c       ??_C@_0DK@IPPM@shader?5?$CFs?5uses?5TEXTURE_RECTANGLE@ 00480c3c     gl_backend.obj
 0003:0000bc78       ??_C@_0CN@GHGP@R_PreprocessShader?3?5numStages?5to@ 00480c78     gl_backend.obj
 0003:0000bca8       ??_C@_0CB@BDNL@R_PreprocessShader?$CI?$CFs?$CJ?3?50?5stages@ 00480ca8     gl_backend.obj
 0003:0000bccc       ??_C@_0CH@CPPL@?$CK?$CK?$CK?$CK?$CK?$CK?$CK?$CK?5Change?5entity?5to?5?$CFs?5?$CK?$CK?$CK@ 00480ccc     gl_backend.obj
 0003:0000bcf4       ??_C@_0CK@PLKL@?$CK?$CK?$CK?$CK?$CK?$CK?$CK?$CK?5Change?5entity?5to?5WORLD?5@ 00480cf4     gl_backend.obj
 0003:0000bd20       ??_C@_0CH@EKMG@?$CK?$CK?$CK?$CK?$CK?$CK?$CK?$CK?5Change?5shader?5to?5?$CFs?5?$CK?$CK?$CK@ 00480d20     gl_backend.obj
 0003:0000bd48       ??_C@_0DE@NBLF@?$CK?$CK?$CK?$CK?$CK?$CK?$CK?$CK?5R_DrawScene?3?5?$CI?$CFd?0?5?$CFd?$CJ?5?9@ 00480d48     gl_backend.obj
 0003:0000bd7c       ??_C@_0EB@GNHN@SetCurrentShader?$CI?$CFs?$CJ?5without?5flu@ 00480d7c     gl_backend.obj
 0003:0000bdc0       ??_C@_0CC@CADN@SetCurrentShader?$CI?$CJ?5without?5flush@ 00480dc0     gl_backend.obj
 0003:0000bde4       ??_C@_0BG@IIHG@?$CK?$CK?$CK?5DrawSkyBox?$CI?$CJ?5?$CK?$CK?$CK?6?$AA@ 00480de4     gl_backend.obj
 0003:0000bdfc       ??_C@_0BP@FPB@ReserveVerts?3?5?$CFd?5?$DO?5MAX_INDEXES?$AA@ 00480dfc     gl_backend.obj
 0003:0000be1c       ??_C@_0CA@JIJH@ReserveVerts?3?5?$CFd?5?$DO?5MAX_VERTEXES?$AA@ 00480e1c     gl_backend.obj
 0003:0000be3c       ??_C@_0BL@DFB@Unknown?5ent?5surf?5flags?3?5?$CFX?$AA@ 00480e3c     gl_backend.obj
 0003:0000be58       ??_C@_0CC@FJBP@?$FO1?$CK?$CK?$CK?$CK?5buf?3?5?$CF08X?5?$CI?$CFd?5bytes?$CJ?5?$CK?$CK?$CK?$CK@ 00480e58     gl_backend.obj
 0003:0000be7c       ??_C@_0CB@ILMK@R_AllocDynamicMemory?$CI?$CFd?$CJ?5failed?6@ 00480e7c     gl_buffers.obj
 0003:0000bea0       ??_C@_0CD@GOLC@R_ResizeDynamicMemory?3?5bad?5point@ 00480ea0     gl_buffers.obj
 0003:0000bec4       ??_C@_0DB@JB@R_ResizeDynamicMemory?3?5out?5of?5me@ 00480ec4     gl_buffers.obj
 0003:0000bef8       ??_C@_0CA@CAHK@R_AddEntity?3?5no?5frame?5?$CFd?5in?5?$CFs?6?$AA@ 00480ef8     gl_frontend.obj
 0003:0000bf18       ??_C@_0CB@MOGN@R_AddEntity?3?5MAX_GLENTITIES?5hit?6@ 00480f18     gl_frontend.obj
 0003:0000bf3c       ??_C@_0CA@PEKO@R_AddDlight?3?5MAX_GLDLIGHTS?5hit?6?$AA@ 00480f3c     gl_frontend.obj
 0003:0000bf5c       ??_C@_0BF@EAAG@unknows?5surface?5type?$AA@ 00480f5c     gl_frontend.obj
 0003:0000bf74       ??_C@_0BD@LKLN@?$CK?5bad?5ent?5?$CFd?3?5f?$DN?$CFX?$AA@ 00480f74     gl_frontend.obj
 0003:0000bf88       ??_C@_0CH@GFLH@origin?3?5?$CFg?5?$CFg?5?$CFg?6bmodel?3?5?$CFs?6flag@ 00480f88     gl_frontend.obj
 0003:0000bfb0       ??_C@_0CN@EGHP@origin?3?5?$CFg?5?$CFg?5?$CFg?6md3?3?5?$CFs?6skin?3?5?$CF@ 00480fb0     gl_frontend.obj
 0003:0000bfe0       ??_C@_0M@JDAB@occluded?6?$CFs?$AA@ 00480fe0     gl_frontend.obj
 0003:0000bfec       ??_C@_0N@BHL@no?5model?3?5?$CFs?$AA@ 00480fec     gl_frontend.obj
 0003:0000bffc       ??_C@_0CA@IHNN@DrawEntities?3?5bad?5model?5type?5?$CFd?$AA@ 00480ffc     gl_frontend.obj
 0003:0000c01c       ??_C@_0BF@JGNA@gl_roundImagesDown?$DN0?$AA@ 0048101c     gl_image.obj
 0003:0000c034       ??_C@_0BD@ILL@r_colorMipLevels?$DN0?$AA@ 00481034     gl_image.obj
 0003:0000c048       ??_C@_0BA@GOME@gl_showImages?$DN0?$AA@ 00481048     gl_image.obj
 0003:0000c058       ??_C@_08IECI@RGBA_ARB?$AA@ 00481058     gl_image.obj
 0003:0000c064       ??_C@_07MDOP@RGB_ARB?$AA@  00481064     gl_image.obj
 0003:0000c06c       ??_C@_04JEEF@DXT5?$AA@     0048106c     gl_image.obj
 0003:0000c074       ??_C@_04GLDH@DXT3?$AA@     00481074     gl_image.obj
 0003:0000c07c       ??_C@_05OIGJ@DXT1A?$AA@    0048107c     gl_image.obj
 0003:0000c084       ??_C@_04DOBJ@DXT1?$AA@     00481084     gl_image.obj
 0003:0000c08c       ??_C@_0L@DHJK@RGBA4_S3TC?$AA@ 0048108c     gl_image.obj
 0003:0000c098       ??_C@_09JFEH@RGBA_S3TC?$AA@ 00481098     gl_image.obj
 0003:0000c0a4       ??_C@_04DLAJ@S3TC?$AA@     004810a4     gl_image.obj
 0003:0000c0ac       ??_C@_0L@BGEN@GL_RGB5_A1?$AA@ 004810ac     gl_image.obj
 0003:0000c0b8       ??_C@_08DIEF@GL_RGBA8?$AA@ 004810b8     gl_image.obj
 0003:0000c0c4       ??_C@_08MGKB@GL_RGBA4?$AA@ 004810c4     gl_image.obj
 0003:0000c0d0       ??_C@_07MNMK@GL_RGB8?$AA@  004810d0     gl_image.obj
 0003:0000c0d8       ??_C@_07JJLJ@GL_RGB5?$AA@  004810d8     gl_image.obj
 0003:0000c0e0       ??_C@_04PIGM@RGBA?$AA@     004810e0     gl_image.obj
 0003:0000c0e8       ??_C@_03DLPD@RGB?$AA@      004810e8     gl_image.obj
 0003:0000c168       ??_C@_0BI@KDJA@GL_LINEAR_MIPMAP_LINEAR?$AA@ 00481168     gl_image.obj
 0003:0000c180       ??_C@_0BJ@FEEC@GL_NEAREST_MIPMAP_LINEAR?$AA@ 00481180     gl_image.obj
 0003:0000c19c       ??_C@_0BJ@CJFK@GL_LINEAR_MIPMAP_NEAREST?$AA@ 0048119c     gl_image.obj
 0003:0000c1b8       ??_C@_0BK@NEKN@GL_NEAREST_MIPMAP_NEAREST?$AA@ 004811b8     gl_image.obj
 0003:0000c1d4       ??_C@_09KGLC@GL_LINEAR?$AA@ 004811d4     gl_image.obj
 0003:0000c1e0       ??_C@_0L@FLFP@GL_NEAREST?$AA@ 004811e0     gl_image.obj
 0003:0000c1ec       ??_C@_0CA@DIF@R_TextureMode?3?5bad?5filter?5name?6?$AA@ 004811ec     gl_image.obj
 0003:0000c20c       ??_C@_0CF@IAOJ@R_CreateImage?$CI?$CFs?$CJ?3?5MAX_TEXTURES?5@ 0048120c     gl_image.obj
 0003:0000c234       ??_C@_0BJ@GEHM@R_CreateImage?3?5null?5name?$AA@ 00481234     gl_image.obj
 0003:0000c250       ??_C@_0N@FJFI@?$FO5?$CFs?3?5?$CFd?5ms?6?$AA@ 00481250     gl_image.obj
 0003:0000c260       ??_C@_0L@GIOJ@r_profile2?$AA@ 00481260     gl_image.obj
 0003:0000c26c       ??_C@_0P@KHHM@?1?1?5Upload?$CI?$CFs?$CJ?6?$AA@ 0048126c     gl_image.obj
 0003:0000c27c       ??_C@_0CE@CACM@rebuilding?5saturation?5table?5for?5@ 0048127c     gl_image.obj
 0003:0000c2a0       ??_C@_0L@NAJD@bad?5target?$AA@ 004812a0     gl_image.obj
 0003:0000c2ac       ??_C@_09PAG@Wrote?5?$CFs?6?$AA@ 004812ac     gl_image.obj
 0003:0000c2b8       ??_C@_0BK@BKCN@?$CFs?1screenshots?1shot?$CF04d?$CFs?$AA@ 004812b8     gl_image.obj
 0003:0000c2d4       ??_C@_0L@JJML@fx?1diffuse?$AA@ 004812d4     gl_image.obj
 0003:0000c2e0       ??_C@_0M@ENOB@fx?1specular?$AA@ 004812e0     gl_image.obj
 0003:0000c2ec       ??_C@_07CCPL@?$CKdetail?$AA@ 004812ec     gl_image.obj
 0003:0000c2f4       ??_C@_09IPNB@?$CKparticle?$AA@ 004812f4     gl_image.obj
 0003:0000c300       ??_C@_07ELEK@?$CKdlight?$AA@ 00481300     gl_image.obj
 0003:0000c308       ??_C@_0P@CFMF@?$CKidentityLight?$AA@ 00481308     gl_image.obj
 0003:0000c318       ??_C@_06EGJL@?$CKvideo?$AA@ 00481318     gl_image.obj
 0003:0000c320       ??_C@_08IILE@?$CKdefault?$AA@ 00481320     gl_image.obj
 0003:0000c32c       ??_C@_0L@OAHB@img_reload?$AA@ 0048132c     gl_image.obj
 0003:0000c338       ??_C@_09PCJE@imagelist?$AA@ 00481338     gl_image.obj
 0003:0000c344       ??_C@_0CA@GDHD@Couldn?8t?5load?5pics?1colormap?4pcx?$AA@ 00481344     gl_image.obj
 0003:0000c364       ??_C@_0BC@EOBO@pics?1colormap?4pcx?$AA@ 00481364     gl_image.obj
 0003:0000c378       ??_C@_0BL@MIHL@Usage?3?5imagelist?5?$FL?$DMmask?$DO?$FN?6?$AA@ 00481378     gl_image.obj
 0003:0000c394       ??_C@_0BA@FDPA@Chain?5?$CFdx?5?3?5?$CFd?6?$AA@ 00481394     gl_image.obj
 0003:0000c3a4       ??_C@_0CD@KFPJ@?9?9?9?9?9?9?9?9?9?9?9?9?9?9?6Hash?5distribution@ 004813a4     gl_image.obj
 0003:0000c3c8       ??_C@_0DF@CMGK@Displayed?5?$CFd?1?$CFd?5images?$DL?5texel?5co@ 004813c8     gl_image.obj
 0003:0000c400       ??_C@_0CE@POIF@?$CF?93d?5?$CF?94d?5?$CF?94d?5?$CFc?5?$CFc?5?5?$CFc?5?$CF?98s?5?$CFs@ 00481400     gl_image.obj
 0003:0000c424       ??_C@_07NJP@?$FO1?$DP?$DP?$DP?$FO7?$AA@ 00481424     gl_image.obj
 0003:0000c42c       ??_C@_0CO@NDFN@?9?9?9?9w?9?9?9?9h?9?9?9?9a?9wr?9m?9fmt?9?9?9?9?9?9na@ 0048142c     gl_image.obj
 0003:0000c45c       ??_C@_0BK@OLJD@Usage?3?5img_reload?5?$DMmask?$DO?6?$AA@ 0048145c     gl_image.obj
 0003:0000c478       ??_C@_0BO@OMAH@?$CFd?5images?5reloaded?5in?5?$CFg?5sec?6?$AA@ 00481478     gl_image.obj
 0003:0000c498       ??_C@_0BO@LAI@?$CFd?5images?5uploaded?5in?5?$CFg?5sec?6?$AA@ 00481498     gl_image.obj
 0003:0000c4b8       ??_C@_0BI@EEPA@Cannot?5find?5image?5?$CFs?4?$CK?6?$AA@ 004814b8     gl_image.obj
 0003:0000c4d0       ??_C@_0CG@CBPD@R_FindImage?$CI?$CFs?$CJ?3?5cannot?5load?5tex@ 004814d0     gl_image.obj
 0003:0000c4f8       ??_C@_0DK@OIIH@R_FindImage?$CI?$CFs?$CJ?3?5Reusing?5image?5w@ 004814f8     gl_image.obj
 0003:0000c534       ??_C@_0EE@IFON@R_FindImage?$CI?$CFs?$CJ?3?5using?5different@ 00481534     gl_image.obj
 0003:0000c5d8       ??_C@_0BA@LEFD@?1?1?5GL_Bind?$CI?$CFs?$CJ?6?$AA@ 004815d8     gl_interface.obj
 0003:0000c5e8       ??_C@_0BC@NDEN@pics?1conchars?4pcx?$AA@ 004815e8     gl_interface.obj
 0003:0000c5fc       ??_C@_0BL@BMDP@R_SetMultitexture?$CI?$CFd?5?$DO?5?$CFd?$CJ?$AA@ 004815fc     gl_interface.obj
 0003:0000c618       ??_C@_0BJ@HGEL@?$CK?$CK?$CK?$CK?$CK?5Set2DMode?$CI?$CJ?5?$CK?$CK?$CK?$CK?$CK?6?$AA@ 00481618     gl_interface.obj
 0003:0000c634       ??_C@_0BE@OBE@?$CK?$CK?$CK?5GL_Setup?$CI?$CJ?5?$CK?$CK?$CK?6?$AA@ 00481634     gl_interface.obj
 0003:0000c6a8       ??_C@_05CPGM@?$CFg?6?$CFg?$AA@ 004816a8     gl_light.obj
 0003:0000c6b0       ??_C@_0BJ@KPMK@inv2?5slight?5at?5?$CFg?5?$CFg?5?$CFg?6?$AA@ 004816b0     gl_light.obj
 0003:0000c6cc       ??_C@_0CD@BHJG@unknown?5point?5sl?4type?5at?5?$CFg?5?$CFg?5?$CF@ 004816cc     gl_light.obj
 0003:0000c6f0       ??_C@_0M@GCNE@?$CKlightmap?$CFd?$AA@ 004816f0     gl_lightmap.obj
 0003:0000c6fc       ??_C@_0BP@HCJJ@LM_NewBlock?3?5MAX_LIGHTMAPS?5hit?$AA@ 004816fc     gl_lightmap.obj
 0003:0000c79c       ??_C@_0BE@BFME@gl_allow_software?$DN0?$AA@ 0048179c     gl_main.obj
 0003:0000c7b0       ??_C@_0M@NIPL@gl_finish?$DN0?$AA@ 004817b0     gl_main.obj
 0003:0000c7bc       ??_C@_0O@FIKJ@gl_logTexts?$DN0?$AA@ 004817bc     gl_main.obj
 0003:0000c7cc       ??_C@_0BC@NMNL@gl_showFillRate?$DN0?$AA@ 004817cc     gl_main.obj
 0003:0000c7e0       ??_C@_0BC@NBOA@gl_singleShader?$DN0?$AA@ 004817e0     gl_main.obj
 0003:0000c7f4       ??_C@_0BA@NAGF@gl_showLights?$DN0?$AA@ 004817f4     gl_main.obj
 0003:0000c804       ??_C@_0BA@GNPP@gl_lightLines?$DN0?$AA@ 00481804     gl_main.obj
 0003:0000c814       ??_C@_0M@MFKK@gl_labels?$DN0?$AA@ 00481814     gl_main.obj
 0003:0000c820       ??_C@_0P@DJBE@gl_sortAlpha?$DN0?$AA@ 00481820     gl_main.obj
 0003:0000c830       ??_C@_0BB@LNJJ@r_drawentities?$DN1?$AA@ 00481830     gl_main.obj
 0003:0000c844       ??_C@_0O@IOCE@r_drawworld?$DN1?$AA@ 00481844     gl_main.obj
 0003:0000c854       ??_C@_0N@IMCC@gl_showSky?$DN0?$AA@ 00481854     gl_main.obj
 0003:0000c864       ??_C@_0L@DONN@r_speeds?$DN0?$AA@ 00481864     gl_main.obj
 0003:0000c870       ??_C@_0BC@HOLH@gl_backfaceCull?$DN1?$AA@ 00481870     gl_main.obj
 0003:0000c884       ??_C@_0L@CNEG@gl_oCull?$DN1?$AA@ 00481884     gl_main.obj
 0003:0000c890       ??_C@_0BB@CEEE@gl_frustumCull?$DN1?$AA@ 00481890     gl_main.obj
 0003:0000c8a4       ??_C@_09KFON@r_novis?$DN0?$AA@ 004818a4     gl_main.obj
 0003:0000c8b0       ??_C@_0N@EGHP@gl_logFile?$DN0?$AA@ 004818b0     gl_main.obj
 0003:0000c8c0       ??_C@_0M@JCDH@gl_nobind?$DN0?$AA@ 004818c0     gl_main.obj
 0003:0000c8cc       ??_C@_0BF@IFAO@gl_maxTextureUnits?$DN0?$AA@ 004818cc     gl_main.obj
 0003:0000c8e4       ??_C@_09CAAA@gl_mode?$DN3?$AA@ 004818e4     gl_main.obj
 0003:0000c8f0       ??_C@_0BD@ICLC@gl_driver?$DNopengl32?$AA@ 004818f0     gl_main.obj
 0003:0000c904       ??_C@_0BC@GPJF@gl_swapinterval?$DN0?$AA@ 00481904     gl_main.obj
 0003:0000c918       ??_C@_0L@EPEG@gl_znear?$DN4?$AA@ 00481918     gl_main.obj
 0003:0000c924       ??_C@_0O@FENC@gl_showGrid?$DN0?$AA@ 00481924     gl_main.obj
 0003:0000c934       ??_C@_0M@PMLN@gl_noGrid?$DN0?$AA@ 00481934     gl_main.obj
 0003:0000c940       ??_C@_0BB@HOHO@gl_dlightBacks?$DN1?$AA@ 00481940     gl_main.obj
 0003:0000c954       ??_C@_0N@BGAD@gl_dynamic?$DN1?$AA@ 00481954     gl_main.obj
 0003:0000c964       ??_C@_0M@INPH@gl_flares?$DN1?$AA@ 00481964     gl_main.obj
 0003:0000c970       ??_C@_08BPBK@gl_fog?$DN0?$AA@ 00481970     gl_main.obj
 0003:0000c97c       ??_C@_0N@PDND@gl_fastSky?$DN0?$AA@ 0048197c     gl_main.obj
 0003:0000c98c       ??_C@_0BC@FLED@r_ignorehwgamma?$DN0?$AA@ 0048198c     gl_main.obj
 0003:0000c9a0       ??_C@_0BC@OKBK@gl_skinMipBias?$DN?91?$AA@ 004819a0     gl_main.obj
 0003:0000c9b4       ??_C@_0BD@EHME@gl_texMipBias?$DN?90?45?$AA@ 004819b4     gl_main.obj
 0003:0000c9c8       ??_C@_0BI@NDKI@gl_texturemode?$DNbilinear?$AA@ 004819c8     gl_main.obj
 0003:0000c9e0       ??_C@_08BONO@required?$AA@ 004819e0     gl_main.obj
 0003:0000c9ec       ??_C@_08IOPH@unneeded?$AA@ 004819ec     gl_main.obj
 0003:0000c9f8       ??_C@_06HDGO@forced?$AA@   004819f8     gl_main.obj
 0003:0000ca00       ??_C@_0BA@CPDK@gl_console_only?$AA@ 00481a00     gl_main.obj
 0003:0000ca10       ??_C@_0CH@KMEP@?$FO6?4?4?4multitexture?5limited?5by?5?$CFd?5@ 00481a10     gl_main.obj
 0003:0000ca38       ??_C@_0BP@GIDI@Error?5in?5multitexture?5support?6?$AA@ 00481a38     gl_main.obj
 0003:0000ca58       ??_C@_0BA@ICOO@Cannot?5load?5?$CFs?6?$AA@ 00481a58     gl_main.obj
 0003:0000ca68       ??_C@_09CLHH@?$FO1failed?6?$AA@ 00481a68     gl_main.obj
 0003:0000ca74       ??_C@_0CK@LCCO@ref_gl?3?3R_Init?$CI?$CJ?5?9?5could?5not?5R_S@ 00481a74     gl_main.obj
 0003:0000caa0       ??_C@_09MLK@gl_driver?$AA@ 00481aa0     gl_main.obj
 0003:0000caac       ??_C@_03IOOG@OK?6?$AA@     00481aac     gl_main.obj
 0003:0000cab0       ??_C@_0DB@JCAB@Cannot?5load?5?$CFs?5?9?5trying?5default?5@ 00481ab0     gl_main.obj
 0003:0000cae4       ??_C@_0CH@DOJD@?6?9?9?9?5Initializing?5OpenGL?5rendere@ 00481ae4     gl_main.obj
 0003:0000cb0c       ??_C@_07KFLF@gfxinfo?$AA@  00481b0c     gl_main.obj
 0003:0000cb14       ??_C@_0CA@JCPI@Usage?3?5gfxinfo?5?$FLextension_mask?$FN?$AA@ 00481b14     gl_main.obj
 0003:0000cb34       ??_C@_09IKCN@software?6?$AA@ 00481b34     gl_main.obj
 0003:0000cb40       ??_C@_0DI@DOIP@hardware?0?5overbright?3?5?$CFs?5?$CI?$CFs?$CJ?0?5l@ 00481b40     gl_main.obj
 0003:0000cb78       ??_C@_07INHH@Gamma?3?5?$AA@ 00481b78     gl_main.obj
 0003:0000cb80       ??_C@_0O@PKBD@Lighting?3?5?$CFs?6?$AA@ 00481b80     gl_main.obj
 0003:0000cb90       ??_C@_0N@EJNC@unsupported?6?$AA@ 00481b90     gl_main.obj
 0003:0000cba0       ??_C@_0BA@FFCA@max?5size?5is?5?$CFd?6?$AA@ 00481ba0     gl_main.obj
 0003:0000cbb0       ??_C@_0BE@OMFB@Texture?5rectangle?3?5?$AA@ 00481bb0     gl_main.obj
 0003:0000cbc4       ??_C@_0BG@LKBP@Max?5texture?5size?3?5?$CFd?6?$AA@ 00481bc4     gl_main.obj
 0003:0000cbdc       ??_C@_03BBNN@no?6?$AA@     00481bdc     gl_main.obj
 0003:0000cbe0       ??_C@_0BL@IJE@yes?0?5?$CFs?0?5?$CFd?5texture?5units?6?$AA@ 00481be0     gl_main.obj
 0003:0000cbfc       ??_C@_05PNHL@?5?$CLATI?$AA@ 00481bfc     gl_main.obj
 0003:0000cc04       ??_C@_04BFNF@?5?$CLNV?$AA@ 00481c04     gl_main.obj
 0003:0000cc0c       ??_C@_09ENAG@?5?$CLCombine?$AA@ 00481c0c     gl_main.obj
 0003:0000cc18       ??_C@_05EEBD@?5?$CLAdd?$AA@ 00481c18     gl_main.obj
 0003:0000cc20       ??_C@_04KPML@SGIS?$AA@     00481c20     gl_main.obj
 0003:0000cc28       ??_C@_03MKAL@ARB?$AA@      00481c28     gl_main.obj
 0003:0000cc2c       ??_C@_0BB@LOGD@Multitexturing?3?5?$AA@ 00481c2c     gl_main.obj
 0003:0000cc40       ??_C@_0CF@BFLM@?$FO1?9?9?9?9?9?9?9?9?9?9?9?9?9?9?9?9?9?9?9?9?9?9?9?9?9?9?9?9?9?9@ 00481c40     gl_main.obj
 0003:0000cc68       ??_C@_08KFCA@Platform?$AA@ 00481c68     gl_main.obj
 0003:0000cc74       ??_C@_04FCAC@Base?$AA@     00481c74     gl_main.obj
 0003:0000cc7c       ??_C@_0BC@IFAK@?$FO1Version?3?5?$FO7?5?$CFs?6?$AA@ 00481c7c     gl_main.obj
 0003:0000cc90       ??_C@_0BC@JKJI@?$FO1Renderer?3?$FO7?5?$CFs?6?$AA@ 00481c90     gl_main.obj
 0003:0000cca4       ??_C@_0BC@CDIF@?$FO1Vendor?3?5?5?$FO7?5?$CFs?6?$AA@ 00481ca4     gl_main.obj
 0003:0000ccb8       ??_C@_0CF@GLPK@?$FO1?9?9?9?9?9?9?9?9?9?9?5OpenGL?5info?5?9?9?9?9?9?9?9@ 00481cb8     gl_main.obj
 0003:0000cce0       ??_C@_0CN@PBPO@R_SetMode?$CI?$CJ?5?9?5could?5not?5revert?5t@ 00481ce0     gl_main.obj
 0003:0000cd10       ??_C@_0DD@POCJ@R_SetMode?$CI?$CJ?5?9?5fullscreen?5unavail@ 00481d10     gl_main.obj
 0003:0000cd44       ??_C@_0BM@KCLC@R_SetMode?$CI?$CJ?5?9?5invalid?5mode?6?$AA@ 00481d44     gl_main.obj
 0003:0000cd60       ??_C@_0CF@FFFN@?6?9?9?9?9?9?9?9?9?9?9?5Begin?5Frame?5?9?9?9?9?9?9?9?9@ 00481d60     gl_main.obj
 0003:0000cd88       ??_C@_0L@PDBC@gl_logFile?$AA@ 00481d88     gl_main.obj
 0003:0000cd94       ??_C@_0CL@MILD@fe?3?5?$CF2d?5bk?3?5?$CF2d?5?$CIsrt?3?5?$CF2d?53d?3?5?$CF2@ 00481d94     gl_main.obj
 0003:0000cdc0       ??_C@_0BAM@OKPG@leafs?3?5vis?3?5?$CF?93d?5fr?3?5?$CF?93d?5total?3@ 00481dc0     gl_main.obj
 0003:0000cecc       ??_C@_0BP@LMAI@R_RenderFrame?3?5NULL?5worldModel?$AA@ 00481ecc     gl_main.obj
 0003:0000ceec       ??_C@_0M@JOO@gl_logTexts?$AA@ 00481eec     gl_main.obj
 0003:0000cef8       ??_C@_05PCCD@?$FO5?$CFs?6?$AA@ 00481ef8     gl_main.obj
 0003:0000cf00       ??_C@_0BI@EEG@?$CFs?5is?5not?5a?5sky?5shader?6?$AA@ 00481f00     gl_main.obj
 0003:0000cf18       ??_C@_04MEHM@env?1?$AA@    00481f18     gl_main.obj
 0003:0000cf20       ?mathFuncs@@3PAPAMA        00481f20     gl_math.obj
 0003:0000cf7c       ??_C@_03GMPC@md3?$AA@      00481f7c     gl_model.obj
 0003:0000cf80       ??_C@_03KLMO@sp2?$AA@      00481f80     gl_model.obj
 0003:0000cf84       ??_C@_03LBEE@inl?$AA@      00481f84     gl_model.obj
 0003:0000cf88       ??_C@_03BNCE@unk?$AA@      00481f88     gl_model.obj
 0003:0000cf8c       ??_C@_0CD@DLII@R_FindModel?3?5unknown?5ID?50x?$CFX?5in?5@ 00481f8c     gl_model.obj
 0003:0000cfb0       ??_C@_0BE@LMPO@?$FO5?$CFs?5?$FO2?$CFs?$FO6?3?5?$CFd?5ms?6?$AA@ 00481fb0     gl_model.obj
 0003:0000cfc4       ??_C@_09FHBP@r_profile?$AA@ 00481fc4     gl_model.obj
 0003:0000cfd0       ??_C@_0BL@CII@R_FindModel?3?5?$CFs?5not?5found?6?$AA@ 00481fd0     gl_model.obj
 0003:0000cfec       ??_C@_0BL@GGOP@R_FindModel?3?5MAX_GLMODELS?6?$AA@ 00481fec     gl_model.obj
 0003:0000d008       ??_C@_0BH@EMAN@R_FindModel?3?5NULL?5name?$AA@ 00482008     gl_model.obj
 0003:0000d020       ??_C@_0CB@JGKO@R_LoadWorldMap?3?5unknown?5BSP?5type@ 00482020     gl_model.obj
 0003:0000d044       ??_C@_0CK@LDPP@Used?5minlight?5from?5lightmap?5?$HL?$CFd?0@ 00482044     gl_model.obj
 0003:0000d070       ??_C@_0BK@LGBA@R_LoadWorldMap?3?5NULL?5name?$AA@ 00482070     gl_model.obj
 0003:0000d08c       ??_C@_0CG@FPHI@?$CFs?3?5animation?5chain?5is?5too?5long?5@ 0048208c     gl_model.obj
 0003:0000d0b4       ??_C@_0M@BDNM@textures?1?$CFs?$AA@ 004820b4     gl_model.obj
 0003:0000d0c0       ??_C@_0DE@COII@LM_AllocBlock?3?5unable?5to?5allocat@ 004820c0     gl_model.obj
 0003:0000d0f4       ??_C@_0BD@IEOE@Disable?5lm?5for?5?$CFs?6?$AA@ 004820f4     gl_model.obj
 0003:0000d108       ??_C@_0CE@HOKC@removed?5?$CFd?5lm?5texels?5?$CI?$CF?43f?5block@ 00482108     gl_model.obj
 0003:0000d12c       ??_C@_0BJ@IDMC@R_PointInLeaf?3?5bad?5model?$AA@ 0048212c     gl_model.obj
 0003:0000d148       ??_C@_0CM@EMOM@R_LoadMd2?3?5?$CFs?5has?5incorrect?5tria@ 00482148     gl_model.obj
 0003:0000d174       ??_C@_0CP@JBHO@LoadMD2?$CI?$CFs?$CJ?3?5?$CFd?5xyz?5?5?$CFd?5st?5?5?$CFd?5v@ 00482174     gl_model.obj
 0003:0000d1a4       ??_C@_0CI@NKLO@LoadMd2?$CI?$CFs?$CJ?3?5computed?5numTris?5?$CFd@ 004821a4     gl_model.obj
 0003:0000d1cc       ??_C@_0CE@NAHF@R_LoadMd2?3?5?$CFs?5has?5wrong?5version?5@ 004821cc     gl_model.obj
 0003:0000d1f0       ??_C@_0CD@DJPA@R_LoadMd2?$CI?$CFs?$CJ?3?5too?5much?5texcoord@ 004821f0     gl_model.obj
 0003:0000d214       ??_C@_0CJ@FELN@R_LoadMd2?$CI?$CFs?$CJ?3?5incorrect?5triangl@ 00482214     gl_model.obj
 0003:0000d240       ??_C@_0CE@JAMN@LoadMD2?$CI?$CFs?$CJ?3?5?$CFs?5or?5?$CFs?5is?5not?5fou@ 00482240     gl_model.obj
 0003:0000d264       ??_C@_0CA@KJKJ@R_LoadSp2?$CI?$CFs?$CJ?3?5?$CFs?5is?5not?5found?6?$AA@ 00482264     gl_model.obj
 0003:0000d284       ??_C@_0CM@IOEC@R_LoadSp2?3?5?$CFs?5has?5incorrect?5fram@ 00482284     gl_model.obj
 0003:0000d2b0       ??_C@_0CE@LAIM@R_LoadSp2?3?5?$CFs?5has?5wrong?5version?5@ 004822b0     gl_model.obj
 0003:0000d2d4       ??_C@_0CD@JIFE@R_FreeModel?3?5unknown?5model?5type?5@ 004822d4     gl_model.obj
 0003:0000d2f8       ??_C@_09HFGF@modellist?$AA@ 004822f8     gl_model.obj
 0003:0000d304       ??_C@_0BJ@FFJJ@Usage?3?5modellist?5?$FLmask?$FN?6?$AA@ 00482304     gl_model.obj
 0003:0000d320       ??_C@_0CE@MBFI@Displayed?5?$CFd?5models?0?5used?5?$CFd?5byt@ 00482320     gl_model.obj
 0003:0000d344       ??_C@_0BG@LJHL@?$CF?93d?5?5?$CF3s?5?5?$CF?97d?5?$CFs?$CFs?6?$AA@ 00482344     gl_model.obj
 0003:0000d35c       ??_C@_0CB@KOHO@?9?9?9?9?9type?9size?9?9?9?9name?9?9?9?9?9?9?9?9?9?6@ 0048235c     gl_model.obj
 0003:0000d380       ??_C@_0CC@OIPN@SubdividePlane?3?5MAX_POLYVERTS?5hi@ 00482380     gl_poly.obj
 0003:0000d3dc       ??_C@_0O@JCG@?$FO1?5?$CIerrors?$CJ?$FO7?$AA@ 004823dc     gl_shader.obj
 0003:0000d3ec       ??_C@_01PJOB@?$CL?$AA@     004823ec     gl_shader.obj
 0003:0000d3f0       ??_C@_03EGJN@por?$AA@      004823f0     gl_shader.obj
 0003:0000d3f4       ??_C@_03CCDL@fog?$AA@      004823f4     gl_shader.obj
 0003:0000d3f8       ??_C@_0L@OIIH@shaderlist?$AA@ 004823f8     gl_shader.obj
 0003:0000d404       ??_C@_0BM@OFNH@Usage?3?5shaderlist?5?$FL?$DMmask?$DO?$FN?6?$AA@ 00482404     gl_shader.obj
 0003:0000d420       ??_C@_0BJ@IHEM@Displayed?5?$CFd?1?$CFd?5shaders?6?$AA@ 00482420     gl_shader.obj
 0003:0000d43c       ??_C@_0BP@COJH@?$CF?93d?5?$CFd?5?5?$CF2s?5?$CF?92g?5?$CF3s?5?5?$CFs?$CFs?$CFs?6?$AA@ 0048243c     gl_shader.obj
 0003:0000d45c       ??_C@_01KBCC@v?$AA@        0048245c     gl_shader.obj
 0003:0000d460       ??_C@_06BACG@?$FO1?9?9?$FO7?$AA@ 00482460     gl_shader.obj
 0003:0000d468       ??_C@_0CA@GJBA@?9?9?9?9ns?9lm?9s?9?9type?9name?9?9?9?9?9?9?9?9?6?$AA@ 00482468     gl_shader.obj
 0003:0000d488       ??_C@_0DJ@NKFP@R_SetShaderLightmap?$CI?$CFs?0?5?$CFd?$CJ?3?5lig@ 00482488     gl_shader.obj
 0003:0000d4c4       ??_C@_0CI@DGLI@SetLM?$CINONE?$CJ?5for?5non?9vertexLM?5sha@ 004824c4     gl_shader.obj
 0003:0000d4ec       ??_C@_0CJ@EOOP@AddPermanentShader?$CI?$CFs?$CJ?3?5MAX_SHAD@ 004824ec     gl_shader.obj
 0003:0000d518       ??_C@_02LDBK@?$CDa?$AA@    00482518     gl_shader.obj
 0003:0000d51c       ??_C@_0CK@KBDO@R_GetAlphaShader?$CI?$CFs?$CJ?3?5already?5ha@ 0048251c     gl_shader.obj
 0003:0000d548       ??_C@_0DM@IEIL@R_FinishShader?$CI?$CFs?$CJ?3?5strange?5blen@ 00482548     gl_shader.obj
 0003:0000d584       ??_C@_0CI@JKEH@R_FindShader?3?5couldn?8t?5find?5imag@ 00482584     gl_shader.obj
 0003:0000d5ac       ??_C@_0CG@FPHL@Too?5many?5tcMod?5stages?5in?5shader?5@ 004825ac     gl_shader.obj
 0003:0000d5d4       ??_C@_0O@DNNE@pics?1conchars?$AA@ 004825d4     gl_shader.obj
 0003:0000d5e4       ??_C@_04ILHL@?$CKsky?$AA@  004825e4     gl_shader.obj
 0003:0000d5ec       ??_C@_0L@BAEK@?$CKrailRings?$AA@ 004825ec     gl_shader.obj
 0003:0000d5f8       ??_C@_07HPDD@fx?1rail?$AA@ 004825f8     gl_shader.obj
 0003:0000d600       ??_C@_0M@MMEK@?$CKrailSpiral?$AA@ 00482600     gl_shader.obj
 0003:0000d60c       ??_C@_08KMB@fx?1rail2?$AA@ 0048260c     gl_shader.obj
 0003:0000d618       ??_C@_09PLKP@?$CKrailBeam?$AA@ 00482618     gl_shader.obj
 0003:0000d624       ??_C@_0O@BOKE@fx?1colorshell?$AA@ 00482624     gl_shader.obj
 0003:0000d634       ??_C@_0M@LNBL@?$CKcolorShell?$AA@ 00482634     gl_shader.obj
 0003:0000d640       ??_C@_0P@BDLB@sprites?1corona?$AA@ 00482640     gl_shader.obj
 0003:0000d650       ??_C@_06OEPC@?$CKflare?$AA@ 00482650     gl_shader.obj
 0003:0000d658       ??_C@_0BA@BOJP@?$CKidentitylight2?$AA@ 00482658     gl_shader.obj
 0003:0000d668       ??_C@_07PKKI@?$CKalpha1?$AA@ 00482668     gl_shader.obj
 0003:0000d670       ??_C@_07PMON@?$CKentity?$AA@ 00482670     gl_shader.obj
 0003:0000d678       ??_C@_07FBB@?$CKalpha2?$AA@ 00482678     gl_shader.obj
 0003:0000d758       ??_C@_0CD@HACB@ClipSkyPolygon?3?5MAX_CLIP_VERTS?5h@ 00482758     gl_sky.obj
 0003:0000da08       ??_C@_0BG@IHNA@WGL_EXT_swap_control?$AA?$AA@ 00482a08     qgl_win.obj
 0003:0000da20       ??_C@_0BJ@CDKN@GL_EXT_texture_lod_bias?$AA?$AA@ 00482a20     qgl_win.obj
 0003:0000da3c       ??_C@_0BH@HIH@gl_ext_fog_distance_nv?$AA@ 00482a3c     qgl_win.obj
 0003:0000da54       ??_C@_0BE@NGML@GL_NV_fog_distance?$AA?$AA@ 00482a54     qgl_win.obj
 0003:0000da68       ??_C@_0BJ@KDF@gl_ext_texture_rectangle?$AA@ 00482a68     qgl_win.obj
 0003:0000da84       ??_C@_0EL@CCFM@GL_NV_texture_rectangle?$AAGL_ARB_t@ 00482a84     qgl_win.obj
 0003:0000dad0       ??_C@_0BN@OJDH@gl_ext_compiled_vertex_array?$AA@ 00482ad0     qgl_win.obj
 0003:0000daf0       ??_C@_0BO@IMML@GL_EXT_compiled_vertex_array?$AA?$AA@ 00482af0     qgl_win.obj
 0003:0000db10       ??_C@_0CB@IMKO@GL_EXT_texture_compression_s3tc?$AA@ 00482b10     qgl_win.obj
 0003:0000db34       ??_C@_0BM@FOCK@GL_ARB_texture_compression?$AA?$AA@ 00482b34     qgl_win.obj
 0003:0000db50       ??_C@_0BL@PJFG@gl_ext_texture_compression?$AA@ 00482b50     qgl_win.obj
 0003:0000db6c       ??_C@_0M@JHPF@GL_S3_s3tc?$AA?$AA@ 00482b6c     qgl_win.obj
 0003:0000db78       ??_C@_0BP@COLB@gl_ext_texture_env_combine_ati?$AA@ 00482b78     qgl_win.obj
 0003:0000db98       ??_C@_0DK@HFJO@GL_ATI_texture_env_combine3?$AAGL_A@ 00482b98     qgl_win.obj
 0003:0000dbd4       ??_C@_0BO@DPKO@gl_ext_texture_env_combine_nv?$AA@ 00482bd4     qgl_win.obj
 0003:0000dbf4       ??_C@_0BM@OIKF@GL_NV_texture_env_combine4?$AA?$AA@ 00482bf4     qgl_win.obj
 0003:0000dc10       ??_C@_0BM@MJFJ@GL_ARB_texture_env_combine?$AA?$AA@ 00482c10     qgl_win.obj
 0003:0000dc2c       ??_C@_0BL@IKDG@gl_ext_texture_env_combine?$AA@ 00482c2c     qgl_win.obj
 0003:0000dc48       ??_C@_0BM@CNNC@GL_EXT_texture_env_combine?$AA?$AA@ 00482c48     qgl_win.obj
 0003:0000dc64       ??_C@_0BH@LMED@gl_ext_texture_env_add?$AA@ 00482c64     qgl_win.obj
 0003:0000dc7c       ??_C@_0CP@ENDB@GL_ARB_texture_env_add?$AAGL_EXT_te@ 00482c7c     qgl_win.obj
 0003:0000dcac       ??_C@_0BF@LGEH@GL_ARB_multitexture?$AA?$AA@ 00482cac     qgl_win.obj
 0003:0000dcc4       ??_C@_0BE@IOJK@gl_ext_multitexture?$AA@ 00482cc4     qgl_win.obj
 0003:0000dcd8       ??_C@_0BG@DHII@GL_SGIS_multitexture?$AA?$AA@ 00482cd8     qgl_win.obj
 0003:0000dcf0       ??_C@_0BD@LGGF@wglSwapIntervalEXT?$AA@ 00482cf0     qgl_win.obj
 0003:0000dd04       ??_C@_0BC@MMDJ@glUnlockArraysEXT?$AA@ 00482d04     qgl_win.obj
 0003:0000dd18       ??_C@_0BA@NLCH@glLockArraysEXT?$AA@ 00482d18     qgl_win.obj
 0003:0000dd28       ??_C@_0BJ@NIEC@glClientActiveTextureARB?$AA@ 00482d28     qgl_win.obj
 0003:0000dd44       ??_C@_0BD@IJD@glActiveTextureARB?$AA@ 00482d44     qgl_win.obj
 0003:0000dd58       ??_C@_0BM@DCJF@glSelectTextureCoordSetSGIS?$AA@ 00482d58     qgl_win.obj
 0003:0000dd74       ??_C@_0BE@LEFG@glSelectTextureSGIS?$AA@ 00482d74     qgl_win.obj
 0003:0000dd88       ??_C@_0P@NFHG@wglMakeCurrent?$AA@ 00482d88     qgl_win.obj
 0003:0000dd98       ??_C@_0BC@HKHL@wglGetProcAddress?$AA@ 00482d98     qgl_win.obj
 0003:0000ddac       ??_C@_0BB@IOBP@wglDeleteContext?$AA@ 00482dac     qgl_win.obj
 0003:0000ddc0       ??_C@_0BB@GGNL@wglCreateContext?$AA@ 00482dc0     qgl_win.obj
 0003:0000ddd4       ??_C@_0P@EKFP@wglSwapBuffers?$AA@ 00482dd4     qgl_win.obj
 0003:0000dde4       ??_C@_0BC@PJLC@wglSetPixelFormat?$AA@ 00482de4     qgl_win.obj
 0003:0000ddf8       ??_C@_0BH@IJMD@wglDescribePixelFormat?$AA@ 00482df8     qgl_win.obj
 0003:0000de10       ??_C@_0BF@HPKH@wglChoosePixelFormat?$AA@ 00482e10     qgl_win.obj
 0003:0000de28       ??_C@_0L@INIC@glViewport?$AA@ 00482e28     qgl_win.obj
 0003:0000de34       ??_C@_0BA@OGPO@glVertexPointer?$AA@ 00482e34     qgl_win.obj
 0003:0000de44       ??_C@_0M@PAAJ@glVertex3fv?$AA@ 00482e44     qgl_win.obj
 0003:0000de50       ??_C@_0L@CLBF@glVertex3f?$AA@ 00482e50     qgl_win.obj
 0003:0000de5c       ??_C@_0L@DNLP@glVertex2f?$AA@ 00482e5c     qgl_win.obj
 0003:0000de68       ??_C@_0N@NKAJ@glTranslatef?$AA@ 00482e68     qgl_win.obj
 0003:0000de78       ??_C@_0BA@KFAN@glTexSubImage2D?$AA@ 00482e78     qgl_win.obj
 0003:0000de88       ??_C@_0BA@CKGN@glTexParameteri?$AA@ 00482e88     qgl_win.obj
 0003:0000de98       ??_C@_0N@IAMC@glTexImage2D?$AA@ 00482e98     qgl_win.obj
 0003:0000dea8       ??_C@_09CIAL@glTexEnvi?$AA@ 00482ea8     qgl_win.obj
 0003:0000deb4       ??_C@_0L@IHAL@glTexEnvfv?$AA@ 00482eb4     qgl_win.obj
 0003:0000dec0       ??_C@_09CJFG@glTexEnvf?$AA@ 00482ec0     qgl_win.obj
 0003:0000decc       ??_C@_0BC@EKAK@glTexCoordPointer?$AA@ 00482ecc     qgl_win.obj
 0003:0000dee0       ??_C@_0N@PDBC@glTexCoord2f?$AA@ 00482ee0     qgl_win.obj
 0003:0000def0       ??_C@_0N@LIFO@glShadeModel?$AA@ 00482ef0     qgl_win.obj
 0003:0000df00       ??_C@_09HOGJ@glScissor?$AA@ 00482f00     qgl_win.obj
 0003:0000df0c       ??_C@_09LCHL@glRotatef?$AA@ 00482f0c     qgl_win.obj
 0003:0000df18       ??_C@_0N@LBPG@glReadPixels?$AA@ 00482f18     qgl_win.obj
 0003:0000df28       ??_C@_0N@KEGE@glPushMatrix?$AA@ 00482f28     qgl_win.obj
 0003:0000df38       ??_C@_0M@LACG@glPopMatrix?$AA@ 00482f38     qgl_win.obj
 0003:0000df44       ??_C@_0BA@BALB@glPolygonOffset?$AA@ 00482f44     qgl_win.obj
 0003:0000df54       ??_C@_0O@FGKK@glPolygonMode?$AA@ 00482f54     qgl_win.obj
 0003:0000df64       ??_C@_07ICOP@glOrtho?$AA@  00482f64     qgl_win.obj
 0003:0000df6c       ??_C@_0N@JNJF@glMatrixMode?$AA@ 00482f6c     qgl_win.obj
 0003:0000df7c       ??_C@_0O@KDCF@glLoadMatrixf?$AA@ 00482f7c     qgl_win.obj
 0003:0000df8c       ??_C@_0P@MLMG@glLoadIdentity?$AA@ 00482f8c     qgl_win.obj
 0003:0000df9c       ??_C@_0M@EJHF@glGetString?$AA@ 00482f9c     qgl_win.obj
 0003:0000dfa8       ??_C@_0O@PMHI@glGetIntegerv?$AA@ 00482fa8     qgl_win.obj
 0003:0000dfb8       ??_C@_07KOOO@glFogfv?$AA@  00482fb8     qgl_win.obj
 0003:0000dfc0       ??_C@_06MMBO@glFogf?$AA@   00482fc0     qgl_win.obj
 0003:0000dfc8       ??_C@_08HFPP@glFinish?$AA@ 00482fc8     qgl_win.obj
 0003:0000dfd4       ??_C@_05FDNN@glEnd?$AA@    00482fd4     qgl_win.obj
 0003:0000dfdc       ??_C@_0BE@JJFB@glEnableClientState?$AA@ 00482fdc     qgl_win.obj
 0003:0000dff0       ??_C@_08PHJO@glEnable?$AA@ 00482ff0     qgl_win.obj
 0003:0000dffc       ??_C@_0P@EAHC@glDrawElements?$AA@ 00482ffc     qgl_win.obj
 0003:0000e00c       ??_C@_0BF@HABO@glDisableClientState?$AA@ 0048300c     qgl_win.obj
 0003:0000e024       ??_C@_09DADM@glDisable?$AA@ 00483024     qgl_win.obj
 0003:0000e030       ??_C@_0N@OLL@glDepthRange?$AA@ 00483030     qgl_win.obj
 0003:0000e040       ??_C@_0M@LIJE@glDepthMask?$AA@ 00483040     qgl_win.obj
 0003:0000e04c       ??_C@_0M@FDIH@glDepthFunc?$AA@ 0048304c     qgl_win.obj
 0003:0000e058       ??_C@_0BB@OKAI@glDeleteTextures?$AA@ 00483058     qgl_win.obj
 0003:0000e06c       ??_C@_0L@LIEG@glCullFace?$AA@ 0048306c     qgl_win.obj
 0003:0000e078       ??_C@_0P@PPM@glColorPointer?$AA@ 00483078     qgl_win.obj
 0003:0000e088       ??_C@_0M@EHCG@glColor4ubv?$AA@ 00483088     qgl_win.obj
 0003:0000e094       ??_C@_0L@EOB@glColor4ub?$AA@ 00483094     qgl_win.obj
 0003:0000e0a0       ??_C@_0L@FGJL@glColor4fv?$AA@ 004830a0     qgl_win.obj
 0003:0000e0ac       ??_C@_09LJGG@glColor4f?$AA@ 004830ac     qgl_win.obj
 0003:0000e0b8       ??_C@_0L@OIPK@glColor3fv?$AA@ 004830b8     qgl_win.obj
 0003:0000e0c4       ??_C@_09NIDD@glColor3f?$AA@ 004830c4     qgl_win.obj
 0003:0000e0d0       ??_C@_0N@DFBF@glClearDepth?$AA@ 004830d0     qgl_win.obj
 0003:0000e0e0       ??_C@_0N@IALK@glClearColor?$AA@ 004830e0     qgl_win.obj
 0003:0000e0f0       ??_C@_07IOIM@glClear?$AA@  004830f0     qgl_win.obj
 0003:0000e0f8       ??_C@_0M@PHAI@glBlendFunc?$AA@ 004830f8     qgl_win.obj
 0003:0000e104       ??_C@_0O@NAMD@glBindTexture?$AA@ 00483104     qgl_win.obj
 0003:0000e114       ??_C@_07GHIG@glBegin?$AA@  00483114     qgl_win.obj
 0003:0000e11c       ??_C@_0M@JBDJ@glAlphaFunc?$AA@ 0048311c     qgl_win.obj
 0003:0000e128       ??_C@_0BA@CLML@?$CFs?5?$CIGL_?$CFs?0?5?$CFg?$CJ?6?$AA@ 00483128     qgl_win.obj
 0003:0000e138       ??_C@_03NMFM@?$DP?$DP?$DP?$AA@ 00483138     qgl_win.obj
 0003:0000e13c       ??_C@_0BB@KOKH@MODULATE_ADD_ATI?$AA@ 0048313c     qgl_win.obj
 0003:0000e150       ??_C@_0BC@EPOK@OPERAND3_ALPHA_NV?$AA@ 00483150     qgl_win.obj
 0003:0000e164       ??_C@_0BB@DDB@SOURCE3_ALPHA_NV?$AA@ 00483164     qgl_win.obj
 0003:0000e178       ??_C@_0BA@HMDO@OPERAND3_RGB_NV?$AA@ 00483178     qgl_win.obj
 0003:0000e188       ??_C@_0BD@JOFA@OPERAND2_ALPHA_ARB?$AA@ 00483188     qgl_win.obj
 0003:0000e19c       ??_C@_0BC@COBM@SOURCE2_ALPHA_ARB?$AA@ 0048319c     qgl_win.obj
 0003:0000e1b0       ??_C@_0BB@IJKE@OPERAND2_RGB_ARB?$AA@ 004831b0     qgl_win.obj
 0003:0000e1c4       ??_C@_0BD@KBMA@OPERAND1_ALPHA_ARB?$AA@ 004831c4     qgl_win.obj
 0003:0000e1d8       ??_C@_0BC@BBIM@SOURCE1_ALPHA_ARB?$AA@ 004831d8     qgl_win.obj
 0003:0000e1ec       ??_C@_0BB@MPHM@OPERAND1_RGB_ARB?$AA@ 004831ec     qgl_win.obj
 0003:0000e200       ??_C@_0BD@ELEP@OPERAND0_ALPHA_ARB?$AA@ 00483200     qgl_win.obj
 0003:0000e214       ??_C@_0BC@PLAD@SOURCE0_ALPHA_ARB?$AA@ 00483214     qgl_win.obj
 0003:0000e228       ??_C@_0BB@NDE@OPERAND0_RGB_ARB?$AA@ 00483228     qgl_win.obj
 0003:0000e23c       ??_C@_0P@NPGG@SOURCE3_RGB_NV?$AA@ 0048323c     qgl_win.obj
 0003:0000e24c       ??_C@_0N@PKDH@CONSTANT_ARB?$AA@ 0048324c     qgl_win.obj
 0003:0000e25c       ??_C@_0BC@EADM@PRIMARY_COLOR_ARB?$AA@ 0048325c     qgl_win.obj
 0003:0000e270       ??_C@_0N@BKGO@PREVIOUS_ARB?$AA@ 00483270     qgl_win.obj
 0003:0000e280       ??_C@_0BA@NGJH@SOURCE0_RGB_ARB?$AA@ 00483280     qgl_win.obj
 0003:0000e290       ??_C@_0BA@BENP@SOURCE1_RGB_ARB?$AA@ 00483290     qgl_win.obj
 0003:0000e2a0       ??_C@_0BA@FCAH@SOURCE2_RGB_ARB?$AA@ 004832a0     qgl_win.obj
 0003:0000e2b0       ??_C@_0BA@KKBO@INTERPOLATE_ARB?$AA@ 004832b0     qgl_win.obj
 0003:0000e2c0       ??_C@_0M@HIPK@COMBINE4_NV?$AA@ 004832c0     qgl_win.obj
 0003:0000e2cc       ??_C@_0BF@DIIJ@FOG_DISTANCE_MODE_NV?$AA@ 004832cc     qgl_win.obj
 0003:0000e2e4       ??_C@_0O@LKEO@EYE_RADIAL_NV?$AA@ 004832e4     qgl_win.obj
 0003:0000e2f4       ??_C@_0M@BIII@COMBINE_ARB?$AA@ 004832f4     qgl_win.obj
 0003:0000e300       ??_C@_0BA@OEFK@COMBINE_RGB_ARB?$AA@ 00483300     qgl_win.obj
 0003:0000e310       ??_C@_0BC@GJJF@COMBINE_ALPHA_ARB?$AA@ 00483310     qgl_win.obj
 0003:0000e324       ??_C@_0O@DGNK@RGB_SCALE_ARB?$AA@ 00483324     qgl_win.obj
 0003:0000e334       ??_C@_0BF@NIFN@TEXTURE_LOD_BIAS_EXT?$AA@ 00483334     qgl_win.obj
 0003:0000e34c       ??_C@_0BK@MMII@CLIENT_ACTIVE_TEXTURE_ARB?$AA@ 0048334c     qgl_win.obj
 0003:0000e368       ??_C@_0BG@DAAF@MAX_TEXTURE_UNITS_ARB?$AA@ 00483368     qgl_win.obj
 0003:0000e380       ??_C@_0BD@GMGA@COMPRESSED_RGB_ARB?$AA@ 00483380     qgl_win.obj
 0003:0000e394       ??_C@_0BE@IH@COMPRESSED_RGBA_ARB?$AA@ 00483394     qgl_win.obj
 0003:0000e3a8       ??_C@_0BF@BICI@TEXTURE_RECTANGLE_NV?$AA@ 004833a8     qgl_win.obj
 0003:0000e3c0       ??_C@_0BL@OLFC@TEXTURE_FILTER_CONTROL_EXT?$AA@ 004833c0     qgl_win.obj
 0003:0000e3dc       ??_C@_0BD@KCJL@ACTIVE_TEXTURE_ARB?$AA@ 004833dc     qgl_win.obj
 0003:0000e3f0       ??_C@_0BO@BBAC@COMPRESSED_RGBA_S3TC_DXT1_EXT?$AA@ 004833f0     qgl_win.obj
 0003:0000e410       ??_C@_0BO@FBEI@COMPRESSED_RGBA_S3TC_DXT3_EXT?$AA@ 00483410     qgl_win.obj
 0003:0000e430       ??_C@_0BO@JBJH@COMPRESSED_RGBA_S3TC_DXT5_EXT?$AA@ 00483430     qgl_win.obj
 0003:0000e450       ??_C@_0N@HLHK@TEXTURE0_ARB?$AA@ 00483450     qgl_win.obj
 0003:0000e460       ??_C@_0N@NLFP@TEXTURE1_ARB?$AA@ 00483460     qgl_win.obj
 0003:0000e470       ??_C@_0N@DLDA@TEXTURE2_ARB?$AA@ 00483470     qgl_win.obj
 0003:0000e480       ??_C@_0N@JLBF@TEXTURE3_ARB?$AA@ 00483480     qgl_win.obj
 0003:0000e490       ??_C@_0BN@LDBH@COMPRESSED_RGB_S3TC_DXT1_EXT?$AA@ 00483490     qgl_win.obj
 0003:0000e4b0       ??_C@_0M@EMKC@COLOR_ARRAY?$AA@ 004834b0     qgl_win.obj
 0003:0000e4bc       ??_C@_0BE@JCFC@TEXTURE_COORD_ARRAY?$AA@ 004834bc     qgl_win.obj
 0003:0000e4d0       ??_C@_0BC@OBEG@MAX_TEXTURES_SGIS?$AA@ 004834d0     qgl_win.obj
 0003:0000e4e4       ??_C@_0O@LKHK@TEXTURE0_SGIS?$AA@ 004834e4     qgl_win.obj
 0003:0000e4f4       ??_C@_0O@CPNK@TEXTURE1_SGIS?$AA@ 004834f4     qgl_win.obj
 0003:0000e504       ??_C@_09NAGI@RGB4_S3TC?$AA@ 00483504     qgl_win.obj
 0003:0000e510       ??_C@_0N@HGH@VERTEX_ARRAY?$AA@ 00483510     qgl_win.obj
 0003:0000e520       ??_C@_05IKJL@CLAMP?$AA@    00483520     qgl_win.obj
 0003:0000e528       ??_C@_06LEAO@REPEAT?$AA@   00483528     qgl_win.obj
 0003:0000e530       ??_C@_04MGA@RGB5?$AA@      00483530     qgl_win.obj
 0003:0000e538       ??_C@_04FIBD@RGB8?$AA@     00483538     qgl_win.obj
 0003:0000e540       ??_C@_05CJDE@RGBA4?$AA@    00483540     qgl_win.obj
 0003:0000e548       ??_C@_07PAAL@RGB5_A1?$AA@  00483548     qgl_win.obj
 0003:0000e550       ??_C@_05NHNA@RGBA8?$AA@    00483550     qgl_win.obj
 0003:0000e558       ??_C@_0P@FPDA@TEXTURE_WRAP_T?$AA@ 00483558     qgl_win.obj
 0003:0000e568       ??_C@_0BG@NGHK@LINEAR_MIPMAP_NEAREST?$AA@ 00483568     qgl_win.obj
 0003:0000e580       ??_C@_0BG@KLGC@NEAREST_MIPMAP_LINEAR?$AA@ 00483580     qgl_win.obj
 0003:0000e598       ??_C@_0BF@IDPG@LINEAR_MIPMAP_LINEAR?$AA@ 00483598     qgl_win.obj
 0003:0000e5b0       ??_C@_0BD@GPCO@TEXTURE_MAG_FILTER?$AA@ 004835b0     qgl_win.obj
 0003:0000e5c4       ??_C@_0BD@HEDF@TEXTURE_MIN_FILTER?$AA@ 004835c4     qgl_win.obj
 0003:0000e5d8       ??_C@_0P@KNF@TEXTURE_WRAP_S?$AA@ 004835d8     qgl_win.obj
 0003:0000e5e8       ??_C@_0BH@PDFC@NEAREST_MIPMAP_NEAREST?$AA@ 004835e8     qgl_win.obj
 0003:0000e600       ??_C@_08CMBM@MODULATE?$AA@ 00483600     qgl_win.obj
 0003:0000e60c       ??_C@_05PJOE@DECAL?$AA@    0048360c     qgl_win.obj
 0003:0000e614       ??_C@_0BB@NLLP@TEXTURE_ENV_MODE?$AA@ 00483614     qgl_win.obj
 0003:0000e628       ??_C@_0BC@DLAE@TEXTURE_ENV_COLOR?$AA@ 00483628     qgl_win.obj
 0003:0000e63c       ??_C@_0M@NBKK@TEXTURE_ENV?$AA@ 0048363c     qgl_win.obj
 0003:0000e648       ??_C@_07LNBJ@NEAREST?$AA@  00483648     qgl_win.obj
 0003:0000e650       ??_C@_06OAFN@LINEAR?$AA@   00483650     qgl_win.obj
 0003:0000e658       ??_C@_07LJIB@REPLACE?$AA@  00483658     qgl_win.obj
 0003:0000e660       ??_C@_06CGGE@DOUBLE?$AA@   00483660     qgl_win.obj
 0003:0000e668       ??_C@_09ODHH@MODELVIEW?$AA@ 00483668     qgl_win.obj
 0003:0000e674       ??_C@_0L@OBAA@PROJECTION?$AA@ 00483674     qgl_win.obj
 0003:0000e680       ??_C@_07DFFE@TEXTURE?$AA@  00483680     qgl_win.obj
 0003:0000e688       ??_C@_04GBFB@LINE?$AA@     00483688     qgl_win.obj
 0003:0000e690       ??_C@_04NCBP@FILL?$AA@     00483690     qgl_win.obj
 0003:0000e698       ??_C@_05JDEL@FLOAT?$AA@    00483698     qgl_win.obj
 0003:0000e6a0       ??_C@_0L@BNFJ@TEXTURE_2D?$AA@ 004836a0     qgl_win.obj
 0003:0000e6ac       ??_C@_04EHOP@BYTE?$AA@     004836ac     qgl_win.obj
 0003:0000e6b4       ??_C@_0O@BAPB@UNSIGNED_BYTE?$AA@ 004836b4     qgl_win.obj
 0003:0000e6c4       ??_C@_05HFLA@SHORT?$AA@    004836c4     qgl_win.obj
 0003:0000e6cc       ??_C@_0P@CEOH@UNSIGNED_SHORT?$AA@ 004836cc     qgl_win.obj
 0003:0000e6dc       ??_C@_03IJOL@INT?$AA@      004836dc     qgl_win.obj
 0003:0000e6e0       ??_C@_0N@JHEK@UNSIGNED_INT?$AA@ 004836e0     qgl_win.obj
 0003:0000e6f0       ??_C@_05FKDH@BLEND?$AA@    004836f0     qgl_win.obj
 0003:0000e6f8       ??_C@_09FFMC@FOG_START?$AA@ 004836f8     qgl_win.obj
 0003:0000e704       ??_C@_07CPCN@FOG_END?$AA@  00483704     qgl_win.obj
 0003:0000e70c       ??_C@_08HJKC@FOG_MODE?$AA@ 0048370c     qgl_win.obj
 0003:0000e718       ??_C@_09KBKG@FOG_COLOR?$AA@ 00483718     qgl_win.obj
 0003:0000e724       ??_C@_0L@BABM@DEPTH_TEST?$AA@ 00483724     qgl_win.obj
 0003:0000e730       ??_C@_0L@GPNO@ALPHA_TEST?$AA@ 00483730     qgl_win.obj
 0003:0000e73c       ??_C@_0M@CNMJ@FOG_DENSITY?$AA@ 0048373c     qgl_win.obj
 0003:0000e748       ??_C@_0BE@LFCA@ONE_MINUS_DST_COLOR?$AA@ 00483748     qgl_win.obj
 0003:0000e75c       ??_C@_0BD@KGEA@SRC_ALPHA_SATURATE?$AA@ 0048375c     qgl_win.obj
 0003:0000e770       ??_C@_05OHBH@FRONT?$AA@    00483770     qgl_win.obj
 0003:0000e778       ??_C@_04FGAG@BACK?$AA@     00483778     qgl_win.obj
 0003:0000e780       ??_C@_0P@JON@FRONT_AND_BACK?$AA@ 00483780     qgl_win.obj
 0003:0000e790       ??_C@_09MPEF@CULL_FACE?$AA@ 00483790     qgl_win.obj
 0003:0000e79c       ??_C@_03OHFM@FOG?$AA@      0048379c     qgl_win.obj
 0003:0000e7a0       ??_C@_09FMPF@DST_COLOR?$AA@ 004837a0     qgl_win.obj
 0003:0000e7ac       ??_C@_09FPBD@SRC_COLOR?$AA@ 004837ac     qgl_win.obj
 0003:0000e7b8       ??_C@_0BE@LGMG@ONE_MINUS_SRC_COLOR?$AA@ 004837b8     qgl_win.obj
 0003:0000e7cc       ??_C@_09LOLG@SRC_ALPHA?$AA@ 004837cc     qgl_win.obj
 0003:0000e7d8       ??_C@_0BE@FHGD@ONE_MINUS_SRC_ALPHA?$AA@ 004837d8     qgl_win.obj
 0003:0000e7ec       ??_C@_09LNFA@DST_ALPHA?$AA@ 004837ec     qgl_win.obj
 0003:0000e7f8       ??_C@_0BE@FEIF@ONE_MINUS_DST_ALPHA?$AA@ 004837f8     qgl_win.obj
 0003:0000e80c       ??_C@_06MJBP@ALWAYS?$AA@   0048380c     qgl_win.obj
 0003:0000e814       ??_C@_05NLLC@NEVER?$AA@    00483814     qgl_win.obj
 0003:0000e81c       ??_C@_04HMEB@LESS?$AA@     0048381c     qgl_win.obj
 0003:0000e824       ??_C@_05FELF@EQUAL?$AA@    00483824     qgl_win.obj
 0003:0000e82c       ??_C@_06MHDN@LEQUAL?$AA@   0048382c     qgl_win.obj
 0003:0000e834       ??_C@_07HOFJ@GREATER?$AA@  00483834     qgl_win.obj
 0003:0000e83c       ??_C@_08NCCF@NOTEQUAL?$AA@ 0048383c     qgl_win.obj
 0003:0000e848       ??_C@_06NENM@GEQUAL?$AA@   00483848     qgl_win.obj
 0003:0000e850       ??_C@_03CICP@ADD?$AA@      00483850     qgl_win.obj
 0003:0000e854       ??_C@_03GGHL@ONE?$AA@      00483854     qgl_win.obj
 0003:0000e858       ??_C@_04LHLC@ZERO?$AA@     00483858     qgl_win.obj
 0003:0000e860       ??_C@_07KMLC@POLYGON?$AA@  00483860     qgl_win.obj
 0003:0000e868       ??_C@_0L@KPMO@QUAD_STRIP?$AA@ 00483868     qgl_win.obj
 0003:0000e874       ??_C@_05MOCA@QUADS?$AA@    00483874     qgl_win.obj
 0003:0000e87c       ??_C@_0N@LKDL@TRIANGLE_FAN?$AA@ 0048387c     qgl_win.obj
 0003:0000e88c       ??_C@_0P@GLMF@TRIANGLE_STRIP?$AA@ 0048388c     qgl_win.obj
 0003:0000e89c       ??_C@_09IKDC@TRIANGLES?$AA@ 0048389c     qgl_win.obj
 0003:0000e8a8       ??_C@_0L@DFPI@LINE_STRIP?$AA@ 004838a8     qgl_win.obj
 0003:0000e8b4       ??_C@_09EOOC@LINE_LOOP?$AA@ 004838b4     qgl_win.obj
 0003:0000e8c0       ??_C@_0M@JAMH@?$CFs?5?$CIGL_?$CFs?$CJ?6?$AA@ 004838c0     qgl_win.obj
 0003:0000e8cc       ??_C@_0BA@NNPA@?$CFs?5?$CIGL_?$CFs?0?5?$CFd?$CJ?6?$AA@ 004838cc     qgl_win.obj
 0003:0000e8dc       ??_C@_0BD@LHJN@?$CFs?5?$CIGL_?$CFs?0?5GL_?$CFs?$CJ?6?$AA@ 004838dc     qgl_win.obj
 0003:0000e8f0       ??_C@_0BF@PLKJ@?$CFs?5?$CI?$CFg?0?5?$CFg?0?5?$CFg?0?5?$CFg?$CJ?6?$AA@ 004838f0     qgl_win.obj
 0003:0000e908       ??_C@_08CFIG@?$CFs?5?$CI?$CFg?$CJ?6?$AA@ 00483908     qgl_win.obj
 0003:0000e914       ??_C@_0BB@NPFI@?$CFs?5?$CI?$CFg?0?5?$CFg?0?5?$CFg?$CJ?6?$AA@ 00483914     qgl_win.obj
 0003:0000e928       ??_C@_0BF@GFM@?$CFs?5?$CI?$CFd?0?5?$CFd?0?5?$CFd?0?5?$CFd?$CJ?6?$AA@ 00483928     qgl_win.obj
 0003:0000e940       ??_C@_0BJ@MPOB@?$CFs?5?$CI?$CFd?0?5GL_?$CFs?0?5?$CFd?0?5$?$CFX?$CJ?6?$AA@ 00483940     qgl_win.obj
 0003:0000e95c       ??_C@_0O@JIGC@?$CFs?5?$CI?$CFd?0?5$?$CFX?$CJ?6?$AA@ 0048395c     qgl_win.obj
 0003:0000e96c       ??_C@_08NDLN@?$CFs?5?$CI?$CFd?$CJ?6?$AA@ 0048396c     qgl_win.obj
 0003:0000e978       ??_C@_0N@CNFJ@?$CFs?5?$CI?$CFg?0?5?$CFg?$CJ?6?$AA@ 00483978     qgl_win.obj
 0003:0000e988       ??_C@_0BM@EJLJ@?$CFs?5?$CIGL_?$CFs?0?5?$CFd?0?5GL_?$CFs?0?5$?$CFX?$CJ?6?$AA@ 00483988     qgl_win.obj
 0003:0000e9a4       ??_C@_0BB@PLBH@?$CFs?5?$CIGL_?$CFs?0?5$?$CFX?$CJ?6?$AA@ 004839a4     qgl_win.obj
 0003:0000e9b8       ??_C@_0BN@BCG@?$CFs?5?$CI?$CFg?0?5?$CFg?0?5?$CFg?0?5?$CFg?0?5?$CFg?0?5?$CFg?$CJ?6?$AA@ 004839b8     qgl_win.obj
 0003:0000e9d8       ??_C@_0CI@ENE@?$CFs?5?$CI?$CFd?0?5?$CFd?0?5?$CFd?0?5?$CFd?0?5GL_?$CFs?0?5GL_?$CFs@ 004839d8     qgl_win.obj
 0003:0000ea00       ??_C@_0BH@GDNB@?$CFs?5?$CIGL_?$CFs?0?5GL_?$CFs?0?5?$CFg?$CJ?6?$AA@ 00483a00     qgl_win.obj
 0003:0000ea18       ??_C@_0BI@GBFP@?$CFs?5?$CIGL_?$CFs?0?5GL_?$CFs?0?5$?$CFX?$CJ?6?$AA@ 00483a18     qgl_win.obj
 0003:0000ea30       ??_C@_0BK@DNBE@?$CFs?5?$CIGL_?$CFs?0?5GL_?$CFs?0?5GL_?$CFs?$CJ?6?$AA@ 00483a30     qgl_win.obj
 0003:0000ea4c       ??_C@_0DG@HMB@?$CFs?5?$CIGL_?$CFs?0?5?$CFd?0?5GL_?$CFs?0?5?$CFd?0?5?$CFd?0?5?$CFd@ 00483a4c     qgl_win.obj
 0003:0000ea84       ??_C@_0BH@JFOK@?$CFs?5?$CIGL_?$CFs?0?5GL_?$CFs?0?5?$CFd?$CJ?6?$AA@ 00483a84     qgl_win.obj
 0003:0000ea9c       ??_C@_0DD@PHF@?$CFs?5?$CIGL_?$CFs?0?5?$CFd?0?5?$CFd?0?5?$CFd?0?5?$CFd?0?5?$CFd?0?5G@ 00483a9c     qgl_win.obj
 0003:0000ead0       ??_C@_0N@KINM@?$CFs?5?$CI?$CFd?0?5?$CFd?$CJ?6?$AA@ 00483ad0     qgl_win.obj
 0003:0000eae0       ??_C@_0EE@GEDG@QGL_Init?3?5inconsistent?5OpenGL?5li@ 00483ae0     qgl_win.obj
 0003:0000eb24       ??_C@_0CD@JMON@QGL_Init?3?5LoadLibrary?5?$CI?$CFs?$CJ?5faile@ 00483b24     qgl_win.obj
 0003:0000eb48       ??_C@_0BI@ECOL@?5?5?5?$CFs?5is?5covered?5by?5?$CFs?6?$AA@ 00483b48     qgl_win.obj
 0003:0000eb60       ??_C@_0BL@ELJI@?4?4?4undetected?5extensions?3?6?$AA@ 00483b60     qgl_win.obj
 0003:0000eb7c       ??_C@_08MJAO@?$FO6?5?5?5?$CFs?6?$AA@ 00483b7c     qgl_win.obj
 0003:0000eb88       ??_C@_0BL@HBLH@?$FO6?4?4?4disabled?5extensions?3?6?$AA@ 00483b88     qgl_win.obj
 0003:0000eba4       ??_C@_0BM@LPPM@?4?4?4no?5extensions?5was?5found?6?$AA@ 00483ba4     qgl_win.obj
 0003:0000ebc0       ??_C@_06GNEC@?5?5?5?$CFs?6?$AA@ 00483bc0     qgl_win.obj
 0003:0000ebc8       ??_C@_0BO@EEB@?5?5?5?$CFs?5ignored?5in?5favor?5of?5?$CFs?6?$AA@ 00483bc8     qgl_win.obj
 0003:0000ebe8       ??_C@_0BF@IGJL@?4?4?4used?5extensions?3?6?$AA@ 00483be8     qgl_win.obj
 0003:0000ec00       ??_C@_0BE@LAAD@?$CFs?5required?5for?5?$CFs?6?$AA@ 00483c00     qgl_win.obj
 0003:0000ec14       ??_C@_0DF@GCHB@Inconsistent?5extension?5?$CFs?3?5funct@ 00483c14     qgl_win.obj
 0003:0000ec4c       ??_C@_0BK@MGMG@wglGetExtensionsStringARB?$AA@ 00483c4c     qgl_win.obj
 0003:0000ec68       ??_C@_0BN@NNJJ@?$CFs?5not?5found?5?9?5try?5alias?5?$CFs?6?$AA@ 00483c68     qgl_win.obj
 0003:0000ec88       ??_C@_0BG@KFCN@Bad?5extension?5string?6?$AA@ 00483c88     qgl_win.obj
 0003:0000eca0       ??_C@_07HAJF@?$CFs?$CFs?5?$FO7?$AA@ 00483ca0     qgl_win.obj
 0003:0000eca8       ??_C@_02FDGL@?$FO4?$AA@    00483ca8     qgl_win.obj
 0003:0000ecac       ??_C@_0BC@KAGG@?$FO1?$CFs?5extensions?3?5?$AA@ 00483cac     qgl_win.obj
 0003:0000ecc0       ??_C@_0DG@BHLE@?6?9?9?9?9?9?9?9?9?9?9?9?9?9?9?9?9?9?9?9?9?9?9?9?9?6?$CFs?9?9?9?9@ 00483cc0     qgl_win.obj
 0003:0000ecf8       ??_C@_09EIMA@?$CFs?1gl?4log?$AA@ 00483cf8     qgl_win.obj
 0003:0000ed04       ??_C@_04LDCD@?5ok?6?$AA@   00483d04     glw_imp.obj
 0003:0000ed0c       ??_C@_0BK@GIGP@?4?4?4setting?5windowed?5mode?6?$AA@ 00483d0c     glw_imp.obj
 0003:0000ed28       ??_C@_08MIMI@?5failed?6?$AA@ 00483d28     glw_imp.obj
 0003:0000ed34       ??_C@_0CH@FLII@?4?4?4calling?5CDS?5assuming?5dual?5mon@ 00483d34     glw_imp.obj
 0003:0000ed5c       ??_C@_0BB@GOGC@?4?4?4calling?5CDS?3?5?$AA@ 00483d5c     glw_imp.obj
 0003:0000ed70       ??_C@_0CG@DLHK@?4?4?4using?5desktop?5display?5depth?5o@ 00483d70     glw_imp.obj
 0003:0000ed98       ??_C@_0BJ@HJFI@?4?4?4using?5bitdepth?5of?5?$CFd?6?$AA@ 00483d98     glw_imp.obj
 0003:0000edb4       ??_C@_0BK@NIFM@?4?4?4attempting?5fullscreen?6?$AA@ 00483db4     glw_imp.obj
 0003:0000edd0       ??_C@_0L@KBPO@?5?$CFd?5?$CFd?5?$CFs?6?$AA@ 00483dd0     glw_imp.obj
 0003:0000eddc       ??_C@_01FJFF@W?$AA@        00483ddc     glw_imp.obj
 0003:0000ede0       ??_C@_0P@MBPJ@?5invalid?5mode?6?$AA@ 00483de0     glw_imp.obj
 0003:0000edf0       ??_C@_0BE@GOGB@?4?4?4setting?5mode?5?$CFd?3?$AA@ 00483df0     glw_imp.obj
 0003:0000ee04       ??_C@_0BN@OHDF@Initializing?5OpenGL?5display?6?$AA@ 00483e04     glw_imp.obj
 0003:0000ee24       ??_C@_0L@PAH@GAMMA?3?5?$CFs?6?$AA@ 00483e24     glw_imp.obj
 0003:0000ee30       ??_C@_08LLFG@software?$AA@ 00483e30     glw_imp.obj
 0003:0000ee3c       ??_C@_08DNLP@hardware?$AA@ 00483e3c     glw_imp.obj
 0003:0000ee48       ??_C@_0BD@PLGO@?4?4?4GetDC?$CI?$CJ?5failed?6?$AA@ 00483e48     glw_imp.obj
 0003:0000ee5c       ??_C@_0BI@KEHD@?4?4?4minidriver?5detected?6?$AA@ 00483e5c     glw_imp.obj
 0003:0000ee74       ??_C@_0CB@BECD@?4?4?4DestoryGLcontext?$CI?$CJ?5failed?4?4?4?6@ 00483e74     glw_imp.obj
 0003:0000ee98       ??_C@_0CB@MDFO@?4?4?4DeactivateGLcontext?$CI?$CJ?5failed?6@ 00483e98     glw_imp.obj
 0003:0000eebc       ??_C@_0CC@HECM@GL?5PFD?3?5color?$CI?$CFd?9bits?$CJ?5Z?$CI?$CFd?9bit?$CJ@ 00483ebc     glw_imp.obj
 0003:0000eee0       ??_C@_0CG@KCEF@?4?4?4no?5hardware?5acceleration?5dete@ 00483ee0     glw_imp.obj
 0003:0000ef08       ??_C@_0M@OLMH@gdi?5generic?$AA@ 00483f08     glw_imp.obj
 0003:0000ef14       ??_C@_0CG@FAPB@GLimp_Init?$CI?$CJ?5?9?5SetPixelFormat?5fa@ 00483f14     glw_imp.obj
 0003:0000ef3c       ??_C@_0CJ@JNOB@GLimp_Init?$CI?$CJ?5?9?5ChoosePixelFormat@ 00483f3c     glw_imp.obj
 0003:0000ef68       ??_C@_0CJ@MPGF@GLimp_Init?$CI?$CJ?5?9?5wglSetPixelFormat@ 00483f68     glw_imp.obj
 0003:0000ef94       ??_C@_0CM@MGMH@GLimp_Init?$CI?$CJ?5?9?5wglChoosePixelFor@ 00483f94     glw_imp.obj
 0003:0000efc0       ??_C@_0BN@GJHJ@?4?4?4CreateGLcontext?$CI?$CJ?5failed?6?$AA@ 00483fc0     glw_imp.obj
 0003:0000efe0       ??_C@_0BP@CPAP@?4?4?4ActivateGLcontext?$CI?$CJ?5failed?6?$AA@ 00483fe0     glw_imp.obj
 0003:0000f000       ??_C@_0BF@MKFF@?4?4?4ReleaseDC?5failed?6?$AA@ 00484000     glw_imp.obj
 0003:0000f018       ??_C@_0BI@DDJC@?4?4?4performing?5shutdown?6?$AA@ 00484018     glw_imp.obj
 0003:0000f030       ??_C@_0CK@PHLH@GLimp_EndFrame?$CI?$CJ?5?9?5SwapBuffers?$CI?$CJ@ 00484030     glw_imp.obj
 0003:0000f05c       ??_C@_0P@BDAP@SwapBuffers?$CI?$CJ?6?$AA@ 0048405c     glw_imp.obj
 0003:0000f06c       ??_C@_0BC@BACP@GLimp_EndFrame?$CI?$CJ?6?$AA@ 0048406c     glw_imp.obj
 0003:0000f0e0       ??_C@_0CN@ECPF@R_AliasSetupFrames?5?$CFs?3?5no?5such?5l@ 004840e0     r_alias.obj
 0003:0000f110       ??_C@_0CN@FLCI@R_AliasSetupFrames?5?$CFs?3?5no?5such?5t@ 00484110     r_alias.obj
 0003:0000f140       ??_C@_0CG@IHP@R_AliasDrawModel?5?$CFs?3?5NULL?5skin?5f@ 00484140     r_alias.obj
 0003:0000f168       ??_C@_0CI@LMKC@R_AliasSetupSkin?5?$CFs?3?5no?5such?5ski@ 00484168     r_alias.obj
 0003:0000f190       ??_C@_0BJ@KFLF@Out?5of?5edges?5for?5bmodel?6?$AA@ 00484190     r_bsp.obj
 0003:0000f1cc       ?next_left_y@@3HA          004841cc     r_draw.obj
 0003:0000f1d0       ?next_right_y@@3HA         004841d0     r_draw.obj
 0003:0000f1d4       ??_C@_08CFBM@conchars?$AA@ 004841d4     r_draw.obj
 0003:0000f1e0       ??_C@_0BK@GEDK@Draw_Pic?3?5bad?5coordinates?$AA@ 004841e0     r_draw.obj
 0003:0000f1fc       ??_C@_0BE@OFJF@Can?8t?5find?5pic?3?5?$CFs?6?$AA@ 004841fc     r_draw.obj
 0003:0000f210       ??_C@_0CF@EAAB@Total?5?$CFi?5images?5with?5texel?5count@ 00484210     r_image.obj
 0003:0000f238       ??_C@_0BG@BFKM@?$CF?93i?5?$CFs?5?$CF?93i?5?$CF?93i?5?$CFs?6?$AA@ 00484238     r_image.obj
 0003:0000f250       ??_C@_03LNJI@skn?$AA@      00484250     r_image.obj
 0003:0000f254       ??_C@_03OAO@spr?$AA@       00484254     r_image.obj
 0003:0000f258       ??_C@_03DION@wal?$AA@      00484258     r_image.obj
 0003:0000f25c       ??_C@_03HGLM@tmp?$AA@      0048425c     r_image.obj
 0003:0000f260       ??_C@_03HLMP@?5?$DP?5?$AA@ 00484260     r_image.obj
 0003:0000f264       ??_C@_0CC@OAEO@?9?9?9?9t?9?9?9w?9?9?9h?9?9?9name?9?9?9?9?9?9?9?9?9?9?9?9@ 00484264     r_image.obj
 0003:0000f288       ??_C@_0M@GKJI@MAX_RIMAGES?$AA@ 00484288     r_image.obj
 0003:0000f294       ??_C@_0BP@NGM@Draw_LoadPic?3?5?$CC?$CFs?$CC?5is?5too?5long?$AA@ 00484294     r_image.obj
 0003:0000f2b4       ??_C@_0BK@CFIO@R_LoadWal?3?5can?8t?5load?5?$CFs?6?$AA@ 004842b4     r_image.obj
 0003:0000f2d0       ??_C@_0CC@DGNL@Unrecognized?5image?5extension?3?5?$CFs@ 004842d0     r_image.obj
 0003:0000f2f4       ??_C@_0BI@BLMG@Cannot?5load?5texture?5?$CFs?6?$AA@ 004842f4     r_image.obj
 0003:0000f30c       ??_C@_05LCPG@pics?1?$AA@   0048430c     r_image.obj
 0003:0000f314       ??_C@_04IDGC@?4?$DP?$DP?$DP?$AA@ 00484314     r_image.obj
 0003:0000f31c       ??_C@_0BN@CIBM@Couldn?8t?5load?5pics?116to8?4dat?$AA@ 0048431c     r_image.obj
 0003:0000f33c       ??_C@_0BB@FGEH@sw_prefer8bittex?$AA@ 0048433c     r_image.obj
 0003:0000f350       ??_C@_0P@OFCI@pics?116to8?4dat?$AA@ 00484350     r_image.obj
 0003:0000f360       ?r_viewlighting@@3Ualight_t@@A 00484360     r_main.obj
 0003:0000f36c       ?r_aliasuvscale@@3MA       0048436c     r_main.obj
 0003:0000f370       ?r_framecount@@3HA         00484370     r_main.obj
 0003:0000f374       ?suf@@3PAPADA              00484374     r_main.obj
 0003:0000f38c       ?r_skysideimage@@3PAHA     0048438c     r_main.obj
 0003:0000f3a4       ??_C@_0N@NHEO@sw_lockpvs?$DN0?$AA@ 004843a4     r_main.obj
 0003:0000f3b4       ??_C@_0P@JOBP@r_lerpmodels?$DN1?$AA@ 004843b4     r_main.obj
 0003:0000f3c4       ??_C@_0M@LOLI@r_dspeeds?$DN0?$AA@ 004843c4     r_main.obj
 0003:0000f3d0       ??_C@_09OJPF@sw_mode?$DN0?$AA@ 004843d0     r_main.obj
 0003:0000f3dc       ??_C@_0P@CPKK@sw_waterwarp?$DN1?$AA@ 004843dc     r_main.obj
 0003:0000f3ec       ??_C@_0BH@IHOF@sw_surfcacheoverride?$DN0?$AA@ 004843ec     r_main.obj
 0003:0000f404       ??_C@_0BC@CHEG@sw_stipplealpha?$DN0?$AA@ 00484404     r_main.obj
 0003:0000f418       ??_C@_0BD@JNCL@sw_reportsurfout?$DN0?$AA@ 00484418     r_main.obj
 0003:0000f42c       ??_C@_0BD@DNKH@sw_reportedgeout?$DN0?$AA@ 0048442c     r_main.obj
 0003:0000f440       ??_C@_0O@KJKM@sw_mipscale?$DN1?$AA@ 00484440     r_main.obj
 0003:0000f450       ??_C@_0M@DELG@sw_mipcap?$DN0?$AA@ 00484450     r_main.obj
 0003:0000f45c       ??_C@_0O@DINP@sw_maxsurfs?$DN0?$AA@ 0048445c     r_main.obj
 0003:0000f46c       ??_C@_0P@GCHL@sw_draworder?$DN0?$AA@ 0048446c     r_main.obj
 0003:0000f47c       ??_C@_0O@PJCN@sw_drawflat?$DN0?$AA@ 0048447c     r_main.obj
 0003:0000f48c       ??_C@_0BA@MOHJ@sw_clearcolor?$DN2?$AA@ 0048448c     r_main.obj
 0003:0000f49c       ??_C@_0BB@BOBH@sw_allow_modex?$DN1?$AA@ 0048449c     r_main.obj
 0003:0000f4b0       ??_C@_0BE@KLMO@sw_polymodelstats?$DN0?$AA@ 004844b0     r_main.obj
 0003:0000f4c4       ??_C@_0M@CNPF@sw_maxedges?$AA@ 004844c4     r_main.obj
 0003:0000f4d0       ??_C@_0BN@EDC@ref_soft?5version?3?5SOFT?50?401?6?$AA@ 004844d0     r_main.obj
 0003:0000f4f0       ??_C@_0BI@HODH@Short?5roughly?5?$CFd?5edges?6?$AA@ 004844f0     r_main.obj
 0003:0000f508       ??_C@_0BD@EAMI@Short?5?$CFd?5surfaces?6?$AA@ 00484508     r_main.obj
 0003:0000f51c       ??_C@_0BO@BODI@R_RenderView?3?5NULL?5worldmodel?$AA@ 0048451c     r_main.obj
 0003:0000f53c       ??_C@_0EA@DNHK@ref_soft?3?3R_BeginFrame?$CI?$CJ?5?9?5fulls@ 0048453c     r_main.obj
 0003:0000f57c       ??_C@_0BG@BAEF@Cannot?5set?5video?5mode?$AA@ 0048457c     r_main.obj
 0003:0000f594       ??_C@_0CP@KDLA@ref_soft?3?3R_BeginFrame?$CI?$CJ?5?9?5could@ 00484594     r_main.obj
 0003:0000f5c4       ??_C@_0BA@OINA@sw_console_only?$AA@ 004845c4     r_main.obj
 0003:0000f5e0       ??_C@_0CB@JALA@?$CF5i?5ms?5?$CF3i?1?$CF3i?1?$CF3i?5poly?5?$CF3i?5surf@ 004845e0     r_misc.obj
 0003:0000f604       ??_C@_0CC@GKJG@?$CF3i?5?$CF2ip?5?$CF2iw?5?$CF2ib?5?$CF2is?5?$CF2ie?5?$CF2i@ 00484604     r_misc.obj
 0003:0000f628       ??_C@_0BJ@JNHJ@?$CF3i?5polygon?5model?5drawn?6?$AA@ 00484628     r_misc.obj
 0003:0000f644       ??_C@_0BG@ENI@Failed?5to?5open?5to?5?$CFs?6?$AA@ 00484644     r_misc.obj
 0003:0000f65c       ??_C@_0BM@CPFJ@?$CFs?1screenshots?1shot?$CF04d?4pcx?$AA@ 0048465c     r_misc.obj
 0003:0000f678       ??_C@_0CP@JLGC@WARNING?3?5unsupported?5?$CCsmall?$CC?5and@ 00484678     r_misc.obj
 0003:0000f6a8       ??_C@_0BE@KMED@Total?5resident?3?5?$CFi?6?$AA@ 004846a8     r_model.obj
 0003:0000f6bc       ??_C@_09EHLB@?$CF8i?5?3?5?$CFs?6?$AA@ 004846bc     r_model.obj
 0003:0000f6c8       ??_C@_0BA@GMNB@Loaded?5models?3?6?$AA@ 004846c8     r_model.obj
 0003:0000f6d8       ??_C@_0CG@HPCL@Mod_NumForName?3?5unknown?5fileid?5f@ 004846d8     r_model.obj
 0003:0000f700       ??_C@_0BN@DJML@Mod_NumForName?3?5?$CFs?5not?5found?$AA@ 00484700     r_model.obj
 0003:0000f720       ??_C@_0CG@CJM@Internal?5error?5while?5loadinf?5BSP@ 00484720     r_model.obj
 0003:0000f748       ??_C@_0BO@PLCA@mod_numknown?5?$DN?$DN?5MAX_MOD_KNOWN?$AA@ 00484748     r_model.obj
 0003:0000f768       ??_C@_0BI@DAMF@bad?5inline?5model?5number?$AA@ 00484768     r_model.obj
 0003:0000f780       ??_C@_0BH@LKJJ@Mod_ForName?3?5NULL?5name?$AA@ 00484780     r_model.obj
 0003:0000f798       ??_C@_0BL@HBDH@Mod_PointInLeaf?3?5bad?5model?$AA@ 00484798     r_model.obj
 0003:0000f7b4       ??_C@_0BN@MMMH@Bad?5surface?5extents?3?5?$CFd?5x?5?$CFd?$AA@ 004847b4     r_model.obj
 0003:0000f7d4       ??_C@_0CD@COFD@MOD_LoadBmodel?3?5bad?5texinfo?5numb@ 004847d4     r_model.obj
 0003:0000f7f8       ??_C@_0BG@JLIP@Surface?5with?5?$CFs?5edges?$AA@ 004847f8     r_model.obj
 0003:0000f810       ??_C@_0CK@NMOI@Mod_ParseMarksurfaces?3?5bad?5surfa@ 00484810     r_model.obj
 0003:0000f83c       ??_C@_0CC@NIFN@Inline?5model?5?$CFi?5has?5bad?5firstnod@ 0048483c     r_model.obj
 0003:0000f860       ??_C@_0CF@GBO@Loaded?5a?5brush?5model?5after?5the?5w@ 00484860     r_model.obj
 0003:0000f888       ??_C@_0BH@IMJD@model?5?$CFs?5has?5no?5frames?$AA@ 00484888     r_model.obj
 0003:0000f8a0       ??_C@_0BK@EBGJ@model?5?$CFs?5has?5no?5triangles?$AA@ 004848a0     r_model.obj
 0003:0000f8bc       ??_C@_0BM@MLIA@model?5?$CFs?5has?5no?5st?5vertices?$AA@ 004848bc     r_model.obj
 0003:0000f8d8       ??_C@_0BP@KFMM@model?5?$CFs?5has?5too?5many?5vertices?$AA@ 004848d8     r_model.obj
 0003:0000f8f8       ??_C@_0BJ@BMCG@model?5?$CFs?5has?5no?5vertices?$AA@ 004848f8     r_model.obj
 0003:0000f914       ??_C@_0CD@DNIE@model?5?$CFs?5has?5a?5skin?5taller?5than?5@ 00484914     r_model.obj
 0003:0000f938       ??_C@_0CO@LDOK@?$CFs?5has?5wrong?5version?5number?5?$CI?$CFi?5@ 00484938     r_model.obj
 0003:0000f968       ??_C@_0CB@KANI@?$CFs?5has?5too?5many?5frames?5?$CI?$CFi?5?$DO?5?$CFi?$CJ@ 00484968     r_model.obj
 0003:0000f98c       ??_C@_0CH@DCLE@R_ClipAndDrawPoly?3?5too?5many?5poin@ 0048498c     r_poly.obj
 0003:0000fdb8       ?edgetables@@3PAUedgetable@@A 00484db8     r_polyse.obj
 0003:0000ff68       ?irtable@@3PAEA            00484f68     r_polyse.obj
 0003:00010068       ?skybox_planes@@3PAHA      00485068     r_rast.obj
 0003:00010098       ?box_surfedges@@3PAHA      00485098     r_rast.obj
 0003:000100f8       ?box_edges@@3PAHA          004850f8     r_rast.obj
 0003:00010158       ?box_faces@@3PAHA          00485158     r_rast.obj
 0003:00010170       ?box_vecs@@3PAY112MA       00485170     r_rast.obj
 0003:00010200       ?box_verts@@3PAY02MA       00485200     r_rast.obj
 0003:00010260       ??_C@_0BJ@GDFM@InitSkyBox?3?5map?5overflow?$AA@ 00485260     r_rast.obj
 0003:0001028c       ??_C@_0BD@KA@?$CFik?5surface?5cache?6?$AA@ 0048528c     r_surf.obj
 0003:000102a0       ??_C@_0BP@BJDK@D_SCAlloc?3?5bad?5cache?5width?5?$CFd?6?$AA@ 004852a0     r_surf.obj
 0003:000102c0       ??_C@_0BO@CAOH@D_SCAlloc?3?5bad?5cache?5size?5?$CFd?6?$AA@ 004852c0     r_surf.obj
 0003:000102e0       ??_C@_0CB@BKBM@D_SCAlloc?3?5hit?5the?5end?5of?5memory@ 004852e0     r_surf.obj
 0003:00010304       ??_C@_0CB@GMCK@D_SCAlloc?3?5?$CFi?5?$DO?5cache?5size?5of?5?$CFi@ 00485304     r_surf.obj
 0003:00010328       ??_C@_0BM@JAMP@?$CK?$CK?$CK?5DDraw?5init?5failure?5?$CK?$CK?$CK?6?$AA@ 00485328     rw_ddraw.obj
 0003:00010344       ??_C@_0BI@EPPJ@?4?4?4locking?5backbuffer?3?5?$AA@ 00485344     rw_ddraw.obj
 0003:0001035c       ??_C@_0BF@DIGP@?4?4?4setting?5palette?3?5?$AA@ 0048535c     rw_ddraw.obj
 0003:00010374       ??_C@_0BG@FFAP@?4?4?4creating?5palette?3?5?$AA@ 00485374     rw_ddraw.obj
 0003:0001038c       ??_C@_0BP@GCNA@?4?4?4creating?5offscreen?5buffer?3?5?$AA@ 0048538c     rw_ddraw.obj
 0003:000103ac       ??_C@_0BK@PPB@?4?4?4creating?5back?5buffer?3?5?$AA@ 004853ac     rw_ddraw.obj
 0003:000103c8       ??_C@_0BA@NBMC@?4?4?4using?5ModeX?6?$AA@ 004853c8     rw_ddraw.obj
 0003:000103d8       ??_C@_0BL@GGCL@?4?4?4creating?5front?5buffer?3?5?$AA@ 004853d8     rw_ddraw.obj
 0003:000103f4       ??_C@_0BB@NJCC@failed?5SDM?5?9?5?$CFs?6?$AA@ 004853f4     rw_ddraw.obj
 0003:00010408       ??_C@_0BB@PHO@failed?5SCL?5?9?5?$CFs?6?$AA@ 00485408     rw_ddraw.obj
 0003:0001041c       ??_C@_0BO@GIBD@?4?4?4attempting?5ModeX?5320x240?3?5?$AA@ 0048541c     rw_ddraw.obj
 0003:0001043c       ??_C@_0BJ@BCKD@?4?4?4setting?5linear?5mode?3?5?$AA@ 0048543c     rw_ddraw.obj
 0003:00010458       ??_C@_0BJ@JNCD@?4?4?4finding?5display?5mode?6?$AA@ 00485458     rw_ddraw.obj
 0003:00010474       ??_C@_0BM@DIJJ@?4?4?4setting?5exclusive?5mode?3?5?$AA@ 00485474     rw_ddraw.obj
 0003:00010490       ??_C@_0N@GNNP@failed?5?9?5?$CFs?6?$AA@ 00485490     rw_ddraw.obj
 0003:000104a0       ??_C@_0CA@CJOD@?4?4?4creating?5DirectDraw?5object?3?5?$AA@ 004854a0     rw_ddraw.obj
 0003:000104c0       ??_C@_0CC@MPEL@?$CK?$CK?$CK?5DirectDrawCreate?5?$DN?$DN?5NULL?5?$CK?$CK?$CK@ 004854c0     rw_ddraw.obj
 0003:000104e4       ??_C@_0BB@DLNE@DirectDrawCreate?$AA@ 004854e4     rw_ddraw.obj
 0003:000104f8       ??_C@_09FAGE@ddraw?4dll?$AA@ 004854f8     rw_ddraw.obj
 0003:00010504       ??_C@_0BH@DAFL@?4?4?4loading?5DDRAW?4DLL?3?5?$AA@ 00485504     rw_ddraw.obj
 0003:0001051c       ??_C@_0BJ@GHJP@Initializing?5DirectDraw?6?$AA@ 0048551c     rw_ddraw.obj
 0003:00010538       ??_C@_0CI@CJGI@DDRAW_SetPalette?$CI?$CJ?5?9?5SetEntries?5@ 00485538     rw_ddraw.obj
 0003:00010560       ??_C@_0BE@OCDE@?4?4?4freeing?5library?6?$AA@ 00485560     rw_ddraw.obj
 0003:00010574       ??_C@_0BL@EHCI@?4?4?4releasing?5lpDirectDraw?6?$AA@ 00485574     rw_ddraw.obj
 0003:00010590       ??_C@_0BP@CAFM@?4?4?4restoring?5normal?5coop?5mode?6?$AA@ 00485590     rw_ddraw.obj
 0003:000105b0       ??_C@_0BL@JDPN@?4?4?4restoring?5display?5mode?6?$AA@ 004855b0     rw_ddraw.obj
 0003:000105cc       ??_C@_0BG@HNDB@?4?4?4releasing?5palette?6?$AA@ 004855cc     rw_ddraw.obj
 0003:000105e4       ??_C@_0BL@PFHH@?4?4?4releasing?5front?5buffer?6?$AA@ 004855e4     rw_ddraw.obj
 0003:00010600       ??_C@_0BK@LNCO@?4?4?4releasing?5back?5buffer?6?$AA@ 00485600     rw_ddraw.obj
 0003:0001061c       ??_C@_0BP@JHKG@?4?4?4releasing?5offscreen?5buffer?6?$AA@ 0048561c     rw_ddraw.obj
 0003:0001063c       ??_C@_0N@DILD@DDERR_UNK_?$CFd?$AA@ 0048563c     rw_ddraw.obj
 0003:0001064c       ??_C@_05LCHN@DD_OK?$AA@    0048564c     rw_ddraw.obj
 0003:00010680       ??_C@_0CC@OGFK@DIB_Init?$CI?$CJ?5?9?5SelectObject?5failed@ 00485680     rw_dib.obj
 0003:000106a4       ??_C@_0CI@HKEP@DIB_Init?$CI?$CJ?5?9?5CreateCompatibleDC?5@ 004856a4     rw_dib.obj
 0003:000106cc       ??_C@_0CG@HOO@DIB_Init?$CI?$CJ?5?9?5CreateDIBSection?5fa@ 004856cc     rw_dib.obj
 0003:000106f4       ??_C@_0BO@EBFA@RealizePalette?5set?5?$CFd?5entries?$AA@ 004856f4     rw_dib.obj
 0003:00010714       ??_C@_0BK@DODO@SelectPalette?5failed?5?$CI?$CFx?$CJ?$AA@ 00485714     rw_dib.obj
 0003:00010730       ??_C@_0BK@BLCC@CreatePalette?5failed?5?$CI?$CFx?$CJ?$AA@ 00485730     rw_dib.obj
 0003:0001074c       ??_C@_0BN@IFOM@SetSystemPaletteUse?$CI?$CJ?5failed?$AA@ 0048574c     rw_dib.obj
 0003:0001076c       ??_C@_0BI@NGKK@SetDIBColorTable?5failed?$AA@ 0048576c     rw_dib.obj
 0003:00010784       ??_C@_0CM@ICKK@Failed?5to?5set?5a?5valid?5mode?5in?5wi@ 00485784     rw_imp.obj
 0003:000107b0       ??_C@_0BB@CIOD@setting?5mode?5?$CFd?3?$AA@ 004857b0     rw_imp.obj
 0003:000107c4       ??_C@_0BG@NDB@Shutting?5down?5SW?5imp?6?$AA@ 004857c4     rw_imp.obj
 0003:000107e4       ??_C@_0BH@PBLF@incorrect?5length?5check?$AA@ 004857e4     lib:inflate.obj
 0003:000107fc       ??_C@_0BF@OBFI@incorrect?5data?5check?$AA@ 004857fc     lib:inflate.obj
 0003:00010814       ??_C@_0BO@EEIF@invalid?5distance?5too?5far?5back?$AA@ 00485814     lib:inflate.obj
 0003:00010834       ??_C@_0BG@EGK@invalid?5distance?5code?$AA@ 00485834     lib:inflate.obj
 0003:0001084c       ??_C@_0BM@CHJP@invalid?5literal?1length?5code?$AA@ 0048584c     lib:inflate.obj
 0003:00010868       ??_C@_0BG@DILP@invalid?5distances?5set?$AA@ 00485868     lib:inflate.obj
 0003:00010880       ??_C@_0BM@BLEK@invalid?5literal?1lengths?5set?$AA@ 00485880     lib:inflate.obj
 0003:0001089c       ??_C@_0BK@BNJN@invalid?5bit?5length?5repeat?$AA@ 0048589c     lib:inflate.obj
 0003:000108b8       ??_C@_0BJ@PEEP@invalid?5code?5lengths?5set?$AA@ 004858b8     lib:inflate.obj
 0003:000108d4       ??_C@_0CE@LAKP@too?5many?5length?5or?5distance?5symb@ 004858d4     lib:inflate.obj
 0003:000108f8       ??_C@_0BN@DBOJ@invalid?5stored?5block?5lengths?$AA@ 004858f8     lib:inflate.obj
 0003:00010918       ??_C@_0BD@IFBC@invalid?5block?5type?$AA@ 00485918     lib:inflate.obj
 0003:0001092c       ??_C@_0BE@GABH@header?5crc?5mismatch?$AA@ 0048592c     lib:inflate.obj
 0003:00010940       ??_C@_0BJ@LBGI@unknown?5header?5flags?5set?$AA@ 00485940     lib:inflate.obj
 0003:0001095c       ??_C@_0BH@NLIB@incorrect?5header?5check?$AA@ 0048595c     lib:inflate.obj
 0003:00010974       ??_C@_0BE@FAJE@invalid?5window?5size?$AA@ 00485974     lib:inflate.obj
 0003:00010988       ??_C@_0BL@KPEJ@unknown?5compression?5method?$AA@ 00485988     lib:inflate.obj
 0003:000109a4       ??_C@_0BF@HPBB@incompatible?5version?$AA@ 004859a4     lib:zutil.obj
 0003:000109bc       ??_C@_0N@EHHN@buffer?5error?$AA@ 004859bc     lib:zutil.obj
 0003:000109cc       ??_C@_0BE@EMHE@insufficient?5memory?$AA@ 004859cc     lib:zutil.obj
 0003:000109e0       ??_C@_0L@EBEB@data?5error?$AA@ 004859e0     lib:zutil.obj
 0003:000109ec       ??_C@_0N@OPOA@stream?5error?$AA@ 004859ec     lib:zutil.obj
 0003:000109fc       ??_C@_0L@DFEP@file?5error?$AA@ 004859fc     lib:zutil.obj
 0003:00010a08       ??_C@_0L@JPFB@stream?5end?$AA@ 00485a08     lib:zutil.obj
 0003:00010a14       ??_C@_0BA@FKCH@need?5dictionary?$AA@ 00485a14     lib:zutil.obj
 0003:00010a30       ??_R0?AVtype_info@@@8      00485a30     MSVCRT:ti_inst.obj
 0003:00010a48       ___defaultmatherr          00485a48     MSVCRT:merr.obj
 0003:0001ab98       ?active_beams@@3PAUbeam_s@@A 0048fb98     cl_fx.obj
 0003:000657a0       ?cl_lightstyles@@3PAUlightstyle_t@@A 004da7a0     cl_fx.obj
 0003:0006a144       ?active_particles@@3PAUparticle_s@@A 004df144     cl_fx.obj
 0003:0006a19c       ?cl_run@@3PAUcvar_s@@A     004df19c     cl_input.obj
 0003:0006a1a0       ?cl_forwardspeed@@3PAUcvar_s@@A 004df1a0     cl_input.obj
 0003:0006a1a8       ?cl_yawspeed@@3PAUcvar_s@@A 004df1a8     cl_input.obj
 0003:0006a228       ?in_Speed@@3Ukbutton_t@@A  004df228     cl_input.obj
 0003:0006a26c       ?cl_sidespeed@@3PAUcvar_s@@A 004df26c     cl_input.obj
 0003:0006a288       ?in_Strafe@@3Ukbutton_t@@A 004df288     cl_input.obj
 0003:0006a2b8       ?cl_upspeed@@3PAUcvar_s@@A 004df2b8     cl_input.obj
 0003:0006a2d4       ?cl_pitchspeed@@3PAUcvar_s@@A 004df2d4     cl_input.obj
 0003:0006a2d8       ?cl_anglespeedkey@@3PAUcvar_s@@A 004df2d8     cl_input.obj
 0003:0006a2e0       ?cl_3rd_person@@3PAUcvar_s@@A 004df2e0     cl_main.obj
 0003:0006a2e4       ?cl_gun@@3PAUcvar_s@@A     004df2e4     cl_main.obj
 0003:0006a2e8       ?rcon_address@@3PAUcvar_s@@A 004df2e8     cl_main.obj
 0003:0006a330       ?cl_entities@@3PAUcentity_t@@A 004df330     cl_main.obj
 0003:000eb330       ?cl_stereo@@3PAUcvar_s@@A  00560330     cl_main.obj
 0003:000eb334       ?m_pitch@@3PAUcvar_s@@A    00560334     cl_main.obj
 0003:000eb338       ?cl_noskins@@3PAUcvar_s@@A 00560338     cl_main.obj
 0003:000eb340       ?cls@@3Uclient_static_t@@A 00560340     cl_main.obj
 0003:000f3548       ?freelook@@3PAUcvar_s@@A   00568548     cl_main.obj
 0003:000f3550       ?cl_parse_entities@@3PAUentityState_t@@A 00568550     cl_main.obj
 0003:0011c550       ?cl_shownet@@3PAUcvar_s@@A 00591550     cl_main.obj
 0003:0011c554       ?r_sfx_pause@@3PAUcvar_s@@A 00591554     cl_main.obj
 0003:0011c558       ?fov@@3PAUcvar_s@@A        00591558     cl_main.obj
 0003:0011c55c       ?cl_timeout@@3PAUcvar_s@@A 0059155c     cl_main.obj
 0003:0011c560       ?info_password@@3PAUcvar_s@@A 00591560     cl_main.obj
 0003:0011c564       ?cl_showmiss@@3PAUcvar_s@@A 00591564     cl_main.obj
 0003:0011c568       ?lookspring@@3PAUcvar_s@@A 00591568     cl_main.obj
 0003:0011c56c       ?cl_vwep@@3PAUcvar_s@@A    0059156c     cl_main.obj
 0003:0011c570       ?name@@3PAUcvar_s@@A       00591570     cl_main.obj
 0003:0011c574       ?cl_add_particles@@3PAUcvar_s@@A 00591574     cl_main.obj
 0003:0011c578       ?cl_footsteps@@3PAUcvar_s@@A 00591578     cl_main.obj
 0003:0011c57c       ?msg@@3PAUcvar_s@@A        0059157c     cl_main.obj
 0003:0011c580       ?cl_cameraheight@@3PAUcvar_s@@A 00591580     cl_main.obj
 0003:0011c584       ?gender@@3PAUcvar_s@@A     00591584     cl_main.obj
 0003:0011c588       ?lookstrafe@@3PAUcvar_s@@A 00591588     cl_main.obj
 0003:0011c58c       ?info_spectator@@3PAUcvar_s@@A 0059158c     cl_main.obj
 0003:0011c590       ?railtype@@3PAUcvar_s@@A   00591590     cl_main.obj
 0003:0011c598       ?cl@@3Uclient_state_t@@A   00591598     cl_main.obj
 0003:00151d7c       ?m_side@@3PAUcvar_s@@A     005c6d7c     cl_main.obj
 0003:00151d80       ?rcon_client_password@@3PAUcvar_s@@A 005c6d80     cl_main.obj
 0003:00151d84       ?cl_maxfps@@3PAUcvar_s@@A  005c6d84     cl_main.obj
 0003:00151d88       ?gender_auto@@3PAUcvar_s@@A 005c6d88     cl_main.obj
 0003:00151d8c       ?cl_showclamp@@3PAUcvar_s@@A 005c6d8c     cl_main.obj
 0003:00151d90       ?rate@@3PAUcvar_s@@A       005c6d90     cl_main.obj
 0003:00151d94       ?cl_add_blend@@3PAUcvar_s@@A 005c6d94     cl_main.obj
 0003:00151d98       ?m_yaw@@3PAUcvar_s@@A      005c6d98     cl_main.obj
 0003:00151da0       ?cl_extProtocol@@3PAUcvar_s@@A 005c6da0     cl_main.obj
 0003:00151db0       ?m_forward@@3PAUcvar_s@@A  005c6db0     cl_main.obj
 0003:00151db4       ?cl_stereo_separation@@3PAUcvar_s@@A 005c6db4     cl_main.obj
 0003:00151db8       ?cl_newfx@@3PAUcvar_s@@A   005c6db8     cl_main.obj
 0003:00151dbc       ?cl_add_entities@@3PAUcvar_s@@A 005c6dbc     cl_main.obj
 0003:00151dc0       ?skin@@3PAUcvar_s@@A       005c6dc0     cl_main.obj
 0003:00151dc4       ?cl_infps@@3PAUcvar_s@@A   005c6dc4     cl_main.obj
 0003:00151dc8       ?cl_cameradist@@3PAUcvar_s@@A 005c6dc8     cl_main.obj
 0003:00151dcc       ?cl_predict@@3PAUcvar_s@@A 005c6dcc     cl_main.obj
 0003:00151dd0       ?hand@@3PAUcvar_s@@A       005c6dd0     cl_main.obj
 0003:00151dd4       ?sensitivity@@3PAUcvar_s@@A 005c6dd4     cl_main.obj
 0003:00151dd8       ?cl_add_lights@@3PAUcvar_s@@A 005c6dd8     cl_main.obj
 0003:00151ddc       ?cl_showbboxes@@3PAUcvar_s@@A 005c6ddc     cl_main.obj
 0003:00151de0       ?cl_paused@@3PAUcvar_s@@A  005c6de0     cl_main.obj
 0003:00151de4       ?railcolor@@3PAUcvar_s@@A  005c6de4     cl_main.obj
 0003:00151e2c       ?cl_autoskins@@3PAUcvar_s@@A 005c6e2c     cl_main.obj
 0003:00151e34       ??_C@_00A@?$AA@            005c6e34     cl_main.obj
 0003:00151e7c       ?crosshair@@3PAUcvar_s@@A  005c6e7c     cl_scrn.obj
 0003:001523a8       ?crosshairColor@@3PAUcvar_s@@A 005c73a8     cl_scrn.obj
 0003:001523ac       ?scr_viewsize@@3PAUcvar_s@@A 005c73ac     cl_scrn.obj
 0003:00152438       ?scr_vrect@@3Uvrect_s@@A   005c7438     cl_scrn.obj
 0003:00154be8       ?cl_mod_lightning@@3PAUmodel_s@@A 005c9be8     cl_tent.obj
 0003:00154bec       ?cl_mod_explo4_big@@3PAUmodel_s@@A 005c9bec     cl_tent.obj
 0003:00154bf0       ?cl_mod_parasite_tip@@3PAUmodel_s@@A 005c9bf0     cl_tent.obj
 0003:00154bf4       ?cl_mod_parasite_segment@@3PAUmodel_s@@A 005c9bf4     cl_tent.obj
 0003:00154bf8       ?cl_sfx_fallshort2@@3PAPAUsfx_s@@A 005c9bf8     cl_tent.obj
 0003:00154c28       ?cl_mod_flash@@3PAUmodel_s@@A 005c9c28     cl_tent.obj
 0003:00154c2c       ?cl_sfx_disrexp@@3PAUsfx_s@@A 005c9c2c     cl_tent.obj
 0003:001552b0       ?cl_mod_bfg_explo@@3PAUmodel_s@@A 005ca2b0     cl_tent.obj
 0003:001552b8       ?cl_sustains@@3PAUcl_sustain_s@@A 005ca2b8     cl_tent.obj
 0003:00155a38       ?cl_sfx_lightning@@3PAUsfx_s@@A 005caa38     cl_tent.obj
 0003:00155a3c       ?cl_sfx_spark5@@3PAUsfx_s@@A 005caa3c     cl_tent.obj
 0003:00155a40       ?cl_sfx_spark6@@3PAUsfx_s@@A 005caa40     cl_tent.obj
 0003:00155a44       ?cl_sfx_spark7@@3PAUsfx_s@@A 005caa44     cl_tent.obj
 0003:00155a48       ?cl_mod_smoke@@3PAUmodel_s@@A 005caa48     cl_tent.obj
 0003:00155a4c       ?cl_mod_powerscreen@@3PAUmodel_s@@A 005caa4c     cl_tent.obj
 0003:00155a50       ?cl_sfx_lashit@@3PAUsfx_s@@A 005caa50     cl_tent.obj
 0003:00155a58       ?cl_explosions@@3PAUexplosion_t@@A 005caa58     cl_tent.obj
 0003:001568d8       ?cl_mod_grapple_cable@@3PAUmodel_s@@A 005cb8d8     cl_tent.obj
 0003:00156924       ?cl_sfx_watrexp@@3PAUsfx_s@@A 005cb924     cl_tent.obj
 0003:00156928       ?cl_mod_monster_heatbeam@@3PAUmodel_s@@A 005cb928     cl_tent.obj
 0003:0015692c       ?cl_mod_explode@@3PAUmodel_s@@A 005cb92c     cl_tent.obj
 0003:00156930       ?cl_sfx_footsteps2@@3PAPAUsfx_s@@A 005cb930     cl_tent.obj
 0003:001569f0       ?cl_mod_explo4@@3PAUmodel_s@@A 005cb9f0     cl_tent.obj
 0003:001569f8       ?cl_sfx_plasexp@@3PAUsfx_s@@A 005cb9f8     cl_tent.obj
 0003:001569fc       ?cl_sfx_rockexp@@3PAUsfx_s@@A 005cb9fc     cl_tent.obj
 0003:00156a00       ?cl_sfx_fallshort@@3PAUsfx_s@@A 005cba00     cl_tent.obj
 0003:00156a04       ?cl_mod_plasmaexplo@@3PAUmodel_s@@A 005cba04     cl_tent.obj
 0003:00156a08       ?cl_sfx_footsteps@@3PAPAUsfx_s@@A 005cba08     cl_tent.obj
 0003:00156a18       ?cl_sfx_camper@@3PAPAUsfx_s@@A 005cba18     cl_tent.obj
 0003:00156a3c       ?cl_sfx_railg@@3PAUsfx_s@@A 005cba3c     cl_tent.obj
 0003:00156a40       ?cl_sfx_ric@@3PAPAUsfx_s@@A 005cba40     cl_tent.obj
 0003:00156a4c       ?cl_sfx_grenexp@@3PAUsfx_s@@A 005cba4c     cl_tent.obj
 0003:00156a50       ?cl_mod_heatbeam@@3PAUmodel_s@@A 005cba50     cl_tent.obj
 0003:00156dd8       ?r_surfinfo@@3PAUcvar_s@@A 005cbdd8     cl_view.obj
 0003:00196de4       ?num_cl_weaponmodels@@3HA  0060bde4     cl_view.obj
 0003:00196df0       ?r_drawfps@@3PAUcvar_s@@A  0060bdf0     cl_view.obj
 0003:00196df8       ?cl_testlights@@3PAUcvar_s@@A 0060bdf8     cl_view.obj
 0003:00196dfc       ?cl_testparticles@@3PAUcvar_s@@A 0060bdfc     cl_view.obj
 0003:00196e00       ?cl_testblend@@3PAUcvar_s@@A 0060be00     cl_view.obj
 0003:00196e0c       ?cl_weaponmodels@@3PAY0EA@DA 0060be0c     cl_view.obj
 0003:0019730c       ?r_playerpos@@3PAUcvar_s@@A 0060c30c     cl_view.obj
 0003:001b051c       ?cl_testentities@@3PAUcvar_s@@A 0062551c     cl_view.obj
 0003:001c0594       ?editPos@@3HA              00635594     console.obj
 0003:001c059c       ?con_height@@3HA           0063559c     console.obj
 0003:001c05a0       ?editLine@@3PADA           006355a0     console.obj
 0003:001c27b0       ?keydown@@3PA_NA           006377b0     keys.obj
 0003:001c29b8       ?keysDown@@3HA             006379b8     keys.obj
 0003:001c7bc8       ?m_menudepth@@3HA          0063cbc8     menu.obj
 0003:001cc430       ?m_layers@@3PAU__unnamed@@A 00641430     menu.obj
 0003:001d1818       ?vid_ref@@3PAUcvar_s@@A    00646818     ref_vars.obj
 0003:001d181c       ?r_lightmap@@3PAUcvar_s@@A 0064681c     ref_vars.obj
 0003:001d1820       ?r_gamma@@3PAUcvar_s@@A    00646820     ref_vars.obj
 0003:001d1824       ?r_contrast@@3PAUcvar_s@@A 00646824     ref_vars.obj
 0003:001d1828       ?r_brightness@@3PAUcvar_s@@A 00646828     ref_vars.obj
 0003:001d182c       ?r_fullscreen@@3PAUcvar_s@@A 0064682c     ref_vars.obj
 0003:001d1830       ?r_saturation@@3PAUcvar_s@@A 00646830     ref_vars.obj
 0003:001d1834       ?r_fullbright@@3PAUcvar_s@@A 00646834     ref_vars.obj
 0003:001d1884       ?s_khz@@3PAUcvar_s@@A      00646884     snd_dma.obj
 0003:001d188c       ?paintedtime@@3HA          0064688c     snd_dma.obj
 0003:001d1898       ?dma@@3Udma_t@@A           00646898     snd_dma.obj
 0003:001d18b4       ?s_loadas8bit@@3PAUcvar_s@@A 006468b4     snd_dma.obj
 0003:001d18bc       ?s_show@@3PAUcvar_s@@A     006468bc     snd_dma.obj
 0003:001d18c0       ?s_pendingplays@@3Uplaysound_s@@A 006468c0     snd_dma.obj
 0003:001d18f0       ?s_primary@@3PAUcvar_s@@A  006468f0     snd_dma.obj
 0003:001e30f8       ?s_volume@@3PAUcvar_s@@A   006580f8     snd_dma.obj
 0003:001e3108       ?s_rawsamples@@3PAUportable_samplepair_t@@A 00658108     snd_dma.obj
 0003:001f3108       ?female_model_buf@@3PADA   00668108     snd_dma.obj
 0003:001f4d08       ?s_rawend@@3HA             00669d08     snd_dma.obj
 0003:001f4d0c       ?s_testsound@@3PAUcvar_s@@A 00669d0c     snd_dma.obj
 0003:001f4d14       ?s_mixahead@@3PAUcvar_s@@A 00669d14     snd_dma.obj
 0003:001f4d30       ?female_models@@3PAPADA    00669d30     snd_dma.obj
 0003:001f4e38       ?channels@@3PAUchannel_t@@A 00669e38     snd_dma.obj
 0003:001f5538       ?s_reverse_stereo@@3PAUcvar_s@@A 0066a538     snd_dma.obj
 0003:001f5554       ?cache_full_cycle@@3HA     0066a554     snd_mem.obj
 0003:001f5560       ?snd_linear_count@@3HA     0066a560     snd_mix.obj
 0003:001f5568       ?paintbuffer@@3PAUportable_samplepair_t@@A 0066a568     snd_mix.obj
 0003:001f9568       ?snd_out@@3PAFA            0066e568     snd_mix.obj
 0003:001f956c       ?snd_scaletable@@3PAY0BAA@HA 0066e56c     snd_mix.obj
 0003:0020156c       ?snd_vol@@3HA              0067656c     snd_mix.obj
 0003:00201570       ?snd_p@@3PAHA              00676570     snd_mix.obj
 0003:00203d78       ?fatpvs@@3PAEA             00678d78     sv_ents.obj
 0003:00205d7c       ?prof_counts@@3PAHA        0067ad7c     sv_game.obj
 0003:0020617c       ?prof_times@@3PAHA         0067b17c     sv_game.obj
 0003:00206580       ?ge@@3PAUgame_export_t@@A  0067b580     sv_game.obj
 0003:00206588       ?svs@@3Userver_static_t@@A 0067b588     sv_init.obj
 0003:00211648       ?sv@@3Userver_t@@A         00686648     sv_init.obj
 0003:0024f2d0       ?allow_download_sounds@@3PAUcvar_s@@A 006c42d0     sv_main.obj
 0003:0024f2d8       ?master_adr@@3PAUnetadr_t@@A 006c42d8     sv_main.obj
 0003:00253368       ?allow_download_maps@@3PAUcvar_s@@A 006c8368     sv_main.obj
 0003:0025337c       ?sv_extProtocol@@3PAUcvar_s@@A 006c837c     sv_main.obj
 0003:00253380       ?sv_client@@3PAUclient_s@@A 006c8380     sv_main.obj
 0003:002533a0       ?allow_download@@3PAUcvar_s@@A 006c83a0     sv_main.obj
 0003:002533a4       ?sv_enforcetime@@3PAUcvar_s@@A 006c83a4     sv_main.obj
 0003:002533ac       ?sv_airaccelerate@@3PAUcvar_s@@A 006c83ac     sv_main.obj
 0003:002533b0       ?sv_noreload@@3PAUcvar_s@@A 006c83b0     sv_main.obj
 0003:002533b4       ?allow_download_players@@3PAUcvar_s@@A 006c83b4     sv_main.obj
 0003:002533b8       ?allow_download_models@@3PAUcvar_s@@A 006c83b8     sv_main.obj
 0003:002533c0       ?sv_paused@@3PAUcvar_s@@A  006c83c0     sv_main.obj
 0003:002533c4       ?maxclients@@3PAUcvar_s@@A 006c83c4     sv_main.obj
 0003:00257910       ?sv_player@@3PAUedict_s@@A 006cc910     sv_user.obj
 0003:00272f6c       ?cmdFuncs@@3PAUcmdFunc_s@@A 006e7f6c     cmd.obj
 0003:00272f70       ?cmdAlias@@3PAUcmdAlias_s@@A 006e7f70     cmd.obj
 0003:00336970       ?map_surfaces@@3PAUcsurface_t@@A 007ab970     cmodel.obj
 0003:0056e9d8       ?c_pointcontents@@3HA      009e39d8     cmodel.obj
 0003:00630a34       ?trace_skipAlpha@@3_NA     00aa5a34     cmodel.obj
 0003:00630a48       ?map_clientLoaded@@3_NA    00aa5a48     cmodel.obj
 0003:00630a54       ?c_traces@@3HA             00aa5a54     cmodel.obj
 0003:00770b50       ?map_name@@3PADA           00be5b50     cmodel.obj
 0003:00770bac       ?numtexinfo@@3HA           00be5bac     cmodel.obj
 0003:00770bc0       ?map_bspfile@@3PAUbspfile_t@@A 00be5bc0     cmodel.obj
 0003:00770bc8       ?timescale@@3PAUcvar_s@@A  00be5bc8     common.obj
 0003:007713cc       ?dedicated@@3PAUcvar_s@@A  00be63cc     common.obj
 0003:007713d0       ?developer@@3PAUcvar_s@@A  00be63d0     common.obj
 0003:007713d8       ?time_before_ref@@3HA      00be63d8     common.obj
 0003:00771410       ?time_after_ref@@3HA       00be6410     common.obj
 0003:00771418       ?time_before_game@@3HA     00be6418     common.obj
 0003:00771420       ?GErr@@3UerrorState_t@@A   00be6420     common.obj
 0003:007724c0       ?sv_cheats@@3PAUcvar_s@@A  00be74c0     common.obj
 0003:007724fc       ?com_speeds@@3PAUcvar_s@@A 00be74fc     common.obj
 0003:00773504       ?time_after_game@@3HA      00be8504     common.obj
 0003:0077400c       ?realtime@@3HA             00be900c     common.obj
 0003:00774010       ?timedemo@@3PAUcvar_s@@A   00be9010     common.obj
 0003:00774015       ?debugLogged@@3_NA         00be9015     common.obj
 0003:00774220       ?userinfo_modified@@3_NA   00be9220     cvar.obj
 0003:00774224       ?cvar_vars@@3PAUcvar_s@@A  00be9224     cvar.obj
 0003:00774628       ?cvar_initialized@@3HA     00be9628     cvar.obj
 0003:00774758       ?fileFromPak@@3HA          00be9758     files.obj
 0003:00774764       ?fs_gamedirvar@@3PAUcvar_s@@A 00be9764     files.obj
 0003:0077b528       ?showdrop@@3PAUcvar_s@@A   00bf0528     net_chan.obj
 0003:0077f528       ?net_message@@3Usizebuf_s@@A 00bf4528     net_chan.obj
 0003:0077f53c       ?net_message_buffer@@3PAEA 00bf453c     net_chan.obj
 0003:0078353c       ?qport@@3PAUcvar_s@@A      00bf853c     net_chan.obj
 0003:00783540       ?net_from@@3Unetadr_t@@A   00bf8540     net_chan.obj
 0003:00783554       ?showpackets@@3PAUcvar_s@@A 00bf8554     net_chan.obj
 0003:007835d4       ?pm_airaccelerate@@3MA     00bf85d4     pmove.obj
 0003:00783de8       ?paged_total@@3HA          00bf8de8     q_shared2.obj
 0003:00783dec       ?vec3_origin@@3PAMA        00bf8dec     q_shared2.obj
 0003:00783ed4       ?in_joystick@@3PAUcvar_s@@A 00bf8ed4     in_win.obj
 0003:00783fed       ?in_needRestart@@3_NA      00bf8fed     in_win.obj
 0003:00784000       ?net_shownet@@3PAUcvar_s@@A 00bf9000     net_wins.obj
 0003:007c4350       ?curtime@@3HA              00c39350     q_shwin.obj
 0003:007c43a0       ?locksize@@3KA             00c393a0     snd_win.obj
 0003:007c44b0       ?sys_msg_time@@3IA         00c394b0     sys_win.obj
 0003:007c44b8       ?global_hInstance@@3PAUHINSTANCE__@@A 00c394b8     sys_win.obj
 0003:007c44bc       ?Minimized@@3_NA           00c394bc     sys_win.obj
 0003:007c44bd       ?ActiveApp@@3_NA           00c394bd     sys_win.obj
 0003:007c4550       ?sys_frame_time@@3IA       00c39550     sys_win.obj
 0003:007c4658       ?starttime@@3HA            00c39658     sys_win.obj
 0003:007c4778       ?win_noalttab@@3PAUcvar_s@@A 00c39778     vid_dll.obj
 0003:007c47bc       ?cl_hwnd@@3PAUHWND__@@A    00c397bc     vid_dll.obj
 0003:007c4858       ?re@@3UrefExport_t@@A      00c39858     vid_dll.obj
 0003:007c48e0       ?win_priorityBoost@@3PAUcvar_s@@A 00c398e0     vid_dll.obj
 0003:007c48e8       ?viddef@@3Uviddef_t@@A     00c398e8     vid_dll.obj
 0003:007c5128       ?gl_numVerts@@3HA          00c3a128     gl_backend.obj
 0003:007da5e8       ?backendCmdSize@@3HA       00c4f5e8     gl_backend.obj
 0003:007da5f0       ?backendCommands@@3PAEA    00c4f5f0     gl_backend.obj
 0003:007ea5f0       ?gl_numIndexes@@3HA        00c5f5f0     gl_backend.obj
 0003:0082a5fc       ?lastBackendCommand@@3PAEA 00c9f5fc     gl_backend.obj
 0003:0082a888       ?gl_indexesArray@@3PAHA    00c9f888     gl_backend.obj
 0003:00842890       ?gl_extra@@3PAUbufExtra_t@@A 00cb7890     gl_backend.obj
 0003:0085e894       ?gl_numExtra@@3HA          00cd3894     gl_backend.obj
 0003:0097e8ac       ?gl_fogEnd@@3MA            00df38ac     gl_frontend.obj
 0003:0097e8b0       ?gl_fogColor@@3PAMA        00df38b0     gl_frontend.obj
 0003:0097e8c0       ?gl_dlights@@3PAUrefDlight_t@@A 00df38c0     gl_frontend.obj
 0003:0097f8c8       ?gl_numEntities@@3HA       00df48c8     gl_frontend.obj
 0003:0097f8d0       ?vp@@3UviewPortal_s@@A     00df48d0     gl_frontend.obj
 0003:0097fa50       ?gl_fogStart@@3MA          00df4a50     gl_frontend.obj
 0003:0097fa54       ?gl_numDlights@@3HA        00df4a54     gl_frontend.obj
 0003:0097fa58       ?gl_fogMode@@3IA           00df4a58     gl_frontend.obj
 0003:0097fa60       ?gl_entities@@3PAUrefEntity_s@@A 00df4a60     gl_frontend.obj
 0003:009b1998       ?gl_fogDensity@@3MA        00e26998     gl_frontend.obj
 0003:009cd9d4       ?gl_identityLightImage@@3PAUimage_s@@A 00e429d4     gl_image.obj
 0003:009cdad8       ?gl_dlightImage@@3PAUimage_s@@A 00e42ad8     gl_image.obj
 0003:009cdadc       ?gl_reflImage@@3PAUimage_s@@A 00e42adc     gl_image.obj
 0003:009cdee0       ?gl_particleImage@@3PAUimage_s@@A 00e42ee0     gl_image.obj
 0003:009cdee4       ?gl_defaultImage@@3PAUimage_s@@A 00e42ee4     gl_image.obj
 0003:009cdeec       ?gl_videoImage@@3PAUimage_s@@A 00e42eec     gl_image.obj
 0003:009ce2f0       ?gl_screenshotFlags@@3HA   00e432f0     gl_image.obj
 0003:009cf2fc       ?gl_screenshotName@@3PADA  00e442fc     gl_image.obj
 0003:009cf300       ?gl_reflImage2@@3PAUimage_s@@A 00e44300     gl_image.obj
 0003:009cf308       ?gl_config@@3Uglconfig_t@@A 00e44308     gl_interface.obj
 0003:009cf750       ?gl_state@@3Uglstate_t@@A  00e44750     gl_interface.obj
 0003:009cfdc0       ?lmMinlight@@3Tcolor_t@@A  00e44dc0     gl_lightmap.obj
 0003:009d05d0       ?gl_speeds@@3UdrawSpeeds_t@@A 00e455d0     gl_main.obj
 0003:009d0644       ?gl_lightLines@@3PAUcvar_s@@A 00e45644     gl_main.obj
 0003:009d0648       ?gl_oCull@@3PAUcvar_s@@A   00e45648     gl_main.obj
 0003:009d0650       ?gl_refdef@@3Uglrefdef_t@@A 00e45650     gl_main.obj
 0003:009d0678       ?gl_renderingEnabled@@3_NA 00e45678     gl_main.obj
 0003:009d067c       ?gl_backfaceCull@@3PAUcvar_s@@A 00e4567c     gl_main.obj
 0003:009d0680       ?gl_overbright@@3PAUcvar_s@@A 00e45680     gl_main.obj
 0003:009d0684       ?vid_height@@3IA           00e45684     gl_main.obj
 0003:009d0688       ?r_ignorehwgamma@@3PAUcvar_s@@A 00e45688     gl_main.obj
 0003:009d068c       ?gl_showSky@@3PAUcvar_s@@A 00e4568c     gl_main.obj
 0003:009d0690       ?gl_showGrid@@3PAUcvar_s@@A 00e45690     gl_main.obj
 0003:009d0698       ?gl_fog@@3PAUcvar_s@@A     00e45698     gl_main.obj
 0003:009d069c       ?gl_allow_software@@3PAUcvar_s@@A 00e4569c     gl_main.obj
 0003:009d06a0       ?gl_bitdepth@@3PAUcvar_s@@A 00e456a0     gl_main.obj
 0003:009d06a4       ?gl_vertexLight@@3PAUcvar_s@@A 00e456a4     gl_main.obj
 0003:009d06a8       ?gl_hand@@3PAUcvar_s@@A    00e456a8     gl_main.obj
 0003:009d06ac       ?gl_nobind@@3PAUcvar_s@@A  00e456ac     gl_main.obj
 0003:009d06b0       ?gl_skinMipBias@@3PAUcvar_s@@A 00e456b0     gl_main.obj
 0003:009d06fc       ?gl_znear@@3PAUcvar_s@@A   00e456fc     gl_main.obj
 0003:009e0704       ?gl_showFillRate@@3PAUcvar_s@@A 00e55704     gl_main.obj
 0003:009e0708       ?gl_sortAlpha@@3PAUcvar_s@@A 00e55708     gl_main.obj
 0003:009e0710       ?gl_frustumCull@@3PAUcvar_s@@A 00e55710     gl_main.obj
 0003:009e0714       ?gl_logFile@@3PAUcvar_s@@A 00e55714     gl_main.obj
 0003:009e0718       ?gl_texturemode@@3PAUcvar_s@@A 00e55718     gl_main.obj
 0003:009e071c       ?gl_singleShader@@3PAUcvar_s@@A 00e5571c     gl_main.obj
 0003:009e0720       ?gl_dynamic@@3PAUcvar_s@@A 00e55720     gl_main.obj
 0003:009e0724       ?gl_swapinterval@@3PAUcvar_s@@A 00e55724     gl_main.obj
 0003:009e072c       ?gl_labels@@3PAUcvar_s@@A  00e5572c     gl_main.obj
 0003:009e0730       ?r_novis@@3PAUcvar_s@@A    00e55730     gl_main.obj
 0003:009e0734       ?gl_texMipBias@@3PAUcvar_s@@A 00e55734     gl_main.obj
 0003:009e0738       ?vid_width@@3IA            00e55738     gl_main.obj
 0003:009e073c       ?gl_dlightBacks@@3PAUcvar_s@@A 00e5573c     gl_main.obj
 0003:009e0740       ?gl_flares@@3PAUcvar_s@@A  00e55740     gl_main.obj
 0003:009e0744       ?gl_mode@@3PAUcvar_s@@A    00e55744     gl_main.obj
 0003:009e0748       ?gl_driver@@3PAUcvar_s@@A  00e55748     gl_main.obj
 0003:009e074c       ?r_drawentities@@3PAUcvar_s@@A 00e5574c     gl_main.obj
 0003:009e0750       ?gl_noGrid@@3PAUcvar_s@@A  00e55750     gl_main.obj
 0003:009e0754       ?gl_showLights@@3PAUcvar_s@@A 00e55754     gl_main.obj
 0003:009e0758       ?r_drawworld@@3PAUcvar_s@@A 00e55758     gl_main.obj
 0003:009e075c       ?gl_maxTextureUnits@@3PAUcvar_s@@A 00e5575c     gl_main.obj
 0003:009e0760       ?gl_finish@@3PAUcvar_s@@A  00e55760     gl_main.obj
 0003:009e0764       ?sawtoothTable@@3PAMA      00e55764     gl_math.obj
 0003:009e1764       ?squareTable@@3PAMA        00e56764     gl_math.obj
 0003:009e2764       ?atanTable@@3PAMA          00e57764     gl_math.obj
 0003:009e3764       ?atanTable2@@3PAMA         00e58764     gl_math.obj
 0003:009e4764       ?inverseSwatoothTable@@3PAMA 00e59764     gl_math.obj
 0003:009e5764       ?noiseTablef@@3PAMA        00e5a764     gl_math.obj
 0003:009e5b64       ?noiseTablei@@3PAHA        00e5ab64     gl_math.obj
 0003:009e5f64       ?acosTable@@3PAMA          00e5af64     gl_math.obj
 0003:009e7f64       ?asinTable@@3PAMA          00e5cf64     gl_math.obj
 0003:009e9f64       ?triangleTable@@3PAMA      00e5ef64     gl_math.obj
 0003:009eaf64       ?sqrtTable@@3PAMA          00e5ff64     gl_math.obj
 0003:009eb364       ?sinTable@@3PAMA           00e60364     gl_math.obj
 0003:009ff370       ?gl_worldModel@@3UbspModel_t@@A 00e74370     gl_model.obj
 0003:00a02478       ?subdivNumVerts@@3HA       00e77478     gl_poly.obj
 0003:00a02488       ?gl_alphaShader2@@3PAUshader_s@@A 00e77488     gl_shader.obj
 0003:00a0248c       ?gl_alphaShader1@@3PAUshader_s@@A 00e7748c     gl_shader.obj
 0003:00a02490       ?gl_identityLightShader@@3PAUshader_s@@A 00e77490     gl_shader.obj
 0003:00a02494       ?gl_defaultSkyShader@@3PAUshader_s@@A 00e77494     gl_shader.obj
 0003:00a02498       ?gl_concharsShader@@3PAUshader_s@@A 00e77498     gl_shader.obj
 0003:00a0649c       ?gl_identityLightShader2@@3PAUshader_s@@A 00e7b49c     gl_shader.obj
 0003:00a064a0       ?gl_railRingsShader@@3PAUshader_s@@A 00e7b4a0     gl_shader.obj
 0003:00a064a4       ?gl_particleShader@@3PAUshader_s@@A 00e7b4a4     gl_shader.obj
 0003:00a064a8       ?gl_defaultShader@@3PAUshader_s@@A 00e7b4a8     gl_shader.obj
 0003:00a064ac       ?gl_videoShader@@3PAUshader_s@@A 00e7b4ac     gl_shader.obj
 0003:00a074b0       ?gl_flareShader@@3PAUshader_s@@A 00e7c4b0     gl_shader.obj
 0003:00a084b4       ?gl_skyShader@@3PAUshader_s@@A 00e7d4b4     gl_shader.obj
 0003:00a084b8       ?gl_entityShader@@3PAUshader_s@@A 00e7d4b8     gl_shader.obj
 0003:00a084bc       ?gl_railSpiralShader@@3PAUshader_s@@A 00e7d4bc     gl_shader.obj
 0003:00a088c4       ?gl_railBeamShader@@3PAUshader_s@@A 00e7d8c4     gl_shader.obj
 0003:00a088c8       ?gl_colorShellShader@@3PAUshader_s@@A 00e7d8c8     gl_shader.obj
 0003:00a096d4       ?gl_detailShader@@3PAUshader_s@@A 00e7e6d4     gl_shader.obj
 0003:00a09a08       ?qgl@@3Tqgl_t@@A           00e7ea08     qgl_win.obj
 0003:00a09b28       ?glw_state@@3Uglwstate_t@@A 00e7eb28     glw_imp.obj
 0003:00a0a9d4       ?s_pmdl@@3PAUdmdl_t@@A     00e7f9d4     r_alias.obj
 0003:00a0a9d8       ?r_lerp_frontv@@3PAMA      00e7f9d8     r_alias.obj
 0003:00a0a9e8       ?r_aliasblendcolor@@3HA    00e7f9e8     r_alias.obj
 0003:00a0a9ec       ?r_lerp_move@@3PAMA        00e7f9ec     r_alias.obj
 0003:00a0a9f8       ?r_affinetridesc@@3Uaffinetridesc_t@@A 00e7f9f8     r_alias.obj
 0003:00a0aa54       ?aliasworldtransform@@3PAY03MA 00e7fa54     r_alias.obj
 0003:00a0aa88       ?aliasbatchedtransformdata@@3Ualiasbatchedtransformdata_t@@A 00e7fa88     r_alias.obj
 0003:00a0aaa4       ?r_lastframe@@3PAUdAliasFrame_t@@A 00e7faa4     r_alias.obj
 0003:00a0aaa8       ?r_amodels_drawn@@3HA      00e7faa8     r_alias.obj
 0003:00a0aab8       ?aliasoldworldtransform@@3PAY03MA 00e7fab8     r_alias.obj
 0003:00a0aae8       ?r_thisframe@@3PAUdAliasFrame_t@@A 00e7fae8     r_alias.obj
 0003:00a0aaec       ?r_ambientlight@@3HA       00e7faec     r_alias.obj
 0003:00a0aaf0       ?aliastransform@@3PAY03MA  00e7faf0     r_alias.obj
 0003:00a0ab20       ?r_shadelight@@3MA         00e7fb20     r_alias.obj
 0003:00a0ab24       ?r_lerped@@3PAY02MA        00e7fb24     r_alias.obj
 0003:00a0db24       ?r_plightvec@@3PAMA        00e82b24     r_alias.obj
 0003:00a0db30       ?r_lerp_backv@@3PAMA       00e82b30     r_alias.obj
 0003:00a0db40       ?modelorg@@3PAMA           00e82b40     r_bsp.obj
 0003:00a0db50       ?entity_rotation@@3PAY02MA 00e82b50     r_bsp.obj
 0003:00a0db74       ?c_drawnode@@3HA           00e82b74     r_bsp.obj
 0003:00a0db78       ?r_currentbkey@@3HA        00e82b78     r_bsp.obj
 0003:00a0db84       ?insubmodel@@3_NA          00e82b84     r_bsp.obj
 0003:00a0db88       ?r_entorigin@@3PAMA        00e82b88     r_bsp.obj
 0003:00a0db94       ?currententity@@3PAUentity_t@@A 00e82b94     r_bsp.obj
 0003:00a0dba4       ?textbuf@@3PADA            00e82ba4     r_draw.obj
 0003:00a1dba4       ?draw_chars@@3PAUimage_s@@A 00e92ba4     r_draw.obj
 0003:00a1dba8       ?textbuf_pos@@3HA          00e92ba8     r_draw.obj
 0003:00a1dbac       ?last_rec@@3PAUtextrec_s@@A 00e92bac     r_draw.obj
 0003:00a1dbb0       ?textbuf_count@@3HA        00e92bb0     r_draw.obj
 0003:00a1dbb8       ?edge_head@@3Uedge_s@@A    00e92bb8     r_edge.obj
 0003:00a1dbd8       ?newedges@@3PAPAUedge_s@@A 00e92bd8     r_edge.obj
 0003:00a1ee98       ?edge_head_u_shift20@@3HA  00e93e98     r_edge.obj
 0003:00a1ee9c       ?scale_for_mip@@3MA        00e93e9c     r_edge.obj
 0003:00a1eea0       ?errorterm@@3HA            00e93ea0     r_edge.obj
 0003:00a1eea4       ?erroradjustdown@@3HA      00e93ea4     r_edge.obj
 0003:00a1eea8       ?r_edges@@3PAUedge_s@@A    00e93ea8     r_edge.obj
 0003:00a1eeac       ?world_transformed_modelorg@@3PAMA 00e93eac     r_edge.obj
 0003:00a1eeb8       ?r_currentkey@@3HA         00e93eb8     r_edge.obj
 0003:00a1eebc       ?surface_p@@3PAUsurf_s@@A  00e93ebc     r_edge.obj
 0003:00a1eec0       ?edge_max@@3PAUedge_s@@A   00e93ec0     r_edge.obj
 0003:00a1eec4       ?erroradjustup@@3HA        00e93ec4     r_edge.obj
 0003:00a1eec8       ?edge_sentinel@@3Uedge_s@@A 00e93ec8     r_edge.obj
 0003:00a1eee8       ?current_iv@@3HA           00e93ee8     r_edge.obj
 0003:00a1eeec       ?auxedges@@3PAUedge_s@@A   00e93eec     r_edge.obj
 0003:00a1eef0       ?edge_p@@3PAUedge_s@@A     00e93ef0     r_edge.obj
 0003:00a1eef4       ?transformed_modelorg@@3PAMA 00e93ef4     r_edge.obj
 0003:00a1ef00       ?pface@@3PAUmsurface_s@@A  00e93f00     r_edge.obj
 0003:00a1ef04       ?fv@@3MA                   00e93f04     r_edge.obj
 0003:00a1ef08       ?edge_aftertail@@3Uedge_s@@A 00e93f08     r_edge.obj
 0003:00a1ef2c       ?span_p@@3PAUespan_s@@A    00e93f2c     r_edge.obj
 0003:00a1ef30       ?removeedges@@3PAPAUedge_s@@A 00e93f30     r_edge.obj
 0003:00a201f0       ?ubasestep@@3HA            00e951f0     r_edge.obj
 0003:00a201f4       ?edge_tail_u_shift20@@3HA  00e951f4     r_edge.obj
 0003:00a201f8       ?max_span_p@@3PAUespan_s@@A 00e951f8     r_edge.obj
 0003:00a201fc       ?pcurrentcache@@3PAUsurfcache_s@@A 00e951fc     r_edge.obj
 0003:00a20200       ?surf_max@@3PAUsurf_s@@A   00e95200     r_edge.obj
 0003:00a20204       ?local_modelorg@@3PAMA     00e95204     r_edge.obj
 0003:00a20210       ?surfaces@@3PAUsurf_s@@A   00e95210     r_edge.obj
 0003:00a20218       ?edge_tail@@3Uedge_s@@A    00e95218     r_edge.obj
 0003:00a20240       ?d_16to8table@@3PAEA       00e95240     r_image.obj
 0003:00a30240       ?sw_prefer8bittex@@3PAUcvar_s@@A 00ea5240     r_image.obj
 0003:00a30248       ?r_images@@3PAUimage_s@@A  00ea5248     r_image.obj
 0003:00a49248       ?numr_images@@3HA          00ebe248     r_image.obj
 0003:00a4924c       ?blocklights@@3PAIA        00ebe24c     r_light.obj
 0003:00a4a264       ?r_dlightframecount@@3HA   00ebf264     r_light.obj
 0003:00a4a270       ?screenedge@@3PAUcplane_t@@A 00ebf270     r_main.obj
 0003:00a4a2c0       ?bbextents@@3HA            00ebf2c0     r_main.obj
 0003:00a4a2c4       ?r_outofsurfaces@@3HA      00ebf2c4     r_main.obj
 0003:00a4a2c8       ?bbextentt@@3HA            00ebf2c8     r_main.obj
 0003:00a4a2cc       ?skyaxis@@3PAMA            00ebf2cc     r_main.obj
 0003:00a4a2d8       ?d_pzbuffer@@3PAFA         00ebf2d8     r_main.obj
 0003:00a4a2dc       ?r_viewleaf@@3PAUmleaf_s@@A 00ebf2dc     r_main.obj
 0003:00a4a2e0       ?dp_time2@@3MA             00ebf2e0     r_main.obj
 0003:00a4a2e4       ?dp_time1@@3MA             00ebf2e4     r_main.obj
 0003:00a4a2e8       ?skyrotate@@3MA            00ebf2e8     r_main.obj
 0003:00a4a2ec       ?da_time2@@3MA             00ebf2ec     r_main.obj
 0003:00a4a2f0       ?r_dspeeds@@3PAUcvar_s@@A  00ebf2f0     r_main.obj
 0003:00a4a2f4       ?sw_waterwarp@@3PAUcvar_s@@A 00ebf2f4     r_main.obj
 0003:00a4a2f8       ?yOrigin@@3MA              00ebf2f8     r_main.obj
 0003:00a4a2fc       ?d_zrowbytes@@3IA          00ebf2fc     r_main.obj
 0003:00a4a300       ?da_time1@@3MA             00ebf300     r_main.obj
 0003:00a4a304       ?aliasyscale@@3MA          00ebf304     r_main.obj
 0003:00a4a308       ?c_surf@@3HA               00ebf308     r_main.obj
 0003:00a4a310       ?r_worldentity@@3Uentity_t@@A 00ebf310     r_main.obj
 0003:00a4a364       ?r_worldmodel@@3PAUmodel_s@@A 00ebf364     r_main.obj
 0003:00a4a368       ?currentmodel@@3PAUmodel_s@@A 00ebf368     r_main.obj
 0003:00a4a36c       ?d_sdivzstepu@@3MA         00ebf36c     r_main.obj
 0003:00a4a370       ?d_sdivzstepv@@3MA         00ebf370     r_main.obj
 0003:00a4a374       ?sw_draworder@@3PAUcvar_s@@A 00ebf374     r_main.obj
 0003:00a4a378       ?sky_images@@3PAPAUimage_s@@A 00ebf378     r_main.obj
 0003:00a4a390       ?r_surfsonstack@@3_NA      00ebf390     r_main.obj
 0003:00a4a398       ?r_refdef@@3Uoldrefdef_t@@A 00ebf398     r_main.obj
 0003:00a4a428       ?cachewidth@@3HA           00ebf428     r_main.obj
 0003:00a4a42c       ?xscaleshrink@@3MA         00ebf42c     r_main.obj
 0003:00a4a430       ?xscaleinv@@3MA            00ebf430     r_main.obj
 0003:00a4a434       ?aliasxcenter@@3MA         00ebf434     r_main.obj
 0003:00a4a438       ?db_time1@@3MA             00ebf438     r_main.obj
 0003:00a4a43c       ?db_time2@@3MA             00ebf43c     r_main.obj
 0003:00a4a444       ?de_time2@@3MA             00ebf444     r_main.obj
 0003:00a4a448       ?viewlightvec@@3PAMA       00ebf448     r_main.obj
 0003:00a4a454       ?de_time1@@3MA             00ebf454     r_main.obj
 0003:00a4a458       ?d_ziorigin@@3MA           00ebf458     r_main.obj
 0003:00a4a45c       ?r_maxedgesseen@@3HA       00ebf45c     r_main.obj
 0003:00a4a460       ?sw_reportsurfout@@3PAUcvar_s@@A 00ebf460     r_main.obj
 0003:00a4a464       ?sadjust@@3HA              00ebf464     r_main.obj
 0003:00a4a468       ?d_zwidth@@3IA             00ebf468     r_main.obj
 0003:00a4a46c       ?sw_reportedgeout@@3PAUcvar_s@@A 00ebf46c     r_main.obj
 0003:00a4a4b0       ?r_newrefdef@@3Urefdef_t@@A 00ebf4b0     r_main.obj
 0003:00a4a518       ?r_notexture_mip@@3PAUimage_s@@A 00ebf518     r_main.obj
 0003:00a4a51c       ?sw_maxsurfs@@3PAUcvar_s@@A 00ebf51c     r_main.obj
 0003:00a4a520       ?r_oldviewcluster@@3HA     00ebf520     r_main.obj
 0003:00a4a524       ?r_numallocatededges@@3HA  00ebf524     r_main.obj
 0003:00a4a528       ?vid@@3Uviddef_t@@A        00ebf528     r_main.obj
 0003:00a4a540       ?sw_maxedges@@3PAUcvar_s@@A 00ebf540     r_main.obj
 0003:00a4a544       ?base_vright@@3PAMA        00ebf544     r_main.obj
 0003:00a4a550       ?r_notexture_buffer@@3PAEA 00ebf550     r_main.obj
 0003:00a4a950       ?vpn@@3PAMA                00ebf950     r_main.obj
 0003:00a4a95c       ?se_time1@@3MA             00ebf95c     r_main.obj
 0003:00a4a960       ?se_time2@@3MA             00ebf960     r_main.obj
 0003:00a4a964       ?r_drawnpolycount@@3HA     00ebf964     r_main.obj
 0003:00a4a968       ?r_cnumsurfs@@3HA          00ebf968     r_main.obj
 0003:00a4a970       ?vup@@3PAMA                00ebf970     r_main.obj
 0003:00a4a97c       ?skyname@@3PADA            00ebf97c     r_main.obj
 0003:00a4a9bc       ?xcenter@@3MA              00ebf9bc     r_main.obj
 0003:00a4a9c0       ?r_lefthand@@3PAUcvar_s@@A 00ebf9c0     r_main.obj
 0003:00a4a9c4       ?sw_stipplealpha@@3PAUcvar_s@@A 00ebf9c4     r_main.obj
 0003:00a4a9c8       ?aliasxscale@@3MA          00ebf9c8     r_main.obj
 0003:00a4a9cc       ?base_vpn@@3PAMA           00ebf9cc     r_main.obj
 0003:00a4a9d8       ?r_maxsurfsseen@@3HA       00ebf9d8     r_main.obj
 0003:00a4a9dc       ?yscaleinv@@3MA            00ebf9dc     r_main.obj
 0003:00a4a9e0       ?sw_clearcolor@@3PAUcvar_s@@A 00ebf9e0     r_main.obj
 0003:00a4a9e4       ?sw_surfcacheoverride@@3PAUcvar_s@@A 00ebf9e4     r_main.obj
 0003:00a4a9e8       ?d_spanpixcount@@3HA       00ebf9e8     r_main.obj
 0003:00a4a9ec       ?sw_lockpvs@@3PAUcvar_s@@A 00ebf9ec     r_main.obj
 0003:00a4a9f0       ?r_viewcluster@@3HA        00ebf9f0     r_main.obj
 0003:00a4a9f4       ?base_vup@@3PAMA           00ebf9f4     r_main.obj
 0003:00a4aa00       ?tadjust@@3HA              00ebfa00     r_main.obj
 0003:00a4aa08       ?sw_state@@3Uswstate_s@@A  00ebfa08     r_main.obj
 0003:00a4af10       ?r_time1@@3MA              00ebff10     r_main.obj
 0003:00a4af14       ?r_polycount@@3HA          00ebff14     r_main.obj
 0003:00a4af18       ?con_only@@3_NA            00ebff18     r_main.obj
 0003:00a4af1c       ?r_visframecount@@3HA      00ebff1c     r_main.obj
 0003:00a4af24       ?verticalFieldOfView@@3MA  00ebff24     r_main.obj
 0003:00a4af28       ?xscale@@3MA               00ebff28     r_main.obj
 0003:00a4af2c       ?r_warpbuffer@@3PAEA       00ebff2c     r_main.obj
 0003:00a5db2c       ?d_tdivzorigin@@3MA        00ed2b2c     r_main.obj
 0003:00a5db30       ?yscale@@3MA               00ed2b30     r_main.obj
 0003:00a5db34       ?sw_mode@@3PAUcvar_s@@A    00ed2b34     r_main.obj
 0003:00a5db38       ?r_outofedges@@3HA         00ed2b38     r_main.obj
 0003:00a5db3c       ?r_frustum_indexes@@3PAHA  00ed2b3c     r_main.obj
 0003:00a5db9c       ?pfrustum_indexes@@3PAPAHA 00ed2b9c     r_main.obj
 0003:00a5dbac       ?ycenter@@3MA              00ed2bac     r_main.obj
 0003:00a5dbb0       ?r_origin@@3PAMA           00ed2bb0     r_main.obj
 0003:00a5dbbc       ?sw_aliasstats@@3PAUcvar_s@@A 00ed2bbc     r_main.obj
 0003:00a5dbc0       ?cacheblock@@3PAEA         00ed2bc0     r_main.obj
 0003:00a5dbc4       ?d_tdivzstepu@@3MA         00ed2bc4     r_main.obj
 0003:00a5dbc8       ?d_tdivzstepv@@3MA         00ed2bc8     r_main.obj
 0003:00a5dbcc       ?vright@@3PAMA             00ed2bcc     r_main.obj
 0003:00a5dbd8       ?r_screenwidth@@3HA        00ed2bd8     r_main.obj
 0003:00a5dbdc       ?d_viewbuffer@@3PAEA       00ed2bdc     r_main.obj
 0003:00a5dbe0       ?sw_drawflat@@3PAUcvar_s@@A 00ed2be0     r_main.obj
 0003:00a5dbe4       ?r_lerpmodels@@3PAUcvar_s@@A 00ed2be4     r_main.obj
 0003:00a5dbe8       ?d_sdivzorigin@@3MA        00ed2be8     r_main.obj
 0003:00a5dbec       ?sw_lightlevel@@3MA        00ed2bec     r_main.obj
 0003:00a5dbf0       ?r_dowarp@@3_NA            00ed2bf0     r_main.obj
 0003:00a5dbf4       ?xOrigin@@3MA              00ed2bf4     r_main.obj
 0003:00a5dbf8       ?d_zistepu@@3MA            00ed2bf8     r_main.obj
 0003:00a5dbfc       ?d_zistepv@@3MA            00ed2bfc     r_main.obj
 0003:00a5dc00       ?aliasycenter@@3MA         00ed2c00     r_main.obj
 0003:00a5dc04       ?r_clipflags@@3HA          00ed2c04     r_main.obj
 0003:00a5dc08       ?rw_time1@@3MA             00ed2c08     r_main.obj
 0003:00a5dc10       ?rw_time2@@3MA             00ed2c10     r_main.obj
 0003:00a5dc14       ?sw_allow_modex@@3PAUcvar_s@@A 00ed2c14     r_main.obj
 0003:00a5dc18       ?colormap@@3PAXA           00ed2c18     r_main.obj
 0003:00a5dc1c       ?d_8to24table@@3PAIA       00ed2c1c     r_main.obj
 0003:00a5e01c       ?r_pcurrentvertbase@@3PAUmvertex_t@@A 00ed301c     r_main.obj
 0003:00a5e020       ?r_wholepolycount@@3HA     00ed3020     r_main.obj
 0003:00a5e024       ?yscaleshrink@@3MA         00ed3024     r_main.obj
 0003:00a5e02c       ?d_scalemip@@3PAMA         00ed302c     r_misc.obj
 0003:00a5e038       ?d_minmip@@3HA             00ed3038     r_misc.obj
 0003:00a5e03c       ?r_screenshotName@@3PADA   00ed303c     r_misc.obj
 0003:00a5e040       ?d_scantable@@3PAHA        00ed3040     r_misc.obj
 0003:00a5f300       ?sw_mipcap@@3PAUcvar_s@@A  00ed4300     r_misc.obj
 0003:00a5f304       ?d_initial_rover@@3PAUsurfcache_s@@A 00ed4304     r_misc.obj
 0003:00a5f308       ?zspantable@@3PAPAFA       00ed4308     r_misc.obj
 0003:00a605c8       ?d_vrectx@@3HA             00ed55c8     r_misc.obj
 0003:00a605cc       ?d_vrecty@@3HA             00ed55cc     r_misc.obj
 0003:00a605d0       ?r_screenshotFlags@@3HA    00ed55d0     r_misc.obj
 0003:00a605d4       ?d_pix_min@@3HA            00ed55d4     r_misc.obj
 0003:00a605d8       ?d_pix_max@@3HA            00ed55d8     r_misc.obj
 0003:00a605dc       ?alias_colormap@@3PAEA     00ed55dc     r_misc.obj
 0003:00a605e0       ?d_vrectbottom_particle@@3HA 00ed55e0     r_misc.obj
 0003:00a605e4       ?d_vrectright_particle@@3HA 00ed55e4     r_misc.obj
 0003:00a605e8       ?sw_mipscale@@3PAUcvar_s@@A 00ed55e8     r_misc.obj
 0003:00a605ec       ?d_pix_shift@@3HA          00ed55ec     r_misc.obj
 0003:00a605f0       ?d_roverwrapped@@3_NA      00ed55f0     r_misc.obj
 0003:00a605f8       ?mod_inline@@3PAUmodel_s@@A 00ed55f8     r_model.obj
 0003:00a775f8       ?r_numvisleafs@@3HA        00eec5f8     r_model.obj
 0003:00a775fc       ?r_leaftovis@@3PAHA        00eec5fc     r_model.obj
 0003:00ab75fc       ?mod_numknown@@3HA         00f2c5fc     r_model.obj
 0003:00ab7600       ?loadname@@3PADA           00f2c600     r_model.obj
 0003:00ab7620       ?r_vistoleaf@@3PAHA        00f2c620     r_model.obj
 0003:00af7620       ?loadmodel@@3PAUmodel_s@@A 00f6c620     r_model.obj
 0003:00af7628       ?mod_known@@3PAUmodel_s@@A 00f6c628     r_model.obj
 0003:00b0e62c       ?registration_sequence@@3HA 00f8362c     r_model.obj
 0003:00b0e630       ?mod_novis@@3PAEA          00f83630     r_model.obj
 0003:00b1263c       ?r_pright@@3PAMA           00f8763c     r_part.obj
 0003:00b12648       ?r_ppn@@3PAMA              00f87648     r_part.obj
 0003:00b12654       ?r_pup@@3PAMA              00f87654     r_part.obj
 0003:00b12660       ?r_clip_verts@@3PAY1EG@4MA 00f87660     r_poly.obj
 0003:00b13150       ?s_spanletvars@@3Uspanletvars_t@@A 00f88150     r_poly.obj
 0003:00b13188       ?r_polydesc@@3Upolydesc_t@@A 00f88188     r_poly.obj
 0003:00b131e0       ?r_alpha_surfaces@@3PAUmsurface_s@@A 00f881e0     r_poly.obj
 0003:00b131fc       ?d_xdenom@@3HA             00f881fc     r_polyse.obj
 0003:00b13208       ?pedgetable@@3PAUedgetable@@A 00f88208     r_polyse.obj
 0003:00b1320c       ?d_pcolormap@@3PAEA        00f8820c     r_polyse.obj
 0003:00b13228       ?aliastriangleparms@@3Ualiastriangleparms_t@@A 00f88228     r_polyse.obj
 0003:00b13234       ?skinwidth@@3HA            00f88234     r_polyse.obj
 0003:00b13240       ?d_aflatcolor@@3HA         00f88240     r_polyse.obj
 0003:00b13264       ?r_p0@@3PAHA               00f88264     r_polyse.obj
 0003:00b1327c       ?r_p1@@3PAHA               00f8827c     r_polyse.obj
 0003:00b13294       ?r_p2@@3PAHA               00f88294     r_polyse.obj
 0003:00b132b0       ?d_pdrawspans@@3P6AXPAUspanpackage_s@@@ZA 00f882b0     r_polyse.obj
 0003:00b152b8       ?skintable@@3PAPAEA        00f8a2b8     r_polyse.obj
 0003:00b15a44       ?skinstart@@3PAEA          00f8aa44     r_polyse.obj
 0003:00b15a84       ?iractive@@3EA             00f8aa84     r_polyse.obj
 0003:00b15a88       ?c_faceclip@@3HA           00f8aa88     r_rast.obj
 0003:00b15a90       ?r_skyplanes@@3PAUcplane_t@@A 00f8aa90     r_rast.obj
 0003:00b15b08       ?entity_clipplanes@@3PAUclipplane_s@@A 00f8ab08     r_rast.obj
 0003:00b15b10       ?r_rightenter@@3Umvertex_t@@A 00f8ab10     r_rast.obj
 0003:00b15b20       ?r_rightexit@@3Umvertex_t@@A 00f8ab20     r_rast.obj
 0003:00b15b2c       ?r_leftclipped@@3_NA       00f8ab2c     r_rast.obj
 0003:00b15b30       ?r_pedge@@3PAUmedge_t@@A   00f8ab30     r_rast.obj
 0003:00b15b38       ?world_clipplanes@@3PAUclipplane_s@@A 00f8ab38     r_rast.obj
 0003:00b15cbc       ?r_ceilv1@@3HA             00f8acbc     r_rast.obj
 0003:00b15cc0       ?r_emitted@@3HA            00f8acc0     r_rast.obj
 0003:00b15cc4       ?r_skysurfedges@@3PAHA     00f8acc4     r_rast.obj
 0003:00b15cc8       ?r_leftenter@@3Umvertex_t@@A 00f8acc8     r_rast.obj
 0003:00b15cd4       ?sintable@@3PAHA           00f8acd4     r_rast.obj
 0003:00b170d4       ?intsintable@@3PAHA        00f8c0d4     r_rast.obj
 0003:00b184d8       ?view_clipplanes@@3PAUclipplane_s@@A 00f8d4d8     r_rast.obj
 0003:00b18538       ?r_u1@@3MA                 00f8d538     r_rast.obj
 0003:00b1853c       ?r_v1@@3MA                 00f8d53c     r_rast.obj
 0003:00b18540       ?r_lastvertvalid@@3_NA     00f8d540     r_rast.obj
 0003:00b18548       ?r_skytexinfo@@3PAUmtexinfo_s@@A 00f8d548     r_rast.obj
 0003:00b18680       ?r_rightclipped@@3_NA      00f8d680     r_rast.obj
 0003:00b18684       ?r_skyverts@@3PAUmvertex_t@@A 00f8d684     r_rast.obj
 0003:00b18688       ?r_leftexit@@3Umvertex_t@@A 00f8d688     r_rast.obj
 0003:00b18698       ?r_skyfaces@@3PAUmsurface_s@@A 00f8d698     r_rast.obj
 0003:00b1869c       ?r_skyframe@@3HA           00f8d69c     r_rast.obj
 0003:00b186a0       ?r_nearzionly@@3_NA        00f8d6a0     r_rast.obj
 0003:00b186a4       ?r_lzi1@@3MA               00f8d6a4     r_rast.obj
 0003:00b186a8       ?blanktable@@3PAHA         00f8d6a8     r_rast.obj
 0003:00b19aa8       ?r_nearzi@@3MA             00f8eaa8     r_rast.obj
 0003:00b19aac       ?cacheoffset@@3IA          00f8eaac     r_rast.obj
 0003:00b19ab0       ?r_skyedges@@3PAUmedge_t@@A 00f8eab0     r_rast.obj
 0003:00b19ab4       ?r_turb_pbase@@3PAEA       00f8eab4     r_scan.obj
 0003:00b1b3d0       ?r_turb_turb@@3PAHA        00f903d0     r_scan.obj
 0003:00b1b3d8       ?r_turb_s@@3HA             00f903d8     r_scan.obj
 0003:00b1b3dc       ?r_turb_t@@3HA             00f903dc     r_scan.obj
 0003:00b1b3e0       ?r_turb_tstep@@3HA         00f903e0     r_scan.obj
 0003:00b1c6bc       ?r_turb_spancount@@3HA     00f916bc     r_scan.obj
 0003:00b1c6c0       ?r_turb_sstep@@3HA         00f916c0     r_scan.obj
 0003:00b1c6c4       ?r_turb_pdest@@3PAEA       00f916c4     r_scan.obj
 0003:00b1c6d0       ?r_numhblocks@@3HA         00f916d0     r_surf.obj
 0003:00b1c6d4       ?prowdestbase@@3PAXA       00f916d4     r_surf.obj
 0003:00b1c6d8       ?surfscale@@3MA            00f916d8     r_surf.obj
 0003:00b1c6dc       ?lightleft@@3HA            00f916dc     r_surf.obj
 0003:00b1c6e0       ?r_source@@3PAEA           00f916e0     r_surf.obj
 0003:00b1c6e4       ?r_sourcemax@@3PAEA        00f916e4     r_surf.obj
 0003:00b1c6e8       ?lightdeltastep@@3HA       00f916e8     r_surf.obj
 0003:00b1c6ec       ?sc_base@@3PAUsurfcache_s@@A 00f916ec     r_surf.obj
 0003:00b1c6f0       ?blocksize@@3HA            00f916f0     r_surf.obj
 0003:00b1c6f4       ?lightright@@3HA           00f916f4     r_surf.obj
 0003:00b1c6f8       ?r_numvblocks@@3HA         00f916f8     r_surf.obj
 0003:00b1c700       ?r_drawsurf@@3Udrawsurf_t@@A 00f91700     r_surf.obj
 0003:00b1c72c       ?blockdivshift@@3HA        00f9172c     r_surf.obj
 0003:00b1c730       ?sc_size@@3HA              00f91730     r_surf.obj
 0003:00b1c734       ?r_cache_thrash@@3_NA      00f91734     r_surf.obj
 0003:00b1c738       ?lightleftstep@@3HA        00f91738     r_surf.obj
 0003:00b1c73c       ?sourcetstep@@3HA          00f9173c     r_surf.obj
 0003:00b1c740       ?lightrightstep@@3HA       00f91740     r_surf.obj
 0003:00b1c744       ?r_lightptr@@3PAIA         00f91744     r_surf.obj
 0003:00b1c748       ?lightdelta@@3HA           00f91748     r_surf.obj
 0003:00b1c74c       ?sc_rover@@3PAUsurfcache_s@@A 00f9174c     r_surf.obj
 0003:00b1c750       ?r_lightwidth@@3HA         00f91750     r_surf.obj
 0003:00b1c754       ?pbasesource@@3PAEA        00f91754     r_surf.obj
 0003:00b1c758       ?surfrowbytes@@3HA         00f91758     r_surf.obj
 0003:00b1c75c       ?sourcesstep@@3HA          00f9175c     r_surf.obj
 0003:00b1c760       ?r_stepback@@3HA           00f91760     r_surf.obj
 0003:00b1c764       ?blockdivmask@@3IA         00f91764     r_surf.obj
 0003:00b1cbc8       ?sww_state@@3Uswwstate_t@@A 00f91bc8     rw_imp.obj
 0003:00b1f4dc       __dowildcard               00f944dc     MSVCRT:wildcard.obj
 0003:00b1f4e0       __newmode                  00f944e0     MSVCRT:_newmode.obj
 0003:00b1f4e4       __commode                  00f944e4     MSVCRT:xncommod.obj
 0003:00b1f4e8       __fmode                    00f944e8     MSVCRT:xtxtmode.obj
 0003:00b1f4ec       ___onexitend               00f944ec     <common>
 0003:00b1f4f0       ___onexitbegin             00f944f0     <common>
 0003:00b1f4f4       __adjust_fdiv              00f944f4     <common>

 entry point at        0001:0006ea4e

 Static symbols

 0001:0005b93b       ?SWimp_InitGraphics@@YA_N_N@Z 0045c93b f   rw_imp.obj
 0001:0005b6bb       ?DIB_RestoreSystemColors@@YAXXZ 0045c6bb f   rw_dib.obj
 0001:0005b6dc       ?DIB_SaveSystemColors@@YAXXZ 0045c6dc f   rw_dib.obj
 0001:0005b1d7       ?DDrawError@@YAPBDH@Z      0045c1d7 f   rw_ddraw.obj
 0001:00056eeb       ?R_DrawPoly@@YAXH@Z        00457eeb f   r_poly.obj
 0001:00053347       ?R_SetSky@@YAXPBDMQAM@Z    00454347 f   r_main.obj
 0001:000533be       ?R_RegisterSkin@@YAPAUimage_s@@PBD@Z 004543be f   r_main.obj
 0001:000533cc       ?Screenshot@@YAXHPBD@Z     004543cc f   r_main.obj
 0001:000533ef       ?GetClientLight@@YAMXZ     004543ef f   r_main.obj
 0001:000533f6       ?R_EndFrame@@YAXXZ         004543f6 f   r_main.obj
 0001:00053458       ?Draw_Fill2@@YAXHHHHI@Z    00454458 f   r_main.obj
 0001:00035455       ?ReloadImage@@YAXPBD@Z     00436455 f   vid_dll.obj
 0001:00051599       ?RecursiveLightPoint@@YAHPAUmnode_s@@QAM1@Z 00452599 f   r_light.obj
 0001:0004d9c2       ?R_ConcatTransforms@@YAXQAY03M00@Z 0044e9c2 f   r_alias.obj
 0001:0004e2a7       ?R_AliasSetupSkin@@YA_NXZ  0044f2a7 f   r_alias.obj
 0001:0004c133       ?GLimp_CreateWindow@@YA_NHH_N@Z 0044d133 f   glw_imp.obj
 0001:0004c2f9       ?UpdateGamma@@YAXXZ        0044d2f9 f   glw_imp.obj
 0001:0004c398       ?ReadGamma@@YAXXZ          0044d398 f   glw_imp.obj
 0001:0004c3df       ?GLimp_InitGL@@YA_NXZ      0044d3df f   glw_imp.obj
 0001:0004c45f       ?DestoryGLcontext@@YA_NXZ  0044d45f f   glw_imp.obj
 0001:0004c499       ?DeactivateGLcontext@@YA_NXZ 0044d499 f   glw_imp.obj
 0001:0004c4d4       ?GLimp_SetPixelFormat@@YA_NXZ 0044d4d4 f   glw_imp.obj
 0001:0004c5f0       ?CreateGLcontext@@YA_NXZ   0044d5f0 f   glw_imp.obj
 0001:0004c61d       ?ActivateGLcontext@@YA_NXZ 0044d61d f   glw_imp.obj
 0001:0004c6d1       ?RestoreGamma@@YAXXZ       0044d6d1 f   glw_imp.obj
 0001:0004a0a4       ?logAlphaFunc@@YGXIM@Z     0044b0a4 f   qgl_win.obj
 0001:0004a0e5       ?EnumName@@YAPBDI@Z        0044b0e5 f   qgl_win.obj
 0001:0004a73c       ?logBegin@@YGXI@Z          0044b73c f   qgl_win.obj
 0001:0004a76c       ?logBindTexture@@YGXII@Z   0044b76c f   qgl_win.obj
 0001:0004a7a5       ?logBlendFunc@@YGXII@Z     0044b7a5 f   qgl_win.obj
 0001:0004a7e5       ?logClear@@YGXI@Z          0044b7e5 f   qgl_win.obj
 0001:0004a80b       ?logClearColor@@YGXMMMM@Z  0044b80b f   qgl_win.obj
 0001:0004a86c       ?logClearDepth@@YGXN@Z     0044b86c f   qgl_win.obj
 0001:0004a89e       ?logColor3f@@YGXMMM@Z      0044b89e f   qgl_win.obj
 0001:0004a8f0       ?logColor3fv@@YGXPBM@Z     0044b8f0 f   qgl_win.obj
 0001:0004a916       ?logColor4f@@YGXMMMM@Z     0044b916 f   qgl_win.obj
 0001:0004a977       ?logColor4fv@@YGXPBM@Z     0044b977 f   qgl_win.obj
 0001:0004a99d       ?logColor4ub@@YGXEEEE@Z    0044b99d f   qgl_win.obj
 0001:0004a9e3       ?logColor4ubv@@YGXPBE@Z    0044b9e3 f   qgl_win.obj
 0001:0004aa09       ?logColorPointer@@YGXHIHPBX@Z 0044ba09 f   qgl_win.obj
 0001:0004aa4e       ?logCullFace@@YGXI@Z       0044ba4e f   qgl_win.obj
 0001:0004aa7e       ?logDeleteTextures@@YGXHPBI@Z 0044ba7e f   qgl_win.obj
 0001:0004aab0       ?logDepthFunc@@YGXI@Z      0044bab0 f   qgl_win.obj
 0001:0004aae0       ?logDepthMask@@YGXE@Z      0044bae0 f   qgl_win.obj
 0001:0004ab0c       ?logDepthRange@@YGXNN@Z    0044bb0c f   qgl_win.obj
 0001:0004ab50       ?logDisable@@YGXI@Z        0044bb50 f   qgl_win.obj
 0001:0004ab80       ?logDisableClientState@@YGXI@Z 0044bb80 f   qgl_win.obj
 0001:0004abb0       ?logDrawElements@@YGXIHIPBX@Z 0044bbb0 f   qgl_win.obj
 0001:0004abfc       ?logEnable@@YGXI@Z         0044bbfc f   qgl_win.obj
 0001:0004ac2c       ?logEnableClientState@@YGXI@Z 0044bc2c f   qgl_win.obj
 0001:0004ac5c       ?logEnd@@YGXXZ             0044bc5c f   qgl_win.obj
 0001:0004ac7b       ?logFinish@@YGXXZ          0044bc7b f   qgl_win.obj
 0001:0004ac9a       ?logFogf@@YGXIM@Z          0044bc9a f   qgl_win.obj
 0001:0004acdb       ?logFogfv@@YGXIPBM@Z       0044bcdb f   qgl_win.obj
 0001:0004ad14       ?logGetIntegerv@@YGXIPAH@Z 0044bd14 f   qgl_win.obj
 0001:0004ad3e       ?logGetString@@YGPBEI@Z    0044bd3e f   qgl_win.obj
 0001:0004ad64       ?logLoadIdentity@@YGXXZ    0044bd64 f   qgl_win.obj
 0001:0004ad83       ?logLoadMatrixf@@YGXPBM@Z  0044bd83 f   qgl_win.obj
 0001:0004ada9       ?logMatrixMode@@YGXI@Z     0044bda9 f   qgl_win.obj
 0001:0004add9       ?logOrtho@@YGXNNNNNN@Z     0044bdd9 f   qgl_win.obj
 0001:0004ae5d       ?logPolygonMode@@YGXII@Z   0044be5d f   qgl_win.obj
 0001:0004ae9d       ?logPolygonOffset@@YGXMM@Z 0044be9d f   qgl_win.obj
 0001:0004aee0       ?logPopMatrix@@YGXXZ       0044bee0 f   qgl_win.obj
 0001:0004aeff       ?logPushMatrix@@YGXXZ      0044beff f   qgl_win.obj
 0001:0004af1e       ?logReadPixels@@YGXHHHHIIPAX@Z 0044bf1e f   qgl_win.obj
 0001:0004af7c       ?logRotatef@@YGXMMMM@Z     0044bf7c f   qgl_win.obj
 0001:0004afdd       ?logScissor@@YGXHHHH@Z     0044bfdd f   qgl_win.obj
 0001:0004b01b       ?logShadeModel@@YGXI@Z     0044c01b f   qgl_win.obj
 0001:0004b04b       ?logTexCoord2f@@YGXMM@Z    0044c04b f   qgl_win.obj
 0001:0004b08e       ?logTexCoordPointer@@YGXHIHPBX@Z 0044c08e f   qgl_win.obj
 0001:0004b0d3       ?logTexEnvf@@YGXIIM@Z      0044c0d3 f   qgl_win.obj
 0001:0004b121       ?logTexEnvfv@@YGXIIPBM@Z   0044c121 f   qgl_win.obj
 0001:0004b167       ?logTexEnvi@@YGXIII@Z      0044c167 f   qgl_win.obj
 0001:0004b1b4       ?logTexImage2D@@YGXIHIHHHIIPBX@Z 0044c1b4 f   qgl_win.obj
 0001:0004b22c       ?logTexParameteri@@YGXIIH@Z 0044c22c f   qgl_win.obj
 0001:0004b272       ?logTexSubImage2D@@YGXIHHHHHIIPBX@Z 0044c272 f   qgl_win.obj
 0001:0004b2e3       ?logTranslatef@@YGXMMM@Z   0044c2e3 f   qgl_win.obj
 0001:0004b335       ?logVertex2f@@YGXMM@Z      0044c335 f   qgl_win.obj
 0001:0004b378       ?logVertex3f@@YGXMMM@Z     0044c378 f   qgl_win.obj
 0001:0004b3ca       ?logVertex3fv@@YGXPBM@Z    0044c3ca f   qgl_win.obj
 0001:0004b3f0       ?logVertexPointer@@YGXHIHPBX@Z 0044c3f0 f   qgl_win.obj
 0001:0004b435       ?logViewport@@YGXHHHH@Z    0044c435 f   qgl_win.obj
 0001:0004b473       ?logChoosePixelFormat@@YGHPAUHDC__@@PBUtagPIXELFORMATDESCRIPTOR@@@Z 0044c473 f   qgl_win.obj
 0001:0004b49d       ?logDescribePixelFormat@@YGHPAUHDC__@@HIPAUtagPIXELFORMATDESCRIPTOR@@@Z 0044c49d f   qgl_win.obj
 0001:0004b4cf       ?logSetPixelFormat@@YGHPAUHDC__@@HPBUtagPIXELFORMATDESCRIPTOR@@@Z 0044c4cf f   qgl_win.obj
 0001:0004b4fd       ?logSwapBuffers@@YGHPAUHDC__@@@Z 0044c4fd f   qgl_win.obj
 0001:0004b523       ?logCreateContext@@YGPAUHGLRC__@@PAUHDC__@@@Z 0044c523 f   qgl_win.obj
 0001:0004b549       ?logDeleteContext@@YGHPAUHGLRC__@@@Z 0044c549 f   qgl_win.obj
 0001:0004b56f       ?logGetProcAddress@@YGP6GHXZPBD@Z 0044c56f f   qgl_win.obj
 0001:0004b595       ?logMakeCurrent@@YGHPAUHDC__@@PAUHGLRC__@@@Z 0044c595 f   qgl_win.obj
 0001:0004b5bf       ?logSelectTextureSGIS@@YGXI@Z 0044c5bf f   qgl_win.obj
 0001:0004b5ef       ?logSelectTextureCoordSetSGIS@@YGXI@Z 0044c5ef f   qgl_win.obj
 0001:0004b61f       ?logActiveTextureARB@@YGXI@Z 0044c61f f   qgl_win.obj
 0001:0004b64f       ?logClientActiveTextureARB@@YGXI@Z 0044c64f f   qgl_win.obj
 0001:0004b67f       ?logLockArraysEXT@@YGXHH@Z 0044c67f f   qgl_win.obj
 0001:0004b6b1       ?logUnlockArraysEXT@@YGXXZ 0044c6b1 f   qgl_win.obj
 0001:0004b6d0       ?logSwapIntervalEXT@@YGHH@Z 0044c6d0 f   qgl_win.obj
 0001:0004bbce       ?ExtensionSupported@@YA_NPAUextInfo_t@@PBD1@Z 0044cbce f   qgl_win.obj
 0001:0004bc47       ?ExtensionNameSupported@@YA_NPBD0@Z 0044cc47 f   qgl_win.obj
 0001:00049a4b       ?ClipSkyPolygon@@YAXHQAMH@Z 0044aa4b f   gl_sky.obj
 0001:00049fa9       ?AddSkyVec@@YAHMMHMPAPAUbufVertex_t@@PAPAUbufTexCoord_t@@@Z 0044afa9 f   gl_sky.obj
 0001:000483a5       ?Shaderlist_f@@YAX_NHPAPAD@Z 004493a5 f   gl_shader.obj
 0001:00048632       ?ComputeHash@@YAHPAD@Z     00449632 f   gl_shader.obj
 0001:0004864f       ?ResortShader@@YAXPAUshader_s@@H@Z 0044964f f   gl_shader.obj
 0001:0004871b       ?AddPermanentShader@@YAPAUshader_s@@XZ 0044971b f   gl_shader.obj
 0001:00048847       ?ExtractShader@@YAXPAUshader_s@@@Z 00449847 f   gl_shader.obj
 0001:000488cb       ?ClearTempShader@@YAXXZ    004498cb f   gl_shader.obj
 0001:00048a93       ?FinishShader@@YAPAUshader_s@@XZ 00449a93 f   gl_shader.obj
 0001:00049249       ?NewTcModStage@@YAPAUtcModParms_t@@PAUshaderStage_t@@@Z 0044a249 f   gl_shader.obj
 0001:00047efd       ?NewPoly@@YAPAUpoly_s@@H@Z 00448efd f   gl_poly.obj
 0001:00047f24       ?SubdividePoly@@YAXPAUpoly_s@@00HMM@Z 00448f24 f   gl_poly.obj
 0001:000480f0       ?NewVert@@YAHMMM@Z         004490f0 f   gl_poly.obj
 0001:0004817d       ?AddPointToPoly@@YAXPAUpoly_s@@H@Z 0044917d f   gl_poly.obj
 0001:0004525d       ?LoadFlares@@YAXPAUlightFlare_s@@H@Z 0044625d f   gl_model.obj
 0001:00045327       ?LoadSlights@@YAXPAUslight_s@@H@Z 00446327 f   gl_model.obj
 0001:00045419       ?LoadBsp2@@YAXPAUbspfile_t@@@Z 00446419 f   gl_model.obj
 0001:0004565a       ?LoadPlanes@@YAXPAUdplane_t@@HH@Z 0044665a f   gl_model.obj
 0001:000456c1       ?LoadLeafsNodes2@@YAXPAUdnode_t@@HPAUdleaf_t@@H@Z 004466c1 f   gl_model.obj
 0001:00045817       ?SetNodeParent@@YAXPAUnode_s@@0@Z 00446817 f   gl_model.obj
 0001:0004583c       ?SetNodesAlpha@@YAXXZ      0044683c f   gl_model.obj
 0001:000458a6       ?LoadInlineModels2@@YAXPAUcmodel_t@@H@Z 004468a6 f   gl_model.obj
 0001:0004594d       ?LoadSurfaces2@@YAXPAUdface_t@@HPAHPAUdedge_t@@PAUdvertex_t@@PAUtexinfo_s@@PAUcmodel_t@@H@Z 0044694d f   gl_model.obj
 0001:0004619a       ?BuildSurfFlare@@YAXPAUsurfaceCommon_s@@PATcolor_t@@M@Z 0044719a f   gl_model.obj
 0001:000462f7       ?BuildSurfLight@@YAXPAUsurfacePlanar_s@@PATcolor_t@@MM_N@Z 004472f7 f   gl_model.obj
 0001:00046493       ?BuildPlanarSurfAxis@@YAXPAUsurfacePlanar_s@@@Z 00447493 f   gl_model.obj
 0001:000465b7       ?GenerateLightmaps2@@YAXPAEH@Z 004475b7 f   gl_model.obj
 0001:00046a41       ?LightmapCompare@@YAHPBX0@Z 00447a41 f   gl_model.obj
 0001:00046a8d       ?ShaderCompare@@YAHPBX0@Z  00447a8d f   gl_model.obj
 0001:00046aa4       ?LoadLeafSurfaces2@@YAXPAGH@Z 00447aa4 f   gl_model.obj
 0001:00046ae0       ?LoadVisinfo2@@YAXPAUdvis_t@@H@Z 00447ae0 f   gl_model.obj
 0001:00046bd4       ?FreeMapData@@YAXXZ        00447bd4 f   gl_model.obj
 0001:00046c52       ?LoadMd2@@YA_NPAUmodel_s@@PAEI@Z 00447c52 f   gl_model.obj
 0001:0004704f       ?ParseGlCmds@@YAHPADPAUsurfaceMd3_t@@PAH2@Z 0044804f f   gl_model.obj
 0001:00047276       ?ProcessMd2Frame@@YAXPAUvertexMd3_t@@PAUdAliasFrame_t@@PAUmd3Frame_t@@HPAH@Z 00448276 f   gl_model.obj
 0001:0004746f       ?BuildMd2Normals@@YAXPAUsurfaceMd3_t@@PAHH@Z 0044846f f   gl_model.obj
 0001:0004794f       ?SetMd3Skin@@YAXPAUmodel_s@@PAUsurfaceMd3_t@@HPAD@Z 0044894f f   gl_model.obj
 0001:00047a33       ?LoadSp2@@YA_NPAUmodel_s@@PAEI@Z 00448a33 f   gl_model.obj
 0001:00047be1       ?FreeModels@@YAXXZ         00448be1 f   gl_model.obj
 0001:00047c1b       ?FreeModel@@YAXPAUmodel_s@@@Z 00448c1b f   gl_model.obj
 0001:00047c72       ?Modellist_f@@YAX_NHPAPAD@Z 00448c72 f   gl_model.obj
 0001:00042a06       ?GetTextExtents@@YAXPBDAAH1@Z 00443a06 f   gl_main.obj
 0001:00042a4a       ?DrawTextPos@@YAXHHPBDI@Z  00443a4a f   gl_main.obj
 0001:00042cf2       ?GL_Init@@YAHXZ            00443cf2 f   gl_main.obj
 0001:00042fbc       ?GL_Register@@YAXXZ        00443fbc f   gl_main.obj
 0001:00042fdd       ?Gfxinfo_f@@YAX_NHPAPAD@Z  00443fdd f   gl_main.obj
 0001:00043233       ?GL_SetMode@@YA_NXZ        00444233 f   gl_main.obj
 0001:00043347       ?GL_Shutdown@@YAXXZ        00444347 f   gl_main.obj
 0001:000433c7       ?GL_BeginFrame@@YAXM@Z     004443c7 f   gl_main.obj
 0001:0004353c       ?GL_EndFrame@@YAXXZ        0044453c f   gl_main.obj
 0001:00043604       ?GL_RenderFrame@@YAXPAUrefdef_t@@@Z 00444604 f   gl_main.obj
 0001:00043a46       ?SetWorldModelview@@YAXXZ  00444a46 f   gl_main.obj
 0001:00043b51       ?SetFrustum@@YAXXZ         00444b51 f   gl_main.obj
 0001:00043ccf       ?SetPerspective@@YAXXZ     00444ccf f   gl_main.obj
 0001:00043e50       ?DrawChar@@YAXHHHH@Z       00444e50 f   gl_main.obj
 0001:00043f2b       ?DrawConChar@@YAXHHHH@Z    00444f2b f   gl_main.obj
 0001:00043f52       ?DrawFill@@YAXHHHHH@Z      00444f52 f   gl_main.obj
 0001:00043f95       ?DrawFill2@@YAXHHHHI@Z     00444f95 f   gl_main.obj
 0001:00043fd1       ?DrawTileClear@@YAXHHHHPBD@Z 00444fd1 f   gl_main.obj
 0001:0004408f       ?DrawStretchPic@@YAXHHHHPBD@Z 0044508f f   gl_main.obj
 0001:000440d1       ?FindPic@@YAPAUshader_s@@PBD_N@Z 004450d1 f   gl_main.obj
 0001:0004410c       ?DrawDetailedPic@@YAXHHHHPBD@Z 0044510c f   gl_main.obj
 0001:000441b3       ?DrawPic@@YAXHHPBDH@Z      004451b3 f   gl_main.obj
 0001:0004420d       ?GetPicSize@@YAXPAH0PBD@Z  0044520d f   gl_main.obj
 0001:00044252       ?ClearTexts@@YAXXZ         00445252 f   gl_main.obj
 0001:00044267       ?FlushTexts@@YAXXZ         00445267 f   gl_main.obj
 0001:00044363       ?BeginRegistration@@YAXPBD@Z 00445363 f   gl_main.obj
 0001:00035455       ?EndRegistration@@YAXXZ    00436455 f   vid_dll.obj
 0001:0004438f       ?RegisterPic@@YAPAUshader_s@@PBD@Z 0044538f f   gl_main.obj
 0001:0004439d       ?ReloadImage@@YAXPBD@Z     0044539d f   gl_main.obj
 0001:000443d9       ?SetSky@@YAXPBDMQAM@Z      004453d9 f   gl_main.obj
 0001:0004448a       ?Screenshot@@YAXHPBD@Z     0044548a f   gl_main.obj
 0001:000444ad       ?GetClientLight@@YAMXZ     004454ad f   gl_main.obj
 0001:00041eeb       ?CopyLightmap@@YAXPAE0HHHE@Z 00442eeb f   gl_lightmap.obj
 0001:00042171       ?CreateSolarColor@@YAXMMMPAM@Z 00443171 f   gl_lightmap.obj
 0001:00040a82       ?LightLine@@YAXPAY02$$CBMQBM1PBMM@Z 00441a82 f   gl_light.obj
 0001:00040c28       ?AddLight@@YAXPAY02$$CBMQBMMPBM@Z 00441c28 f   gl_light.obj
 0001:00040d36       ?AddPointLight@@YAXPBUgl_slight_t@@QBMPAY02$$CBMPBE@Z 00441d36 f   gl_light.obj
 0001:00040f41       ?GetCellLight@@YA_NQAMPAHPAUrefEntity_s@@@Z 00441f41 f   gl_light.obj
 0001:00041274       ?AddSurfaceLight@@YAXPBUsurfLight_s@@QBMPAY02$$CBMPBE@Z 00442274 f   gl_light.obj
 0001:00041aba       ?GetSurfLightCluster@@YAXXZ 00442aba f   gl_light.obj
 0001:0003cfa1       ?ComputeHash@@YAHPAD@Z     0043dfa1 f   gl_image.obj
 0001:0003cfc3       ?ComputeImageColor@@YAXPAXHHPATcolor_t@@@Z 0043dfc3 f   gl_image.obj
 0001:0003d030       ?Upload@@YAXPAXHPAUimage_s@@@Z 0043e030 f   gl_image.obj
 0001:0003d46d       ?ResampleTexture@@YAXPAIHH0HH@Z 0043e46d f   gl_image.obj
 0001:0003d6c1       ?LightScaleTexture@@YAXPAIHH@Z 0043e6c1 f   gl_image.obj
 0001:0003d85e       ?LightScaleLightmap@@YAXPAIHH@Z 0043e85e f   gl_image.obj
 0001:0003d923       ?MipMap@@YAXPAEHH@Z        0043e923 f   gl_image.obj
 0001:0003dabf       ?GetImageDimensions@@YAXHHPAH0_N@Z 0043eabf f   gl_image.obj
 0001:0003deb4       ?Convert8to32bit@@YAPAEPAEHHPAI@Z 0043eeb4 f   gl_image.obj
 0001:0003e7ee       ?GetPalette@@YAXXZ         0043f7ee f   gl_image.obj
 0001:0003e870       ?Imagelist_f@@YAX_NHPAPAD@Z 0043f870 f   gl_image.obj
 0001:0003ea42       ?ImageReload_f@@YAX_NHPAPAD@Z 0043fa42 f   gl_image.obj
 0001:0003a313       ?SetupModelMatrix@@YAXPAUrefEntity_s@@@Z 0043b313 f   gl_frontend.obj
 0001:0003a3d7       ?AddInlineModelSurfaces@@YAXPAUrefEntity_s@@@Z 0043b3d7 f   gl_frontend.obj
 0001:0003a4b3       ?AddBspSurfaces@@YAXPAPAUsurfaceCommon_s@@HHPAUrefEntity_s@@@Z 0043b4b3 f   gl_frontend.obj
 0001:0003a798       ?BoxCull@@YAHQAM0H@Z       0043b798 f   gl_frontend.obj
 0001:0003a7f9       ?TransformedBoxCull@@YAHQAM0PAUrefEntity_s@@@Z 0043b7f9 f   gl_frontend.obj
 0001:0003a909       ?AddMd3Surfaces@@YAXPAUrefEntity_s@@@Z 0043b909 f   gl_frontend.obj
 0001:0003a97d       ?AddSp2Surface@@YAXPAUrefEntity_s@@@Z 0043b97d f   gl_frontend.obj
 0001:0003aaf8       ?WalkBspTree@@YAPAUnode_s@@XZ 0043baf8 f   gl_frontend.obj
 0001:0003ad97       ?DrawEntities@@YAXHH@Z     0043bd97 f   gl_frontend.obj
 0001:0003b0fc       ?SphereCull@@YAHQAMMPAE@Z  0043c0fc f   gl_frontend.obj
 0001:0003b1b0       ?BoxOccluded@@YA_NPAUrefEntity_s@@QAM@Z 0043c1b0 f   gl_frontend.obj
 0001:0003b357       ?SphereLeaf@@YAPAUnode_s@@QAMM@Z 0043c357 f   gl_frontend.obj
 0001:0003b3f4       ?AlphaSphereLeaf@@YAPAUnode_s@@QAMM@Z 0043c3f4 f   gl_frontend.obj
 0001:0003b4bc       ?DrawParticles@@YAXXZ      0043c4bc f   gl_frontend.obj
 0001:0003b5b5       ?CutCylinder@@YA_NQAM0M@Z  0043c5b5 f   gl_frontend.obj
 0001:0003b6d2       ?BeamLeaf@@YAPAUnode_s@@QAM0@Z 0043c6d2 f   gl_frontend.obj
 0001:0003b852       ?DrawFlares@@YAXXZ         0043c852 f   gl_frontend.obj
 0001:0003be7e       ?PointCull@@YAHQAMH@Z      0043ce7e f   gl_frontend.obj
 0001:0003bedb       ?ClipTraceToEntities@@YAXPAUtrace_t@@QAM1H@Z 0043cedb f   gl_frontend.obj
 0001:0003c098       ?DrawBspSequence@@YAXPAUnode_s@@@Z 0043d098 f   gl_frontend.obj
 0001:0003c219       ?AddBeamSurfaces@@YAXPAUbeam_s@@@Z 0043d219 f   gl_frontend.obj
 0001:0003c511       ?AddCylinderSurfaces@@YAXPAUbeam_s@@PAUshader_s@@@Z 0043d511 f   gl_frontend.obj
 0001:0003c96f       ?AddFlatBeam@@YAXPAUbeam_s@@PAUshader_s@@@Z 0043d96f f   gl_frontend.obj
 0001:0003cba5       ?MarkLeaves@@YAXXZ         0043dba5 f   gl_frontend.obj
 0001:00036358       ?FlushArrays@@YAXXZ        00437358 f   gl_backend.obj
 0001:0003637c       ?StageIterator@@YAXXZ      0043737c f   gl_backend.obj
 0001:000366bf       ?ProcessShaderDeforms@@YAXPAUshader_s@@@Z 004376bf f   gl_backend.obj
 0001:000367ba       ?GenerateColorArray@@YAXPAUshaderStage_t@@@Z 004377ba f   gl_backend.obj
 0001:00036c54       ?GenerateTexCoordArray@@YAXPAUshaderStage_t@@HPAUimage_s@@@Z 00437c54 f   gl_backend.obj
 0001:0003741c       ?PreprocessShader@@YAXPAUshader_s@@@Z 0043841c f   gl_backend.obj
 0001:00037ddc       ?DrawTriangles@@YAXXZ      00438ddc f   gl_backend.obj
 0001:00037e6a       ?FlashColor@@YAXXZ         00438e6a f   gl_backend.obj
 0001:00037ee1       ?DrawNormals@@YAXXZ        00438ee1 f   gl_backend.obj
 0001:00037fd5       ?DrawScene@@YAXXZ          00438fd5 f   gl_backend.obj
 0001:000383a7       ?SetCurrentShader@@YAXPAUshader_s@@@Z 004393a7 f   gl_backend.obj
 0001:00038409       ?DrawSkyBox@@YAXXZ         00439409 f   gl_backend.obj
 0001:000387fd       ?CheckDynamicLightmap@@YAXPAUsurfaceCommon_s@@@Z 004397fd f   gl_backend.obj
 0001:000388ec       ?TesselatePlanarSurf@@YAXPAUsurfacePlanar_s@@@Z 004398ec f   gl_backend.obj
 0001:000389f4       ?ReserveVerts@@YAXHH@Z     004399f4 f   gl_backend.obj
 0001:00038a4b       ?TesselatePolySurf@@YAXPAUsurfacePoly_t@@@Z 00439a4b f   gl_backend.obj
 0001:00038b42       ?TesselateMd3Surf@@YAXPAUsurfaceMd3_t@@@Z 00439b42 f   gl_backend.obj
 0001:00038eff       ?DrawBBoxes@@YAXXZ         00439eff f   gl_backend.obj
 0001:000390e3       ?TesselateEntitySurf@@YAXPAUrefEntity_s@@@Z 0043a0e3 f   gl_backend.obj
 0001:00039218       ?DrawParticles@@YAXPAUparticle_s@@@Z 0043a218 f   gl_backend.obj
 0001:00039444       ?TesselateStretchPic@@YAXPAUbkDrawPic_t@@@Z 0043a444 f   gl_backend.obj
 0001:000395e7       ?TesselateText@@YAXPAUbkDrawText_t@@@Z 0043a5e7 f   gl_backend.obj
 0001:00035cd2       ?DriverCallback@@YAXPAX@Z  00436cd2 f   vid_menu.obj
 0001:00035d27       ?ScreenSizeCallback@@YAXPAX@Z 00436d27 f   vid_menu.obj
 0001:00035d45       ?BrightnessCallback@@YAXPAX@Z 00436d45 f   vid_menu.obj
 0001:00035d82       ?ContrastCallback@@YAXPAX@Z 00436d82 f   vid_menu.obj
 0001:00035dda       ?CancelChanges@@YAXPAX@Z   00436dda f   vid_menu.obj
 0001:00035f56       ?ApplyChanges@@YAXPAX@Z    00436f56 f   vid_menu.obj
 0001:0003495c       ?MainWndProc@@YGJPAUHWND__@@IIJ@Z 0043595c f   vid_dll.obj
 0001:00034d83       ?MapKey@@YAHH_N@Z          00435d83 f   vid_dll.obj
 0001:00034e37       ?AppActivate@@YAX_N0@Z     00435e37 f   vid_dll.obj
 0001:00034ec2       ?WIN_DisableAltTab@@YAXXZ  00435ec2 f   vid_dll.obj
 0001:00034f0b       ?WIN_EnableAltTab@@YAXXZ   00435f0b f   vid_dll.obj
 0001:00034f4a       ?WIN_HighPriority@@YAX_N@Z 00435f4a f   vid_dll.obj
 0001:00034f67       ?Vid_NewWindow@@YAXHH@Z    00435f67 f   vid_dll.obj
 0001:000351c3       ?Vid_LoadRefresh@@YA_NPAD@Z 004361c3 f   vid_dll.obj
 0001:00035455       ?D_RenderFrame@@YAXPAUrefdef_t@@@Z 00436455 f   vid_dll.obj
 0001:00035455       ?D_BeginRegistration@@YAXPBD@Z 00436455 f   vid_dll.obj
 0001:00035452       ?D_RegisterModel@@YAPAUmodel_s@@PBD@Z 00436452 f   vid_dll.obj
 0001:00035452       ?D_RegisterSkin@@YAPAUimage_s@@PBD@Z 00436452 f   vid_dll.obj
 0001:00035455       ?D_ReloadImage@@YAXPBD@Z   00436455 f   vid_dll.obj
 0001:00035452       ?D_FindPic@@YAPAUimage_s@@PBD@Z 00436452 f   vid_dll.obj
 0001:00035455       ?D_SetSky@@YAXPBDMQAM@Z    00436455 f   vid_dll.obj
 0001:00035455       ?D_EndRegistration@@YAXXZ  00436455 f   vid_dll.obj
 0001:00035456       ?D_Draw_GetPicSize@@YAXPAH0PBD@Z 00436456 f   vid_dll.obj
 0001:0003546d       ?D_Screenshot@@YAXHPBD@Z   0043646d f   vid_dll.obj
 0001:00035455       ?D_Draw_Pic@@YAXHHPBDH@Z   00436455 f   vid_dll.obj
 0001:00035455       ?D_Draw_StretchPic@@YAXHHHHPBD@Z 00436455 f   vid_dll.obj
 0001:00035455       ?D_Draw_Char@@YAXHHHH@Z    00436455 f   vid_dll.obj
 0001:00035455       ?D_Draw_TileClear@@YAXHHHHPBD@Z 00436455 f   vid_dll.obj
 0001:00035455       ?D_Draw_Fill@@YAXHHHHH@Z   00436455 f   vid_dll.obj
 0001:00035455       ?D_Draw_Fill2@@YAXHHHHI@Z  00436455 f   vid_dll.obj
 0001:00035455       ?D_DrawTextPos@@YAXHHPBDI@Z 00436455 f   vid_dll.obj
 0001:00035455       ?D_DrawTextSide@@YAXPBDI@Z 00436455 f   vid_dll.obj
 0001:00035455       ?D_Draw_StretchRaw8@@YAXHHHHHHPAE@Z 00436455 f   vid_dll.obj
 0001:00035455       ?D_SetPalette@@YAXPBE@Z    00436455 f   vid_dll.obj
 0001:00035479       ?D_GetClientLight@@YAMXZ   00436479 f   vid_dll.obj
 0001:0003554a       ?Vid_Restart_f@@YAXXZ      0043654a f   vid_dll.obj
 0001:00035554       ?Vid_Front_f@@YAXXZ        00436554 f   vid_dll.obj
 0001:000331f0       ?Sys_ScanForCD@@YAPADXZ    004341f0 f   sys_win.obj
 0001:000338a4       ?DumpReg4@@YAXPAU_iobuf@@PADI@Z 004348a4 f   sys_win.obj
 0001:0003393c       ?DumpReg2@@YAXPAU_iobuf@@PADK@Z 0043493c f   sys_win.obj
 0001:00033957       ?DumpMem@@YAXPAU_iobuf@@PAIPAU_CONTEXT@@@Z 00434957 f   sys_win.obj
 0001:00033ae3       ?IsString@@YA_NPAD@Z       00434ae3 f   sys_win.obj
 0001:00033b24       ?DumpString@@YA_NPAU_iobuf@@PAD@Z 00434b24 f   sys_win.obj
 0001:00033c2b       ?CheckCpuName@@YAXXZ       00434c2b f   sys_win.obj
 0001:00033cff       ?cpuid@@YA_NIQAI@Z         00434cff f   sys_win.obj
 0001:00033d65       ?CheckCpuCaps@@YAXXZ       00434d65 f   sys_win.obj
 0001:00033e42       ?CheckCpuSpeed@@YAXXZ      00434e42 f   sys_win.obj
 0001:0003412e       ?EraseConInput@@YAXXZ      0043512e f   sys_win.obj
 0001:00032a51       ?SNDDMA_InitDirect@@YA_NXZ 00433a51 f   snd_win.obj
 0001:00032b96       ?DS_CreateBuffers@@YA_NXZ  00433b96 f   snd_win.obj
 0001:00032f08       ?FreeSound@@YAXXZ          00433f08 f   snd_win.obj
 0001:00032f80       ?DS_DestroyBuffers@@YAXXZ  00433f80 f   snd_win.obj
 0001:0003313c       ?DSoundError@@YAPBDH@Z     0043413c f   snd_win.obj
 0001:00032938       ?CheckAttributes@@YA_NI@Z  00433938 f   q_shwin.obj
 0001:00031ed7       ?StringToSockaddr@@YA_NPBDPAUsockaddr@@@Z 00432ed7 f   net_wins.obj
 0001:000322dc       ?NET_ErrorString@@YAPADXZ  004332dc f   net_wins.obj
 0001:000325cc       ?NET_IPXSocket@@YAHH@Z     004335cc f   net_wins.obj
 0001:000327aa       ?Cmd_NetRestart_f@@YAXXZ   004337aa f   net_wins.obj
 0001:00030f4d       ?IN_MLookDown@@YAXXZ       00431f4d f   in_win.obj
 0001:00030f55       ?IN_MLookUp@@YAXXZ         00431f55 f   in_win.obj
 0001:00030f78       ?IN_StartupMouse@@YAXXZ    00431f78 f   in_win.obj
 0001:00030faf       ?IN_StartupJoystick@@YAXXZ 00431faf f   in_win.obj
 0001:000310c5       ?Joy_AdvancedUpdate_f@@YAXXZ 004320c5 f   in_win.obj
 0001:00031208       ?RawValuePointer@@YAPAKH@Z 00432208 f   in_win.obj
 0001:0003124c       ?IN_DeactivateMouse@@YAXXZ 0043224c f   in_win.obj
 0001:0003126f       ?IN_FreeDirect@@YAXXZ      0043226f f   in_win.obj
 0001:000312d8       ?IN_FreeWin32@@YAXXZ       004322d8 f   in_win.obj
 0001:00031349       ?IN_MouseMove@@YAXPAUusercmd_t@@@Z 00432349 f   in_win.obj
 0001:00031504       ?IN_JoyMove@@YAXPAUusercmd_t@@@Z 00432504 f   in_win.obj
 0001:000317f5       ?IN_ReadJoystick@@YA_NXZ   004327f5 f   in_win.obj
 0001:000319b4       ?IN_ActivateMouse@@YAXXZ   004329b4 f   in_win.obj
 0001:00031a24       ?IN_InitDirect@@YA_NXZ     00432a24 f   in_win.obj
 0001:00031b31       ?IN_InitWin32@@YAXXZ       00432b31 f   in_win.obj
 0001:000306e9       ?CDAudio_GetAudioDiskInfo@@YAHXZ 004316e9 f   cd_win.obj
 0001:00030a5d       ?CD_f@@YAXHPAPAD@Z         00431a5d f   cd_win.obj
 0001:00030cce       ?CDAudio_Eject@@YAXXZ      00431cce f   cd_win.obj
 0001:00030cf8       ?CDAudio_CloseDoor@@YAXXZ  00431cf8 f   cd_win.obj
 0001:0002fcb7       ?SkipWhitespace@@YAPBDPBDPA_N@Z 00430cb7 f   q_shared2.obj
 0001:0002d663       ?StepSlideMove@@YAXXZ      0042e663 f   pmove.obj
 0001:0002d7e9       ?SlideMove@@YA_NXZ         0042e7e9 f   pmove.obj
 0001:0002db33       ?ClipVelocity@@YAXQAM00M@Z 0042eb33 f   pmove.obj
 0001:0002db9d       ?Friction@@YAXXZ           0042eb9d f   pmove.obj
 0001:0002dcac       ?WaterMove@@YAXXZ          0042ecac f   pmove.obj
 0001:0002dd8c       ?Accelerate@@YAXQAMMM@Z    0042ed8c f   pmove.obj
 0001:0002ddf8       ?AddCurrents@@YAXQAM@Z     0042edf8 f   pmove.obj
 0001:0002e11e       ?AirMove@@YAXXZ            0042f11e f   pmove.obj
 0001:0002e36c       ?AirAccelerate@@YAXQAMMM@Z 0042f36c f   pmove.obj
 0001:0002e3f2       ?CatagorizePosition@@YAXXZ 0042f3f2 f   pmove.obj
 0001:0002e63d       ?CheckJump@@YAXXZ          0042f63d f   pmove.obj
 0001:0002e704       ?CheckSpecialMovement@@YAXXZ 0042f704 f   pmove.obj
 0001:0002e88d       ?FlyMove@@YAX_N@Z          0042f88d f   pmove.obj
 0001:0002eb00       ?CheckDuck@@YAXXZ          0042fb00 f   pmove.obj
 0001:0002ec35       ?DeadMove@@YAXXZ           0042fc35 f   pmove.obj
 0001:0002eca1       ?SnapPosition@@YAXXZ       0042fca1 f   pmove.obj
 0001:0002eea2       ?InitialSnapPosition@@YAXXZ 0042fea2 f   pmove.obj
 0001:0002efab       ?GoodPosition@@YA_NXZ      0042ffab f   pmove.obj
 0001:0002f01c       ?ClampAngles@@YAXXZ        0043001c f   pmove.obj
 0001:0002bd4a       ?ProcessQ2BspFile@@YAXPAUbspfile_t@@@Z 0042cd4a f   model.obj
 0001:0002be23       ?LoadQ2Submodels@@YAXPAUbspfile_t@@PAUdmodel_t@@@Z 0042ce23 f   model.obj
 0001:0002beee       ?CheckLump@@YAHHPAPAXH@Z   0042ceee f   model.obj
 0001:0002c23e       ?ReadEntity@@YA_NAAPBD@Z   0042d23e f   model.obj
 0001:0002c2e5       ?ErrMsg@@YAXPAD@Z          0042d2e5 f   model.obj
 0001:0002c2fd       ?WriteEntity@@YAXPAPAD@Z   0042d2fd f   model.obj
 0001:0002c368       ?ProcessEntityTarget@@YAXXZ 0042d368 f   model.obj
 0001:0002c3de       ?FindField@@YAPAUentField_t@@PAD@Z 0042d3de f   model.obj
 0001:0002c41a       ?GetVector@@YAXPADQAM@Z    0042d41a f   model.obj
 0001:0002c44b       ?ProcessEntity@@YA_NXZ     0042d44b f   model.obj
 0001:0002ce8a       ?RemoveField@@YAXPAD@Z     0042de8a f   model.obj
 0001:0002ce9c       ?AddField@@YAXPAD0@Z       0042de9c f   model.obj
 0001:0002ced9       ?FindEntityTarget@@YAPAMPAD@Z 0042ded9 f   model.obj
 0001:0002b839       ?AllocChain@@YAPAUchainBlock_s@@H@Z 0042c839 f   memory.obj
 0001:0002bb36       ?Mem_Stats_f@@YAXXZ        0042cb36 f   memory.obj
 0001:0002b0a2       ?MD4Transform@@YAXQAKQAE@Z 0042c0a2 f   md4.obj
 0001:0002b6a4       ?Encode@@YAXPAEPAKI@Z      0042c6a4 f   md4.obj
 0001:0002b6e9       ?Decode@@YAXPAKPAEI@Z      0042c6e9 f   md4.obj
 0001:00035455       ?J_InitSource@@YAXPAUjpeg_decompress_struct@@@Z 00436455 f   vid_dll.obj
 0001:0002aacb       ?J_FillInputBuffer@@YAEPAUjpeg_decompress_struct@@@Z 0042bacb f   images.obj
 0001:0002aad3       ?JpegError@@YAXXZ          0042bad3 f   images.obj
 0001:0002aaf6       ?J_SkipInputData@@YAXPAUjpeg_decompress_struct@@J@Z 0042baf6 f   images.obj
 0001:00035455       ?J_TermSource@@YAXPAUjpeg_decompress_struct@@@Z 00436455 f   vid_dll.obj
 0001:0002ab0e       ?InitJpegError@@YAPAUjpeg_error_mgr@@PAU1@@Z 0042bb0e f   images.obj
 0001:0002ab38       ?J_ErrorExit@@YAXPAUjpeg_common_struct@@@Z 0042bb38 f   images.obj
 0001:0002ab42       ?J_EmitMessage@@YAXPAUjpeg_common_struct@@H@Z 0042bb42 f   images.obj
 0001:0002ab5f       ?J_ResetErrorMgr@@YAXPAUjpeg_common_struct@@@Z 0042bb5f f   images.obj
 0001:000286dc       ?FCloseCached@@YAXPAU_iobuf@@@Z 004296dc f   files.obj
 0001:00028adb       ?FindPakFile@@YAPAUpackFile_s@@PAUpack_t@@PAD@Z 00429adb f   files.obj
 0001:00028b4b       ?FindPakDirectory@@YAPAUpackDir_s@@PAUpack_t@@PAD@Z 00429b4b f   files.obj
 0001:00028bdc       ?FileLength@@YAHPAU_iobuf@@@Z 00429bdc f   files.obj
 0001:00028c11       ?AllocFileInternal@@YAPAU_iobuf@@PADPAU1@W4fileType_t@@@Z 00429c11 f   files.obj
 0001:0002907e       ?FOpenCached@@YAPAU_iobuf@@PAD@Z 0042a07e f   files.obj
 0001:000293b6       ?UnloadPackFile@@YAXPAUpack_t@@@Z 0042a3b6 f   files.obj
 0001:000293dc       ?ClearFileCache@@YAXXZ     0042a3dc f   files.obj
 0001:00029403       ?AddGameDirectory@@YAXPAD@Z 0042a403 f   files.obj
 0001:000294c8       ?AddDirFilesToList@@YAPAUbasenamed_s@@PADPAU1@H@Z 0042a4c8 f   files.obj
 0001:0002958b       ?LoadPackFile@@YAPAUpack_t@@PAD@Z 0042a58b f   files.obj
 0001:000296fa       ?AddPakFile@@YAPAUpackFile_s@@PAUpack_t@@PAD@Z 0042a6fa f   files.obj
 0001:00029799       ?AddPakDirectory@@YAPAUpackDir_s@@PAUpack_t@@PAD@Z 0042a799 f   files.obj
 0001:00029877       ?EnumZippedPak@@YA_NPAUzipFile_t@@@Z 0042a877 f   files.obj
 0001:00029b16       ?ListPakDirectory@@YAPAUbasenamed_s@@PAUpack_t@@PAD1HPAU1@1@Z 0042ab16 f   files.obj
 0001:00029ce6       ?InitResFiles@@YAXXZ       0042ace6 f   files.obj
 0001:00029dc9       ?FS_LoadPak_f@@YAX_NHPAPAD@Z 0042adc9 f   files.obj
 0001:00029e93       ?TryLoadPak@@YA_NPAD@Z     0042ae93 f   files.obj
 0001:00029f00       ?FindPakStruc@@YAPAUsearchPath_s@@PAD@Z 0042af00 f   files.obj
 0001:00029f55       ?FS_UnloadPak_f@@YAX_NHPAPAD@Z 0042af55 f   files.obj
 0001:0002a0dc       ?FS_Link_f@@YAX_NHPAPAD@Z  0042b0dc f   files.obj
 0001:0002a199       ?FS_Dir_f@@YAX_NHPAPAD@Z   0042b199 f   files.obj
 0001:0002a393       ?FS_Path_f@@YAXXZ          0042b393 f   files.obj
 0001:0002a447       ?FS_Cat_f@@YAX_NHPAPAD@Z   0042b447 f   files.obj
 0001:0002a523       ?FS_Type_f@@YAX_NHPAPAD@Z  0042b523 f   files.obj
 0001:000273c7       ?Cvar_FindVar@@YAPAUcvar_s@@PBD@Z 004283c7 f   cvar.obj
 0001:000273fc       ?ComputeHash@@YAHPBD@Z     004283fc f   cvar.obj
 0001:000275f2       ?Cvar_SetString@@YAXPAUcvar_s@@PBD@Z 004285f2 f   cvar.obj
 0001:0002768e       ?Cvar_InfoValidate@@YA_NPBD@Z 0042868e f   cvar.obj
 0001:000276c4       ?FilterValue@@YAXPAUcvar_s@@PAPBD@Z 004286c4 f   cvar.obj
 0001:00027826       ?Cvar_Set2@@YAPAUcvar_s@@PBD0H_N@Z 00428826 f   cvar.obj
 0001:000279cb       ?Cvar_SetHardcoded@@YAXPAUcvar_s@@PBD@Z 004289cb f   cvar.obj
 0001:00027dc7       ?Cvar_Set_f@@YAX_NHPAPAD@Z 00428dc7 f   cvar.obj
 0001:00027e4d       ?Cvar_SetWithFlags@@YAXPBD0HH@Z 00428e4d f   cvar.obj
 0001:00027e90       ?Cvar_Seta_f@@YAX_NHPAPAD@Z 00428e90 f   cvar.obj
 0001:00027ec1       ?Cvar_Setu_f@@YAX_NHPAPAD@Z 00428ec1 f   cvar.obj
 0001:00027ef2       ?Cvar_Sets_f@@YAX_NHPAPAD@Z 00428ef2 f   cvar.obj
 0001:00027f23       ?Cvar_Reset_f@@YAX_NHPAPAD@Z 00428f23 f   cvar.obj
 0001:00027f89       ?Cvar_List_f@@YAX_NHPAPAD@Z 00428f89 f   cvar.obj
 0001:000280a7       ?Cvar_Add_f@@YAX_NHPAPAD@Z 004290a7 f   cvar.obj
 0001:00028213       ?Cvar_Scale_f@@YAX_NHPAPAD@Z 00429213 f   cvar.obj
 0001:00028285       ?Cvar_Toggle_f@@YAX_NHPAPAD@Z 00429285 f   cvar.obj
 0001:000282e7       ?Cvar_Cycle_f@@YAX_NHPAPAD@Z 004292e7 f   cvar.obj
 0001:0002585a       ?appUncolorizeString@@YAXPADPBD@Z 0042685a f   common.obj
 0001:00025f37       ?GetInt@@YAIPAPAD@Z        00426f37 f   common.obj
 0001:00026e30       ?Com_Error_f@@YAXHPAPAD@Z  00427e30 f   common.obj
 0001:00026e79       ?ParseCmdline@@YAXPBD@Z    00427e79 f   common.obj
 0001:0002702e       ?PushCmdline@@YAXXZ        0042802e f   common.obj
 0001:00022fbc       ?CMod_LoadSubmodels@@YAXPAUcmodel_t@@H@Z 00423fbc f   cmodel.obj
 0001:00022fe2       ?CMod_LoadSurfaces@@YAXPAUtexinfo_s@@H@Z 00423fe2 f   cmodel.obj
 0001:000230dc       ?CMod_ReadSurfMaterials@@YAXPAD@Z 004240dc f   cmodel.obj
 0001:00023215       ?CMod_LoadNodes@@YAXPAUdnode_t@@H@Z 00424215 f   cmodel.obj
 0001:00023278       ?CMod_LoadBrushes@@YAXPAUdbrush_t@@H@Z 00424278 f   cmodel.obj
 0001:000232c0       ?CMod_LoadLeafs@@YAXPAUdleaf_t@@H@Z 004242c0 f   cmodel.obj
 0001:00023386       ?CMod_LoadPlanes@@YAXPAUdplane_t@@H@Z 00424386 f   cmodel.obj
 0001:0002348a       ?CMod_LoadLeafBrushes@@YAXPAGH@Z 0042448a f   cmodel.obj
 0001:000234d2       ?CMod_LoadBrushSides@@YAXPAUdbrushside_t@@H@Z 004244d2 f   cmodel.obj
 0001:0002353d       ?CMod_LoadAreas@@YAXPAUdarea_t@@H@Z 0042453d f   cmodel.obj
 0001:00023584       ?CMod_LoadAreaPortals@@YAXPAUdareaportal_t@@H@Z 00424584 f   cmodel.obj
 0001:00023597       ?CMod_LoadVisibility@@YAXPAUdvis_t@@H@Z 00424597 f   cmodel.obj
 0001:000235aa       ?CMod_LoadEntityString@@YAXPADH@Z 004245aa f   cmodel.obj
 0001:000240c1       ?TestInLeaf@@YAXH@Z        004250c1 f   cmodel.obj
 0001:00024126       ?TestBoxInBrush@@YA_NPBUcbrush_t@@@Z 00425126 f   cmodel.obj
 0001:00024298       ?RecursiveHullCheck@@YAXHMMQBM0@Z 00425298 f   cmodel.obj
 0001:00024543       ?TraceToLeaf@@YAXH@Z       00425543 f   cmodel.obj
 0001:000245c3       ?ClipBoxToBrush@@YAXPBUcbrush_t@@@Z 004255c3 f   cmodel.obj
 0001:00024da4       ?RecursiveBrushTest@@YAXQBM0H@Z 00425da4 f   cmodel.obj
 0001:00025013       ?TestBrush@@YA_NQBM0PBUcbrush_t@@@Z 00426013 f   cmodel.obj
 0001:00025289       ?DecompressVis@@YAXPBEPAE@Z 00426289 f   cmodel.obj
 0001:0002540c       ?FloodArea_r@@YAXPAUcarea_t@@H@Z 0042640c f   cmodel.obj
 0001:000226df       ?MacroExpandString@@YAPADPBD@Z 004236df f   cmd.obj
 0001:000228c9       ?TokenizeString@@YAXPBD@Z  004238c9 f   cmd.obj
 0001:00022ac0       ?Cmd_Wait_f@@YAX_NHPAPAD@Z 00423ac0 f   cmd.obj
 0001:00022b00       ?Cmd_Exec_f@@YAX_NHPAPAD@Z 00423b00 f   cmd.obj
 0001:00022b5f       ?Cmd_Echo_f@@YAXHPAPAD@Z   00423b5f f   cmd.obj
 0001:00022b96       ?Cmd_Alias_f@@YAX_NHPAPAD@Z 00423b96 f   cmd.obj
 0001:00022ca6       ?Cmd_List_f@@YAX_NHPAPAD@Z 00423ca6 f   cmd.obj
 0001:00021194       ?SV_CreateAreaNode@@YAPAUareanode_s@@HQAM0@Z 00422194 f   sv_world.obj
 0001:000212a7       ?ClearLink@@YAXPAUlink_s@@@Z 004222a7 f   sv_world.obj
 0001:00021360       ?RemoveLink@@YAXPAUlink_s@@@Z 00422360 f   sv_world.obj
 0001:000219b4       ?InsertLinkBefore@@YAXPAUlink_s@@0@Z 004229b4 f   sv_world.obj
 0001:00021a60       ?SV_AreaEdicts_r@@YAXPAUareanode_s@@@Z 00422a60 f   sv_world.obj
 0001:0002055c       ?SV_New_f@@YAXHPAPAD@Z     0042155c f   sv_user.obj
 0001:0002071d       ?SV_Configstrings_f@@YAXHPAPAD@Z 0042171d f   sv_user.obj
 0001:00020876       ?SV_Baselines_f@@YAXHPAPAD@Z 00421876 f   sv_user.obj
 0001:000209e3       ?SV_Begin_f@@YAXHPAPAD@Z   004219e3 f   sv_user.obj
 0001:00020a95       ?SV_NextDownload_f@@YAXHPAPAD@Z 00421a95 f   sv_user.obj
 0001:00020b7b       ?SV_BeginDownload_f@@YAXHPAPAD@Z 00421b7b f   sv_user.obj
 0001:00020d8a       ?SV_Disconnect_f@@YAXHPAPAD@Z 00421d8a f   sv_user.obj
 0001:00020d9a       ?SV_ShowServerinfo_f@@YAXHPAPAD@Z 00421d9a f   sv_user.obj
 0001:00020df1       ?SV_Nextserver_f@@YAXHPAPAD@Z 00421df1 f   sv_user.obj
 0001:0001fa2f       ?SV_FlushRedirect@@YAXPAD@Z 00420a2f f   sv_send.obj
 0001:0001dd80       ?cPing@@YAXHPAPAD@Z        0041ed80 f   sv_main.obj
 0001:0001dda3       ?cAck@@YAXHPAPAD@Z         0041eda3 f   sv_main.obj
 0001:0001deac       ?cStatus@@YAXHPAPAD@Z      0041eeac f   sv_main.obj
 0001:0001ded5       ?cInfo@@YAXHPAPAD@Z        0041eed5 f   sv_main.obj
 0001:0001dfb5       ?cGetChallenge@@YAXHPAPAD@Z 0041efb5 f   sv_main.obj
 0001:0001e05d       ?cDirectConnect@@YAXHPAPAD@Z 0041f05d f   sv_main.obj
 0001:0001e4b4       ?cRemoteCommand@@YAXHPAPAD@Z 0041f4b4 f   sv_main.obj
 0001:0001f1fb       ?FindClient@@YAPAUclient_s@@QAMM@Z 004201fb f   sv_main.obj
 0001:0001f621       ?SV_PrepWorldFrame@@YAXXZ  00420621 f   sv_main.obj
 0001:0001f647       ?Master_Heartbeat@@YAXXZ   00420647 f   sv_main.obj
 0001:0001f9ac       ?Master_Shutdown@@YAXXZ    004209ac f   sv_main.obj
 0001:0001c706       ?PF_Unicast@@YAXPAUedict_s@@I@Z 0041d706 f   sv_game.obj
 0001:0001c7c5       ?PF_dprintf@@YAXPADZZ      0041d7c5 f   sv_game.obj
 0001:0001c7fd       ?PF_cprintf@@YAXPAUedict_s@@HPADZZ 0041d7fd f   sv_game.obj
 0001:0001c8ea       ?PF_centerprintf@@YAXPAUedict_s@@PADZZ 0041d8ea f   sv_game.obj
 0001:0001c9a7       ?PF_error@@YAXPADZZ        0041d9a7 f   sv_game.obj
 0001:0001c9dd       ?PF_setmodel@@YAXPAUedict_s@@PAD@Z 0041d9dd f   sv_game.obj
 0001:0001ca78       ?PF_Configstring@@YAXHPAD@Z 0041da78 f   sv_game.obj
 0001:0001cb3e       ?PF_WriteChar@@YAXH@Z      0041db3e f   sv_game.obj
 0001:0001cb3e       ?PF_WriteByte@@YAXH@Z      0041db3e f   sv_game.obj
 0001:0001cb4f       ?PF_WriteShort@@YAXH@Z     0041db4f f   sv_game.obj
 0001:0001cb60       ?PF_WriteLong@@YAXH@Z      0041db60 f   sv_game.obj
 0001:0001cb71       ?PF_WriteFloat@@YAXM@Z     0041db71 f   sv_game.obj
 0001:0001cb86       ?PF_WriteString@@YAXPAD@Z  0041db86 f   sv_game.obj
 0001:0001cb97       ?PF_WritePos@@YAXQAM@Z     0041db97 f   sv_game.obj
 0001:0001cba8       ?PF_WriteDir@@YAXQAM@Z     0041dba8 f   sv_game.obj
 0001:0001cbb9       ?PF_WriteAngle@@YAXM@Z     0041dbb9 f   sv_game.obj
 0001:0001cbce       ?PF_inPVS@@YAIQAM0@Z       0041dbce f   sv_game.obj
 0001:0001cc4a       ?PF_inPHS@@YAIQAM0@Z       0041dc4a f   sv_game.obj
 0001:0001ccc6       ?PF_StartSound@@YAXPAUedict_s@@HHMMM@Z 0041dcc6 f   sv_game.obj
 0001:0001ccf9       ?PF_SetAreaPortalState@@YAXHI@Z 0041dcf9 f   sv_game.obj
 0001:0001cd0e       ?PF_AreasConnected@@YAIHH@Z 0041dd0e f   sv_game.obj
 0001:0001cd21       ?PF_Cvar_Get@@YAPAUcvar_s@@PAD0H@Z 0041dd21 f   sv_game.obj
 0001:0001cd3c       ?PSV_LinkEdict@@YAXPAUedict_s@@@Z 0041dd3c f   sv_game.obj
 0001:0001cd68       ?PSV_UnlinkEdict@@YAXPAUedict_s@@@Z 0041dd68 f   sv_game.obj
 0001:0001cd94       ?PSV_AreaEdicts@@YAHQAM0PAPAUedict_s@@HH@Z 0041dd94 f   sv_game.obj
 0001:0001cdd2       ?PSV_TraceHook@@YA?AUtrace_t@@QAM000PAUedict_s@@H@Z 0041ddd2 f   sv_game.obj
 0001:0001ce31       ?PSV_PointContents@@YAHQAM@Z 0041de31 f   sv_game.obj
 0001:0001ce61       ?PPmove@@YAXPAUpmove_t@@@Z 0041de61 f   sv_game.obj
 0001:0001ce8d       ?PSV_ModelIndex@@YAHPAD@Z  0041de8d f   sv_game.obj
 0001:0001cebd       ?PSV_ImageIndex@@YAHPAD@Z  0041debd f   sv_game.obj
 0001:0001ceed       ?PSV_SoundIndex@@YAHPAD@Z  0041deed f   sv_game.obj
 0001:0001cf1d       ?PZ_TagMalloc@@YAPAXHH@Z   0041df1d f   sv_game.obj
 0001:0001cf51       ?Z_TagMalloc@@YAPAXHH@Z    0041df51 f   sv_game.obj
 0001:0001cfea       ?PZ_Free@@YAXPAX@Z         0041dfea f   sv_game.obj
 0001:0001d016       ?Z_Free@@YAXPAX@Z          0041e016 f   sv_game.obj
 0001:0001d0b6       ?PZ_FreeTags@@YAXH@Z       0041e0b6 f   sv_game.obj
 0001:0001d0e2       ?Z_FreeTags@@YAXH@Z        0041e0e2 f   sv_game.obj
 0001:00035455       ?D_Func0@@YAXXZ            00436455 f   vid_dll.obj
 0001:00035455       ?D_Func1@@YAXPAD@Z         00436455 f   vid_dll.obj
 0001:00035455       ?D_Func1A@@YAXPAUedict_s@@@Z 00436455 f   vid_dll.obj
 0001:00035455       ?D_Func2A@@YAXPADI@Z       00436455 f   vid_dll.obj
 0001:0001d15e       ?D_ClientConnect@@YAIPAUedict_s@@PAD@Z 0041e15e f   sv_game.obj
 0001:00035455       ?D_Func2B@@YAXPAUedict_s@@PAD@Z 00436455 f   vid_dll.obj
 0001:00035455       ?D_Func2C@@YAXPAUedict_s@@PAUusercmd_t@@@Z 00436455 f   vid_dll.obj
 0001:00035455       ?D_Func3@@YAXPAD00@Z       00436455 f   vid_dll.obj
 0001:0001d28e       ?GZ_Stats_f@@YAXXZ         0041e28e f   sv_game.obj
 0001:0001d36d       ?ShutdownGameMemory@@YAXXZ 0041e36d f   sv_game.obj
 0001:0001c04a       ?SV_EmitPacketEntities@@YAXPAUclient_frame_t@@0PAUsizebuf_s@@@Z 0041d04a f   sv_ents.obj
 0001:0001abbb       ?SV_SetMaster_f@@YAXHPAPAD@Z 0041bbbb f   sv_ccmds.obj
 0001:0001acbf       ?SV_DemoMap_f@@YAXHPAPAD@Z 0041bcbf f   sv_ccmds.obj
 0001:0001ad5e       ?SV_GameMap_f@@YAX_NHPAPAD@Z 0041bd5e f   sv_ccmds.obj
 0001:0001aec0       ?SV_Map_f@@YAXHPAPAD@Z     0041bec0 f   sv_ccmds.obj
 0001:0001af33       ?SV_Loadgame_f@@YAX_NHPAPAD@Z 0041bf33 f   sv_ccmds.obj
 0001:0001b02f       ?SV_Savegame_f@@YAX_NHPAPAD@Z 0041c02f f   sv_ccmds.obj
 0001:0001b136       ?SV_Kick_f@@YAX_NHPAPAD@Z  0041c136 f   sv_ccmds.obj
 0001:0001b1aa       ?SetPlayer@@YA_NPAD@Z      0041c1aa f   sv_ccmds.obj
 0001:0001b27f       ?SV_Ban_f@@YAX_NHPAPAD@Z   0041c27f f   sv_ccmds.obj
 0001:0001b33a       ?AddBanString@@YAXPAD@Z    0041c33a f   sv_ccmds.obj
 0001:0001b396       ?FindBanString@@YAHPAD@Z   0041c396 f   sv_ccmds.obj
 0001:0001b3d0       ?SV_BanIP_f@@YAX_NHPAPAD@Z 0041c3d0 f   sv_ccmds.obj
 0001:0001b487       ?SV_BanList_f@@YAXXZ       0041c487 f   sv_ccmds.obj
 0001:0001b4c4       ?SV_BanRemove_f@@YAX_NHPAPAD@Z 0041c4c4 f   sv_ccmds.obj
 0001:0001b581       ?SV_DumpUser_f@@YAX_NHPAPAD@Z 0041c581 f   sv_ccmds.obj
 0001:0001b5c7       ?SV_Status_f@@YAXXZ        0041c5c7 f   sv_ccmds.obj
 0001:0001b6e5       ?SV_ConSay_f@@YAXHPAPAD@Z  0041c6e5 f   sv_ccmds.obj
 0001:0001b788       ?SV_Heartbeat_f@@YAXXZ     0041c788 f   sv_ccmds.obj
 0001:0001b793       ?SV_Serverinfo_f@@YAXXZ    0041c793 f   sv_ccmds.obj
 0001:0001b7ab       ?SV_ServerRecord_f@@YAX_NHPAPAD@Z 0041c7ab f   sv_ccmds.obj
 0001:0001b95c       ?SV_ServerStop_f@@YAXXZ    0041c95c f   sv_ccmds.obj
 0001:0001b988       ?SV_KillServer_f@@YAXXZ    0041c988 f   sv_ccmds.obj
 0001:0001b9a8       ?SV_ServerCommand_f@@YAXHPAPAD@Z 0041c9a8 f   sv_ccmds.obj
 0001:0001a364       ?S_PaintChannelFrom8@@YAXPAUchannel_t@@PAUsfxcache_t@@HH@Z 0041b364 f   snd_mix.obj
 0001:0001a466       ?S_PaintChannelFrom16@@YAXPAUchannel_t@@PAUsfxcache_t@@HH@Z 0041b466 f   snd_mix.obj
 0001:00019d89       ?GetLittleShort@@YAFXZ     0041ad89 f   snd_mem.obj
 0001:00019da6       ?GetLittleLong@@YAHXZ      0041ada6 f   snd_mem.obj
 0001:00019dd4       ?FindNextChunk@@YAXPAD@Z   0041add4 f   snd_mem.obj
 0001:00019e26       ?FindChunk@@YAXPAD@Z       0041ae26 f   snd_mem.obj
 0001:000188de       ?S_FindName@@YAPAUsfx_s@@PBD_N@Z 004198de f   snd_dma.obj
 0001:00018fb9       ?GetSexedSound@@YAPAUsfx_s@@PAUentityState_t@@PAD@Z 00419fb9 f   snd_dma.obj
 0001:000197f3       ?S_Play_f@@YAXHPAPAD@Z     0041a7f3 f   snd_dma.obj
 0001:00019885       ?S_SoundList_f@@YAX_NHPAPAD@Z 0041a885 f   snd_dma.obj
 0001:00017587       ?GetItem@@YAPAUmenuCommon_s@@PAUmenuFramework_s@@H@Z 00418587 f   qmenu.obj
 0001:0001788b       ?Menu_MakeVisible@@YAXPAUmenuFramework_s@@H@Z 0041888b f   qmenu.obj
 0001:00017932       ?Menu_CompletelyVisible@@YA_NPAUmenuFramework_s@@@Z 00418932 f   qmenu.obj
 0001:00017b0e       ?Action_Draw@@YAXPAUmenuAction_t@@@Z 00418b0e f   qmenu.obj
 0001:00017bc9       ?Field_Draw@@YAXPAUmenuField_t@@@Z 00418bc9 f   qmenu.obj
 0001:00017de0       ?Menu_ItemVisible@@YA_NPAUmenuFramework_s@@H@Z 00418de0 f   qmenu.obj
 0001:00017e35       ?Menu_DrawDotsItem@@YAXPAUmenuCommon_s@@@Z 00418e35 f   qmenu.obj
 0001:00017e74       ?strlen_color@@YAHPBD@Z    00418e74 f   qmenu.obj
 0001:00017e99       ?Menu_DrawStatusBar@@YAXPBD@Z 00418e99 f   qmenu.obj
 0001:00017f2a       ?Action_DoEnter@@YAXPAUmenuAction_t@@@Z 00418f2a f   qmenu.obj
 0001:00017f3a       ?Field_DoEnter@@YA_NPAUmenuField_t@@@Z 00418f3a f   qmenu.obj
 0001:00017f9d       ?MenuList_Draw@@YAXPAUmenuList_t@@@Z 00418f9d f   qmenu.obj
 0001:00018040       ?DrawCaption@@YAXPAUmenuCommon_s@@@Z 00419040 f   qmenu.obj
 0001:00018095       ?Separator_Draw@@YAXPAUmenuSeparator_t@@@Z 00419095 f   qmenu.obj
 0001:0001811b       ?Slider_DoSlide@@YAXPAUmenuSlider_t@@H@Z 0041911b f   qmenu.obj
 0001:00018152       ?Slider_Draw@@YAXPAUmenuSlider_t@@@Z 00419152 f   qmenu.obj
 0001:0001824f       ?SpinControl_DoSlide@@YAXPAUmenuList_t@@H@Z 0041924f f   qmenu.obj
 0001:0001827e       ?SpinControl_Draw@@YAXPAUmenuList_t@@@Z 0041927e f   qmenu.obj
 0001:00018341       ?SpinControl2_DoSlide@@YAXPAUmenuList2_t@@H@Z 00419341 f   qmenu.obj
 0001:00018382       ?SpinControl2_Draw@@YAXPAUmenuList2_t@@@Z 00419382 f   qmenu.obj
 0001:00013342       ?Multiplayer_MenuDraw@@YAXXZ 00414342 f   menu.obj
 0001:00013365       ?M_Banner@@YAXPAD@Z        00414365 f   menu.obj
 0001:000133a7       ?Multiplayer_MenuInit@@YAXXZ 004143a7 f   menu.obj
 0001:000134cf       ?Multiplayer_Disconnect@@YAXXZ 004144cf f   menu.obj
 0001:000134e8       ?Multiplayer_MenuKey@@YAPBDH@Z 004144e8 f   menu.obj
 0001:0001351a       ?Keys_MenuInit@@YAXXZ      0041451a f   menu.obj
 0001:000136aa       ?KeyCursorDrawFunc@@YAXPAUmenuFramework_s@@@Z 004146aa f   menu.obj
 0001:000136eb       ?DrawKeyBindingFunc@@YAXPAX@Z 004146eb f   menu.obj
 0001:000137ab       ?SeekLine@@YAXAAPBD@Z      004147ab f   menu.obj
 0001:000137d2       ?AppendToken@@YAXPAPADAAPBD@Z 004147d2 f   menu.obj
 0001:000137fc       ?Keys_MenuDraw@@YAXXZ      004147fc f   menu.obj
 0001:00013815       ?Keys_MenuKey@@YAPBDH@Z    00414815 f   menu.obj
 0001:000138c5       ?M_UnbindCommand@@YAXPAD@Z 004148c5 f   menu.obj
 0001:00013908       ?KeyBindingFunc@@YAXPAX@Z  00414908 f   menu.obj
 0001:00013976       ?Options_MenuInit@@YAXXZ   00414976 f   menu.obj
 0001:00013dcc       ?CrosshairFunc@@YAXPAX@Z   00414dcc f   menu.obj
 0001:00013df0       ?JoystickFunc@@YAXPAX@Z    00414df0 f   menu.obj
 0001:00013e03       ?CustomizeControlsFunc@@YAXPAX@Z 00414e03 f   menu.obj
 0001:00013e08       ?AlwaysRunFunc@@YAXPAX@Z   00414e08 f   menu.obj
 0001:00013e1b       ?FreeLookFunc@@YAXPAX@Z    00414e1b f   menu.obj
 0001:00013e2e       ?MouseSpeedFunc@@YAXPAX@Z  00414e2e f   menu.obj
 0001:00013e4b       ?ControlsSetMenuItemValues@@YAXXZ 00414e4b f   menu.obj
 0001:00014017       ?ControlsResetDefaultsFunc@@YAXPAX@Z 00415017 f   menu.obj
 0001:0001402c       ?InvertMouseFunc@@YAXPAX@Z 0041502c f   menu.obj
 0001:00014047       ?LookspringFunc@@YAXPAX@Z  00415047 f   menu.obj
 0001:00014063       ?LookstrafeFunc@@YAXPAX@Z  00415063 f   menu.obj
 0001:0001407f       ?UpdateVolumeFunc@@YAXPAX@Z 0041507f f   menu.obj
 0001:0001409c       ?UpdateCDVolumeFunc@@YAXPAX@Z 0041509c f   menu.obj
 0001:000140b5       ?UpdateSoundFunc@@YAXPAX@Z 004150b5 f   menu.obj
 0001:0001415d       ?Options_ScanCrosshairs@@YAXXZ 0041515d f   menu.obj
 0001:000141ba       ?Options_MenuDraw@@YAXXZ   004151ba f   menu.obj
 0001:000141e2       ?Options_CrosshairDraw@@YAXXZ 004151e2 f   menu.obj
 0001:00014259       ?Options_MenuKey@@YAPBDH@Z 00415259 f   menu.obj
 0001:00014363       ?M_Credits_MenuDraw@@YAXXZ 00415363 f   menu.obj
 0001:00014406       ?M_Credits_Key@@YAPBDH@Z   00415406 f   menu.obj
 0001:00014463       ?Game_MenuInit@@YAXXZ      00415463 f   menu.obj
 0001:000145f0       ?EasyGameFunc@@YAXPAX@Z    004155f0 f   menu.obj
 0001:00014606       ?StartGame@@YAXXZ          00415606 f   menu.obj
 0001:0001464b       ?MediumGameFunc@@YAXPAX@Z  0041564b f   menu.obj
 0001:00014661       ?HardGameFunc@@YAXPAX@Z    00415661 f   menu.obj
 0001:00014677       ?Game_MenuDraw@@YAXXZ      00415677 f   menu.obj
 0001:0001469a       ?Game_MenuKey@@YAPBDH@Z    0041569a f   menu.obj
 0001:000146cc       ?LoadGame_MenuInit@@YAXXZ  004156cc f   menu.obj
 0001:00014775       ?Create_Savestrings@@YAXXZ 00415775 f   menu.obj
 0001:00014834       ?LoadGameCallback@@YAXPAX@Z 00415834 f   menu.obj
 0001:0001485d       ?LoadGame_MenuDraw@@YAXXZ  0041585d f   menu.obj
 0001:00014886       ?DrawSavegameShot@@YAXHH@Z 00415886 f   menu.obj
 0001:00014947       ?LoadGame_MenuKey@@YAPBDH@Z 00415947 f   menu.obj
 0001:000149a8       ?SaveGame_MenuDraw@@YAXXZ  004159a8 f   menu.obj
 0001:000149dd       ?SaveGame_MenuInit@@YAXXZ  004159dd f   menu.obj
 0001:00014a78       ?SaveGameCallback@@YAXPAX@Z 00415a78 f   menu.obj
 0001:00014a97       ?SaveGame_MenuKey@@YAPBDH@Z 00415a97 f   menu.obj
 0001:00014b6d       ?JoinServer_MenuInit@@YAXXZ 00415b6d f   menu.obj
 0001:00014cbd       ?JoinServerFunc@@YAXPAX@Z  00415cbd f   menu.obj
 0001:00014d1b       ?SearchLocalGames@@YAXXZ   00415d1b f   menu.obj
 0001:00014d87       ?JoinServer_MenuDraw@@YAXXZ 00415d87 f   menu.obj
 0001:00014d9f       ?JoinServer_MenuKey@@YAPBDH@Z 00415d9f f   menu.obj
 0001:00014dd1       ?StartServer_MenuInit@@YAXXZ 00415dd1 f   menu.obj
 0001:00015280       ?DMOptionsFunc@@YAXPAX@Z   00416280 f   menu.obj
 0001:0001528f       ?RulesChangeFunc@@YAXPAX@Z 0041628f f   menu.obj
 0001:00015305       ?StartServerActionFunc@@YAXPAX@Z 00416305 f   menu.obj
 0001:00015331       ?StartServerFunc@@YAXPAD@Z 00416331 f   menu.obj
 0001:0001558d       ?StartServer_MenuDraw@@YAXXZ 0041658d f   menu.obj
 0001:00015599       ?StartServer_MenuKey@@YAPBDH@Z 00416599 f   menu.obj
 0001:000155f9       ?DMOptions_MenuInit@@YAXXZ 004165f9 f   menu.obj
 0001:00015ba5       ?DMFlagCallback@@YAXPAX@Z  00416ba5 f   menu.obj
 0001:00015d62       ?DMOptions_MenuDraw@@YAXXZ 00416d62 f   menu.obj
 0001:00015d6e       ?DMOptions_MenuKey@@YAPBDH@Z 00416d6e f   menu.obj
 0001:00015da0       ?DownloadOptions_MenuInit@@YAXXZ 00416da0 f   menu.obj
 0001:00015f8b       ?DownloadCallback@@YAXPAX@Z 00416f8b f   menu.obj
 0001:00015fe4       ?DownloadOptions_MenuDraw@@YAXXZ 00416fe4 f   menu.obj
 0001:00015ff0       ?DownloadOptions_MenuKey@@YAPBDH@Z 00416ff0 f   menu.obj
 0001:00016022       ?AddressBook_MenuInit@@YAXXZ 00417022 f   menu.obj
 0001:000160c8       ?AddressBook_MenuKey@@YAPBDH@Z 004170c8 f   menu.obj
 0001:00016119       ?AddressBook_MenuDraw@@YAXXZ 00417119 f   menu.obj
 0001:00016131       ?M_Menu_PlayerConfig_f@@YAXXZ 00417131 f   menu.obj
 0001:0001618c       ?PlayerConfig_MenuInit@@YA_NXZ 0041718c f   menu.obj
 0001:000166bf       ?HandednessCallback@@YAXPAX@Z 004176bf f   menu.obj
 0001:000166d2       ?RTypeCallback@@YAXPAX@Z   004176d2 f   menu.obj
 0001:000166e5       ?RColorCallback@@YAXPAX@Z  004176e5 f   menu.obj
 0001:000166f8       ?RateCallback@@YAXPAX@Z    004176f8 f   menu.obj
 0001:00016716       ?ModelCallback@@YAXPAX@Z   00417716 f   menu.obj
 0001:00016751       ?PlayerConfig_ScanDirectories@@YA_NXZ 00417751 f   menu.obj
 0001:000168f1       ?IsValidSkin@@YA_NPADPAUbasenamed_s@@@Z 004178f1 f   menu.obj
 0001:000169af       ?PlayerConfig_MenuDraw@@YAXXZ 004179af f   menu.obj
 0001:00016c6c       ?PlayerConfig_MenuKey@@YAPBDH@Z 00417c6c f   menu.obj
 0001:00016d40       ?M_Menu_DMBrowse_f@@YAXXZ  00417d40 f   menu.obj
 0001:00016d84       ?DMBrowse_MenuInit@@YA_NXZ 00417d84 f   menu.obj
 0001:00016f62       ?DMBrowse_MenuKey@@YAPBDH@Z 00417f62 f   menu.obj
 0001:00017117       ?DMBrowse_MenuDraw@@YAXXZ  00418117 f   menu.obj
 0001:0001720a       ?DrawThumbnail@@YAXHHHHPAD_N@Z 0041820a f   menu.obj
 0001:000172d6       ?DMBrowse_DrawScroller@@YAXHHH@Z 004182d6 f   menu.obj
 0001:00017305       ?M_Menu_Quit_f@@YAXXZ      00418305 f   menu.obj
 0001:00017321       ?M_Quit_Key@@YAPBDH@Z      00418321 f   menu.obj
 0001:00017361       ?M_Quit_Draw@@YAXXZ        00418361 f   menu.obj
 0001:00011d52       ?Do_CompleteCommand@@YAPADPAD@Z 00412d52 f   keys.obj
 0001:00012207       ?Key_StringToKeynum@@YAHPAD@Z 00413207 f   keys.obj
 0001:000122e6       ?HexDigit@@YAHD@Z          004132e6 f   keys.obj
 0001:0001230c       ?TryComplete@@YAXPBDHD@Z   0041330c f   keys.obj
 0001:0001239d       ?CompleteMenu@@YAXXZ       0041339d f   keys.obj
 0001:000124d0       ?CompleteMenuDraw@@YAXXZ   004134d0 f   keys.obj
 0001:0001250c       ?CompleteMenuKey@@YAPBDH@Z 0041350c f   keys.obj
 0001:0001253e       ?CompleteMenuCallback@@YAXPAX@Z 0041353e f   keys.obj
 0001:0001272a       ?Key_Unbind_f@@YAX_NHPAPAD@Z 0041372a f   keys.obj
 0001:000127d4       ?Key_Unbindall_f@@YAXXZ    004137d4 f   keys.obj
 0001:000127fb       ?Key_Bind_f@@YAX_NHPAPAD@Z 004137fb f   keys.obj
 0001:000128df       ?Key_Bindlist_f@@YAX_NHPAPAD@Z 004138df f   keys.obj
 0001:00010e65       ?Con_Clear_f@@YAXXZ        00411e65 f   console.obj
 0001:00010ec2       ?PlaceChar@@YAXDE@Z        00411ec2 f   console.obj
 0001:0001103d       ?FindLine@@YAHH@Z          0041203d f   console.obj
 0001:000114c3       ?DrawInput@@YAXXZ          004124c3 f   console.obj
 0001:00011a26       ?iswordsym@@YA_ND@Z        00412a26 f   console.obj
 0001:00011ab0       ?Con_Dump_f@@YAX_NHPAPAD@Z 00412ab0 f   console.obj
 0001:0001042d       ?V_ClearScene@@YAXXZ       0041142d f   cl_view.obj
 0001:0001043c       ?DrawSurfInfo@@YAXXZ       0041143c f   cl_view.obj
 0001:0001074a       ?DrawFlag@@YAXHPAUflagInfo_t@@HPAD@Z 0041174a f   cl_view.obj
 0001:0001084b       ?DecodeContents@@YAXH@Z    0041184b f   cl_view.obj
 0001:0001087e       ?ModelName@@YAPADH@Z       0041187e f   cl_view.obj
 0001:0001089d       ?DrawOriginInfo@@YAXXZ     0041189d f   cl_view.obj
 0001:000109a3       ?DrawFpsInfo@@YAXXZ        004119a3 f   cl_view.obj
 0001:00010aff       ?FixWaterVis@@YAXXZ        00411aff f   cl_view.obj
 0001:00010bfd       ?entitycmpfnc@@YAHPBUentity_t@@0@Z 00411bfd f   cl_view.obj
 0001:00010c3b       ?Sky_f@@YAX_NHPAPAD@Z      00411c3b f   cl_view.obj
 0001:0000c106       ?DrawDebugGraph@@YAXXZ     0040d106 f   cl_scrn.obj
 0001:0000c208       ?DrawCenterString@@YAXXZ   0040d208 f   cl_scrn.obj
 0001:0000c2ec       ?DrawChatInput@@YAXXZ      0040d2ec f   cl_scrn.obj
 0001:0000c3b2       ?DrawGUI@@YAX_N@Z          0040d3b2 f   cl_scrn.obj
 0001:0000c6e6       ?TileClear@@YAXXZ          0040d6e6 f   cl_scrn.obj
 0001:0000c78b       ?DrawInventory@@YAXXZ      0040d78b f   cl_scrn.obj
 0001:0000c926       ?DrawCrosshair@@YAXXZ      0040d926 f   cl_scrn.obj
 0001:0000c991       ?ExecuteLayoutString@@YAXPBD@Z 0040d991 f   cl_scrn.obj
 0001:0000d173       ?DrawHUDString@@YAXPADHHHH@Z 0040e173 f   cl_scrn.obj
 0001:0000d1e3       ?DrawField@@YAXHHHHH@Z     0040e1e3 f   cl_scrn.obj
 0001:0000d2a7       ?CalcVrect@@YAXXZ          0040e2a7 f   cl_scrn.obj
 0001:0000d3bf       ?SCR_MessageMode_f@@YAXXZ  0040e3bf f   cl_scrn.obj
 0001:0000d3d1       ?SCR_MessageMode2_f@@YAXXZ 0040e3d1 f   cl_scrn.obj
 0001:0000d3e3       ?Screenshot_f@@YAX_NHPAPAD@Z 0040e3e3 f   cl_scrn.obj
 0001:0000d597       ?TimeRefresh_f@@YAXXZ      0040e597 f   cl_scrn.obj
 0001:0000b7ee       ?CL_PMTrace@@YA?AUtrace_t@@QAM000@Z 0040c7ee f   cl_pred.obj
 0001:0000a932       ?ParseServerData@@YAXXZ    0040b932 f   cl_parse.obj
 0001:0000aa35       ?ParseBaseline@@YAXXZ      0040ba35 f   cl_parse.obj
 0001:0000aa79       ?ParseConfigString@@YAXXZ  0040ba79 f   cl_parse.obj
 0001:0000ac05       ?ParseStartSoundPacket@@YAXXZ 0040bc05 f   cl_parse.obj
 0001:0000ad02       ?AddNetgraph@@YAXXZ        0040bd02 f   cl_parse.obj
 0001:00007993       ?NetchanAppendArgs@@YAXPAPADHH@Z 00408993 f   cl_main.obj
 0001:00007f95       ?CL_Stop_f@@YAXXZ          00408f95 f   cl_main.obj
 0001:00008261       ?cClientConnect@@YAXHPAPAD@Z 00409261 f   cl_main.obj
 0001:000082f8       ?cInfo@@YAXHPAPAD@Z        004092f8 f   cl_main.obj
 0001:00008333       ?cCmd@@YAXHPAPAD@Z         00409333 f   cl_main.obj
 0001:00008367       ?cPrint@@YAXHPAPAD@Z       00409367 f   cl_main.obj
 0001:0000838a       ?TryParseStatus@@YA_NPAD@Z 0040938a f   cl_main.obj
 0001:0000844f       ?cPing@@YAXHPAPAD@Z        0040944f f   cl_main.obj
 0001:00008472       ?cChallenge@@YAXHPAPAD@Z   00409472 f   cl_main.obj
 0001:000084ce       ?cEcho@@YAXHPAPAD@Z        004094ce f   cl_main.obj
 0001:00008c61       ?CL_InitLocal@@YAXXZ       00409c61 f   cl_main.obj
 0001:00008ddb       ?CL_Record_f@@YAX_NHPAPAD@Z 00409ddb f   cl_main.obj
 0001:0000907e       ?CL_Pause_f@@YAXXZ         0040a07e f   cl_main.obj
 0001:00006eb4       ?IN_KLookUp@@YAXHPAPAD@Z   00407eb4 f   cl_input.obj
 0001:00006ec5       ?KeyUp@@YAXPAUkbutton_t@@PAPAD@Z 00407ec5 f   cl_input.obj
 0001:00006f3d       ?IN_KLookDown@@YAXHPAPAD@Z 00407f3d f   cl_input.obj
 0001:00006f4e       ?KeyDown@@YAXPAUkbutton_t@@PAPAD@Z 00407f4e f   cl_input.obj
 0001:00006fbf       ?IN_UpUp@@YAXHPAPAD@Z      00407fbf f   cl_input.obj
 0001:00006fd0       ?IN_UpDown@@YAXHPAPAD@Z    00407fd0 f   cl_input.obj
 0001:00006fe1       ?IN_DownUp@@YAXHPAPAD@Z    00407fe1 f   cl_input.obj
 0001:00006ff2       ?IN_DownDown@@YAXHPAPAD@Z  00407ff2 f   cl_input.obj
 0001:00007003       ?IN_RightUp@@YAXHPAPAD@Z   00408003 f   cl_input.obj
 0001:00007014       ?IN_RightDown@@YAXHPAPAD@Z 00408014 f   cl_input.obj
 0001:00007025       ?IN_LeftUp@@YAXHPAPAD@Z    00408025 f   cl_input.obj
 0001:00007036       ?IN_LeftDown@@YAXHPAPAD@Z  00408036 f   cl_input.obj
 0001:00007047       ?IN_ForwardUp@@YAXHPAPAD@Z 00408047 f   cl_input.obj
 0001:00007058       ?IN_ForwardDown@@YAXHPAPAD@Z 00408058 f   cl_input.obj
 0001:00007069       ?IN_BackUp@@YAXHPAPAD@Z    00408069 f   cl_input.obj
 0001:0000707a       ?IN_BackDown@@YAXHPAPAD@Z  0040807a f   cl_input.obj
 0001:0000708b       ?IN_LookupUp@@YAXHPAPAD@Z  0040808b f   cl_input.obj
 0001:0000709c       ?IN_LookupDown@@YAXHPAPAD@Z 0040809c f   cl_input.obj
 0001:000070ad       ?IN_LookdownUp@@YAXHPAPAD@Z 004080ad f   cl_input.obj
 0001:000070be       ?IN_LookdownDown@@YAXHPAPAD@Z 004080be f   cl_input.obj
 0001:000070cf       ?IN_MoveleftUp@@YAXHPAPAD@Z 004080cf f   cl_input.obj
 0001:000070e0       ?IN_MoveleftDown@@YAXHPAPAD@Z 004080e0 f   cl_input.obj
 0001:000070f1       ?IN_MoverightUp@@YAXHPAPAD@Z 004080f1 f   cl_input.obj
 0001:00007102       ?IN_MoverightDown@@YAXHPAPAD@Z 00408102 f   cl_input.obj
 0001:00007113       ?IN_SpeedUp@@YAXHPAPAD@Z   00408113 f   cl_input.obj
 0001:00007124       ?IN_SpeedDown@@YAXHPAPAD@Z 00408124 f   cl_input.obj
 0001:00007135       ?IN_StrafeUp@@YAXHPAPAD@Z  00408135 f   cl_input.obj
 0001:00007146       ?IN_StrafeDown@@YAXHPAPAD@Z 00408146 f   cl_input.obj
 0001:00007157       ?IN_AttackUp@@YAXHPAPAD@Z  00408157 f   cl_input.obj
 0001:00007168       ?IN_AttackDown@@YAXHPAPAD@Z 00408168 f   cl_input.obj
 0001:00007179       ?IN_UseUp@@YAXHPAPAD@Z     00408179 f   cl_input.obj
 0001:0000718a       ?IN_UseDown@@YAXHPAPAD@Z   0040818a f   cl_input.obj
 0001:0000719b       ?IN_Lookdown@@YAX_NHPAPAD@Z 0040819b f   cl_input.obj
 0001:000071d0       ?IN_Lookup@@YAX_NHPAPAD@Z  004081d0 f   cl_input.obj
 0001:00007469       ?CreateCmd@@YAXPAUusercmd_t@@@Z 00408469 f   cl_input.obj
 0001:000074b5       ?BaseMove@@YAXPAUusercmd_t@@@Z 004084b5 f   cl_input.obj
 0001:0000766f       ?KeyState@@YAMPAUkbutton_t@@@Z 0040866f f   cl_input.obj
 0001:000076cf       ?AdjustAngles@@YAXXZ       004086cf f   cl_input.obj
 0001:000077de       ?FinishMove@@YAXPAUusercmd_t@@@Z 004087de f   cl_input.obj
 0001:00007897       ?ClampPitch@@YAXXZ         00408897 f   cl_input.obj
 0001:00003b62       ?CL_AddParticleTraces@@YAXM@Z 00404b62 f   cl_fx.obj
 0001:00003eb6       ?CL_UpdateParticleBeams@@YAXM@Z 00404eb6 f   cl_fx.obj
 0001:000028d5       ?CL_AddDebugLines@@YAXXZ   004038d5 f   cl_ents.obj
 0001:00002929       ?CL_AddPacketEntities@@YAXXZ 00403929 f   cl_ents.obj
 0001:000032f6       ?GetEntityInfo@@YAXHPAPAUentityState_t@@PAI1@Z 004042f6 f   cl_ents.obj
 0001:000033f2       ?AddEntityWithEffects@@YAXPAUentity_t@@H@Z 004043f2 f   cl_ents.obj
 0001:0000341e       ?AddViewWeapon@@YAXH@Z     0040441e f   cl_ents.obj
 0001:000009b9       ?CheckOrDownloadFile@@YA_NPBDZZ 004019b9 f   cl_download.obj
 0001:00000cba       ?DownloadFileName@@YAXPADHPBD@Z 00401cba f   cl_download.obj
 0001:00000e74       ?RequestNextDownload@@YAXXZ 00401e74 f   cl_download.obj
 0001:00000034       ?FreeCinematic@@YAXXZ      00401034 f   cl_cin.obj
 0001:000001e4       ?ReadNextFrame@@YAPAEXZ    004011e4 f   cl_cin.obj
 0001:00000300       ?Huff1Decompress@@YA?AUcblock_t@@U1@@Z 00401300 f   cl_cin.obj
 0001:00000800       ?Huff1TableInit@@YAXXZ     00401800 f   cl_cin.obj
 0001:000008f6       ?SmallestNode1@@YAHH@Z     004018f6 f   cl_cin.obj
 0001:0006d2bf       _start_pass_lhuff_decoder  0046e2bf f   lib:jdlhuff.obj
 0001:0006d3f0       _process_restart           0046e3f0 f   lib:jdlhuff.obj
 0001:0006d43a       _decode_mcus               0046e43a f   lib:jdlhuff.obj
 0001:0006cedb       _predict_start_pass        0046dedb f   lib:jdpred.obj
 0001:0006cf69       _jpeg_undifference_first_row 0046df69 f   lib:jdpred.obj
 0001:0006d042       _jpeg_undifference1        0046e042 f   lib:jdpred.obj
 0001:0006d084       _jpeg_undifference2        0046e084 f   lib:jdpred.obj
 0001:0006d0cd       _jpeg_undifference3        0046e0cd f   lib:jdpred.obj
 0001:0006d121       _jpeg_undifference4        0046e121 f   lib:jdpred.obj
 0001:0006d177       _jpeg_undifference5        0046e177 f   lib:jdpred.obj
 0001:0006d1dc       _jpeg_undifference6        0046e1dc f   lib:jdpred.obj
 0001:0006d234       _jpeg_undifference7        0046e234 f   lib:jdpred.obj
 0001:0006cdea       _scaler_start_pass         0046ddea f   lib:jdscale.obj
 0001:0006ce37       _simple_upscale            0046de37 f   lib:jdscale.obj
 0001:0006ce6d       _simple_downscale          0046de6d f   lib:jdscale.obj
 0001:0006cea3       _noscale                   0046dea3 f   lib:jdscale.obj
 0001:0006c9ce       _start_input_pass          0046d9ce f   lib:jddiffct.obj
 0001:0006ca36       _start_iMCU_row            0046da36 f   lib:jddiffct.obj
 0001:0006ca7b       _start_output_pass         0046da7b f   lib:jddiffct.obj
 0001:0006ca87       _decompress_data           0046da87 f   lib:jddiffct.obj
 0001:0006cbf7       _process_restart           0046dbf7 f   lib:jddiffct.obj
 0001:00035452       _dummy_consume_data        00436452 f   vid_dll.obj
 0001:0006cc2c       _consume_data              0046dc2c f   lib:jddiffct.obj
 0001:0006cca3       _output_data               0046dca3 f   lib:jddiffct.obj
 0001:0006c72a       _start_pass                0046d72a f   lib:jddctmgr.obj
 0001:0006bb7c       _start_pass_phuff_decoder  0046cb7c f   lib:jdphuff.obj
 0001:0006bdc5       _decode_mcu_DC_first       0046cdc5 f   lib:jdphuff.obj
 0001:0006bfbd       _process_restart           0046cfbd f   lib:jdphuff.obj
 0001:0006c02c       _decode_mcu_AC_first       0046d02c f   lib:jdphuff.obj
 0001:0006c24c       _decode_mcu_DC_refine      0046d24c f   lib:jdphuff.obj
 0001:0006c321       _decode_mcu_AC_refine      0046d321 f   lib:jdphuff.obj
 0001:0006b5c3       _start_pass_huff_decoder   0046c5c3 f   lib:jdshuff.obj
 0001:0006b6fb       _decode_mcu                0046c6fb f   lib:jdshuff.obj
 0001:0006baab       _process_restart           0046caab f   lib:jdshuff.obj
 0001:0006a9ac       _start_input_pass          0046b9ac f   lib:jdcoefct.obj
 0001:0006a9bf       _start_iMCU_row            0046b9bf f   lib:jdcoefct.obj
 0001:0006aa04       _start_output_pass         0046ba04 f   lib:jdcoefct.obj
 0001:0006aa41       _decompress_onepass        0046ba41 f   lib:jdcoefct.obj
 0001:00035452       _dummy_consume_data        00436452 f   vid_dll.obj
 0001:0006ac1a       _consume_data              0046bc1a f   lib:jdcoefct.obj
 0001:0006add3       _decompress_data           0046bdd3 f   lib:jdcoefct.obj
 0001:0006af3f       _smoothing_ok              0046bf3f f   lib:jdcoefct.obj
 0001:0006b02a       _decompress_smooth_data    0046c02a f   lib:jdcoefct.obj
 0001:0006a845       _scaler_start_pass         0046b845 f   lib:jcscale.obj
 0001:0006a868       _simple_downscale          0046b868 f   lib:jcscale.obj
 0001:0006a894       _noscale                   0046b894 f   lib:jcscale.obj
 0001:0006a33d       _start_pass                0046b33d f   lib:jcpred.obj
 0001:0006a395       _reset_predictor           0046b395 f   lib:jcpred.obj
 0001:0006a3c2       _jpeg_difference_first_row 0046b3c2 f   lib:jcpred.obj
 0001:0006a4ac       _jpeg_difference1          0046b4ac f   lib:jcpred.obj
 0001:0006a51a       _jpeg_difference2          0046b51a f   lib:jcpred.obj
 0001:0006a58b       _jpeg_difference3          0046b58b f   lib:jcpred.obj
 0001:0006a603       _jpeg_difference4          0046b603 f   lib:jcpred.obj
 0001:0006a68e       _jpeg_difference5          0046b68e f   lib:jcpred.obj
 0001:0006a721       _jpeg_difference6          0046b721 f   lib:jcpred.obj
 0001:0006a7b0       _jpeg_difference7          0046b7b0 f   lib:jcpred.obj
 0001:00069c2f       _start_pass_huff           0046ac2f f   lib:jclhuff.obj
 0001:00069dcc       _encode_mcus_huff          0046adcc f   lib:jclhuff.obj
 0001:00069fb7       _emit_bits                 0046afb7 f   lib:jclhuff.obj
 0001:0006a05a       _dump_buffer               0046b05a f   lib:jclhuff.obj
 0001:0006a07e       _emit_restart              0046b07e f   lib:jclhuff.obj
 0001:0006a0c9       _flush_bits                0046b0c9 f   lib:jclhuff.obj
 0001:0006a0ed       _finish_pass_huff          0046b0ed f   lib:jclhuff.obj
 0001:0006a15a       _encode_mcus_gather        0046b15a f   lib:jclhuff.obj
 0001:0006a283       _finish_pass_gather        0046b283 f   lib:jclhuff.obj
 0001:00068954       _need_optimization_pass    00469954 f   lib:jcshuff.obj
 0001:0006984f       _start_pass_diff           0046a84f f   lib:jcdiffct.obj
 0001:00067b55       _start_iMCU_row            00468b55 f   lib:jccoefct.obj
 0001:000698ed       _compress_data             0046a8ed f   lib:jcdiffct.obj
 0001:00069a83       _compress_first_pass       0046aa83 f   lib:jcdiffct.obj
 0001:00069b78       _compress_output           0046ab78 f   lib:jcdiffct.obj
 0001:00069462       _start_pass_fdctmgr        0046a462 f   lib:jcdctmgr.obj
 0001:00069564       _forward_DCT_float         0046a564 f   lib:jcdctmgr.obj
 0001:00068997       _start_pass_phuff          00469997 f   lib:jcphuff.obj
 0001:00068b04       _encode_mcu_DC_first       00469b04 f   lib:jcphuff.obj
 0001:00068c36       _emit_bits                 00469c36 f   lib:jcphuff.obj
 0001:00068ce1       _dump_buffer               00469ce1 f   lib:jcphuff.obj
 0001:00068d19       _emit_symbol               00469d19 f   lib:jcphuff.obj
 0001:00068d59       _emit_restart              00469d59 f   lib:jcphuff.obj
 0001:00068de2       _emit_eobrun               00469de2 f   lib:jcphuff.obj
 0001:00068e68       _encode_mcu_AC_first       00469e68 f   lib:jcphuff.obj
 0001:00068ffc       _encode_mcu_DC_refine      00469ffc f   lib:jcphuff.obj
 0001:000690b6       _encode_mcu_AC_refine      0046a0b6 f   lib:jcphuff.obj
 0001:000692cd       _finish_pass_phuff         0046a2cd f   lib:jcphuff.obj
 0001:0006931c       _finish_pass_gather_phuff  0046a31c f   lib:jcphuff.obj
 0001:000693df       _need_optimization_pass    0046a3df f   lib:jcphuff.obj
 0001:0006812f       _start_pass_huff           0046912f f   lib:jcshuff.obj
 0001:000682a4       _encode_mcu_huff           004692a4 f   lib:jcshuff.obj
 0001:000683af       _encode_one_block          004693af f   lib:jcshuff.obj
 0001:00068526       _emit_bits                 00469526 f   lib:jcshuff.obj
 0001:000685c9       _dump_buffer               004695c9 f   lib:jcshuff.obj
 0001:000685ed       _emit_restart              004695ed f   lib:jcshuff.obj
 0001:0006865a       _flush_bits                0046965a f   lib:jcshuff.obj
 0001:0006867e       _finish_pass_huff          0046967e f   lib:jcshuff.obj
 0001:000686ed       _encode_mcu_gather         004696ed f   lib:jcshuff.obj
 0001:000687a3       _htest_one_block           004697a3 f   lib:jcshuff.obj
 0001:0006886a       _finish_pass_gather        0046986a f   lib:jcshuff.obj
 0001:00068954       _need_optimization_pass    00469954 f   lib:jcshuff.obj
 0001:00067ac0       _start_pass_coef           00468ac0 f   lib:jccoefct.obj
 0001:00067b55       _start_iMCU_row            00468b55 f   lib:jccoefct.obj
 0001:00067b97       _compress_data             00468b97 f   lib:jccoefct.obj
 0001:00067d7e       _compress_first_pass       00468d7e f   lib:jccoefct.obj
 0001:00067f64       _compress_output           00468f64 f   lib:jccoefct.obj
 0001:000679d8       _calc_output_dimensions    004689d8 f   lib:jdlossls.obj
 0001:000679e9       _start_input_pass          004689e9 f   lib:jdlossls.obj
 0001:00067717       _calc_output_dimensions    00468717 f   lib:jdlossy.obj
 0001:0006788a       _start_input_pass          0046888a f   lib:jdlossy.obj
 0001:000678aa       _latch_quant_tables        004688aa f   lib:jdlossy.obj
 0001:00067942       _start_output_pass         00468942 f   lib:jdlossy.obj
 0001:00067666       _start_pass                00468666 f   lib:jclossls.obj
 0001:000675d2       _start_pass                004685d2 f   lib:jclossy.obj
 0001:00066b27       _initial_setup             00467b27 f   lib:jcmaster.obj
 0001:00066cda       _validate_script           00467cda f   lib:jcmaster.obj
 0001:000670b2       _prepare_for_pass          004680b2 f   lib:jcmaster.obj
 0001:0006722a       _select_scan_parameters    0046822a f   lib:jcmaster.obj
 0001:0006732b       _per_scan_setup            0046832b f   lib:jcmaster.obj
 0001:000674d6       _pass_startup              004684d6 f   lib:jcmaster.obj
 0001:000674fd       _finish_pass_master        004684fd f   lib:jcmaster.obj
 0001:00066613       _rgb_ycc_start             00467613 f   lib:jccolor.obj
 0001:000666d7       _rgb_ycc_convert           004676d7 f   lib:jccolor.obj
 0001:000667d6       _rgb_gray_convert          004677d6 f   lib:jccolor.obj
 0001:0006685b       _cmyk_ycck_convert         0046785b f   lib:jccolor.obj
 0001:00066993       _grayscale_convert         00467993 f   lib:jccolor.obj
 0001:000669ed       _null_convert              004679ed f   lib:jccolor.obj
 0001:00035455       _null_method               00436455 f   vid_dll.obj
 0001:00035455       _start_pass_downsample     00436455 f   vid_dll.obj
 0001:00065d5f       _sep_downsample            00466d5f f   lib:jcsample.obj
 0001:00065dd4       _int_downsample            00466dd4 f   lib:jcsample.obj
 0001:00065ecc       _expand_right_edge         00466ecc f   lib:jcsample.obj
 0001:00065f21       _fullsize_downsample       00466f21 f   lib:jcsample.obj
 0001:00065f65       _h2v1_downsample           00466f65 f   lib:jcsample.obj
 0001:00065ff9       _h2v2_downsample           00466ff9 f   lib:jcsample.obj
 0001:000660a6       _h2v2_smooth_downsample    004670a6 f   lib:jcsample.obj
 0001:0006631e       _fullsize_smooth_downsample 0046731e f   lib:jcsample.obj
 0001:0006575b       _start_pass_prep           0046675b f   lib:jcprepct.obj
 0001:00065799       _pre_process_data          00466799 f   lib:jcprepct.obj
 0001:00065947       _pre_process_context       00466947 f   lib:jcprepct.obj
 0001:00065b00       _create_context_buffer     00466b00 f   lib:jcprepct.obj
 0001:000655d3       _start_pass_main           004665d3 f   lib:jcmainct.obj
 0001:00065615       _process_data_simple_main  00466615 f   lib:jcmainct.obj
 0001:00064ba9       _create_colormap           00465ba9 f   lib:jquant1.obj
 0001:00064cdb       _select_ncolors            00465cdb f   lib:jquant1.obj
 0001:00064db2       _create_colorindex         00465db2 f   lib:jquant1.obj
 0001:00064ede       _alloc_fs_workspace        00465ede f   lib:jquant1.obj
 0001:00064f1a       _start_pass_1_quant        00465f1a f   lib:jquant1.obj
 0001:00064fe6       _create_odither_tables     00465fe6 f   lib:jquant1.obj
 0001:00065045       _make_odither_array        00466045 f   lib:jquant1.obj
 0001:000650a8       _color_quantize            004660a8 f   lib:jquant1.obj
 0001:00065133       _color_quantize3           00466133 f   lib:jquant1.obj
 0001:000651c1       _quantize_ord_dither       004661c1 f   lib:jquant1.obj
 0001:000652ac       _quantize3_ord_dither      004662ac f   lib:jquant1.obj
 0001:000653ac       _quantize_fs_dither        004663ac f   lib:jquant1.obj
 0001:00035455       _finish_pass_1_quant       00436455 f   vid_dll.obj
 0001:00065530       _new_color_map_1_quant     00466530 f   lib:jquant1.obj
 0001:00063b6a       _init_error_limit          00464b6a f   lib:jquant2.obj
 0001:00063c09       _start_pass_2_quant        00464c09 f   lib:jquant2.obj
 0001:00063d0b       _prescan_quantize          00464d0b f   lib:jquant2.obj
 0001:00063d7a       _pass2_no_dither           00464d7a f   lib:jquant2.obj
 0001:00063e27       _fill_inverse_cmap         00464e27 f   lib:jquant2.obj
 0001:00063ef2       _find_nearby_colors        00464ef2 f   lib:jquant2.obj
 0001:00064096       _find_best_colors          00465096 f   lib:jquant2.obj
 0001:000641b0       _pass2_fs_dither           004651b0 f   lib:jquant2.obj
 0001:0006441f       _finish_pass1              0046541f f   lib:jquant2.obj
 0001:00064441       _select_colors             00465441 f   lib:jquant2.obj
 0001:000644cd       _update_box                004654cd f   lib:jquant2.obj
 0001:00064867       _median_cut                00465867 f   lib:jquant2.obj
 0001:0006497b       _find_biggest_color_pop    0046597b f   lib:jquant2.obj
 0001:000649aa       _find_biggest_volume       004659aa f   lib:jquant2.obj
 0001:000649d3       _compute_color             004659d3 f   lib:jquant2.obj
 0001:00035455       _finish_pass2              00436455 f   vid_dll.obj
 0001:00064b0f       _new_color_map_2_quant     00465b0f f   lib:jquant2.obj
 0001:00063581       _build_ycc_rgb_table       00464581 f   lib:jdmerge.obj
 0001:00063631       _start_pass_merged_upsample 00464631 f   lib:jdmerge.obj
 0001:00063646       _merged_2v_upsample        00464646 f   lib:jdmerge.obj
 0001:000636ed       _merged_1v_upsample        004646ed f   lib:jdmerge.obj
 0001:0006371e       _h2v1_merged_upsample      0046471e f   lib:jdmerge.obj
 0001:00063874       _h2v2_merged_upsample      00464874 f   lib:jdmerge.obj
 0001:00063125       _build_ycc_rgb_table       00464125 f   lib:jdcolor.obj
 0001:000631d5       _ycc_rgb_convert           004641d5 f   lib:jdcolor.obj
 0001:000632e3       _null_convert              004642e3 f   lib:jdcolor.obj
 0001:0006335b       _grayscale_convert         0046435b f   lib:jdcolor.obj
 0001:0006337e       _gray_rgb_convert          0046437e f   lib:jdcolor.obj
 0001:000633d7       _ycck_cmyk_convert         004643d7 f   lib:jdcolor.obj
 0001:00035455       _start_pass_dcolor         00436455 f   vid_dll.obj
 0001:00062b86       _start_pass_upsample       00463b86 f   lib:jdsample.obj
 0001:00062ba0       _sep_upsample              00463ba0 f   lib:jdsample.obj
 0001:00062c6d       _fullsize_upsample         00463c6d f   lib:jdsample.obj
 0001:00062c78       _noop_upsample             00463c78 f   lib:jdsample.obj
 0001:00062c80       _int_upsample              00463c80 f   lib:jdsample.obj
 0001:00062d6a       _h2v1_upsample             00463d6a f   lib:jdsample.obj
 0001:00062dc1       _h2v2_upsample             00463dc1 f   lib:jdsample.obj
 0001:00062e33       _h2v1_fancy_upsample       00463e33 f   lib:jdsample.obj
 0001:00062ed6       _h2v2_fancy_upsample       00463ed6 f   lib:jdsample.obj
 0001:0006278f       _start_pass_dpost          0046378f f   lib:jdpostct.obj
 0001:00062835       _post_process_1pass        00463835 f   lib:jdpostct.obj
 0001:0006289a       _post_process_prepass      0046389a f   lib:jdpostct.obj
 0001:0006292b       _post_process_2pass        0046392b f   lib:jdpostct.obj
 0001:00062196       _alloc_funny_pointers      00463196 f   lib:jdmainct.obj
 0001:00062243       _start_pass_main           00463243 f   lib:jdmainct.obj
 0001:000622ab       _make_funny_pointers       004632ab f   lib:jdmainct.obj
 0001:000623eb       _process_data_simple_main  004633eb f   lib:jdmainct.obj
 0001:00062453       _process_data_context_main 00463453 f   lib:jdmainct.obj
 0001:00062565       _set_wraparound_pointers   00463565 f   lib:jdmainct.obj
 0001:0006264f       _set_bottom_pointers       0046364f f   lib:jdmainct.obj
 0001:000626e9       _process_data_crank_post   004636e9 f   lib:jdmainct.obj
 0001:00060f08       _write_marker_header       00461f08 f   lib:jcmarker.obj
 0001:00060f5e       _emit_byte                 00461f5e f   lib:jcmarker.obj
 0001:00060f8f       _write_marker_byte         00461f8f f   lib:jcmarker.obj
 0001:00060f9f       _write_file_header         00461f9f f   lib:jcmarker.obj
 0001:00060feb       _emit_jfif_app0            00461feb f   lib:jcmarker.obj
 0001:000610be       _emit_adobe_app14          004620be f   lib:jcmarker.obj
 0001:00061164       _write_frame_header        00462164 f   lib:jcmarker.obj
 0001:00061243       _emit_dqt                  00462243 f   lib:jcmarker.obj
 0001:00061332       _emit_sof                  00462332 f   lib:jcmarker.obj
 0001:0006140e       _write_scan_header         0046240e f   lib:jcmarker.obj
 0001:000614ce       _emit_dht                  004624ce f   lib:jcmarker.obj
 0001:000615a7       _emit_dri                  004625a7 f   lib:jcmarker.obj
 0001:000615f6       _emit_sos                  004625f6 f   lib:jcmarker.obj
 0001:000616e4       _write_file_trailer        004626e4 f   lib:jcmarker.obj
 0001:00061704       _write_tables_only         00462704 f   lib:jcmarker.obj
 0001:00060a5d       _use_merged_upsample       00461a5d f   lib:jdmaster.obj
 0001:00060b03       _master_selection          00461b03 f   lib:jdmaster.obj
 0001:00060c60       _prepare_range_limit_table 00461c60 f   lib:jdmaster.obj
 0001:00060ce6       _prepare_for_output_pass   00461ce6 f   lib:jdmaster.obj
 0001:00060e07       _finish_output_pass        00461e07 f   lib:jdmaster.obj
 0001:0005fed4       _alloc_small               00460ed4 f   lib:jmemmgr.obj
 0001:0005fff2       _alloc_large               00460ff2 f   lib:jmemmgr.obj
 0001:000600a3       _alloc_sarray              004610a3 f   lib:jmemmgr.obj
 0001:0006013b       _alloc_barray              0046113b f   lib:jmemmgr.obj
 0001:000601df       _alloc_darray              004611df f   lib:jmemmgr.obj
 0001:0006028a       _request_virt_sarray       0046128a f   lib:jmemmgr.obj
 0001:000602eb       _request_virt_barray       004612eb f   lib:jmemmgr.obj
 0001:0006034c       _realize_virt_arrays       0046134c f   lib:jmemmgr.obj
 0001:000604cf       _access_virt_sarray        004614cf f   lib:jmemmgr.obj
 0001:000605ef       _do_sarray_io              004615ef f   lib:jmemmgr.obj
 0001:0006067f       _access_virt_barray        0046167f f   lib:jmemmgr.obj
 0001:000607a4       _do_barray_io              004617a4 f   lib:jmemmgr.obj
 0001:00060835       _free_pool                 00461835 f   lib:jmemmgr.obj
 0001:0006091c       _self_destruct             0046191c f   lib:jmemmgr.obj
 0001:0005f96e       _start_input_pass          0046096e f   lib:jdinput.obj
 0001:0005f99c       _per_scan_setup            0046099c f   lib:jdinput.obj
 0001:0005fb22       _finish_input_pass         00460b22 f   lib:jdinput.obj
 0001:0005fb33       _consume_markers           00460b33 f   lib:jdinput.obj
 0001:0005fbcf       _initial_setup             00460bcf f   lib:jdinput.obj
 0001:0005fdd9       _reset_input_controller    00460dd9 f   lib:jdinput.obj
 0001:0005f727       _fixedtables               00460727 f   lib:inflate.obj
 0001:0005f811       _updatewindow              00460811 f   lib:inflate.obj
 0001:0005e187       _make_crc_table            0045f187 f   lib:crc32.obj
 0001:0005e2b3       _crc32_little              0045f2b3 f   lib:crc32.obj
 0001:0005e0c3       _init_destination          0045f0c3 f   lib:jdatadst.obj
 0001:0005e0e9       _empty_output_buffer       0045f0e9 f   lib:jdatadst.obj
 0001:0005e12b       _term_destination          0045f12b f   lib:jdatadst.obj
 0001:0005dc4a       _std_huff_tables           0045ec4a f   lib:jcparam.obj
 0001:0005dca4       _add_huff_table            0045eca4 f   lib:jcparam.obj
 0001:0005c197       _next_marker               0045d197 f   lib:jdmarker.obj
 0001:0005c2d1       _get_interesting_appn      0045d2d1 f   lib:jdmarker.obj
 0001:0005c3fc       _examine_app0              0045d3fc f   lib:jdmarker.obj
 0001:0005c60a       _examine_app14             0045d60a f   lib:jdmarker.obj
 0001:0005c6cb       _skip_variable             0045d6cb f   lib:jdmarker.obj
 0001:0005c76e       _read_markers              0045d76e f   lib:jdmarker.obj
 0001:0005c976       _get_soi                   0045d976 f   lib:jdmarker.obj
 0001:0005ca21       _get_sof                   0045da21 f   lib:jdmarker.obj
 0001:0005cd2a       _get_sos                   0045dd2a f   lib:jdmarker.obj
 0001:0005d018       _get_dht                   0045e018 f   lib:jdmarker.obj
 0001:0005d2b9       _get_dqt                   0045e2b9 f   lib:jdmarker.obj
 0001:0005d515       _get_dri                   0045e515 f   lib:jdmarker.obj
 0001:0005d5f4       _first_marker              0045e5f4 f   lib:jdmarker.obj
 0001:0005d690       _read_restart_marker       0045e690 f   lib:jdmarker.obj
 0001:0005d70e       _reset_marker_reader       0045e70e f   lib:jdmarker.obj
 0001:0005bf7b       _output_pass_setup         0045cf7b f   lib:jdapistd.obj
 0001:0005bc6e       _default_decompress_parms  0045cc6e f   lib:jdapimin.obj

 74 bytes saved through ICF

