 quake2

 Timestamp is 3ed48cdb (Wed May 28 14:18:03 2003)

 Preferred load address is 00400000

 Start         Length     Name                   Class
 0001:00000000 0006a170H .text                   CODE
 0002:00000000 00000364H .idata$5                DATA
 0002:00000368 0000198cH .rdata                  DATA
 0002:00001cf4 00000078H .idata$2                DATA
 0002:00001d6c 00000014H .idata$3                DATA
 0002:00001d80 00000364H .idata$4                DATA
 0002:000020e4 00000b66H .idata$6                DATA
 0002:00002c4a 00000000H .edata                  DATA
 0003:00000000 00000004H .CRT$XCA                DATA
 0003:00000004 00000004H .CRT$XCZ                DATA
 0003:00000008 00000004H .CRT$XIA                DATA
 0003:0000000c 00000004H .CRT$XIZ                DATA
 0003:00000010 00014e74H .data                   DATA
 0003:00014e88 00a4ee74H .bss                    DATA
 0004:00000000 000000a0H .rsrc$01                DATA
 0004:000000a0 00000300H .rsrc$02                DATA

  Address         Publics by Value              Rva+Base     Lib:Object

 0001:00000000       _CDAudio_Play2             00401000 f   cd_win.obj
 0001:000001e5       _CDAudio_Play              004011e5 f   cd_win.obj
 0001:000001fc       _CDAudio_Stop              004011fc f   cd_win.obj
 0001:00000241       _CDAudio_Pause             00401241 f   cd_win.obj
 0001:0000029a       _CDAudio_Resume            0040129a f   cd_win.obj
 0001:0000030c       _CDAudio_MessageHandler    0040130c f   cd_win.obj
 0001:000003a3       _CDAudio_Update            004013a3 f   cd_win.obj
 0001:000003da       _CDAudio_Init              004013da f   cd_win.obj
 0001:000007d1       _CDAudio_Shutdown          004017d1 f   cd_win.obj
 0001:00000804       _CDAudio_Activate          00401804 f   cd_win.obj
 0001:00000815       _SCR_StopCinematic         00401815 f   cl_cin.obj
 0001:000008a1       _SCR_FinishCinematic       004018a1 f   cl_cin.obj
 0001:000008cb       _SCR_ReadNextFrame         004018cb f   cl_cin.obj
 0001:00000bec       _SCR_RunCinematic          00401bec f   cl_cin.obj
 0001:00000ce5       _SCR_DrawCinematic         00401ce5 f   cl_cin.obj
 0001:00000d84       _SCR_PlayCinematic         00401d84 f   cl_cin.obj
 0001:000010bc       _CL_ParseEntityBits        004020bc f   cl_ents.obj
 0001:0000111e       _CL_ParseDelta             0040211e f   cl_ents.obj
 0001:00001498       _CL_DeltaEntity            00402498 f   cl_ents.obj
 0001:00001605       _CL_ParsePacketEntities    00402605 f   cl_ents.obj
 0001:00001831       _CL_ParsePlayerstate       00402831 f   cl_ents.obj
 0001:00001b3f       _CL_FireEntityEvents       00402b3f f   cl_ents.obj
 0001:00001b91       _CL_ParseFrame             00402b91 f   cl_ents.obj
 0001:00001e30       _CL_OffsetThirdPersonView  00402e30 f   cl_ents.obj
 0001:00001f13       _CL_CalcViewValues         00402f13 f   cl_ents.obj
 0001:000021cb       _CL_AddEntities            004031cb f   cl_ents.obj
 0001:00002f04       _CL_GetEntitySoundOrigin   00403f04 f   cl_ents.obj
 0001:00002f40       _CL_ClearLightStyles       00403f40 f   cl_fx.obj
 0001:00002fc4       _CL_RunLightStyles         00403fc4 f   cl_fx.obj
 0001:0000305e       _CL_SetLightstyle          0040405e f   cl_fx.obj
 0001:000030c8       _CL_AllocDlight            004040c8 f   cl_fx.obj
 0001:00003133       _CL_RunDLights             00404133 f   cl_fx.obj
 0001:00003185       _CL_AddDLights             00404185 f   cl_fx.obj
 0001:000031ce       _CL_ClearParticles         004041ce f   cl_fx.obj
 0001:0000320e       _CL_AllocParticleTrace     0040420e f   cl_fx.obj
 0001:000032b3       _CL_AllocParticle          004042b3 f   cl_fx.obj
 0001:00003302       _CL_UpdateParticles        00404302 f   cl_fx.obj
 0001:000037e9       _CL_MetalSparks            004047e9 f   cl_fx.obj
 0001:000038c8       _CL_ParseMuzzleFlash       004048c8 f   cl_fx.obj
 0001:000040e3       _CL_ParseMuzzleFlash2      004050e3 f   cl_fx.obj
 0001:000047c2       _CL_ParticleEffect         004057c2 f   cl_fx.obj
 0001:00004891       _CL_ParticleEffect2        00405891 f   cl_fx.obj
 0001:0000495c       _CL_ParticleEffect3        0040595c f   cl_fx.obj
 0001:00004a2c       _CL_TeleporterParticles    00405a2c f   cl_fx.obj
 0001:00004ae3       _CL_LogoutEffect           00405ae3 f   cl_fx.obj
 0001:00004bce       _CL_ItemRespawnParticles   00405bce f   cl_fx.obj
 0001:00004c7d       _CL_ExplosionParticles     00405c7d f   cl_fx.obj
 0001:00004d27       _CL_BigTeleportParticles   00405d27 f   cl_fx.obj
 0001:00004e7e       _CL_BlasterParticles       00405e7e f   cl_fx.obj
 0001:00004f4a       _CL_BlasterTrail           00405f4a f   cl_fx.obj
 0001:00005043       _CL_FlagTrail              00406043 f   cl_fx.obj
 0001:00005149       _CL_DiminishingTrail       00406149 f   cl_fx.obj
 0001:000053b3       _CL_RocketTrail            004063b3 f   cl_fx.obj
 0001:000054e2       _CL_RailTrail              004064e2 f   cl_fx.obj
 0001:00005712       _CL_IonripperTrail         00406712 f   cl_fx.obj
 0001:00005826       _CL_BubbleTrail            00406826 f   cl_fx.obj
 0001:0000594a       _CL_FlyParticles           0040694a f   cl_fx.obj
 0001:00005aef       _CL_FlyEffect              00406aef f   cl_fx.obj
 0001:00005b72       _CL_BfgParticles           00406b72 f   cl_fx.obj
 0001:00005d4f       _CL_TrapParticles          00406d4f f   cl_fx.obj
 0001:00005ff1       _CL_BFGExplosionParticles  00406ff1 f   cl_fx.obj
 0001:0000609b       _CL_TeleportParticles      0040709b f   cl_fx.obj
 0001:000061d4       _CL_EntityEvent            004071d4 f   cl_fx.obj
 0001:000063b2       _CL_ClearEffects           004073b2 f   cl_fx.obj
 0001:000063d0       _IN_KLookDown              004073d0 f   cl_input.obj
 0001:00006452       _IN_KLookUp                00407452 f   cl_input.obj
 0001:000064d8       _IN_UpDown                 004074d8 f   cl_input.obj
 0001:000064e4       _IN_UpUp                   004074e4 f   cl_input.obj
 0001:000064f0       _IN_DownDown               004074f0 f   cl_input.obj
 0001:000064fc       _IN_DownUp                 004074fc f   cl_input.obj
 0001:00006508       _IN_LeftDown               00407508 f   cl_input.obj
 0001:00006514       _IN_LeftUp                 00407514 f   cl_input.obj
 0001:00006520       _IN_RightDown              00407520 f   cl_input.obj
 0001:0000652c       _IN_RightUp                0040752c f   cl_input.obj
 0001:00006538       _IN_ForwardDown            00407538 f   cl_input.obj
 0001:00006544       _IN_ForwardUp              00407544 f   cl_input.obj
 0001:00006550       _IN_BackDown               00407550 f   cl_input.obj
 0001:0000655c       _IN_BackUp                 0040755c f   cl_input.obj
 0001:00006568       _IN_LookupDown             00407568 f   cl_input.obj
 0001:00006574       _IN_LookupUp               00407574 f   cl_input.obj
 0001:00006580       _IN_LookdownDown           00407580 f   cl_input.obj
 0001:0000658c       _IN_LookdownUp             0040758c f   cl_input.obj
 0001:00006598       _IN_MoveleftDown           00407598 f   cl_input.obj
 0001:000065a4       _IN_MoveleftUp             004075a4 f   cl_input.obj
 0001:000065b0       _IN_MoverightDown          004075b0 f   cl_input.obj
 0001:000065bc       _IN_MoverightUp            004075bc f   cl_input.obj
 0001:000065c8       _IN_SpeedDown              004075c8 f   cl_input.obj
 0001:000065d4       _IN_SpeedUp                004075d4 f   cl_input.obj
 0001:000065e0       _IN_StrafeDown             004075e0 f   cl_input.obj
 0001:000065ec       _IN_StrafeUp               004075ec f   cl_input.obj
 0001:000065f8       _IN_AttackDown             004075f8 f   cl_input.obj
 0001:00006604       _IN_AttackUp               00407604 f   cl_input.obj
 0001:00006610       _IN_UseDown                00407610 f   cl_input.obj
 0001:0000661c       _IN_UseUp                  0040761c f   cl_input.obj
 0001:00006628       _IN_Impulse                00407628 f   cl_input.obj
 0001:0000663e       _CL_KeyState               0040763e f   cl_input.obj
 0001:0000669e       _CL_AdjustAngles           0040769e f   cl_input.obj
 0001:000067ad       _CL_BaseMove               004077ad f   cl_input.obj
 0001:00006987       _CL_ClampPitch             00407987 f   cl_input.obj
 0001:00006a35       _CL_FinishMove             00407a35 f   cl_input.obj
 0001:00006af1       _CL_CreateCmd              00407af1 f   cl_input.obj
 0001:00006b57       _IN_CenterView             00407b57 f   cl_input.obj
 0001:00006b78       _CL_InitInput              00407b78 f   cl_input.obj
 0001:00006d7e       _CL_SendCmd                00407d7e f   cl_input.obj
 0001:00006f78       _CL_ParseInventory         00407f78 f   cl_inv.obj
 0001:00006f98       _CL_DrawInventory          00407f98 f   cl_inv.obj
 0001:000071f9       _CL_WriteDemoMessage       004081f9 f   cl_main.obj
 0001:0000723b       _CL_Stop_f                 0040823b f   cl_main.obj
 0001:00007296       _CL_Record_f               00408296 f   cl_main.obj
 0001:00007528       _Cmd_ForwardToServer       00408528 f   cl_main.obj
 0001:00007594       _CL_Setenv_f               00408594 f   cl_main.obj
 0001:00007658       _CL_ForwardToServer_f      00408658 f   cl_main.obj
 0001:000076a6       _CL_Pause_f                004086a6 f   cl_main.obj
 0001:000076df       _CL_Quit_f                 004086df f   cl_main.obj
 0001:000076e9       _CL_Drop                   004086e9 f   cl_main.obj
 0001:0000770b       _CL_SendConnectPacket      0040870b f   cl_main.obj
 0001:000077e2       _CL_CheckForResend         004087e2 f   cl_main.obj
 0001:000078e6       _CL_Connect_f              004088e6 f   cl_main.obj
 0001:00007965       _CL_Rcon_f                 00408965 f   cl_main.obj
 0001:00007a70       _CL_ClearState             00408a70 f   cl_main.obj
 0001:00007aaf       _CL_Disconnect             00408aaf f   cl_main.obj
 0001:00007bec       _CL_Disconnect_f           00408bec f   cl_main.obj
 0001:00007bfb       _CL_Changing_f             00408bfb f   cl_main.obj
 0001:00007c1f       _CL_Reconnect_f            00408c1f f   cl_main.obj
 0001:00007cbb       _CL_ParseStatusMessage     00408cbb f   cl_main.obj
 0001:00007cf2       _CL_PingServers_f          00408cf2 f   cl_main.obj
 0001:00007e4c       _CL_Skins_f                00408e4c f   cl_main.obj
 0001:00007e88       _CL_ConnectionlessPacket   00408e88 f   cl_main.obj
 0001:000081b1       _CL_ReadPackets            004091b1 f   cl_main.obj
 0001:000082ab       _CL_FixUpGender            004092ab f   cl_main.obj
 0001:0000835c       _CL_Userinfo_f             0040935c f   cl_main.obj
 0001:00008374       _CL_Snd_Restart_f          00409374 f   cl_main.obj
 0001:00008383       _CL_RequestNextDownload    00409383 f   cl_main.obj
 0001:000089c6       _CL_Precache_f             004099c6 f   cl_main.obj
 0001:00008a8c       _CL_WriteConfiguration     00409a8c f   cl_main.obj
 0001:00008b1d       _CL_WriteConfig_f          00409b1d f   cl_main.obj
 0001:00008b7c       _CL_InitLocal              00409b7c f   cl_main.obj
 0001:00008d9c       _CL_FixCvarCheats          00409d9c f   cl_main.obj
 0001:00008ded       _CL_SendCommand            00409ded f   cl_main.obj
 0001:00008e0b       _CL_Frame                  00409e0b f   cl_main.obj
 0001:00008fe7       _CL_Init                   00409fe7 f   cl_main.obj
 0001:00009034       _CL_Shutdown               0040a034 f   cl_main.obj
 0001:0000907a       _vectoangles2              0040a07a f   cl_newfx.obj
 0001:0000917c       _CL_Flashlight             0040a17c f   cl_newfx.obj
 0001:000091cc       _CL_ColorFlash             0040a1cc f   cl_newfx.obj
 0001:0000921e       _CL_DebugTrail             0040a21e f   cl_newfx.obj
 0001:00009315       _CL_ForceWall              0040a315 f   cl_newfx.obj
 0001:0000944f       _CL_BubbleTrail2           0040a44f f   cl_newfx.obj
 0001:0000957f       _CL_Heatbeam               0040a57f f   cl_newfx.obj
 0001:000097f7       _CL_ParticleSteamEffect    0040a7f7 f   cl_newfx.obj
 0001:00009903       _CL_ParticleSteamEffect2   0040a903 f   cl_newfx.obj
 0001:00009a22       _CL_TrackerTrail           0040aa22 f   cl_newfx.obj
 0001:00009b67       _CL_Tracker_Shell          0040ab67 f   cl_newfx.obj
 0001:00009bde       _CL_MonsterPlasma_Shell    0040abde f   cl_newfx.obj
 0001:00009c52       _CL_Widowbeamout           0040ac52 f   cl_newfx.obj
 0001:00009cf9       _CL_Nukeblast              0040acf9 f   cl_newfx.obj
 0001:00009da0       _CL_WidowSplash            0040ada0 f   cl_newfx.obj
 0001:00009e5b       _CL_TagTrail               0040ae5b f   cl_newfx.obj
 0001:00009f61       _CL_ColorExplosionParticles 0040af61 f   cl_newfx.obj
 0001:0000a00e       _CL_ParticleSmokeEffect    0040b00e f   cl_newfx.obj
 0001:0000a118       _CL_BlasterParticles2      0040b118 f   cl_newfx.obj
 0001:0000a1e5       _CL_BlasterTrail2          0040b1e5 f   cl_newfx.obj
 0001:0000a2de       _CL_DownloadFileName       0040b2de f   cl_parse.obj
 0001:0000a31d       _CL_CheckOrDownloadFile    0040b31d f   cl_parse.obj
 0001:0000a555       _CL_Download_f             0040b555 f   cl_parse.obj
 0001:0000a61d       _CL_RegisterSounds         0040b61d f   cl_parse.obj
 0001:0000a65c       _CL_ParseDownload          0040b65c f   cl_parse.obj
 0001:0000a7c9       _CL_ParseServerData        0040b7c9 f   cl_parse.obj
 0001:0000a89c       _CL_ParseBaseline          0040b89c f   cl_parse.obj
 0001:0000a8e4       _CL_LoadClientinfo         0040b8e4 f   cl_parse.obj
 0001:0000abac       _CL_ParseClientinfo        0040bbac f   cl_parse.obj
 0001:0000abd0       _CL_ParseConfigString      0040bbd0 f   cl_parse.obj
 0001:0000ad72       _CL_ParseStartSoundPacket  0040bd72 f   cl_parse.obj
 0001:0000ae74       _CL_ParseServerMessage     0040be74 f   cl_parse.obj
 0001:0000b147       _CL_CheckPredictionError   0040c147 f   cl_pred.obj
 0001:0000b266       _CL_ClipMoveToEntities     0040c266 f   cl_pred.obj
 0001:0000b4d9       _CL_PMTrace                0040c4d9 f   cl_pred.obj
 0001:0000b548       _CL_PMpointcontents        0040c548 f   cl_pred.obj
 0001:0000b5fa       _CL_PredictMovement        0040c5fa f   cl_pred.obj
 0001:0000b803       _CL_AddNetgraph            0040c803 f   cl_scrn.obj
 0001:0000b8dd       _SCR_DebugGraph            0040c8dd f   cl_scrn.obj
 0001:0000b905       _SCR_DrawDebugGraph        0040c905 f   cl_scrn.obj
 0001:0000b9e4       _SCR_CenterPrint           0040c9e4 f   cl_scrn.obj
 0001:0000baf5       _SCR_DrawCenterString      0040caf5 f   cl_scrn.obj
 0001:0000bc4a       _SCR_SizeUp_f              0040cc4a f   cl_scrn.obj
 0001:0000bc63       _SCR_SizeDown_f            0040cc63 f   cl_scrn.obj
 0001:0000bc84       _SCR_Sky_f                 0040cc84 f   cl_scrn.obj
 0001:0000bd2f       _SCR_Init                  0040cd2f f   cl_scrn.obj
 0001:0000bd94       _SCR_DrawNet               0040cd94 f   cl_scrn.obj
 0001:0000bdcf       _SCR_DrawPause             0040cdcf f   cl_scrn.obj
 0001:0000be38       _SCR_RunConsole            0040ce38 f   cl_scrn.obj
 0001:0000bee0       _SCR_DrawConsole           0040cee0 f   cl_scrn.obj
 0001:0000bf78       _SCR_SetLevelshot          0040cf78 f   cl_scrn.obj
 0001:0000bfdc       _SCR_DrawLoading           0040cfdc f   cl_scrn.obj
 0001:0000c095       _SCR_BeginLoadingPlaque    0040d095 f   cl_scrn.obj
 0001:0000c0f5       _SCR_EndLoadingPlaque      0040d0f5 f   cl_scrn.obj
 0001:0000c113       _SCR_Loading_f             0040d113 f   cl_scrn.obj
 0001:0000c118       _SCR_TimeRefresh_f         0040d118 f   cl_scrn.obj
 0001:0000c1ef       _SCR_AddDirtyPoint         0040d1ef f   cl_scrn.obj
 0001:0000c22c       _SCR_DirtyScreen           0040d22c f   cl_scrn.obj
 0001:0000c2a7       _SCR_TileClear             0040d2a7 f   cl_scrn.obj
 0001:0000c482       _DrawHUDString             0040d482 f   cl_scrn.obj
 0001:0000c534       _SCR_DrawField             0040d534 f   cl_scrn.obj
 0001:0000c658       _SCR_TouchPics             0040d658 f   cl_scrn.obj
 0001:0000c6eb       _SCR_ExecuteLayoutString   0040d6eb f   cl_scrn.obj
 0001:0000d09c       _SCR_UpdateScreen          0040e09c f   cl_scrn.obj
 0001:0000d387       _CL_RegisterTEntSounds     0040e387 f   cl_tent.obj
 0001:0000d5bf       _CL_RegisterTEntModels     0040e5bf f   cl_tent.obj
 0001:0000d745       _CL_ClearTEnts             0040e745 f   cl_tent.obj
 0001:0000d79c       _CL_AllocExplosion         0040e79c f   cl_tent.obj
 0001:0000d7ee       _CL_AddExplosions          0040e7ee f   cl_tent.obj
 0001:0000da3d       _CL_SmokeAndFlash          0040ea3d f   cl_tent.obj
 0001:0000daa4       _CL_ParseBeam              0040eaa4 f   cl_tent.obj
 0001:0000db93       _CL_ParseBeam2             0040eb93 f   cl_tent.obj
 0001:0000dc93       _CL_ParsePlayerBeam        0040ec93 f   cl_tent.obj
 0001:0000ddcf       _CL_ParseLightning         0040edcf f   cl_tent.obj
 0001:0000dea5       _CL_ParseLaser             0040eea5 f   cl_tent.obj
 0001:0000df4a       _CL_ParseSteam             0040ef4a f   cl_tent.obj
 0001:0000e05b       _CL_ParseWidow             0040f05b f   cl_tent.obj
 0001:0000e0c7       _CL_ParseNuke              0040f0c7 f   cl_tent.obj
 0001:0000e131       _CL_ParseTEnt              0040f131 f   cl_tent.obj
 0001:0000ef47       _CL_AddBeams               0040ff47 f   cl_tent.obj
 0001:0000f270       _CL_AddPlayerBeams         00410270 f   cl_tent.obj
 0001:0000f977       _CL_AddLasers              00410977 f   cl_tent.obj
 0001:0000f99c       _CL_ProcessSustain         0041099c f   cl_tent.obj
 0001:0000f9dd       _CL_AddTEnts               004109dd f   cl_tent.obj
 0001:0000f9f6       _V_AddEntity               004109f6 f   cl_view.obj
 0001:0000fa20       _V_AddLight                00410a20 f   cl_view.obj
 0001:0000fa6b       _V_TestParticles           00410a6b f   cl_view.obj
 0001:0000fb29       _V_TestEntities            00410b29 f   cl_view.obj
 0001:0000fbcb       _V_TestLights              00410bcb f   cl_view.obj
 0001:0000fc9e       _CL_PrepRefresh            00410c9e f   cl_view.obj
 0001:0000ff71       _CalcFov                   00410f71 f   cl_view.obj
 0001:0000ffea       _V_Gun_Next_f              00410fea f   cl_view.obj
 0001:00010003       _V_Gun_Prev_f              00411003 f   cl_view.obj
 0001:00010025       _V_Gun_Model_f             00411025 f   cl_view.obj
 0001:00010059       _SCR_DrawCrosshair         00411059 f   cl_view.obj
 0001:000100ce       _V_RenderView              004110ce f   cl_view.obj
 0001:00010ca3       _V_Viewpos_f               00411ca3 f   cl_view.obj
 0001:00010ce1       _V_Init                    00411ce1 f   cl_view.obj
 0001:00010eea       _Cbuf_Init                 00411eea f   cmd.obj
 0001:00010f02       _Cbuf_AddText              00411f02 f   cmd.obj
 0001:00010f5e       _Cbuf_InsertText           00411f5e f   cmd.obj
 0001:00010fb6       _Cbuf_CopyToDefer          00411fb6 f   cmd.obj
 0001:00010fe2       _Cbuf_InsertFromDefer      00411fe2 f   cmd.obj
 0001:00010ff5       _Cbuf_ExecuteText          00411ff5 f   cmd.obj
 0001:00011034       _Cbuf_Execute              00412034 f   cmd.obj
 0001:0001111a       _Cbuf_AddEarlyCommands     0041211a f   cmd.obj
 0001:0001119c       _Cbuf_AddLateCommands      0041219c f   cmd.obj
 0001:000112b7       _Cmd_Exec_f                004122b7 f   cmd.obj
 0001:0001133c       _Cmd_Echo_f                0041233c f   cmd.obj
 0001:0001137e       _Cmd_Alias_f               0041237e f   cmd.obj
 0001:000114a5       _Cmd_Unalias_f             004124a5 f   cmd.obj
 0001:00011531       _Cmd_WriteAliases          00412531 f   cmd.obj
 0001:0001155a       _Cmd_Argc                  0041255a f   cmd.obj
 0001:00011560       _Cmd_Argv                  00412560 f   cmd.obj
 0001:0001157a       _Cmd_Args                  0041257a f   cmd.obj
 0001:00011580       _Cmd_TokenizeString        00412580 f   cmd.obj
 0001:000117b2       _Cmd_AddCommand            004127b2 f   cmd.obj
 0001:0001181a       _Cmd_RemoveCommand         0041281a f   cmd.obj
 0001:0001185c       _Cmd_ExecuteString         0041285c f   cmd.obj
 0001:00011934       _Cmd_Init                  00412934 f   cmd.obj
 0001:00011a37       _CMod_GetSurfMaterial      00412a37 f   cmodel.obj
 0001:00011a94       _CM_LoadMap                00412a94 f   cmodel.obj
 0001:000121fe       _CM_InlineModel            004131fe f   cmodel.obj
 0001:0001224d       _CM_NumClusters            0041324d f   cmodel.obj
 0001:00012253       _CM_NumInlineModels        00413253 f   cmodel.obj
 0001:00012259       _CM_EntityString           00413259 f   cmodel.obj
 0001:0001225f       _CM_LeafContents           0041325f f   cmodel.obj
 0001:00012289       _CM_LeafCluster            00413289 f   cmodel.obj
 0001:000122b4       _CM_LeafArea               004132b4 f   cmodel.obj
 0001:000122df       _CM_InitBoxHull            004132df f   cmodel.obj
 0001:000124be       _CM_HeadnodeForBox         004134be f   cmodel.obj
 0001:00012573       _CM_PointLeafnum           00413573 f   cmodel.obj
 0001:000125f6       _CM_BoxLeafnums            004135f6 f   cmodel.obj
 0001:00012706       _CM_PointContents          00413706 f   cmodel.obj
 0001:0001272b       _CM_TransformedPointContents 0041372b f   cmodel.obj
 0001:00012810       _CM_TransformedPointContents2 00413810 f   cmodel.obj
 0001:000128ab       _CM_BoxTrace               004138ab f   cmodel.obj
 0001:000132cf       _CM_TransformedBoxTrace    004142cf f   cmodel.obj
 0001:00013542       _CM_TransformedBoxTrace2   00414542 f   cmodel.obj
 0001:000136f9       _CM_DecompressVis          004146f9 f   cmodel.obj
 0001:000137a2       _CM_ClusterPVS             004147a2 f   cmodel.obj
 0001:000137ef       _CM_ClusterPHS             004147ef f   cmodel.obj
 0001:0001383c       _FloodAreaConnections      0041483c f   cmodel.obj
 0001:000138f7       _CM_SetAreaPortalState     004148f7 f   cmodel.obj
 0001:00013924       _CM_AreasConnected         00414924 f   cmodel.obj
 0001:00013972       _CM_WriteAreaBits          00414972 f   cmodel.obj
 0001:00013a02       _CM_WritePortalState       00414a02 f   cmodel.obj
 0001:00013a1c       _CM_ReadPortalState        00414a1c f   cmodel.obj
 0001:00013a3a       _CM_HeadnodeVisible        00414a3a f   cmodel.obj
 0001:00013aa2       _Com_BeginRedirect         00414aa2 f   common.obj
 0001:00013adf       _Com_EndRedirect           00414adf f   common.obj
 0001:00013b0a       _Com_Printf                00414b0a f   common.obj
 0001:00013c69       _Com_DPrintf               00414c69 f   common.obj
 0001:00013ccd       _DebugPrintf               00414ccd f   common.obj
 0001:00013d75       _Com_WPrintf               00414d75 f   common.obj
 0001:00013dce       _Com_Error                 00414dce f   common.obj
 0001:00013eac       _Com_Quit                  00414eac f   common.obj
 0001:00013edc       _MatchWildcard             00414edc f   common.obj
 0001:0001401c       _MatchWildcard2            0041501c f   common.obj
 0001:00014068       _IPWildcard                00415068 f   common.obj
 0001:00014143       _Com_ServerState           00415143 f   common.obj
 0001:00014149       _Com_SetServerState        00415149 f   common.obj
 0001:00014153       _MSG_WriteChar             00415153 f   common.obj
 0001:00014153       _MSG_WriteByte             00415153 f   common.obj
 0001:00014167       _MSG_WriteShort            00415167 f   common.obj
 0001:00014181       _MSG_WriteLong             00415181 f   common.obj
 0001:000141ab       _MSG_WriteFloat            004151ab f   common.obj
 0001:000141d1       _MSG_WriteString           004151d1 f   common.obj
 0001:00014209       _MSG_WriteCoord            00415209 f   common.obj
 0001:00014232       _MSG_WritePos              00415232 f   common.obj
 0001:000142a6       _MSG_WriteAngle            004152a6 f   common.obj
 0001:000142c9       _MSG_WriteAngle16          004152c9 f   common.obj
 0001:000142f8       _MSG_WriteDeltaUsercmd     004152f8 f   common.obj
 0001:00014480       _MSG_WriteDir              00415480 f   common.obj
 0001:000144ed       _MSG_ReadDir               004154ed f   common.obj
 0001:0001452b       _MSG_WriteDeltaEntity      0041552b f   common.obj
 0001:00014a24       _MSG_BeginReading          00415a24 f   common.obj
 0001:00014a2d       _MSG_ReadChar              00415a2d f   common.obj
 0001:00014a4e       _MSG_ReadByte              00415a4e f   common.obj
 0001:00014a6f       _MSG_ReadShort             00415a6f f   common.obj
 0001:00014a9f       _MSG_ReadLong              00415a9f f   common.obj
 0001:00014ade       _MSG_ReadString            00415ade f   common.obj
 0001:00014b11       _MSG_ReadStringLine        00415b11 f   common.obj
 0001:00014b49       _MSG_ReadCoord             00415b49 f   common.obj
 0001:00014b63       _MSG_ReadPos               00415b63 f   common.obj
 0001:00014bb5       _MSG_ReadAngle             00415bb5 f   common.obj
 0001:00014bcf       _MSG_ReadAngle16           00415bcf f   common.obj
 0001:00014be9       _MSG_ReadDeltaUsercmd      00415be9 f   common.obj
 0001:00014ca0       _MSG_ReadData              00415ca0 f   common.obj
 0001:00014cc3       _SZ_Init                   00415cc3 f   common.obj
 0001:00014ce5       _SZ_Clear                  00415ce5 f   common.obj
 0001:00014cf2       _SZ_GetSpace               00415cf2 f   common.obj
 0001:00014d58       _SZ_Write                  00415d58 f   common.obj
 0001:00014d79       _SZ_Print                  00415d79 f   common.obj
 0001:00014dc2       _COM_Argc                  00415dc2 f   common.obj
 0001:00014dc8       _COM_Argv                  00415dc8 f   common.obj
 0001:00014de9       _COM_ClearArgv             00415de9 f   common.obj
 0001:00014e11       _COM_InitArgv              00415e11 f   common.obj
 0001:00014e6c       _Info_Print                00415e6c f   common.obj
 0001:00014f29       _COM_BlockSequenceCRCByte  00415f29 f   common.obj
 0001:00014fb5       _frand                     00415fb5 f   common.obj
 0001:00014fd2       _crand                     00415fd2 f   common.obj
 0001:00014ff5       _Qcommon_Init              00415ff5 f   common.obj
 0001:00015149       _Qcommon_Frame             00416149 f   common.obj
 0001:00015465       _CCheckParm                00416465 f   conproc.obj
 0001:0001549e       _InitConProc               0041649e f   conproc.obj
 0001:000155f0       _DeinitConProc             004165f0 f   conproc.obj
 0001:00015601       _RequestProc@4             00416601 f   conproc.obj
 0001:00015712       _WriteText                 00416712 f   conproc.obj
 0001:000157d9       _CharToCode                004167d9 f   conproc.obj
 0001:00015861       _SetConsoleCXCY            00416861 f   conproc.obj
 0001:00015998       _DrawStringCommon          00416998 f   console.obj
 0001:000159f5       _DrawString                004169f5 f   console.obj
 0001:00015a17       _DrawAltString             00416a17 f   console.obj
 0001:00015a3c       _Con_ToggleConsole_f       00416a3c f   console.obj
 0001:00015ac6       _Con_ClearNotify           00416ac6 f   console.obj
 0001:00015ad4       _Con_CheckResize           00416ad4 f   console.obj
 0001:00015bf4       _Con_Init                  00416bf4 f   console.obj
 0001:00015e91       _Con_Print                 00416e91 f   console.obj
 0001:00016161       _Con_DrawNotify            00417161 f   console.obj
 0001:000163bb       _Con_DrawConsole           004173bb f   console.obj
 0001:000168f7       _CRC_Block                 004178f7 f   crc.obj
 0001:00016933       _Cvar_VariableValue        00417933 f   cvar.obj
 0001:000169a1       _Cvar_VariableInt          004179a1 f   cvar.obj
 0001:000169b4       _Cvar_VariableString       004179b4 f   cvar.obj
 0001:000169cc       _Cvar_Get                  004179cc f   cvar.obj
 0001:00016c45       _Cvar_GetVars              00417c45 f   cvar.obj
 0001:00016c99       _Cvar_FullSet              00417c99 f   cvar.obj
 0001:00016cf6       _Cvar_SetValue             00417cf6 f   cvar.obj
 0001:00016f1d       _Cvar_SetInteger           00417f1d f   cvar.obj
 0001:00016f3f       _Cvar_Set                  00417f3f f   cvar.obj
 0001:00016f54       _Cvar_ForceSet             00417f54 f   cvar.obj
 0001:00016f69       _Cvar_Clamp                00417f69 f   cvar.obj
 0001:00016ff3       _Cvar_ClampName            00417ff3 f   cvar.obj
 0001:00017044       _Cvar_GetLatchedVars       00418044 f   cvar.obj
 0001:00017073       _Cvar_Command              00418073 f   cvar.obj
 0001:00017107       _Cvar_WriteVariables       00418107 f   cvar.obj
 0001:0001716c       _Cvar_BitInfo              0041816c f   cvar.obj
 0001:000171a5       _Cvar_Userinfo             004181a5 f   cvar.obj
 0001:000171ae       _Cvar_Serverinfo           004181ae f   cvar.obj
 0001:000171b7       _Cvar_Cheats               004181b7 f   cvar.obj
 0001:0001720d       _Cvar_Init                 0041820d f   cvar.obj
 0001:0001784a       _FS_CreatePath             0041884a f   files.obj
 0001:00017894       _FS_CopyFile               00418894 f   files.obj
 0001:00017997       _FS_CopyFiles              00418997 f   files.obj
 0001:00017a73       _FS_RemoveFiles            00418a73 f   files.obj
 0001:00017aed       _Developer_searchpath      00418aed f   files.obj
 0001:00017b32       _FS_FCloseFile             00418b32 f   files.obj
 0001:00017bc8       _FS_FOpenFile              00418bc8 f   files.obj
 0001:000180f0       _FS_FileExists             004190f0 f   files.obj
 0001:0001832a       _FS_Read                   0041932a f   files.obj
 0001:00018572       _FS_LoadFile               00419572 f   files.obj
 0001:000185d4       _FS_FreeFile               004195d4 f   files.obj
 0001:000185df       _FS_LoadPackFile           004195df f   files.obj
 0001:00018917       _FS_UnloadPackFile         00419917 f   files.obj
 0001:00018964       _FS_AddGameDirectory       00419964 f   files.obj
 0001:00018afb       _FS_Gamedir                00419afb f   files.obj
 0001:00018b0f       _FS_LoadGameConfig         00419b0f f   files.obj
 0001:00018bd4       _FS_SetGamedir             00419bd4 f   files.obj
 0001:00018d6d       _FS_ListFiles              00419d6d f   files.obj
 0001:0001909e       _FS_NextPath               0041a09e f   files.obj
 0001:000190c2       _FS_InitFilesystem         0041a0c2 f   files.obj
 0001:00019a88       _LoadPCX                   0041aa88 f   images.obj
 0001:00019c6c       _LoadTGA                   0041ac6c f   images.obj
 0001:0001a01a       _LoadJPG                   0041b01a f   images.obj
 0001:0001a2ab       _ImageExists               0041b2ab f   images.obj
 0001:0001a3b1       _WriteTGA                  0041b3b1 f   images.obj
 0001:0001a45d       _WriteJPG                  0041b45d f   images.obj
 0001:0001a585       _IN_MLookDown              0041b585 f   in_win.obj
 0001:0001a590       _IN_MLookUp                0041b590 f   in_win.obj
 0001:0001a5b3       _IN_StartupMouse           0041b5b3 f   in_win.obj
 0001:0001a60d       _IN_MouseEvent             0041b60d f   in_win.obj
 0001:0001a68a       _IN_Init                   0041b68a f   in_win.obj
 0001:0001a6d0       _IN_Shutdown               0041b6d0 f   in_win.obj
 0001:0001a7b5       _IN_Activate               0041b7b5 f   in_win.obj
 0001:0001a7cc       _IN_Frame                  0041b7cc f   in_win.obj
 0001:0001aba0       _IN_Move                   0041bba0 f   in_win.obj
 0001:0001ad6b       _IN_StartupJoystick        0041bd6b f   in_win.obj
 0001:0001ae8c       _Joy_AdvancedUpdate_f      0041be8c f   in_win.obj
 0001:0001b023       _IN_Commands               0041c023 f   in_win.obj
 0001:0001b152       _IN_ReadJoystick           0041c152 f   in_win.obj
 0001:0001b18d       _IN_JoyMove                0041c18d f   in_win.obj
 0001:0001b4dd       _Key_StringToKeynum        0041c4dd f   keys.obj
 0001:0001b527       _Key_KeynumToString        0041c527 f   keys.obj
 0001:0001b57a       _Key_Console               0041c57a f   keys.obj
 0001:0001c2c1       _Key_Message               0041d2c1 f   keys.obj
 0001:0001c352       _Key_SetBinding            0041d352 f   keys.obj
 0001:0001c3ac       _Key_Bindlist_f            0041d3ac f   keys.obj
 0001:0001c448       _Key_WriteBindings         0041d448 f   keys.obj
 0001:0001c486       _Key_Init                  0041d486 f   keys.obj
 0001:0001c75c       _Key_Event                 0041d75c f   keys.obj
 0001:0001ca3b       _Key_ClearStates           0041da3b f   keys.obj
 0001:0001ca80       _Key_ClearTyping           0041da80 f   keys.obj
 0001:0001ca99       _MD4Init                   0041da99 f   md4.obj
 0001:0001cac1       _MD4Update                 0041dac1 f   md4.obj
 0001:0001cb5f       _MD4Final                  0041db5f f   md4.obj
 0001:0001d250       _Com_BlockChecksum         0041e250 f   md4.obj
 0001:0001d28c       _Z_Free                    0041e28c f   memory.obj
 0001:0001d2e2       _Z_FreeTags                0041e2e2 f   memory.obj
 0001:0001d312       _Z_TagMalloc               0041e312 f   memory.obj
 0001:0001d383       _Z_Malloc                  0041e383 f   memory.obj
 0001:0001d3a5       _Z_BlockMalloc             0041e3a5 f   memory.obj
 0001:0001d3c0       _CreateMemoryChain         0041e3c0 f   memory.obj
 0001:0001d426       _FreeMemoryChain           0041e426 f   memory.obj
 0001:0001d450       _AllocChainBlock           0041e450 f   memory.obj
 0001:0001d49b       _CopyString                0041e49b f   memory.obj
 0001:0001d4bf       _ChainCopyString           0041e4bf f   memory.obj
 0001:0001d4e7       _AllocNamedStruc           0041e4e7 f   memory.obj
 0001:0001d522       _ChainAllocNamedStruc      0041e522 f   memory.obj
 0001:0001d561       _FindNamedStruc            0041e561 f   memory.obj
 0001:0001d5a5       _FindNamedStrucByIndex     0041e5a5 f   memory.obj
 0001:0001d5bc       _IndexOfNamedStruc         0041e5bc f   memory.obj
 0001:0001d5ea       _AddToNamedList            0041e5ea f   memory.obj
 0001:0001d634       _ChainAddToNamedList       0041e634 f   memory.obj
 0001:0001d67e       _FreeNamedList             0041e67e f   memory.obj
 0001:0001d699       _Z_Init                    0041e699 f   memory.obj
 0001:0001d6d4       _M_PushMenu                0041e6d4 f   menu.obj
 0001:0001d791       _M_ForceMenuOff            0041e791 f   menu.obj
 0001:0001d7be       _M_PopMenu                 0041e7be f   menu.obj
 0001:0001d812       _Default_MenuKey           0041e812 f   menu.obj
 0001:0001d93c       _M_Print                   0041e93c f   menu.obj
 0001:0001d987       _M_DrawTextBox             0041e987 f   menu.obj
 0001:0001db73       _M_Main_Draw               0041eb73 f   menu.obj
 0001:0001dce4       _M_Main_Key                0041ece4 f   menu.obj
 0001:0001ddc8       _M_Menu_Main_f             0041edc8 f   menu.obj
 0001:0001dde4       _M_Menu_Multiplayer_f      0041ede4 f   menu.obj
 0001:0001df69       _M_Menu_Keys_f             0041ef69 f   menu.obj
 0001:0001e443       _M_Menu_Options_f          0041f443 f   menu.obj
 0001:0001edb2       _M_Menu_Video_f            0041fdb2 f   menu.obj
 0001:0001edd3       _M_Menu_Credits_f          0041fdd3 f   menu.obj
 0001:0001efa1       _M_Menu_Game_f             0041ffa1 f   menu.obj
 0001:0001f234       _M_Menu_LoadGame_f         00420234 f   menu.obj
 0001:0001f3e1       _M_Menu_SaveGame_f         004203e1 f   menu.obj
 0001:0001f51c       _M_AddToServerList         0042051c f   menu.obj
 0001:0001f59a       _M_Menu_JoinServer_f       0042059a f   menu.obj
 0001:0001f7fe       _M_Menu_StartServer_f      004207fe f   menu.obj
 0001:00020029       _M_Menu_DMOptions_f        00421029 f   menu.obj
 0001:000207e2       _M_Menu_DownloadOptions_f  004217e2 f   menu.obj
 0001:00020a64       _M_Menu_AddressBook_f      00421a64 f   menu.obj
 0001:00021c67       _M_Init                    00422c67 f   menu.obj
 0001:00021d8b       _M_Draw                    00422d8b f   menu.obj
 0001:00021e1f       _M_Keydown                 00422e1f f   menu.obj
 0001:00021e3b       _LoadQ2BspFile             00422e3b f   model.obj
 0001:00022404       _LoadBspFile               00423404 f   model.obj
 0001:00022524       _ProcessEntstring          00423524 f   model.obj
 0001:00023347       _Netchan_Init              00424347 f   net_chan.obj
 0001:000233a7       _Netchan_OutOfBand         004243a7 f   net_chan.obj
 0001:00023407       _Netchan_OutOfBandPrint    00424407 f   net_chan.obj
 0001:00023447       _Netchan_Setup             00424447 f   net_chan.obj
 0001:000234a2       _Netchan_NeedReliable      004244a2 f   net_chan.obj
 0001:000234ce       _Netchan_Transmit          004244ce f   net_chan.obj
 0001:00023672       _Netchan_Process           00424672 f   net_chan.obj
 0001:00023799       _NetadrToSockadr           00424799 f   net_wins.obj
 0001:0002383b       _SockadrToNetadr           0042483b f   net_wins.obj
 0001:0002389e       _NET_CompareAdr            0042489e f   net_wins.obj
 0001:00023904       _NET_CompareBaseAdr        00424904 f   net_wins.obj
 0001:0002395d       _NET_AdrToString           0042495d f   net_wins.obj
 0001:00023a16       _NET_StringToSockaddr      00424a16 f   net_wins.obj
 0001:00023c4f       _NET_StringToAdr           00424c4f f   net_wins.obj
 0001:00023ca8       _NET_IsLocalAddress        00424ca8 f   net_wins.obj
 0001:00023cb4       _NET_GetLoopPacket         00424cb4 f   net_wins.obj
 0001:00023d3b       _NET_SendLoopPacket        00424d3b f   net_wins.obj
 0001:00023d87       _NET_GetPacket             00424d87 f   net_wins.obj
 0001:00023ea7       _NET_SendPacket            00424ea7 f   net_wins.obj
 0001:00023f89       _NET_IPSocket              00424f89 f   net_wins.obj
 0001:0002409f       _NET_OpenIP                0042509f f   net_wins.obj
 0001:000241c0       _NET_IPXSocket             004251c0 f   net_wins.obj
 0001:000242c2       _NET_OpenIPX               004252c2 f   net_wins.obj
 0001:000243aa       _NET_Config                004253aa f   net_wins.obj
 0001:00024422       _NET_Sleep                 00425422 f   net_wins.obj
 0001:000244ef       _NET_Init                  004254ef f   net_wins.obj
 0001:0002452b       _Pmove                     0042552b f   pmove.obj
 0001:0002606c       _NormalizeColor            0042706c f   q_shared2.obj
 0001:000260d8       _NormalizeColor255         004270d8 f   q_shared2.obj
 0001:00026148       _Q_rsqrt                   00427148 f   q_shared2.obj
 0001:00026178       _RotatePointAroundVector   00427178 f   q_shared2.obj
 0001:000262e8       _AngleVectors              004272e8 f   q_shared2.obj
 0001:00026449       _ProjectPointOnPlane       00427449 f   q_shared2.obj
 0001:000264c8       _PerpendicularVector       004274c8 f   q_shared2.obj
 0001:00026547       _MakeNormalVectors         00427547 f   q_shared2.obj
 0001:000265ae       _MatrixMultiply            004275ae f   q_shared2.obj
 0001:00026695       _R_ConcatTransforms        00427695 f   q_shared2.obj
 0001:000267cf       _SetPlaneSignbits          004277cf f   q_shared2.obj
 0001:000267ff       _LerpAngle                 004277ff f   q_shared2.obj
 0001:00026842       _anglemod                  00427842 f   q_shared2.obj
 0001:00026866       _BoxOnPlaneSide            00427866 f   q_shared2.obj
 0001:00026982       _ClearBounds               00427982 f   q_shared2.obj
 0001:000269ab       _AddPointToBounds          004279ab f   q_shared2.obj
 0001:000269e4       _VectorCompare             004279e4 f   q_shared2.obj
 0001:00026a12       _VectorNormalize           00427a12 f   q_shared2.obj
 0001:00026a66       _VectorNormalize2          00427a66 f   q_shared2.obj
 0001:00026abe       _VectorNormalizeFast       00427abe f   q_shared2.obj
 0001:00026b01       _VectorMA                  00427b01 f   q_shared2.obj
 0001:00026b30       _CrossProduct              00427b30 f   q_shared2.obj
 0001:00026b6b       _VectorLength              00427b6b f   q_shared2.obj
 0001:00026b9a       _VectorDistance            00427b9a f   q_shared2.obj
 0001:00026bcb       _VectorInverse             00427bcb f   q_shared2.obj
 0001:00026be6       _VectorScale               00427be6 f   q_shared2.obj
 0001:00026c0a       _AnglesToAxis              00427c0a f   q_shared2.obj
 0001:00026c4f       _COM_StripExtension        00427c4f f   q_shared2.obj
 0001:00026c70       _COM_FilePath              00427c70 f   q_shared2.obj
 0001:00026ca6       _ShortSwap                 00427ca6 f   q_shared2.obj
 0001:00026cbb       _va                        00427cbb f   q_shared2.obj
 0001:00026d08       _COM_ParseExt              00427d08 f   q_shared2.obj
 0001:00026e03       _Com_PageInMemory          00427e03 f   q_shared2.obj
 0001:00026e22       _Q_stricmp                 00427e22 f   q_shared2.obj
 0001:00026e33       _Q_strncasecmp             00427e33 f   q_shared2.obj
 0001:00026e8b       _Q_strcasecmp              00427e8b f   q_shared2.obj
 0001:00026ea1       _Q_strncpyz                00427ea1 f   q_shared2.obj
 0001:00026ec5       _Q_strncpylower            00427ec5 f   q_shared2.obj
 0001:00026eff       _Q_CopyFilename            00427eff f   q_shared2.obj
 0001:00026f99       _Com_sprintf               00427f99 f   q_shared2.obj
 0001:00026fde       _Info_ValueForKey          00427fde f   q_shared2.obj
 0001:00027069       _Info_RemoveKey            00428069 f   q_shared2.obj
 0001:000270ef       _Info_SetValueForKey       004280ef f   q_shared2.obj
 0001:0002722d       _Field_Draw                0042822d f   qmenu.obj
 0001:00027441       _Field_Key                 00428441 f   qmenu.obj
 0001:000276aa       _Menu_AddItem              004286aa f   qmenu.obj
 0001:000276df       _Menu_AdjustCursor         004286df f   qmenu.obj
 0001:0002781e       _Menu_Center               0042881e f   qmenu.obj
 0001:00027856       _Menu_DrawDotsItem         00428856 f   qmenu.obj
 0001:000278bb       _Menu_Draw                 004288bb f   qmenu.obj
 0001:00027b6c       _Menu_ItemAtCursor         00428b6c f   qmenu.obj
 0001:00027b84       _Menu_SelectItem           00428b84 f   qmenu.obj
 0001:00027bc6       _Menu_SetStatusBar         00428bc6 f   qmenu.obj
 0001:00027bd5       _Menu_SlideItem            00428bd5 f   qmenu.obj
 0001:00027c25       _Menu_TallySlots           00428c25 f   qmenu.obj
 0001:000280d5       _S_SoundInfo_f             004290d5 f   snd_dma.obj
 0001:0002815f       _S_ReadModelsSex           0042915f f   snd_dma.obj
 0001:00028248       _S_IsFemale                00429248 f   snd_dma.obj
 0001:000282d6       _S_Init                    004292d6 f   snd_dma.obj
 0001:000283a9       _S_Shutdown                004293a9 f   snd_dma.obj
 0001:00028433       _S_FindName                00429433 f   snd_dma.obj
 0001:0002851f       _S_AliasName               0042951f f   snd_dma.obj
 0001:000285ab       _S_BeginRegistration       004295ab f   snd_dma.obj
 0001:000285bc       _S_RegisterSound           004295bc f   snd_dma.obj
 0001:00028622       _S_EndRegistration         00429622 f   snd_dma.obj
 0001:000286b5       _S_PickChannel             004296b5 f   snd_dma.obj
 0001:0002874c       _S_SpatializeOrigin        0042974c f   snd_dma.obj
 0001:00028869       _S_Spatialize              00429869 f   snd_dma.obj
 0001:000288d7       _S_AllocPlaysound          004298d7 f   snd_dma.obj
 0001:000288f6       _S_FreePlaysound           004298f6 f   snd_dma.obj
 0001:00028926       _S_IssuePlaysound          00429926 f   snd_dma.obj
 0001:000289e4       _S_RegisterSexedSound      004299e4 f   snd_dma.obj
 0001:00028ac8       _S_StartSound              00429ac8 f   snd_dma.obj
 0001:00028c5e       _S_StartLocalSound         00429c5e f   snd_dma.obj
 0001:00028cad       _S_ClearBuffer             00429cad f   snd_dma.obj
 0001:00028d05       _S_StopAllSounds           00429d05 f   snd_dma.obj
 0001:00028d80       _S_AddLoopSounds           00429d80 f   snd_dma.obj
 0001:00028f55       _S_RawSamples              00429f55 f   snd_dma.obj
 0001:00029159       _S_Update                  0042a159 f   snd_dma.obj
 0001:00029280       _GetSoundtime              0042a280 f   snd_dma.obj
 0001:000292e7       _S_Update_                 0042a2e7 f   snd_dma.obj
 0001:0002937d       _S_Play                    0042a37d f   snd_dma.obj
 0001:0002942d       _S_SoundList               0042a42d f   snd_dma.obj
 0001:000294ee       _ResampleSfx               0042a4ee f   snd_mem.obj
 0001:000295f2       _S_LoadSound               0042a5f2 f   snd_mem.obj
 0001:00029718       _GetLittleShort            0042a718 f   snd_mem.obj
 0001:00029735       _GetLittleLong             0042a735 f   snd_mem.obj
 0001:00029763       _FindNextChunk             0042a763 f   snd_mem.obj
 0001:000297bf       _GetWavinfo                0042a7bf f   snd_mem.obj
 0001:00029992       _S_WriteLinearBlastStereo16 0042a992 f   snd_mix.obj
 0001:00029a06       _S_TransferStereo16        0042aa06 f   snd_mix.obj
 0001:00029a6f       _S_TransferPaintBuffer     0042aa6f f   snd_mix.obj
 0001:00029bcb       _S_PaintChannels           0042abcb f   snd_mix.obj
 0001:00029df0       _S_InitScaletable          0042adf0 f   snd_mix.obj
 0001:00029e43       _S_PaintChannelFrom8       0042ae43 f   snd_mix.obj
 0001:00029f45       _S_PaintChannelFrom16      0042af45 f   snd_mix.obj
 0001:00029fb0       _FreeSound                 0042afb0 f   snd_win.obj
 0001:0002a0c0       _SNDDMA_InitDirect         0042b0c0 f   snd_win.obj
 0001:0002a58f       _SNDDMA_Init               0042b58f f   snd_win.obj
 0001:0002a60b       _SNDDMA_GetDMAPos          0042b60b f   snd_win.obj
 0001:0002a655       _SNDDMA_BeginPainting      0042b655 f   snd_win.obj
 0001:0002a757       _SNDDMA_Submit             0042b757 f   snd_win.obj
 0001:0002a77c       _SNDDMA_Shutdown           0042b77c f   snd_win.obj
 0001:0002a781       _S_Activate                0042b781 f   snd_win.obj
 0001:0002a7ac       _SV_SetMaster_f            0042b7ac f   sv_ccmds.obj
 0001:0002a8be       _SV_WipeSavegame           0042b8be f   sv_ccmds.obj
 0001:0002a8ec       _SV_CopySaveGame           0042b8ec f   sv_ccmds.obj
 0001:0002a941       _SV_WriteLevelFile         0042b941 f   sv_ccmds.obj
 0001:0002a9ef       _SV_ReadLevelFile          0042b9ef f   sv_ccmds.obj
 0001:0002aa9d       _SV_WriteServerFile        0042ba9d f   sv_ccmds.obj
 0001:0002acee       _SV_ReadServerFile         0042bcee f   sv_ccmds.obj
 0001:0002ae08       _SV_DemoMap_f              0042be08 f   sv_ccmds.obj
 0001:0002ae40       _SV_GameMap_f              0042be40 f   sv_ccmds.obj
 0001:0002afb0       _SV_Map_f                  0042bfb0 f   sv_ccmds.obj
 0001:0002b01d       _SV_Loadgame_f             0042c01d f   sv_ccmds.obj
 0001:0002b122       _SV_Savegame_f             0042c122 f   sv_ccmds.obj
 0001:0002b227       _SV_AddressBanned          0042c227 f   sv_ccmds.obj
 0001:0002b269       _SV_InitOperatorCommands   0042c269 f   sv_ccmds.obj
 0001:0002bc08       _SV_EmitPacketEntities     0042cc08 f   sv_ents.obj
 0001:0002bd76       _SV_WritePlayerstateToClient 0042cd76 f   sv_ents.obj
 0001:0002c234       _SV_WriteFrameToClient     0042d234 f   sv_ents.obj
 0001:0002c2f0       _SV_FatPVS                 0042d2f0 f   sv_ents.obj
 0001:0002c41d       _SV_BuildClientFrame       0042d41d f   sv_ents.obj
 0001:0002c6e8       _SV_RecordDemoMessage      0042d6e8 f   sv_ents.obj
 0001:0002c807       _SV_ShutdownGameProgs      0042d807 f   sv_game.obj
 0001:0002c820       _SV_InitGameProgs          0042d820 f   sv_game.obj
 0001:0002d0cb       _SV_FindIndex              0042e0cb f   sv_init.obj
 0001:0002d192       _SV_ModelIndex             0042e192 f   sv_init.obj
 0001:0002d1a8       _SV_SoundIndex             0042e1a8 f   sv_init.obj
 0001:0002d1c1       _SV_ImageIndex             0042e1c1 f   sv_init.obj
 0001:0002d1da       _SV_CreateBaseline         0042e1da f   sv_init.obj
 0001:0002d23d       _SV_CheckForSavegame       0042e23d f   sv_init.obj
 0001:0002d2c5       _SV_SpawnServer            0042e2c5 f   sv_init.obj
 0001:0002d542       _SV_InitGame               0042e542 f   sv_init.obj
 0001:0002d72d       _SV_Map                    0042e72d f   sv_init.obj
 0001:0002d924       _SV_DropClient             0042e924 f   sv_main.obj
 0001:0002d999       _SV_StatusString           0042e999 f   sv_main.obj
 0001:0002da78       _SVC_Status                0042ea78 f   sv_main.obj
 0001:0002daa1       _SVC_Ack                   0042eaa1 f   sv_main.obj
 0001:0002daba       _SVC_Info                  0042eaba f   sv_main.obj
 0001:0002db7b       _SVC_GetChallenge          0042eb7b f   sv_main.obj
 0001:0002dc23       _SVC_DirectConnect         0042ec23 f   sv_main.obj
 0001:0002e07d       _Rcon_Validate             0042f07d f   sv_main.obj
 0001:0002e0ae       _SVC_RemoteCommand         0042f0ae f   sv_main.obj
 0001:0002e180       _SV_ConnectionlessPacket   0042f180 f   sv_main.obj
 0001:0002e2bc       _SV_CalcPings              0042f2bc f   sv_main.obj
 0001:0002e343       _SV_GiveMsec               0042f343 f   sv_main.obj
 0001:0002e382       _SV_ReadPackets            0042f382 f   sv_main.obj
 0001:0002e498       _SV_CheckTimeouts          0042f498 f   sv_main.obj
 0001:0002e53e       _SV_PostprocessFrame       0042f53e f   sv_main.obj
 0001:0002e969       _SV_Frame                  0042f969 f   sv_main.obj
 0001:0002eac2       _Master_Heartbeat          0042fac2 f   sv_main.obj
 0001:0002eb66       _Master_Shutdown           0042fb66 f   sv_main.obj
 0001:0002ebd9       _SV_UserinfoChanged        0042fbd9 f   sv_main.obj
 0001:0002ec9c       _SV_Init                   0042fc9c f   sv_main.obj
 0001:0002ecff       _SV_Shutdown               0042fcff f   sv_main.obj
 0001:0002ee5a       _SV_FlushRedirect          0042fe5a f   sv_send.obj
 0001:0002eecc       _SV_ClientPrintf           0042fecc f   sv_send.obj
 0001:0002ef22       _SV_BroadcastPrintf        0042ff22 f   sv_send.obj
 0001:0002eff3       _SV_BroadcastCommand       0042fff3 f   sv_send.obj
 0001:0002f045       _SV_Multicast              00430045 f   sv_send.obj
 0001:0002f1f0       _SV_MulticastOld           004301f0 f   sv_send.obj
 0001:0002f203       _SV_StartSound             00430203 f   sv_send.obj
 0001:0002f45d       _SV_StartSoundOld          0043045d f   sv_send.obj
 0001:0002f48d       _SV_StartSoundNew          0043048d f   sv_send.obj
 0001:0002f4bd       _SV_SendClientDatagram     004304bd f   sv_send.obj
 0001:0002f5ac       _SV_DemoCompleted          004305ac f   sv_send.obj
 0001:0002f5c8       _SV_RateDrop               004305c8 f   sv_send.obj
 0001:0002f613       _SV_SendClientMessages     00430613 f   sv_send.obj
 0001:0002f766       _SV_BeginDemoserver        00430766 f   sv_user.obj
 0001:0002f7b6       _SV_New_f                  004307b6 f   sv_user.obj
 0001:0002f92b       _SV_Configstrings_f        0043092b f   sv_user.obj
 0001:0002fa8f       _SV_Baselines_f            00430a8f f   sv_user.obj
 0001:0002fc07       _SV_Begin_f                00430c07 f   sv_user.obj
 0001:0002fc64       _SV_NextDownload_f         00430c64 f   sv_user.obj
 0001:0002fd38       _SV_BeginDownload_f        00430d38 f   sv_user.obj
 0001:0002ff6f       _SV_Disconnect_f           00430f6f f   sv_user.obj
 0001:0002ff7f       _SV_ShowServerinfo_f       00430f7f f   sv_user.obj
 0001:0002ff8c       _SV_Nextserver             00430f8c f   sv_user.obj
 0001:0002ffeb       _SV_Nextserver_f           00430feb f   sv_user.obj
 0001:00030032       _SV_ExecuteUserCommand     00431032 f   sv_user.obj
 0001:0003009f       _SV_ClientThink            0043109f f   sv_user.obj
 0001:000300e2       _SV_ExecuteClientMessage   004310e2 f   sv_user.obj
 0001:00030313       _SV_ClearWorld             00431313 f   sv_world.obj
 0001:00030477       _SV_UnlinkEdict            00431477 f   sv_world.obj
 0001:000304da       _SV_LinkEdict              004314da f   sv_world.obj
 0001:00030a97       _SV_AreaEdicts             00431a97 f   sv_world.obj
 0001:00030c08       _SV_PointContents          00431c08 f   sv_world.obj
 0001:00030cf3       _SV_ClipMoveToEntities     00431cf3 f   sv_world.obj
 0001:00031058       _SV_Trace                  00432058 f   sv_world.obj
 0001:000310e4       _Sys_Error                 004320e4 f   sys_win.obj
 0001:00031144       _Sys_Quit                  00432144 f   sys_win.obj
 0001:00031184       _Sys_ScanForCD             00432184 f   sys_win.obj
 0001:00031220       _Sys_Init                  00432220 f   sys_win.obj
 0001:0003163f       _Sys_ConsoleInput          0043263f f   sys_win.obj
 0001:0003179f       _Sys_ConsoleOutput         0043279f f   sys_win.obj
 0001:00031850       _Sys_SendKeyEvents         00432850 f   sys_win.obj
 0001:000318b9       _Sys_GetClipboardData      004328b9 f   sys_win.obj
 0001:00031912       _Sys_AppActivate           00432912 f   sys_win.obj
 0001:0003192d       _Sys_UnloadGame            0043292d f   sys_win.obj
 0001:00031952       _Sys_GetGameAPI            00432952 f   sys_win.obj
 0001:00031a3f       _ParseCommandLine          00432a3f f   sys_win.obj
 0001:00031ab4       _WinMain@16                00432ab4 f   sys_win.obj
 0001:00031bf1       _AppActivate               00432bf1 f   vid_dll.obj
 0001:00031d26       _Vid_CreateWindow          00432d26 f   vid_dll.obj
 0001:0003230b       _Vid_DestroyWindow         0043330b f   vid_dll.obj
 0001:00032354       _Vid_GetModeInfo           00433354 f   vid_dll.obj
 0001:00032383       _Vid_UpdateWindowPosAndSize 00433383 f   vid_dll.obj
 0001:000323ea       _Vid_FreeReflib            004333ea f   vid_dll.obj
 0001:0003242b       _Vid_CheckChanges          0043342b f   vid_dll.obj
 0001:000327e2       _Vid_Init                  004337e2 f   vid_dll.obj
 0001:00032853       _Vid_Shutdown              00433853 f   vid_dll.obj
 0001:00032881       _Vid_MenuInit              00433881 f   vid_menu.obj
 0001:00032fbc       _Vid_MenuDraw              00433fbc f   vid_menu.obj
 0001:00033050       _Vid_MenuKey               00434050 f   vid_menu.obj
 0001:00033388       _TesselateText             00434388 f   gl_backend.obj
 0001:00034eb5       _GL_BackEnd                00435eb5 f   gl_backend.obj
 0001:0003653c       _GL_InitBackend            0043753c f   gl_backend.obj
 0001:00036639       _GL_ShutdownBackend        00437639 f   gl_backend.obj
 0001:00036686       _GL_TextureMode            00437686 f   gl_image.obj
 0001:00036735       _GL_CreateImage            00437735 f   gl_image.obj
 0001:000374cb       _GL_SetRawPalette          004384cb f   gl_image.obj
 0001:000374fc       _GL_DrawStretchRaw         004384fc f   gl_image.obj
 0001:000377b7       _GL_SetupGamma             004387b7 f   gl_image.obj
 0001:00037957       _GL_PerformScreenshot      00438957 f   gl_image.obj
 0001:00037b76       _GL_InitImages             00438b76 f   gl_image.obj
 0001:0003805a       _GL_ShutdownImages         0043905a f   gl_image.obj
 0001:000380c9       _GL_ShowImages             004390c9 f   gl_image.obj
 0001:000382ff       _GL_FindImage              004392ff f   gl_image.obj
 0001:000386da       _GL_Lock                   004396da f   gl_interface.obj
 0001:00038757       _GL_Unlock                 00439757 f   gl_interface.obj
 0001:000388e0       _GL_Bind                   004398e0 f   gl_interface.obj
 0001:000389d3       _GL_BindForce              004399d3 f   gl_interface.obj
 0001:00038a1f       _GL_TexEnv                 00439a1f f   gl_interface.obj
 0001:00038b9c       _GL_TexEnvColor            00439b9c f   gl_interface.obj
 0001:00038c48       _GL_SelectTexture          00439c48 f   gl_interface.obj
 0001:00038ca6       _GL_TexCoordPointer        00439ca6 f   gl_interface.obj
 0001:00038cd5       _GL_SetMultitexture        00439cd5 f   gl_interface.obj
 0001:00038dad       _GL_DisableTexCoordArrays  00439dad f   gl_interface.obj
 0001:00038e06       _GL_CullFace               00439e06 f   gl_interface.obj
 0001:00038e57       _GL_DepthRange             00439e57 f   gl_interface.obj
 0001:00038e8a       _GL_State                  00439e8a f   gl_interface.obj
 0001:00038fe3       _GL_EnableFog              00439fe3 f   gl_interface.obj
 0001:000390e7       _GL_SetDefaultState        0043a0e7 f   gl_interface.obj
 0001:00039206       _GL_Set2DMode              0043a206 f   gl_interface.obj
 0001:00039304       _GL_Setup                  0043a304 f   gl_interface.obj
 0001:0003943d       _GL_ShowLights             0043a43d f   gl_light.obj
 0001:000396fa       _GL_LightForEntity         0043a6fa f   gl_light.obj
 0001:0003a8c8       _GL_ApplyEntitySpherelights 0043b8c8 f   gl_light.obj
 0001:0003aa60       _LM_Init                   0043ba60 f   gl_lightmap.obj
 0001:0003aa76       _LM_Flush                  0043ba76 f   gl_lightmap.obj
 0001:0003aad4       _LM_Done                   0043bad4 f   gl_lightmap.obj
 0001:0003aafb       _LM_Save                   0043bafb f   gl_lightmap.obj
 0001:0003ab15       _LM_Restore                0043bb15 f   gl_lightmap.obj
 0001:0003ab2f       _LM_NewBlock               0043bb2f f   gl_lightmap.obj
 0001:0003aba8       _LM_Rewind                 0043bba8 f   gl_lightmap.obj
 0001:0003abb0       _LM_NextBlock              0043bbb0 f   gl_lightmap.obj
 0001:0003abe1       _LM_AllocBlock             0043bbe1 f   gl_lightmap.obj
 0001:0003ac94       _LM_PutBlock               0043bc94 f   gl_lightmap.obj
 0001:0003ae29       _LM_SortLightStyles        0043be29 f   gl_lightmap.obj
 0001:0003aeb7       _GL_UpdateDynamicLightmap  0043beb7 f   gl_lightmap.obj
 0001:0003b398       _GL_DrawStretchPic         0043c398 f   gl_main.obj
 0001:0003b454       _DrawTextLeft              0043c454 f   gl_main.obj
 0001:0003b55f       _DrawTextRight             0043c55f f   gl_main.obj
 0001:0003b5b0       _GL_GetRefAPI              0043c5b0 f   gl_main.obj
 0001:0003cdd4       _GL_InitFuncTables         0043ddd4 f   gl_math.obj
 0001:0003cf7e       _ModelToWorldCoord         0043df7e f   gl_math.obj
 0001:0003cfd2       _WorldToModelCoord         0043dfd2 f   gl_math.obj
 0001:0003d019       _GL_FindModel              0043e019 f   gl_model.obj
 0001:0003d194       _GL_LoadWorldMap           0043e194 f   gl_model.obj
 0001:0003f0d7       _GL_PointInLeaf            004400d7 f   gl_model.obj
 0001:0003f9fc       _ATAN2_FUNC                004409fc f i gl_model.obj
 0001:0003fb95       _GL_FindSkin               00440b95 f   gl_model.obj
 0001:0003fceb       _GL_ResetModels            00440ceb f   gl_model.obj
 0001:0003fdb5       _GL_InitModels             00440db5 f   gl_model.obj
 0001:0003fe22       _GL_ShutdownModels         00440e22 f   gl_model.obj
 0001:0003fe38       _SubdividePlane            00440e38 f   gl_poly.obj
 0001:00040288       _FreeSubdividedPlane       00441288 f   gl_poly.obj
 0001:000402a0       _GetSubdivideIndexes       004412a0 f   gl_poly.obj
 0001:000402f3       _RemoveCollinearPoints     004412f3 f   gl_poly.obj
 0001:00040407       _GetPolyArea               00441407 f   gl_poly.obj
 0001:0004049b       _GL_InitShaders            0044149b f   gl_shader.obj
 0001:000405c4       _GL_ShutdownShaders        004415c4 f   gl_shader.obj
 0001:000405ee       _GL_SetShaderLightmap      004415ee f   gl_shader.obj
 0001:000409b5       _GL_SetShaderLightstyles   004419b5 f   gl_shader.obj
 0001:00040a51       _GL_GetAlphaShader         00441a51 f   gl_shader.obj
 0001:00040d08       _GL_FindShader             00441d08 f   gl_shader.obj
 0001:00041246       _GL_GetShaderByNum         00442246 f   gl_shader.obj
 0001:00041264       _GL_ResetShaders           00442264 f   gl_shader.obj
 0001:000414ae       _GL_ClearSkyBox            004424ae f   gl_sky.obj
 0001:000414d1       _GL_ShowWholeSky           004424d1 f   gl_sky.obj
 0001:000414f9       _GL_AddSkySurface          004424f9 f   gl_sky.obj
 0001:00041aeb       _GL_TesselateSkySide       00442aeb f   gl_sky.obj
 0001:00041dae       _GL_AddEntity              00442dae f   gl_world.obj
 0001:00042199       _GL_AddDlight              00443199 f   gl_world.obj
 0001:00042370       _GL_DrawPortal             00443370 f   gl_world.obj
 0001:00044226       _GLimp_SetMode             00445226 f   glw_imp.obj
 0001:000444c8       _GLimp_HasGamma            004454c8 f   glw_imp.obj
 0001:000444dd       _GLimp_SetGamma            004454dd f   glw_imp.obj
 0001:00044674       _GLimp_Shutdown            00445674 f   glw_imp.obj
 0001:00044781       _GLimp_Init                00445781 f   glw_imp.obj
 0001:00044ac5       _GLimp_EndFrame            00445ac5 f   glw_imp.obj
 0001:00044b61       _GLimp_AppActivate         00445b61 f   glw_imp.obj
 0001:00046541       _QGL_Shutdown              00447541 f   qgl_win.obj
 0001:00046573       _QGL_Init                  00447573 f   qgl_win.obj
 0001:000465f7       _QGL_InitExtensions        004475f7 f   qgl_win.obj
 0001:00046925       _QGL_EnableLogging         00447925 f   qgl_win.obj
 0001:000469f0       _QGL_LogMessage            004479f0 f   qgl_win.obj
 0001:00046a07       _GL_AllocDynamicMemory     00447a07 f   gl_buffers.obj
 0001:00046a75       _GL_ResizeDynamicMemory    00447a75 f   gl_buffers.obj
 0001:00046ac7       _GL_AddSurfaceToPortal     00447ac7 f   gl_buffers.obj
 0001:00046b2a       _GL_AddDynamicSurface      00447b2a f   gl_buffers.obj
 0001:00046b52       _GL_InsertShaderIndex      00447b52 f   gl_buffers.obj
 0001:00046b9e       _GL_ClearPortal            00447b9e f   gl_buffers.obj
 0001:00046bba       _GL_FinishPortal           00447bba f   gl_buffers.obj
 0001:00046c10       _GL_SortSurfaces           00447c10 f   gl_buffers.obj
 0001:00046dab       _GL_ClearBuffers           00447dab f   gl_buffers.obj
 0001:00046dc2       _Hunk_Begin                00447dc2 f   q_shwin.obj
 0001:00046dfc       _Hunk_Alloc                00447dfc f   q_shwin.obj
 0001:00046e83       _Hunk_End                  00447e83 f   q_shwin.obj
 0001:00046e89       _Hunk_Free                 00447e89 f   q_shwin.obj
 0001:00046ea2       _Sys_Milliseconds          00447ea2 f   q_shwin.obj
 0001:00046ed6       _Sys_Mkdir                 00447ed6 f   q_shwin.obj
 0001:00046ee2       _Sys_FindFirst             00447ee2 f   q_shwin.obj
 0001:00046ffc       _Sys_FindNext              00447ffc f   q_shwin.obj
 0001:0004706e       _Sys_FindClose             0044806e f   q_shwin.obj
 0001:00047088       _R_Alias_clip_z            00448088 f   r_aclip.obj
 0001:00047135       _R_Alias_clip_left         00448135 f   r_aclip.obj
 0001:00047303       _R_Alias_clip_right        00448303 f   r_aclip.obj
 0001:000474d1       _R_Alias_clip_top          004484d1 f   r_aclip.obj
 0001:000476a1       _R_Alias_clip_bottom       004486a1 f   r_aclip.obj
 0001:00047871       _R_AliasClip               00448871 f   r_aclip.obj
 0001:00047941       _R_AliasClipTriangle       00448941 f   r_aclip.obj
 0001:00047b33       _R_AliasCheckFrameBBox     00448b33 f   r_alias.obj
 0001:00047c66       _R_AliasCheckBBox          00448c66 f   r_alias.obj
 0001:00047cca       _R_AliasTransformVector    00448cca f   r_alias.obj
 0001:00047d26       _R_AliasPreparePoints      00448d26 f   r_alias.obj
 0001:00047fbe       _R_AliasSetUpTransform     00448fbe f   r_alias.obj
 0001:0004814d       _R_AliasTransformFinalVerts 0044914d f   r_alias.obj
 0001:0004831e       _R_AliasProjectAndClipTestFinalVert 0044931e f   r_alias.obj
 0001:000483a6       _R_AliasSetupLighting      004493a6 f   r_alias.obj
 0001:00048510       _R_AliasSetupFrames        00449510 f   r_alias.obj
 0001:00048584       _R_AliasSetUpLerpData      00449584 f   r_alias.obj
 0001:000486ac       _R_AliasDrawModel          004496ac f   r_alias.obj
 0001:00048933       _R_EntityRotate            00449933 f   r_bsp.obj
 0001:000489b4       _R_RotateBmodel            004499b4 f   r_bsp.obj
 0001:00048b0f       _R_RecursiveClipBPoly      00449b0f f   r_bsp.obj
 0001:00048e3f       _R_DrawSolidClippedSubmodelPolygons 00449e3f f   r_bsp.obj
 0001:00048fc6       _R_DrawSubmodelPolygons    00449fc6 f   r_bsp.obj
 0001:00049056       _R_RecursiveWorldNode      0044a056 f   r_bsp.obj
 0001:000492b1       _R_RenderWorld             0044a2b1 f   r_bsp.obj
 0001:00049320       _Draw_FindPic              0044a320 f   r_draw.obj
 0001:00049363       _Draw_InitLocal            0044a363 f   r_draw.obj
 0001:00049374       _Draw_Char                 0044a374 f   r_draw.obj
 0001:00049455       _Draw_CharColor            0044a455 f   r_draw.obj
 0001:00049564       _R_DrawTexts               0044a564 f   r_draw.obj
 0001:000495da       _DrawText_Pos              0044a5da f   r_draw.obj
 0001:000496e6       _DrawText_Left             0044a6e6 f   r_draw.obj
 0001:00049722       _DrawText_Right            0044a722 f   r_draw.obj
 0001:00049771       _Draw_GetPicSize           0044a771 f   r_draw.obj
 0001:000497b1       _Draw_StretchPicImplementation 0044a7b1 f   r_draw.obj
 0001:000498db       _Draw_StretchPic           0044a8db f   r_draw.obj
 0001:00049913       _Draw_StretchRaw           0044a913 f   r_draw.obj
 0001:00049945       _Draw_Pic                  0044a945 f   r_draw.obj
 0001:00049afe       _Draw_PicColor             0044aafe f   r_draw.obj
 0001:00049cb7       _Draw_TileClear            0044acb7 f   r_draw.obj
 0001:00049d87       _Draw_Fill                 0044ad87 f   r_draw.obj
 0001:00049e23       _Draw_Fade                 0044ae23 f   r_draw.obj
 0001:00049e85       _R_BeginEdgeFrame          0044ae85 f   r_edge.obj
 0001:00049f41       _R_InsertNewEdges          0044af41 f   r_edge.obj
 0001:00049f87       _R_RemoveEdges             0044af87 f   r_edge.obj
 0001:00049fa5       _R_StepActiveU             0044afa5 f   r_edge.obj
 0001:0004a039       _R_CleanupSpan             0044b039 f   r_edge.obj
 0001:0004a089       _R_LeadingEdgeBackwards    0044b089 f   r_edge.obj
 0001:0004a11e       _R_TrailingEdge            0044b11e f   r_edge.obj
 0001:0004a182       _R_LeadingEdge             0044b182 f   r_edge.obj
 0001:0004a325       _R_GenerateSpans           0044b325 f   r_edge.obj
 0001:0004a393       _R_GenerateSpansBackward   0044b393 f   r_edge.obj
 0001:0004a401       _R_ScanEdges               0044b401 f   r_edge.obj
 0001:0004a5d8       _D_FlatFillSurface         0044b5d8 f   r_edge.obj
 0001:0004a632       _D_CalcGradients           0044b632 f   r_edge.obj
 0001:0004a849       _D_BackgroundSurf          0044b849 f   r_edge.obj
 0001:0004a889       _D_TurbulentSurf           0044b889 f   r_edge.obj
 0001:0004a9ab       _D_SkySurf                 0044b9ab f   r_edge.obj
 0001:0004aa2c       _D_SolidSurf               0044ba2c f   r_edge.obj
 0001:0004ab97       _D_DrawflatSurfaces        0044bb97 f   r_edge.obj
 0001:0004abe7       _D_DrawSurfaces            0044bbe7 f   r_edge.obj
 0001:0004ace5       _R_ImageList_f             0044bce5 f   r_image.obj
 0001:0004ada6       _R_FindFreeImage           0044bda6 f   r_image.obj
 0001:0004adf4       _R_LoadPic                 0044bdf4 f   r_image.obj
 0001:0004ae84       _R_LoadTex                 0044be84 f   r_image.obj
 0001:0004af10       _R_LoadWal                 0044bf10 f   r_image.obj
 0001:0004af66       _R_MipMap                  0044bf66 f   r_image.obj
 0001:0004b094       _R_DownsampleImage         0044c094 f   r_image.obj
 0001:0004b199       _R_FindImage               0044c199 f   r_image.obj
 0001:0004b53e       _R_RegisterSkin            0044c53e f   r_image.obj
 0001:0004b54c       _R_FreeUnusedImages        0044c54c f   r_image.obj
 0001:0004b5ac       _R_InitImages              0044c5ac f   r_image.obj
 0001:0004b612       _R_ShutdownImages          0044c612 f   r_image.obj
 0001:0004b64f       _R_MarkLights              0044c64f f   r_light.obj
 0001:0004b71e       _R_PushDlights             0044c71e f   r_light.obj
 0001:0004b77c       _RecursiveLightPoint       0044c77c f   r_light.obj
 0001:0004ba2b       _R_LightPoint              0044ca2b f   r_light.obj
 0001:0004bb42       _R_AddDynamicLights        0044cb42 f   r_light.obj
 0001:0004bddc       _R_BuildLightMap           0044cddc f   r_light.obj
 0001:0004bed2       _R_InitTextures            0044ced2 f   r_main.obj
 0001:0004bf93       _R_InitTurb                0044cf93 f   r_main.obj
 0001:0004c010       _R_Register                0044d010 f   r_main.obj
 0001:0004c078       _R_Init                    0044d078 f   r_main.obj
 0001:0004c109       _R_Shutdown                0044d109 f   r_main.obj
 0001:0004c17e       _R_NewMap                  0044d17e f   r_main.obj
 0001:0004c228       _R_MarkLeaves              0044d228 f   r_main.obj
 0001:0004c34f       _R_DrawEntitiesOnList      0044d34f f   r_main.obj
 0001:0004c55e       _R_BmodelCheckBBox         0044d55e f   r_main.obj
 0001:0004c610       _R_FindTopnode             0044d610 f   r_main.obj
 0001:0004c698       _RotatedBBox               0044d698 f   r_main.obj
 0001:0004c7f7       _R_DrawBEntitiesOnList     0044d7f7 f   r_main.obj
 0001:0004ca0f       _R_EdgeDrawing             0044da0f f   r_main.obj
 0001:0004cae4       _R_CalcPalette             0044dae4 f   r_main.obj
 0001:0004cbe9       _R_SetLightLevel           0044dbe9 f   r_main.obj
 0001:0004cc39       _R_RenderFrame             0044dc39 f   r_main.obj
 0001:0004ce2a       _R_InitGraphics            0044de2a f   r_main.obj
 0001:0004cea0       _R_BeginFrame              0044dea0 f   r_main.obj
 0001:0004cfc3       _R_GammaCorrectAndSetPalette 0044dfc3 f   r_main.obj
 0001:0004d022       _R_CinematicSetPalette     0044e022 f   r_main.obj
 0001:0004d0b9       _Draw_BuildGammaTable      0044e0b9 f   r_main.obj
 0001:0004d164       _R_DrawBeam                0044e164 f   r_main.obj
 0001:0004d2ca       _R_SetSky                  0044e2ca f   r_main.obj
 0001:0004d345       _Draw_GetPalette           0044e345 f   r_main.obj
 0001:0004d48d       _Draw_ConCharColor         0044e48d f   r_main.obj
 0001:0004d4ae       _GetRefAPI                 0044e4ae f   r_main.obj
 0001:0004d6f6       _D_ViewChanged             0044e6f6 f   r_misc.obj
 0001:0004d852       _R_PrintTimes              0044e852 f   r_misc.obj
 0001:0004d8cc       _R_PrintDSpeeds            0044e8cc f   r_misc.obj
 0001:0004d993       _R_PrintAliasStats         0044e993 f   r_misc.obj
 0001:0004d9a6       _R_TransformFrustum        0044e9a6 f   r_misc.obj
 0001:0004da6e       _TransformVector           0044ea6e f   r_misc.obj
 0001:0004dad9       _R_SetUpFrustumIndexes     0044ead9 f   r_misc.obj
 0001:0004db3e       _R_ViewChanged             0044eb3e f   r_misc.obj
 0001:0004de4d       _R_SetupFrame              0044ee4d f   r_misc.obj
 0001:0004e039       _WritePCXfile              0044f039 f   r_misc.obj
 0001:0004e15b       _R_ScreenShot              0044f15b f   r_misc.obj
 0001:0004e26a       _Mod_Modellist_f           0044f26a f   r_model.obj
 0001:0004e2c8       _Mod_Init                  0044f2c8 f   r_model.obj
 0001:0004e2e0       _Mod_ForName               0044f2e0 f   r_model.obj
 0001:0004e51c       _Mod_PointInLeaf           0044f51c f   r_model.obj
 0001:0004e57e       _Mod_DecompressVis         0044f57e f   r_model.obj
 0001:0004e5fe       _Mod_ClusterPVS            0044f5fe f   r_model.obj
 0001:0004e62b       _Mod_LoadLighting          0044f62b f   r_model.obj
 0001:0004e6aa       _R_NumberLeafs             0044f6aa f   r_model.obj
 0001:0004e6f8       _Mod_LoadVertexes          0044f6f8 f   r_model.obj
 0001:0004e73a       _Mod_LoadEdges             0044f73a f   r_model.obj
 0001:0004e788       _Mod_LoadTexinfo           0044f788 f   r_model.obj
 0001:0004e8f0       _CalcSurfaceExtents        0044f8f0 f   r_model.obj
 0001:0004ea85       _Mod_LoadFaces             0044fa85 f   r_model.obj
 0001:0004ebec       _Mod_SetParent             0044fbec f   r_model.obj
 0001:0004ec11       _Mod_LoadNodes             0044fc11 f   r_model.obj
 0001:0004ed07       _Mod_LoadLeafs             0044fd07 f   r_model.obj
 0001:0004edb0       _Mod_LoadMarksurfaces      0044fdb0 f   r_model.obj
 0001:0004ee2c       _Mod_LoadSurfedges         0044fe2c f   r_model.obj
 0001:0004ee6b       _Mod_LoadPlanes            0044fe6b f   r_model.obj
 0001:0004eed0       _Mod_LoadBrushModel        0044fed0 f   r_model.obj
 0001:0004f0c2       _Mod_LoadAliasModel        004500c2 f   r_model.obj
 0001:0004f342       _Mod_LoadSpriteModel       00450342 f   r_model.obj
 0001:0004f429       _R_BeginRegistration       00450429 f   r_model.obj
 0001:0004f4b9       _R_RegisterModel           004504b9 f   r_model.obj
 0001:0004f5b1       _R_EndRegistration         004505b1 f   r_model.obj
 0001:0004f61c       _Mod_FreeAll               0045061c f   r_model.obj
 0001:0004f661       _R_DrawParticle            00450661 f   r_part.obj
 0001:0004f8ea       _R_DrawParticles           004508ea f   r_part.obj
 0001:0004f994       _R_DrawSpanletOpaque       00450994 f   r_poly.obj
 0001:0004fa24       _R_DrawSpanletTurbulentStipple33 00450a24 f   r_poly.obj
 0001:0004fb4f       _R_DrawSpanletTurbulentStipple66 00450b4f f   r_poly.obj
 0001:0004fd30       _R_DrawSpanletTurbulentBlended66 00450d30 f   r_poly.obj
 0001:0004fde5       _R_DrawSpanletTurbulentBlended33 00450de5 f   r_poly.obj
 0001:0004fe9a       _R_DrawSpanlet33           00450e9a f   r_poly.obj
 0001:0004ff34       _R_DrawSpanletConstant33   00450f34 f   r_poly.obj
 0001:0004ff8d       _R_DrawSpanlet66           00450f8d f   r_poly.obj
 0001:0005002b       _R_DrawSpanlet33Stipple    0045102b f   r_poly.obj
 0001:00050146       _R_DrawSpanlet66Stipple    00451146 f   r_poly.obj
 0001:000502d7       _R_ClipPolyFace            004512d7 f   r_poly.obj
 0001:00050448       _R_PolygonDrawSpans        00451448 f   r_poly.obj
 0001:000507d0       _R_PolygonScanLeftEdge     004517d0 f   r_poly.obj
 0001:00050904       _R_PolygonScanRightEdge    00451904 f   r_poly.obj
 0001:00050af4       _R_ClipAndDrawPoly         00451af4 f   r_poly.obj
 0001:00050cf6       _R_BuildPolygonFromSurface 00451cf6 f   r_poly.obj
 0001:00050f02       _R_PolygonCalculateGradients 00451f02 f   r_poly.obj
 0001:000511bb       _R_DrawAlphaSurfaces       004521bb f   r_poly.obj
 0001:00051251       _R_IMFlatShadedQuad        00452251 f   r_poly.obj
 0001:00051393       _R_InitAdivtab             00452393 f   r_polyse.obj
 0001:000513fe       _R_PolysetUpdateTables     004523fe f   r_polyse.obj
 0001:00051439       _R_DrawTriangle            00452439 f   r_polyse.obj
 0001:0005154a       _R_PolysetScanLeftEdge_C   0045254a f   r_polyse.obj
 0001:00051714       _FloorDivMod               00452714 f   r_polyse.obj
 0001:000517b0       _R_PolysetSetUpForLineScan 004527b0 f   r_polyse.obj
 0001:0005183e       _R_PolysetCalcGradients    0045283e f   r_polyse.obj
 0001:00051a49       _R_PolysetDrawSpans8_33    00452a49 f   r_polyse.obj
 0001:00051b79       _R_PolysetDrawSpansConstant8_33 00452b79 f   r_polyse.obj
 0001:00051c13       _R_PolysetDrawSpans8_66    00452c13 f   r_polyse.obj
 0001:00051d4f       _R_PolysetDrawSpansConstant8_66 00452d4f f   r_polyse.obj
 0001:00051df7       _R_PolysetDrawSpans8_Opaque 00452df7 f   r_polyse.obj
 0001:00051f42       _R_RasterizeAliasPolySmooth 00452f42 f   r_polyse.obj
 0001:00052522       _R_PolysetSetEdgeTable     00453522 f   r_polyse.obj
 0001:000525bd       _R_InitSkyBox              004535bd f   r_rast.obj
 0001:00052837       _R_EmitSkyBox              00453837 f   r_rast.obj
 0001:0005294a       _R_EmitEdge                0045394a f   r_rast.obj
 0001:00052d1e       _R_ClipEdge                00453d1e f   r_rast.obj
 0001:00052ecc       _R_EmitCachedEdge          00453ecc f   r_rast.obj
 0001:00052f23       _R_RenderFace              00453f23 f   r_rast.obj
 0001:000532ea       _R_RenderBmodelFace        004542ea f   r_rast.obj
 0001:00053553       _D_WarpScreen              00454553 f   r_scan.obj
 0001:000536fb       _D_DrawTurbulent8Span      004546fb f   r_scan.obj
 0001:0005377f       _Turbulent8                0045477f f   r_scan.obj
 0001:00053a53       _NonTurbulent8             00454a53 f   r_scan.obj
 0001:00053d11       _D_DrawSpans16             00454d11 f   r_scan.obj
 0001:00053fab       _D_DrawZSpans              00454fab f   r_scan.obj
 0001:00054068       _R_DrawSprite              00455068 f   r_sprite.obj
 0001:000542fd       _R_TextureAnimation        004552fd f   r_surf.obj
 0001:00054321       _R_DrawSurface             00455321 f   r_surf.obj
 0001:00054486       _R_DrawSurfaceBlock8_mip0  00455486 f   r_surf.obj
 0001:00054585       _R_DrawSurfaceBlock8_mip1  00455585 f   r_surf.obj
 0001:00054684       _R_DrawSurfaceBlock8_mip2  00455684 f   r_surf.obj
 0001:00054783       _R_DrawSurfaceBlock8_mip3  00455783 f   r_surf.obj
 0001:0005487f       _R_InitCaches              0045587f f   r_surf.obj
 0001:00054900       _D_FlushCaches             00455900 f   r_surf.obj
 0001:00054945       _D_SCAlloc                 00455945 f   r_surf.obj
 0001:00054ad9       _D_CacheSurface            00455ad9 f   r_surf.obj
 0001:00054c4e       _DDRAW_Init                00455c4e f   rw_ddraw.obj
 0001:0005505e       _DDRAW_SetPalette          0045605e f   rw_ddraw.obj
 0001:000550c7       _DDRAW_Shutdown            004560c7 f   rw_ddraw.obj
 0001:00055232       _DIB_Init                  00456232 f   rw_dib.obj
 0001:00055417       _DIB_SetPalette            00456417 f   rw_dib.obj
 0001:000555db       _DIB_Shutdown              004565db f   rw_dib.obj
 0001:000556d4       _SWimp_Init                004566d4 f   rw_imp.obj
 0001:000556d8       _SWimp_EndFrame            004566d8 f   rw_imp.obj
 0001:00055844       _SWimp_SetMode             00456844 f   rw_imp.obj
 0001:00055966       _SWimp_SetPalette          00456966 f   rw_imp.obj
 0001:0005598b       _SWimp_Shutdown            0045698b f   rw_imp.obj
 0001:000559d2       _SWimp_AppActivate         004569d2 f   rw_imp.obj
 0001:00055a0c       _adler32                   00456a0c f   adler32.obj
 0001:00055b25       _crc32                     00456b25 f   crc32.obj
 0001:00055c3b       _inflate_blocks_reset      00456c3b f   infblock.obj
 0001:00055ca6       _inflate_blocks_new        00456ca6 f   infblock.obj
 0001:00055d31       _inflate_blocks            00456d31 f   infblock.obj
 0001:00056548       _inflate_blocks_free       00457548 f   infblock.obj
 0001:0005657c       _inflate_codes_new         0045757c f   infcodes.obj
 0001:000565b0       _inflate_codes             004575b0 f   infcodes.obj
 0001:00056b6e       _inflate_codes_free        00457b6e f   infcodes.obj
 0001:00056b7f       _inflate_fast              00457b7f f   inffast.obj
 0001:00056e4a       _inflateReset              00457e4a f   inflate.obj
 0001:00056e89       _inflateEnd                00457e89 f   inflate.obj
 0001:00056ec7       _inflateInit2_             00457ec7 f   inflate.obj
 0001:00056fb1       _inflate                   00457fb1 f   inflate.obj
 0001:00057314       _inflate_trees_bits        00458314 f   inftrees.obj
 0001:00057722       _inflate_trees_dynamic     00458722 f   inftrees.obj
 0001:00057825       _inflate_trees_fixed       00458825 f   inftrees.obj
 0001:00057854       _inflate_flush             00458854 f   infutil.obj
 0001:00057940       _Zip_OpenArchive           00458940 f   zip.obj
 0001:000579ab       _Zip_CloseArchive          004589ab f   zip.obj
 0001:000579b7       _Zip_EnumArchive           004589b7 f   zip.obj
 0001:00057b98       _Zip_OpenFile              00458b98 f   zip.obj
 0001:00057ca7       _Zip_ReadFile              00458ca7 f   zip.obj
 0001:00057d9e       _Zip_CloseFile             00458d9e f   zip.obj
 0001:00057de6       _Zip_OpenBuf               00458de6 f   zip.obj
 0001:00057e39       _Zip_ReadBuf               00458e39 f   zip.obj
 0001:00057e81       _Zip_CloseBuf              00458e81 f   zip.obj
 0001:00057e97       _zcalloc                   00458e97 f   zutil.obj
 0001:00057ea8       _jpeg_CreateCompress       00458ea8 f   jcapimin.obj
 0001:00057f5c       _jpeg_suppress_tables      00458f5c f   jcapimin.obj
 0001:00057fa6       _jpeg_finish_compress      00458fa6 f   jcapimin.obj
 0001:00058090       _jpeg_start_compress       00459090 f   jcapistd.obj
 0001:000580fc       _jpeg_write_scanlines      004590fc f   jcapistd.obj
 0001:000581a7       _jinit_c_coef_controller   004591a7 f   jccoefct.obj
 0001:00058888       _jinit_color_converter     00459888 f   jccolor.obj
 0001:00058e72       _jinit_forward_dct         00459e72 f   jcdctmgr.obj
 0001:0005934e       _jinit_c_diff_controller   0045a34e f   jcdiffct.obj
 0001:00059872       _jpeg_make_c_derived_tbl   0045a872 f   jchuff.obj
 0001:00059a74       _jpeg_gen_optimal_table    0045aa74 f   jchuff.obj
 0001:00059c33       _jinit_compress_master     0045ac33 f   jcinit.obj
 0001:00059c8c       _jinit_lhuff_encoder       0045ac8c f   jclhuff.obj
 0001:0005a3b9       _jinit_lossless_c_codec    0045b3b9 f   jclossls.obj
 0001:0005a451       _jinit_lossy_c_codec       0045b451 f   jclossy.obj
 0001:0005a4ec       _jinit_c_main_controller   0045b4ec f   jcmainct.obj
 0001:0005a659       _jinit_marker_writer       0045b659 f   jcmarker.obj
 0001:0005af35       _jinit_c_master_control    0045bf35 f   jcmaster.obj
 0001:0005ba24       _jinit_c_codec             0045ca24 f   jcodec.obj
 0001:0005ba40       _jinit_d_codec             0045ca40 f   jcodec.obj
 0001:0005ba5c       _jpeg_abort                0045ca5c f   jcomapi.obj
 0001:0005ba8f       _jpeg_destroy              0045ca8f f   jcomapi.obj
 0001:0005baaa       _jpeg_alloc_quant_table    0045caaa f   jcomapi.obj
 0001:0005bac6       _jpeg_alloc_huff_table     0045cac6 f   jcomapi.obj
 0001:0005bae2       _jpeg_add_quant_table      0045cae2 f   jcparam.obj
 0001:0005bb94       _jpeg_quality_scaling      0045cb94 f   jcparam.obj
 0001:0005bbbb       _jpeg_set_quality          0045cbbb f   jcparam.obj
 0001:0005bbf5       _jpeg_set_defaults         0045cbf5 f   jcparam.obj
 0001:0005bdb7       _jpeg_default_colorspace   0045cdb7 f   jcparam.obj
 0001:0005be07       _jpeg_set_colorspace       0045ce07 f   jcparam.obj
 0001:0005c122       _jinit_phuff_encoder       0045d122 f   jcphuff.obj
 0001:0005cbc7       _jinit_differencer         0045dbc7 f   jcpred.obj
 0001:0005d0e1       _jinit_c_prep_controller   0045e0e1 f   jcprepct.obj
 0001:0005d62c       _jinit_downsampler         0045e62c f   jcsample.obj
 0001:0005deac       _jinit_c_scaler            0045eeac f   jcscale.obj
 0001:0005df22       _jinit_shuff_encoder       0045ef22 f   jcshuff.obj
 0001:0005e78a       _jpeg_CreateDecompress     0045f78a f   jdapimin.obj
 0001:0005e84a       _jpeg_destroy_decompress   0045f84a f   jdapimin.obj
 0001:0005e84a       _jpeg_destroy_compress     0045f84a f   jdapimin.obj
 0001:0005e855       _jpeg_read_header          0045f855 f   jdapimin.obj
 0001:0005e8b7       _jpeg_consume_input        0045f8b7 f   jdapimin.obj
 0001:0005eb05       _jpeg_finish_decompress    0045fb05 f   jdapimin.obj
 0001:0005eb9c       _jpeg_start_decompress     0045fb9c f   jdapistd.obj
 0001:0005ed09       _jpeg_read_scanlines       0045fd09 f   jdapistd.obj
 0001:0005ed8d       _jpeg_stdio_dest           0045fd8d f   jdatadst.obj
 0001:0005ee8d       _jinit_d_coef_controller   0045fe8d f   jdcoefct.obj
 0001:0005fb66       _jinit_color_deconverter   00460b66 f   jdcolor.obj
 0001:0006007c       _jinit_inverse_dct         0046107c f   jddctmgr.obj
 0001:000602bb       _jinit_d_diff_controller   004612bb f   jddiffct.obj
 0001:000607ec       _jpeg_make_d_derived_tbl   004617ec f   jdhuff.obj
 0001:00060a89       _jpeg_fill_bit_buffer      00461a89 f   jdhuff.obj
 0001:00060b98       _jpeg_huff_decode          00461b98 f   jdhuff.obj
 0001:00060c78       _jinit_input_controller    00461c78 f   jdinput.obj
 0001:0006115b       _jinit_lhuff_decoder       0046215b f   jdlhuff.obj
 0001:00061550       _jinit_lossless_d_codec    00462550 f   jdlossls.obj
 0001:00061600       _jinit_lossy_d_codec       00462600 f   jdlossy.obj
 0001:000618d3       _jinit_d_main_controller   004628d3 f   jdmainct.obj
 0001:00061f1e       _jpeg_resync_to_restart    00462f1e f   jdmarker.obj
 0001:000620e3       _jinit_marker_reader       004630e3 f   jdmarker.obj
 0001:000635ae       _jpeg_calc_output_dimensions 004645ae f   jdmaster.obj
 0001:000636ae       _jinit_master_decompress   004646ae f   jdmaster.obj
 0001:00063a04       _jinit_merged_upsampler    00464a04 f   jdmerge.obj
 0001:00063f54       _jinit_phuff_decoder       00464f54 f   jdphuff.obj
 0001:00064af1       _jinit_d_post_controller   00465af1 f   jdpostct.obj
 0001:00064d9c       _jinit_undifferencer       00465d9c f   jdpred.obj
 0001:00065156       _jinit_upsampler           00466156 f   jdsample.obj
 0001:00065794       _jinit_d_scaler            00466794 f   jdscale.obj
 0001:00065893       _jinit_shuff_decoder       00466893 f   jdshuff.obj
 0001:00065e28       _jpeg_fdct_float           00466e28 f   jfdctflt.obj
 0001:0006602d       _jpeg_fdct_ifast           0046702d f   jfdctfst.obj
 0001:0006620b       _jpeg_fdct_islow           0046720b f   jfdctint.obj
 0001:00066503       _jpeg_idct_float           00467503 f   jidctflt.obj
 0001:000668d5       _jpeg_idct_ifast           004678d5 f   jidctfst.obj
 0001:00066c9c       _jpeg_idct_islow           00467c9c f   jidctint.obj
 0001:0006717b       _jpeg_idct_4x4             0046817b f   jidctred.obj
 0001:00067469       _jpeg_idct_2x2             00468469 f   jidctred.obj
 0001:0006762b       _jpeg_idct_1x1             0046862b f   jidctred.obj
 0001:00067667       _jpeg_get_large            00468667 f   jmemansi.obj
 0001:00067667       _jpeg_get_small            00468667 f   jmemansi.obj
 0001:00067673       _zcfree                    00468673 f   jmemansi.obj
 0001:00067673       _jpeg_free_large           00468673 f   jmemansi.obj
 0001:00067673       _jpeg_free_small           00468673 f   jmemansi.obj
 0001:0006767f       _jpeg_mem_available        0046867f f   jmemansi.obj
 0001:0006768e       _jpeg_open_backing_store   0046868e f   jmemansi.obj
 0001:000677a5       _jpeg_mem_init             004687a5 f   jmemansi.obj
 0001:000677ab       __setargv                  004687ab f   jmemansi.obj
 0001:000677ab       _jpeg_mem_term             004687ab f   jmemansi.obj
 0001:000677ab       _R_SurfacePatch            004687ab f   jmemansi.obj
 0001:000677ab       _Qcommon_Shutdown          004687ab f   jmemansi.obj
 0001:000677ac       _jinit_memory_mgr          004687ac f   jmemmgr.obj
 0001:00068340       _jinit_1pass_quantizer     00469340 f   jquant1.obj
 0001:00068d66       _jinit_2pass_quantizer     00469d66 f   jquant2.obj
 0001:00069e29       _jdiv_round_up             0046ae29 f   jutils.obj
 0001:00069e39       _jround_up                 0046ae39 f   jutils.obj
 0001:00069e51       _jcopy_sample_rows         0046ae51 f   jutils.obj
 0001:00069e8f       _jcopy_block_row           0046ae8f f   jutils.obj
 0001:00069ea8       _jzero_far                 0046aea8 f   jutils.obj
 0001:00069f30       __chkstk                   0046af30 f   MSVCRT:chkstk.obj
 0001:00069f30       __alloca_probe             0046af30 f   MSVCRT:chkstk.obj
 0001:00069f60       __ftol                     0046af60 f   MSVCRT:MSVCRT.dll
 0001:00069f66       _strcmp                    0046af66 f   MSVCRT:MSVCRT.dll
 0001:00069f6c       _memset                    0046af6c f   MSVCRT:MSVCRT.dll
 0001:00069f72       _memcpy                    0046af72 f   MSVCRT:MSVCRT.dll
 0001:00069f78       _abs                       0046af78 f   MSVCRT:MSVCRT.dll
 0001:00069f7e       _strcpy                    0046af7e f   MSVCRT:MSVCRT.dll
 0001:00069f84       _sin                       0046af84 f   MSVCRT:MSVCRT.dll
 0001:00069f8a       _strlen                    0046af8a f   MSVCRT:MSVCRT.dll
 0001:00069f90       _tan                       0046af90 f   MSVCRT:MSVCRT.dll
 0001:00069f96       _cos                       0046af96 f   MSVCRT:MSVCRT.dll
 0001:00069f9c       _strcat                    0046af9c f   MSVCRT:MSVCRT.dll
 0001:00069fa2       _sqrt                      0046afa2 f   MSVCRT:MSVCRT.dll
 0001:00069fa8       _atan2                     0046afa8 f   MSVCRT:MSVCRT.dll
 0001:00069fae       _fmod                      0046afae f   MSVCRT:MSVCRT.dll
 0001:00069fb4       _acos                      0046afb4 f   MSVCRT:MSVCRT.dll
 0001:00069fba       _atan                      0046afba f   MSVCRT:MSVCRT.dll
 0001:00069fc0       _fabs                      0046afc0 f   MSVCRT:MSVCRT.dll
 0001:00069fc6       __setjmp3                  0046afc6 f   MSVCRT:MSVCRT.dll
 0001:00069fcc       _memcmp                    0046afcc f   MSVCRT:MSVCRT.dll
 0001:00069fd2       _pow                       0046afd2 f   MSVCRT:MSVCRT.dll
 0001:00069fd8       _asin                      0046afd8 f   MSVCRT:MSVCRT.dll
 0001:00069fde       _WinMainCRTStartup         0046afde f   MSVCRT:crtexew.obj
 0001:0006a13c       __XcptFilter               0046b13c f   MSVCRT:MSVCRT.dll
 0001:0006a142       __initterm                 0046b142 f   MSVCRT:MSVCRT.dll
 0001:0006a148       __setdefaultprecision      0046b148 f   MSVCRT:fp8.obj
 0001:0006a15a       __matherr                  0046b15a f   MSVCRT:merr.obj
 0001:0006a15e       __except_handler3          0046b15e f   MSVCRT:MSVCRT.dll
 0001:0006a164       __controlfp                0046b164 f   MSVCRT:MSVCRT.dll
 0002:00000000       __imp__GetDeviceGammaRamp@8 0046c000     gdi32:GDI32.dll
 0002:00000004       __imp__SetDeviceGammaRamp@8 0046c004     gdi32:GDI32.dll
 0002:00000008       __imp__DescribePixelFormat@16 0046c008     gdi32:GDI32.dll
 0002:0000000c       __imp__SetPixelFormat@12   0046c00c     gdi32:GDI32.dll
 0002:00000010       __imp__ChoosePixelFormat@8 0046c010     gdi32:GDI32.dll
 0002:00000014       __imp__SwapBuffers@4       0046c014     gdi32:GDI32.dll
 0002:00000018       __imp__SelectObject@8      0046c018     gdi32:GDI32.dll
 0002:0000001c       __imp__CreateCompatibleDC@4 0046c01c     gdi32:GDI32.dll
 0002:00000020       __imp__CreateDIBSection@24 0046c020     gdi32:GDI32.dll
 0002:00000024       __imp__BitBlt@36           0046c024     gdi32:GDI32.dll
 0002:00000028       __imp__GetDeviceCaps@8     0046c028     gdi32:GDI32.dll
 0002:0000002c       __imp__RealizePalette@4    0046c02c     gdi32:GDI32.dll
 0002:00000030       __imp__SelectPalette@12    0046c030     gdi32:GDI32.dll
 0002:00000034       __imp__CreatePalette@4     0046c034     gdi32:GDI32.dll
 0002:00000038       __imp__DeleteObject@4      0046c038     gdi32:GDI32.dll
 0002:0000003c       __imp__SetSystemPaletteUse@8 0046c03c     gdi32:GDI32.dll
 0002:00000040       __imp__SetDIBColorTable@16 0046c040     gdi32:GDI32.dll
 0002:00000044       __imp__DeleteDC@4          0046c044     gdi32:GDI32.dll
 0002:00000048       \177GDI32_NULL_THUNK_DATA  0046c048     gdi32:GDI32.dll
 0002:0000004c       __imp__GetStartupInfoA@4   0046c04c     kernel32:KERNEL32.dll
 0002:00000050       __imp__GetModuleHandleA@4  0046c050     kernel32:KERNEL32.dll
 0002:00000054       __imp__FreeConsole@0       0046c054     kernel32:KERNEL32.dll
 0002:00000058       __imp__IsBadReadPtr@8      0046c058     kernel32:KERNEL32.dll
 0002:0000005c       __imp__FormatMessageA@28   0046c05c     kernel32:KERNEL32.dll
 0002:00000060       __imp__GetStdHandle@4      0046c060     kernel32:KERNEL32.dll
 0002:00000064       __imp__CloseHandle@4       0046c064     kernel32:KERNEL32.dll
 0002:00000068       __imp__CreateEventA@16     0046c068     kernel32:KERNEL32.dll
 0002:0000006c       __imp__SetEvent@4          0046c06c     kernel32:KERNEL32.dll
 0002:00000070       __imp__UnmapViewOfFile@4   0046c070     kernel32:KERNEL32.dll
 0002:00000074       __imp__ReadConsoleOutputCharacterA@20 0046c074     kernel32:KERNEL32.dll
 0002:00000078       __imp__GetConsoleScreenBufferInfo@8 0046c078     kernel32:KERNEL32.dll
 0002:0000007c       __imp__MapViewOfFile@20    0046c07c     kernel32:KERNEL32.dll
 0002:00000080       __imp__WaitForMultipleObjects@16 0046c080     kernel32:KERNEL32.dll
 0002:00000084       __imp__WriteConsoleInputA@16 0046c084     kernel32:KERNEL32.dll
 0002:00000088       __imp__SetConsoleScreenBufferSize@8 0046c088     kernel32:KERNEL32.dll
 0002:0000008c       __imp__SetConsoleWindowInfo@12 0046c08c     kernel32:KERNEL32.dll
 0002:00000090       __imp__GetLargestConsoleWindowSize@4 0046c090     kernel32:KERNEL32.dll
 0002:00000094       __imp__FreeLibrary@4       0046c094     kernel32:KERNEL32.dll
 0002:00000098       __imp__GetProcAddress@8    0046c098     kernel32:KERNEL32.dll
 0002:0000009c       __imp__LoadLibraryA@4      0046c09c     kernel32:KERNEL32.dll
 0002:000000a0       __imp__Sleep@4             0046c0a0     kernel32:KERNEL32.dll
 0002:000000a4       __imp__VirtualQuery@12     0046c0a4     kernel32:KERNEL32.dll
 0002:000000a8       __imp__GetLastError@0      0046c0a8     kernel32:KERNEL32.dll
 0002:000000ac       __imp__GetDriveTypeA@4     0046c0ac     kernel32:KERNEL32.dll
 0002:000000b0       __imp__SetErrorMode@4      0046c0b0     kernel32:KERNEL32.dll
 0002:000000b4       __imp__SetUnhandledExceptionFilter@4 0046c0b4     kernel32:KERNEL32.dll
 0002:000000b8       __imp__AllocConsole@0      0046c0b8     kernel32:KERNEL32.dll
 0002:000000bc       __imp__GetVersionExA@4     0046c0bc     kernel32:KERNEL32.dll
 0002:000000c0       __imp__GetModuleFileNameA@12 0046c0c0     kernel32:KERNEL32.dll
 0002:000000c4       __imp__VirtualFree@12      0046c0c4     kernel32:KERNEL32.dll
 0002:000000c8       __imp__ReadConsoleInputA@16 0046c0c8     kernel32:KERNEL32.dll
 0002:000000cc       __imp__GetNumberOfConsoleInputEvents@8 0046c0cc     kernel32:KERNEL32.dll
 0002:000000d0       __imp__WriteFile@20        0046c0d0     kernel32:KERNEL32.dll
 0002:000000d4       __imp__GlobalUnlock@4      0046c0d4     kernel32:KERNEL32.dll
 0002:000000d8       __imp__GlobalSize@4        0046c0d8     kernel32:KERNEL32.dll
 0002:000000dc       __imp__GlobalLock@4        0046c0dc     kernel32:KERNEL32.dll
 0002:000000e0       __imp__SetPriorityClass@8  0046c0e0     kernel32:KERNEL32.dll
 0002:000000e4       __imp__GetCurrentProcess@0 0046c0e4     kernel32:KERNEL32.dll
 0002:000000e8       __imp__VirtualAlloc@16     0046c0e8     kernel32:KERNEL32.dll
 0002:000000ec       \177KERNEL32_NULL_THUNK_DATA 0046c0ec     kernel32:KERNEL32.dll
 0002:000000f0       __imp____setusermatherr    0046c0f0     MSVCRT:MSVCRT.dll
 0002:000000f4       __imp____getmainargs       0046c0f4     MSVCRT:MSVCRT.dll
 0002:000000f8       __imp___initterm           0046c0f8     MSVCRT:MSVCRT.dll
 0002:000000fc       __imp___adjust_fdiv        0046c0fc     MSVCRT:MSVCRT.dll
 0002:00000100       __imp____p__commode        0046c100     MSVCRT:MSVCRT.dll
 0002:00000104       __imp____p__fmode          0046c104     MSVCRT:MSVCRT.dll
 0002:00000108       __imp____set_app_type      0046c108     MSVCRT:MSVCRT.dll
 0002:0000010c       __imp___except_handler3    0046c10c     MSVCRT:MSVCRT.dll
 0002:00000110       __imp___controlfp          0046c110     MSVCRT:MSVCRT.dll
 0002:00000114       __imp___putenv             0046c114     MSVCRT:MSVCRT.dll
 0002:00000114       __imp__putenv              0046c114     MSVCRT:MSVCRT.dll
 0002:00000118       __imp___strlwr             0046c118     MSVCRT:MSVCRT.dll
 0002:00000118       __imp__strlwr              0046c118     MSVCRT:MSVCRT.dll
 0002:0000011c       __imp___findclose          0046c11c     MSVCRT:MSVCRT.dll
 0002:00000120       __imp__calloc              0046c120     MSVCRT:MSVCRT.dll
 0002:00000124       __imp__fflush              0046c124     MSVCRT:MSVCRT.dll
 0002:00000128       __imp__tmpfile             0046c128     MSVCRT:MSVCRT.dll
 0002:0000012c       __imp___exit               0046c12c     MSVCRT:MSVCRT.dll
 0002:00000130       __imp___XcptFilter         0046c130     MSVCRT:MSVCRT.dll
 0002:00000134       __imp___mkdir              0046c134     MSVCRT:MSVCRT.dll
 0002:00000138       __imp__strlen              0046c138     MSVCRT:MSVCRT.dll
 0002:0000013c       __imp__rand                0046c13c     MSVCRT:MSVCRT.dll
 0002:00000140       __imp___winmajor           0046c140     MSVCRT:MSVCRT.dll
 0002:00000144       __imp__asin                0046c144     MSVCRT:MSVCRT.dll
 0002:00000148       __imp__pow                 0046c148     MSVCRT:MSVCRT.dll
 0002:0000014c       __imp___getcwd             0046c14c     MSVCRT:MSVCRT.dll
 0002:00000150       __imp__exit                0046c150     MSVCRT:MSVCRT.dll
 0002:00000154       __imp__sprintf             0046c154     MSVCRT:MSVCRT.dll
 0002:00000158       __imp__strncat             0046c158     MSVCRT:MSVCRT.dll
 0002:0000015c       __imp__strtok              0046c15c     MSVCRT:MSVCRT.dll
 0002:00000160       __imp__stricmp             0046c160     MSVCRT:MSVCRT.dll
 0002:00000160       __imp___stricmp            0046c160     MSVCRT:MSVCRT.dll
 0002:00000164       __imp___vsnprintf          0046c164     MSVCRT:MSVCRT.dll
 0002:00000168       __imp__memcmp              0046c168     MSVCRT:MSVCRT.dll
 0002:0000016c       __imp__malloc              0046c16c     MSVCRT:MSVCRT.dll
 0002:00000170       __imp__free                0046c170     MSVCRT:MSVCRT.dll
 0002:00000174       __imp__asctime             0046c174     MSVCRT:MSVCRT.dll
 0002:00000178       __imp___findfirst          0046c178     MSVCRT:MSVCRT.dll
 0002:0000017c       __imp__tan                 0046c17c     MSVCRT:MSVCRT.dll
 0002:00000180       __imp__cos                 0046c180     MSVCRT:MSVCRT.dll
 0002:00000184       __imp____mb_cur_max        0046c184     MSVCRT:MSVCRT.dll
 0002:00000188       __imp___acmdln             0046c188     MSVCRT:MSVCRT.dll
 0002:0000018c       __imp__toupper             0046c18c     MSVCRT:MSVCRT.dll
 0002:00000190       __imp___isctype            0046c190     MSVCRT:MSVCRT.dll
 0002:00000194       __imp___pctype             0046c194     MSVCRT:MSVCRT.dll
 0002:00000198       __imp___endthreadex        0046c198     MSVCRT:MSVCRT.dll
 0002:0000019c       __imp___beginthreadex      0046c19c     MSVCRT:MSVCRT.dll
 0002:000001a0       __imp___setjmp3            0046c1a0     MSVCRT:MSVCRT.dll
 0002:000001a4       __imp__srand               0046c1a4     MSVCRT:MSVCRT.dll
 0002:000001a8       __imp___findnext           0046c1a8     MSVCRT:MSVCRT.dll
 0002:000001ac       __imp__floor               0046c1ac     MSVCRT:MSVCRT.dll
 0002:000001b0       __imp__localtime           0046c1b0     MSVCRT:MSVCRT.dll
 0002:000001b4       __imp__strftime            0046c1b4     MSVCRT:MSVCRT.dll
 0002:000001b8       __imp__time                0046c1b8     MSVCRT:MSVCRT.dll
 0002:000001bc       __imp__fread               0046c1bc     MSVCRT:MSVCRT.dll
 0002:000001c0       __imp__fabs                0046c1c0     MSVCRT:MSVCRT.dll
 0002:000001c4       __imp__vsprintf            0046c1c4     MSVCRT:MSVCRT.dll
 0002:000001c8       __imp__qsort               0046c1c8     MSVCRT:MSVCRT.dll
 0002:000001cc       __imp__atan                0046c1cc     MSVCRT:MSVCRT.dll
 0002:000001d0       __imp__memmove             0046c1d0     MSVCRT:MSVCRT.dll
 0002:000001d4       __imp__ceil                0046c1d4     MSVCRT:MSVCRT.dll
 0002:000001d8       __imp__acos                0046c1d8     MSVCRT:MSVCRT.dll
 0002:000001dc       __imp__sscanf              0046c1dc     MSVCRT:MSVCRT.dll
 0002:000001e0       __imp__rename              0046c1e0     MSVCRT:MSVCRT.dll
 0002:000001e4       __imp__strstr              0046c1e4     MSVCRT:MSVCRT.dll
 0002:000001e8       __imp__atof                0046c1e8     MSVCRT:MSVCRT.dll
 0002:000001ec       __imp__atoi                0046c1ec     MSVCRT:MSVCRT.dll
 0002:000001f0       __imp___ftol               0046c1f0     MSVCRT:MSVCRT.dll
 0002:000001f4       __imp__strcmp              0046c1f4     MSVCRT:MSVCRT.dll
 0002:000001f8       __imp__strchr              0046c1f8     MSVCRT:MSVCRT.dll
 0002:000001fc       __imp__memset              0046c1fc     MSVCRT:MSVCRT.dll
 0002:00000200       __imp__memcpy              0046c200     MSVCRT:MSVCRT.dll
 0002:00000204       __imp__abs                 0046c204     MSVCRT:MSVCRT.dll
 0002:00000208       __imp__strcpy              0046c208     MSVCRT:MSVCRT.dll
 0002:0000020c       __imp__sin                 0046c20c     MSVCRT:MSVCRT.dll
 0002:00000210       __imp__strncmp             0046c210     MSVCRT:MSVCRT.dll
 0002:00000214       __imp__remove              0046c214     MSVCRT:MSVCRT.dll
 0002:00000218       __imp__strncpy             0046c218     MSVCRT:MSVCRT.dll
 0002:0000021c       __imp__longjmp             0046c21c     MSVCRT:MSVCRT.dll
 0002:00000220       __imp__strrchr             0046c220     MSVCRT:MSVCRT.dll
 0002:00000224       __imp__ftell               0046c224     MSVCRT:MSVCRT.dll
 0002:00000228       __imp__fwrite              0046c228     MSVCRT:MSVCRT.dll
 0002:0000022c       __imp__fclose              0046c22c     MSVCRT:MSVCRT.dll
 0002:00000230       __imp__fopen               0046c230     MSVCRT:MSVCRT.dll
 0002:00000234       __imp__getenv              0046c234     MSVCRT:MSVCRT.dll
 0002:00000238       __imp__strcat              0046c238     MSVCRT:MSVCRT.dll
 0002:0000023c       __imp__fmod                0046c23c     MSVCRT:MSVCRT.dll
 0002:00000240       __imp__fseek               0046c240     MSVCRT:MSVCRT.dll
 0002:00000244       __imp__fprintf             0046c244     MSVCRT:MSVCRT.dll
 0002:00000248       __imp__printf              0046c248     MSVCRT:MSVCRT.dll
 0002:0000024c       __imp__sqrt                0046c24c     MSVCRT:MSVCRT.dll
 0002:00000250       __imp__atan2               0046c250     MSVCRT:MSVCRT.dll
 0002:00000254       \177MSVCRT_NULL_THUNK_DATA 0046c254     MSVCRT:MSVCRT.dll
 0002:00000258       __imp__RegisterWindowMessageA@4 0046c258     user32:USER32.dll
 0002:0000025c       __imp__SystemParametersInfoA@16 0046c25c     user32:USER32.dll
 0002:00000260       __imp__ShowCursor@4        0046c260     user32:USER32.dll
 0002:00000264       __imp__SetCursor@4         0046c264     user32:USER32.dll
 0002:00000268       __imp__ReleaseCapture@0    0046c268     user32:USER32.dll
 0002:0000026c       __imp__ClipCursor@4        0046c26c     user32:USER32.dll
 0002:00000270       __imp__GetWindowRect@8     0046c270     user32:USER32.dll
 0002:00000274       __imp__SetCapture@4        0046c274     user32:USER32.dll
 0002:00000278       __imp__SetCursorPos@8      0046c278     user32:USER32.dll
 0002:0000027c       __imp__MessageBoxA@16      0046c27c     user32:USER32.dll
 0002:00000280       __imp__GetSystemMetrics@4  0046c280     user32:USER32.dll
 0002:00000284       __imp__GetCursorPos@4      0046c284     user32:USER32.dll
 0002:00000288       __imp__GetMessageA@16      0046c288     user32:USER32.dll
 0002:0000028c       __imp__DispatchMessageA@4  0046c28c     user32:USER32.dll
 0002:00000290       __imp__TranslateMessage@4  0046c290     user32:USER32.dll
 0002:00000294       __imp__GetClipboardData@4  0046c294     user32:USER32.dll
 0002:00000298       __imp__PeekMessageA@20     0046c298     user32:USER32.dll
 0002:0000029c       __imp__CloseClipboard@0    0046c29c     user32:USER32.dll
 0002:000002a0       __imp__OpenClipboard@4     0046c2a0     user32:USER32.dll
 0002:000002a4       __imp__GetSysColor@4       0046c2a4     user32:USER32.dll
 0002:000002a8       __imp__SetSysColors@12     0046c2a8     user32:USER32.dll
 0002:000002ac       __imp__GetDesktopWindow@0  0046c2ac     user32:USER32.dll
 0002:000002b0       __imp__GetDC@4             0046c2b0     user32:USER32.dll
 0002:000002b4       __imp__DestroyWindow@4     0046c2b4     user32:USER32.dll
 0002:000002b8       __imp__ChangeDisplaySettingsA@8 0046c2b8     user32:USER32.dll
 0002:000002bc       __imp__MoveWindow@24       0046c2bc     user32:USER32.dll
 0002:000002c0       __imp__DefWindowProcA@16   0046c2c0     user32:USER32.dll
 0002:000002c4       __imp__AdjustWindowRect@12 0046c2c4     user32:USER32.dll
 0002:000002c8       __imp__SetWindowLongA@12   0046c2c8     user32:USER32.dll
 0002:000002cc       __imp__SetWindowPos@28     0046c2cc     user32:USER32.dll
 0002:000002d0       __imp__UpdateWindow@4      0046c2d0     user32:USER32.dll
 0002:000002d4       __imp__SetFocus@4          0046c2d4     user32:USER32.dll
 0002:000002d8       __imp__LoadIconA@8         0046c2d8     user32:USER32.dll
 0002:000002dc       __imp__LoadCursorA@8       0046c2dc     user32:USER32.dll
 0002:000002e0       __imp__RegisterClassA@4    0046c2e0     user32:USER32.dll
 0002:000002e4       __imp__CreateWindowExA@48  0046c2e4     user32:USER32.dll
 0002:000002e8       __imp__UnregisterHotKey@8  0046c2e8     user32:USER32.dll
 0002:000002ec       __imp__RegisterHotKey@16   0046c2ec     user32:USER32.dll
 0002:000002f0       __imp__ShowWindow@8        0046c2f0     user32:USER32.dll
 0002:000002f4       __imp__SetForegroundWindow@4 0046c2f4     user32:USER32.dll
 0002:000002f8       __imp__GetWindowLongA@8    0046c2f8     user32:USER32.dll
 0002:000002fc       __imp__UnregisterClassA@8  0046c2fc     user32:USER32.dll
 0002:00000300       __imp__ReleaseDC@8         0046c300     user32:USER32.dll
 0002:00000304       \177USER32_NULL_THUNK_DATA 0046c304     user32:USER32.dll
 0002:00000308       __imp__timeGetTime@0       0046c308     winmm:WINMM.dll
 0002:0000030c       __imp__timeBeginPeriod@4   0046c30c     winmm:WINMM.dll
 0002:00000310       __imp__timeEndPeriod@4     0046c310     winmm:WINMM.dll
 0002:00000314       __imp__joyGetNumDevs@0     0046c314     winmm:WINMM.dll
 0002:00000318       __imp__joyGetPosEx@8       0046c318     winmm:WINMM.dll
 0002:0000031c       __imp__joyGetDevCapsA@12   0046c31c     winmm:WINMM.dll
 0002:00000320       __imp__mciSendCommandA@16  0046c320     winmm:WINMM.dll
 0002:00000324       \177WINMM_NULL_THUNK_DATA  0046c324     winmm:WINMM.dll
 0002:00000328       __imp__closesocket@4       0046c328     wsock32:WSOCK32.dll
 0002:0000032c       __imp__WSAStartup@8        0046c32c     wsock32:WSOCK32.dll
 0002:00000330       __imp__select@20           0046c330     wsock32:WSOCK32.dll
 0002:00000334       __imp__socket@12           0046c334     wsock32:WSOCK32.dll
 0002:00000338       __imp__ioctlsocket@12      0046c338     wsock32:WSOCK32.dll
 0002:0000033c       __imp__setsockopt@20       0046c33c     wsock32:WSOCK32.dll
 0002:00000340       __imp__bind@12             0046c340     wsock32:WSOCK32.dll
 0002:00000344       __imp__sendto@24           0046c344     wsock32:WSOCK32.dll
 0002:00000348       __imp__recvfrom@24         0046c348     wsock32:WSOCK32.dll
 0002:0000034c       __imp__WSAGetLastError@0   0046c34c     wsock32:WSOCK32.dll
 0002:00000350       __imp__htons@4             0046c350     wsock32:WSOCK32.dll
 0002:00000354       __imp__inet_addr@4         0046c354     wsock32:WSOCK32.dll
 0002:00000358       __imp__gethostbyname@4     0046c358     wsock32:WSOCK32.dll
 0002:0000035c       __imp__ntohs@4             0046c35c     wsock32:WSOCK32.dll
 0002:00000360       \177WSOCK32_NULL_THUNK_DATA 0046c360     wsock32:WSOCK32.dll
 0002:00000368       __real@8@3ff8e5604189374bc800 0046c368     cl_cin.obj
 0002:00000370       __real@4@3ffe8000000000000000 0046c370     cl_ents.obj
 0002:00000378       __real@8@3ff78080808080808000 0046c378     cl_ents.obj
 0002:00000380       __real@8@3ffd8000000000000000 0046c380     cl_ents.obj
 0002:00000388       __real@4@3ffc8000000000000000 0046c388     cl_ents.obj
 0002:0000038c       __real@4@3fff8000000000000000 0046c38c     cl_ents.obj
 0002:00000390       __real@4@4004a000000000000000 0046c390     cl_ents.obj
 0002:00000394       __real@4@3ff8a3d70a0000000000 0046c394     cl_ents.obj
 0002:00000398       __real@8@3fff8000000000000000 0046c398     cl_ents.obj
 0002:000003a0       __real@4@3ff8a3d70a3d70a3d800 0046c3a0     cl_ents.obj
 0002:000003a4       __real@4@40068200000000000000 0046c3a4     cl_ents.obj
 0002:000003a8       __real@4@4006c800000000000000 0046c3a8     cl_ents.obj
 0002:000003ac       __real@4@40069b00000000000000 0046c3ac     cl_ents.obj
 0002:000003b0       __real@8@4004c800000000000000 0046c3b0     cl_ents.obj
 0002:000003b8       __real@8@4007fa00000000000000 0046c3b8     cl_ents.obj
 0002:000003c0       __real@8@3ff683126e978d4fe000 0046c3c0     cl_ents.obj
 0002:000003c8       __real@4@4006dc00000000000000 0046c3c8     cl_ents.obj
 0002:000003cc       __real@4@4005e600000000000000 0046c3cc     cl_ents.obj
 0002:000003d0       __real@4@4006f200000000000000 0046c3d0     cl_ents.obj
 0002:000003d4       __real@4@3ffeccccccccccccd000 0046c3d4     cl_ents.obj
 0002:000003d8       __real@4@40048000000000000000 0046c3d8     cl_ents.obj
 0002:000003e0       __real@8@3ffd9999999999999800 0046c3e0     cl_ents.obj
 0002:000003e8       __real@8@3ffe9999999999999800 0046c3e8     cl_ents.obj
 0002:000003f0       __real@4@4006e100000000000000 0046c3f0     cl_ents.obj
 0002:000003f4       __real@4@bfff8000000000000000 0046c3f4     cl_ents.obj
 0002:000003f8       __real@4@3ffbccccccccccccd000 0046c3f8     cl_ents.obj
 0002:000003fc       __real@4@3ffcccccccccccccd000 0046c3fc     cl_ents.obj
 0002:00000400       __real@4@4005c800000000000000 0046c400     cl_ents.obj
 0002:00000404       __real@4@40058000000000000000 0046c404     cl_ents.obj
 0002:00000408       __real@4@4005b400000000000000 0046c408     cl_ents.obj
 0002:00000410       __real@8@4023c000000000000000 0046c410     cl_fx.obj
 0002:00000418       __real@4@00000000000000000000 0046c418     cl_fx.obj
 0002:0000041c       __real@4@3ff583126e978d4fe000 0046c41c     cl_fx.obj
 0002:00000420       __real@4@3ffaccccccccccccd000 0046c420     cl_fx.obj
 0002:00000424       __real@4@40089600000000000000 0046c424     cl_fx.obj
 0002:00000428       __real@4@3ffd99999a0000000000 0046c428     cl_fx.obj
 0002:0000042c       __real@4@3ff69999999999999800 0046c42c     cl_fx.obj
 0002:00000430       __real@4@40019000000000000000 0046c430     cl_fx.obj
 0002:00000434       __real@4@40098000000000000000 0046c434     cl_fx.obj
 0002:00000438       __real@4@40068000000000000000 0046c438     cl_fx.obj
 0002:0000043c       __real@4@bffbcccccd0000000000 0046c43c     cl_fx.obj
 0002:00000440       __real@4@3ffbcccccd0000000000 0046c440     cl_fx.obj
 0002:00000448       __real@8@4000c90fdaa22168c000 0046c448     cl_fx.obj
 0002:00000450       __real@4@3ff6b60b60b60b60b800 0046c450     cl_fx.obj
 0002:00000454       __real@4@3ffccccccd0000000000 0046c454     cl_fx.obj
 0002:00000458       __real@4@3ffacccccd0000000000 0046c458     cl_fx.obj
 0002:0000045c       __real@4@3ffda3d70a0000000000 0046c45c     cl_fx.obj
 0002:00000460       __real@4@4003f000000000000000 0046c460     cl_fx.obj
 0002:00000464       __real@4@40069600000000000000 0046c464     cl_fx.obj
 0002:00000468       __real@4@3ffb872b020c49ba6000 0046c468     cl_fx.obj
 0002:0000046c       __real@4@3ffa872b020c49ba6000 0046c46c     cl_fx.obj
 0002:00000470       __real@8@3ffbccccccccccccd000 0046c470     cl_fx.obj
 0002:00000478       __real@4@40038000000000000000 0046c478     cl_fx.obj
 0002:0000047c       __real@4@40039000000000000000 0046c47c     cl_fx.obj
 0002:00000480       __real@8@bfff8000000000000000 0046c480     cl_fx.obj
 0002:00000488       __real@8@3ffe8000000000000000 0046c488     cl_fx.obj
 0002:00000490       __real@4@4003a000000000000000 0046c490     cl_fx.obj
 0002:00000494       __real@4@40028000000000000000 0046c494     cl_fx.obj
 0002:00000498       __real@4@4002e000000000000000 0046c498     cl_fx.obj
 0002:0000049c       __real@4@4003c000000000000000 0046c49c     cl_fx.obj
 0002:000004a0       __real@4@4004e000000000000000 0046c4a0     cl_fx.obj
 0002:000004a8       __real@8@bffeccccccccccccd000 0046c4a8     cl_fx.obj
 0002:000004b0       __real@8@bffd9999999999999800 0046c4b0     cl_fx.obj
 0002:000004b8       __real@8@c006c800000000000000 0046c4b8     cl_fx.obj
 0002:000004c0       __real@8@3ff7c9422b2ceca3e800 0046c4c0     cl_fx.obj
 0002:000004c8       __real@8@3ffcccccccccccccd000 0046c4c8     cl_fx.obj
 0002:000004d0       __real@4@4001a000000000000000 0046c4d0     cl_fx.obj
 0002:000004d8       __real@8@3ffeccccccccccccd000 0046c4d8     cl_fx.obj
 0002:000004e0       __real@4@4005a000000000000000 0046c4e0     cl_fx.obj
 0002:000004e8       __real@8@3ffdccccccccccccd000 0046c4e8     cl_fx.obj
 0002:000004f0       __real@4@3ffec000000000000000 0046c4f0     cl_fx.obj
 0002:000004f4       __real@4@4001c000000000000000 0046c4f4     cl_fx.obj
 0002:000004f8       __real@4@4000c000000000000000 0046c4f8     cl_fx.obj
 0002:00000500       __real@8@40058000000000000000 0046c500     cl_fx.obj
 0002:00000508       __real@8@3ff583126e978d4fe000 0046c508     cl_fx.obj
 0002:00000510       __real@8@3ff8a3d70a3d70a3d800 0046c510     cl_fx.obj
 0002:00000518       __real@8@3ff0d1b71758e2196800 0046c518     cl_fx.obj
 0002:00000520       __real@4@4006d000000000000000 0046c520     cl_fx.obj
 0002:00000524       __real@4@4001e000000000000000 0046c524     cl_fx.obj
 0002:00000528       __real@8@3ff8b60b60b60b60b800 0046c528     cl_fx.obj
 0002:00000530       __real@8@3ff9a3d70a3d70a3d800 0046c530     cl_fx.obj
 0002:00000538       __real@4@4002f000000000000000 0046c538     cl_fx.obj
 0002:0000053c       __real@4@40008000000000000000 0046c53c     cl_fx.obj
 0002:00000540       __real@4@c005b200000000000000 0046c540     cl_input.obj
 0002:00000544       __real@4@4005b200000000000000 0046c544     cl_input.obj
 0002:00000548       __real@4@c007b400000000000000 0046c548     cl_input.obj
 0002:0000054c       __real@4@4007b400000000000000 0046c54c     cl_input.obj
 0002:00000550       __real@4@4006b400000000000000 0046c550     cl_input.obj
 0002:00000558       __real@8@3ff7b400000000000000 0046c558     cl_input.obj
 0002:00000560       __real@4@4006b60b60b60b60b800 0046c560     cl_input.obj
 0002:00000564       __real@4@4008fa00000000000000 0046c564     cl_input.obj
 0002:00000568       __real@4@400abb80000000000000 0046c568     cl_main.obj
 0002:00000570       __real@8@4004e52ee0d31e0fc000 0046c570     cl_newfx.obj
 0002:00000578       __real@4@40078700000000000000 0046c578     cl_newfx.obj
 0002:0000057c       __real@4@c004a000000000000000 0046c57c     cl_newfx.obj
 0002:00000580       __real@4@4002a000000000000000 0046c580     cl_newfx.obj
 0002:00000588       __real@8@4000c000000000000000 0046c588     cl_newfx.obj
 0002:00000590       __real@4@40018000000000000000 0046c590     cl_newfx.obj
 0002:00000594       __real@4@c002a000000000000000 0046c594     cl_newfx.obj
 0002:00000598       __real@8@4001c90fdaa22168c000 0046c598     cl_newfx.obj
 0002:000005a0       __real@4@3ffda0d97bb4e7870000 0046c5a0     cl_newfx.obj
 0002:000005a4       __real@4@4006a000000000000000 0046c5a4     cl_newfx.obj
 0002:000005a8       __real@8@4005c000000000000000 0046c5a8     cl_newfx.obj
 0002:000005b0       __real@8@40048000000000000000 0046c5b0     cl_newfx.obj
 0002:000005b8       __real@4@bffe8000000000000000 0046c5b8     cl_newfx.obj
 0002:000005bc       __real@4@400b8000000000000000 0046c5bc     cl_newfx.obj
 0002:000005c0       __real@4@3ffdaaaaaaaaaaaaa800 0046c5c0     cl_newfx.obj
 0002:000005c8       __real@8@40028000000000000000 0046c5c8     cl_newfx.obj
 0002:000005d0       __real@8@4004b400000000000000 0046c5d0     cl_newfx.obj
 0002:000005d8       __real@8@3ff3f9a9342cdc676000 0046c5d8     cl_newfx.obj
 0002:000005e0       __real@8@4006c800000000000000 0046c5e0     cl_newfx.obj
 0002:000005e8       __real@4@4004b400000000000000 0046c5e8     cl_newfx.obj
 0002:000005f0       __real@8@bffdccccccccccccd000 0046c5f0     cl_newfx.obj
 0002:000005f8       __real@8@3ff98000000000000000 0046c5f8     cl_parse.obj
 0002:00000600       __real@4@4007fa00000000000000 0046c600     cl_pred.obj
 0002:00000608       __real@8@3ffc8000000000000000 0046c608     cl_pred.obj
 0002:00000610       __real@8@3ffdb333333333333000 0046c610     cl_scrn.obj
 0002:00000618       __real@8@4000b400000000000000 0046c618     cl_scrn.obj
 0002:00000620       __real@4@40079600000000000000 0046c620     cl_scrn.obj
 0002:00000624       __real@4@400fea60000000000000 0046c624     cl_scrn.obj
 0002:00000628       __real@4@3ffb8000000000000000 0046c628     cl_tent.obj
 0002:0000062c       __real@4@c0008000000000000000 0046c62c     cl_tent.obj
 0002:00000630       __real@8@4006b400000000000000 0046c630     cl_tent.obj
 0002:00000638       __real@8@4003a000000000000000 0046c638     cl_tent.obj
 0002:00000640       __real@4@40048c00000000000000 0046c640     cl_tent.obj
 0002:00000648       __real@8@4007b400000000000000 0046c648     cl_tent.obj
 0002:00000650       __real@8@c004e52ee0d31e0fc000 0046c650     cl_tent.obj
 0002:00000658       __real@4@4003b000000000000000 0046c658     cl_tent.obj
 0002:0000065c       __real@4@4000e000000000000000 0046c65c     cl_view.obj
 0002:00000660       __real@4@3ffd8000000000000000 0046c660     cl_view.obj
 0002:00000668       __real@8@3fffc000000000000000 0046c668     cl_view.obj
 0002:00000670       __real@8@3ffda2f9836e4e441800 0046c670     cl_view.obj
 0002:00000678       __real@4@4006b300000000000000 0046c678     cl_view.obj
 0002:00000680       __real@8@4000a0d97bb4e7870000 0046c680     cl_view.obj
 0002:00000688       __real@4@3ffd9999999999999800 0046c688     cl_view.obj
 0002:0000068c       __real@4@3ffdccccccccccccd000 0046c68c     cl_view.obj
 0002:00000690       __real@4@3ffe9999999999999800 0046c690     cl_view.obj
 0002:00000698       __real@8@40029000000000000000 0046c698     cl_view.obj
 0002:000006a0       __real@8@40019000000000000000 0046c6a0     cl_view.obj
 0002:000006a8       __real@4@3ffa8000000000000000 0046c6a8     cmodel.obj
 0002:000006ac       __real@4@3ffeb60b60b60b60b800 0046c6ac     common.obj
 0002:000006b0       __real@8@3fffb400000000000000 0046c6b0     common.obj
 0002:000006b8       __real@4@3ff08001000000000000 0046c6b8     common.obj
 0002:000006bc       __real@4@3ff18001000000000000 0046c6bc     common.obj
 0002:000006c0       __real@8@40018000000000000000 0046c6c0     common.obj
 0002:000006c8       _CLSID_DirectDraw          0046c6c8     in_win.obj
 0002:000006d8       _CLSID_DirectDrawClipper   0046c6d8     in_win.obj
 0002:000006e8       _IID_IDirectDraw           0046c6e8     in_win.obj
 0002:000006f8       _IID_IDirectDraw2          0046c6f8     in_win.obj
 0002:00000708       _IID_IDirectDrawSurface    0046c708     in_win.obj
 0002:00000718       _IID_IDirectDrawSurface2   0046c718     in_win.obj
 0002:00000728       _IID_IDirectDrawSurface3   0046c728     in_win.obj
 0002:00000738       _IID_IDirectDrawPalette    0046c738     in_win.obj
 0002:00000748       _IID_IDirectDrawClipper    0046c748     in_win.obj
 0002:00000758       _IID_IDirectDrawColorControl 0046c758     in_win.obj
 0002:00000768       _CLSID_DirectSound         0046c768     in_win.obj
 0002:00000778       _CLSID_DirectSoundCapture  0046c778     in_win.obj
 0002:00000788       _IID_IDirectSound          0046c788     in_win.obj
 0002:00000798       _IID_IDirectSoundBuffer    0046c798     in_win.obj
 0002:000007a8       _IID_IDirectSound3DListener 0046c7a8     in_win.obj
 0002:000007b8       _IID_IDirectSound3DBuffer  0046c7b8     in_win.obj
 0002:000007c8       _IID_IDirectSoundCapture   0046c7c8     in_win.obj
 0002:000007d8       _IID_IDirectSoundCaptureBuffer 0046c7d8     in_win.obj
 0002:000007e8       _IID_IDirectSoundNotify    0046c7e8     in_win.obj
 0002:000007f8       _IID_IKsPropertySet        0046c7f8     in_win.obj
 0002:00000808       _CLSID_DirectInput         0046c808     in_win.obj
 0002:00000818       _CLSID_DirectInputDevice   0046c818     in_win.obj
 0002:00000828       _IID_IDirectInputA         0046c828     in_win.obj
 0002:00000838       _IID_IDirectInputW         0046c838     in_win.obj
 0002:00000848       _IID_IDirectInput2A        0046c848     in_win.obj
 0002:00000858       _IID_IDirectInput2W        0046c858     in_win.obj
 0002:00000868       _IID_IDirectInputDeviceA   0046c868     in_win.obj
 0002:00000878       _IID_IDirectInputDeviceW   0046c878     in_win.obj
 0002:00000888       _IID_IDirectInputDevice2A  0046c888     in_win.obj
 0002:00000898       _IID_IDirectInputDevice2W  0046c898     in_win.obj
 0002:000008a8       _IID_IDirectInputEffect    0046c8a8     in_win.obj
 0002:000008b8       _GUID_XAxis                0046c8b8     in_win.obj
 0002:000008c8       _GUID_YAxis                0046c8c8     in_win.obj
 0002:000008d8       _GUID_ZAxis                0046c8d8     in_win.obj
 0002:000008e8       _GUID_RxAxis               0046c8e8     in_win.obj
 0002:000008f8       _GUID_RyAxis               0046c8f8     in_win.obj
 0002:00000908       _GUID_RzAxis               0046c908     in_win.obj
 0002:00000918       _GUID_Slider               0046c918     in_win.obj
 0002:00000928       _GUID_Button               0046c928     in_win.obj
 0002:00000938       _GUID_Key                  0046c938     in_win.obj
 0002:00000948       _GUID_POV                  0046c948     in_win.obj
 0002:00000958       _GUID_Unknown              0046c958     in_win.obj
 0002:00000968       _GUID_SysMouse             0046c968     in_win.obj
 0002:00000978       _GUID_SysKeyboard          0046c978     in_win.obj
 0002:00000988       _GUID_Joystick             0046c988     in_win.obj
 0002:00000998       _GUID_ConstantForce        0046c998     in_win.obj
 0002:000009a8       _GUID_RampForce            0046c9a8     in_win.obj
 0002:000009b8       _GUID_Square               0046c9b8     in_win.obj
 0002:000009c8       _GUID_Sine                 0046c9c8     in_win.obj
 0002:000009d8       _GUID_Triangle             0046c9d8     in_win.obj
 0002:000009e8       _GUID_SawtoothUp           0046c9e8     in_win.obj
 0002:000009f8       _GUID_SawtoothDown         0046c9f8     in_win.obj
 0002:00000a08       _GUID_Spring               0046ca08     in_win.obj
 0002:00000a18       _GUID_Damper               0046ca18     in_win.obj
 0002:00000a28       _GUID_Inertia              0046ca28     in_win.obj
 0002:00000a38       _GUID_Friction             0046ca38     in_win.obj
 0002:00000a48       _GUID_CustomForce          0046ca48     in_win.obj
 0002:00000a58       __real@4@3fffc000000000000000 0046ca58     in_win.obj
 0002:00000a60       __real@8@00000000000000000000 0046ca60     in_win.obj
 0002:00000a68       __real@8@3ff08000000000000000 0046ca68     in_win.obj
 0002:00000a70       __real@8@400e8000000000000000 0046ca70     in_win.obj
 0002:00000a78       __real@4@3ff9ccccccccccccd000 0046ca78     menu.obj
 0002:00000a80       __real@8@4005f000000000000000 0046ca80     menu.obj
 0002:00000a88       __real@8@3ff98efa351294e9c800 0046ca88     model.obj
 0002:00000a90       __real@4@3ff583126f0000000000 0046ca90     pmove.obj
 0002:00000a98       __real@8@3ffeb333333333333000 0046ca98     pmove.obj
 0002:00000aa0       __real@4@3fff8147ae147ae14800 0046caa0     pmove.obj
 0002:00000aa8       __real@8@bffbccccccccccccd000 0046caa8     pmove.obj
 0002:00000ab0       __real@4@4004f000000000000000 0046cab0     pmove.obj
 0002:00000ab4       __real@4@4004c800000000000000 0046cab4     pmove.obj
 0002:00000ab8       __real@4@c004c800000000000000 0046cab8     pmove.obj
 0002:00000abc       __real@4@c006c800000000000000 0046cabc     pmove.obj
 0002:00000ac0       __real@4@c0018000000000000000 0046cac0     pmove.obj
 0002:00000ac8       __real@8@4002f000000000000000 0046cac8     pmove.obj
 0002:00000ad0       __real@4@c007c800000000000000 0046cad0     pmove.obj
 0002:00000ad4       __real@4@c0079600000000000000 0046cad4     pmove.obj
 0002:00000ad8       __real@4@c0038000000000000000 0046cad8     pmove.obj
 0002:00000adc       __real@4@40078780000000000000 0046cadc     pmove.obj
 0002:00000ae0       __real@4@4006ff00000000000000 0046cae0     q_shared2.obj
 0002:00000ae8       __real@8@3ff7b60b60b60b60b800 0046cae8     q_shared2.obj
 0002:00000af0       __real@4@c006b400000000000000 0046caf0     q_shared2.obj
 0002:00000af4       __real@4@3ff7b400000000000000 0046caf4     q_shared2.obj
 0002:00000af8       __real@4@4006b60b610000000000 0046caf8     q_shared2.obj
 0002:00000afc       __real@4@c012f423f00000000000 0046cafc     q_shared2.obj
 0002:00000b00       __real@4@4012f423f00000000000 0046cb00     q_shared2.obj
 0002:00000b04       __real@4@40059000000000000000 0046cb04     qmenu.obj
 0002:00000b08       __real@8@3ff483126e978d4fe000 0046cb08     snd_dma.obj
 0002:00000b10       __real@4@3ff6c49ba5e353f7d000 0046cb10     snd_dma.obj
 0002:00000b14       __real@4@40078000000000000000 0046cb14     snd_mem.obj
 0002:00000b18       __real@8@40159c40000000000000 0046cb18     snd_mix.obj
 0002:00000b20       __real@4@4007c800000000000000 0046cb20     sv_ents.obj
 0002:00000b28       __real@8@3ffd828f5c28f5c29000 0046cb28     sv_send.obj
 0002:00000b30       __real@4@40049000000000000000 0046cb30     sv_world.obj
 0002:00000b34       __real@4@3ff58000000000000000 0046cb34     gl_backend.obj
 0002:00000b38       __real@4@3ff98000000000000000 0046cb38     gl_backend.obj
 0002:00000b40       __real@8@40098000000000000000 0046cb40     gl_backend.obj
 0002:00000b48       __real@8@3ffca2f9836e4e441800 0046cb48     gl_backend.obj
 0002:00000b50       __real@4@bff7b60b60b60b60b800 0046cb50     gl_backend.obj
 0002:00000b54       __real@4@3ff78000000000000000 0046cb54     gl_backend.obj
 0002:00000b58       __real@4@4007aaaaaaaaaaaaa800 0046cb58     gl_backend.obj
 0002:00000b5c       __real@4@3ff78080808080808000 0046cb5c     gl_backend.obj
 0002:00000b60       __real@4@3fff8800000000000000 0046cb60     gl_backend.obj
 0002:00000b64       __real@4@3ff683126e978d4fe000 0046cb64     gl_backend.obj
 0002:00000b68       __real@4@400ca404000000000000 0046cb68     gl_image.obj
 0002:00000b6c       __real@4@400ca400000000000000 0046cb6c     gl_image.obj
 0002:00000b70       __real@4@400c9804000000000000 0046cb70     gl_image.obj
 0002:00000b78       __real@8@4006ff00000000000000 0046cb78     gl_image.obj
 0002:00000b80       __real@4@400e855b000000000000 0046cb80     gl_interface.obj
 0002:00000b84       __real@4@3ff9f5c28f5c28f5c000 0046cb84     gl_interface.obj
 0002:00000b88       __real@8@4004a000000000000000 0046cb88     gl_light.obj
 0002:00000b90       __real@4@3ffeaaaaaaaaaaaaa800 0046cb90     gl_light.obj
 0002:00000b94       __real@4@c00d8000000000000000 0046cb94     gl_light.obj
 0002:00000b98       __real@8@3ff5b60b60b60b60b800 0046cb98     gl_main.obj
 0002:00000ba0       __real@8@3ff88efa351294e9c800 0046cba0     gl_main.obj
 0002:00000ba8       __real@4@3ff08001000200040000 0046cba8     gl_math.obj
 0002:00000bac       __real@4@3ff7ff01fe03fc07f800 0046cbac     gl_math.obj
 0002:00000bb0       __real@4@3ff68000000000000000 0046cbb0     gl_math.obj
 0002:00000bb8       __real@8@3ffdaaaaaaaaaaaaa800 0046cbb8     gl_model.obj
 0002:00000bc0       __real@4@3ffda8f5c30000000000 0046cbc0     gl_model.obj
 0002:00000bc4       __real@4@3ffab0c34c548fda0000 0046cbc4     gl_model.obj
 0002:00000bc8       __real@8@40038000000000000000 0046cbc8     gl_model.obj
 0002:00000bd0       __real@8@4001c000000000000000 0046cbd0     gl_model.obj
 0002:00000bd8       __real@8@4004a25689eadff5d000 0046cbd8     gl_model.obj
 0002:00000be0       __real@4@4008ffd99a0000000000 0046cbe0     gl_model.obj
 0002:00000be4       __real@4@4008ffdf5c0000000000 0046cbe4     gl_model.obj
 0002:00000be8       __real@8@bfffc90fdaa22168c000 0046cbe8     gl_model.obj
 0002:00000bf0       __real@8@3fffc90fdaa22168c000 0046cbf0     gl_model.obj
 0002:00000bf8       __real@8@3ff583126f0000000000 0046cbf8     gl_poly.obj
 0002:00000c00       __real@4@3ffea8f5c28f5c28f800 0046cc00     gl_shader.obj
 0002:00000c04       __real@4@3ffda8f5c28f5c28f800 0046cc04     gl_shader.obj
 0002:00000c08       __real@4@3ffce147ae147ae14800 0046cc08     gl_shader.obj
 0002:00000c0c       __real@4@c0028000000000000000 0046cc0c     gl_world.obj
 0002:00000c10       __real@4@400fc34f800000000000 0046cc10     gl_world.obj
 0002:00000c18       __real@8@4001a000000000000000 0046cc18     gl_world.obj
 0002:00000c20       __real@4@3ff5aaaaaaaaaaaaa800 0046cc20     gl_world.obj
 0002:00000c24       __real@4@4008c000000000000000 0046cc24     gl_world.obj
 0002:00000c28       __real@4@3ff797b425ed097b4000 0046cc28     gl_world.obj
 0002:00000c30       __real@8@400effff000000000000 0046cc30     glw_imp.obj
 0002:00000c38       __real@4@3fef8000400020001000 0046cc38     glw_imp.obj
 0002:00000c3c       __real@4@400e8000000000000000 0046cc3c     glw_imp.obj
 0002:00000c40       __real@8@3fffe666666666666800 0046cc40     glw_imp.obj
 0002:00000c48       __real@8@4005a9fba5e353f7d000 0046cc48     r_alias.obj
 0002:00000c50       __real@8@40069600000000000000 0046cc50     r_alias.obj
 0002:00000c58       __real@8@3ffea8f5c28f5c28f800 0046cc58     r_alias.obj
 0002:00000c60       __real@8@3ffda8f5c28f5c28f800 0046cc60     r_alias.obj
 0002:00000c68       __real@8@bff8a3d70a3d70a3d800 0046cc68     r_bsp.obj
 0002:00000c70       __real@8@4004ff99999999999800 0046cc70     r_draw.obj
 0002:00000c78       __real@8@4003ff33333333333000 0046cc78     r_draw.obj
 0002:00000c80       __real@8@3fff8147ae147ae14800 0046cc80     r_edge.obj
 0002:00000c88       __real@8@3ffefd70a3d70a3d7000 0046cc88     r_edge.obj
 0002:00000c90       __real@8@3feb8000000000000000 0046cc90     r_edge.obj
 0002:00000c98       __real@8@400f8000000000000000 0046cc98     r_edge.obj
 0002:00000ca0       __real@8@c0068000000000000000 0046cca0     r_edge.obj
 0002:00000ca8       __real@8@3ffec51eb851eb852000 0046cca8     r_edge.obj
 0002:00000cb0       __real@4@400f8000000000000000 0046ccb0     r_edge.obj
 0002:00000cb4       __real@4@3ff08000000000000000 0046ccb4     r_light.obj
 0002:00000cb8       __real@8@3ff78000000000000000 0046ccb8     r_light.obj
 0002:00000cc0       __real@4@400a8000000000000000 0046ccc0     r_light.obj
 0002:00000cc8       __real@8@40128000000000000000 0046ccc8     r_main.obj
 0002:00000cd0       __real@8@3ffac90fcf80dc337000 0046ccd0     r_main.obj
 0002:00000cd8       __real@8@3ff78040201008040000 0046ccd8     r_main.obj
 0002:00000ce0       __real@8@4004f000000000000000 0046cce0     r_main.obj
 0002:00000ce8       __real@8@3ff6ccccccccccccd000 0046cce8     r_misc.obj
 0002:00000cf0       __real@8@3ff8ccccccccccccd000 0046ccf0     r_misc.obj
 0002:00000cf8       __real@8@3ffdfae147ae147ae000 0046ccf8     r_model.obj
 0002:00000d00       __real@8@3ffda3d70a3d70a3d800 0046cd00     r_model.obj
 0002:00000d08       __real@4@3ffdaaaaab0000000000 0046cd08     r_part.obj
 0002:00000d0c       __real@4@401e8000000000000000 0046cd0c     r_poly.obj
 0002:00000d10       __real@4@c00f8000000000000000 0046cd10     r_poly.obj
 0002:00000d18       __real@8@40068000000000000000 0046cd18     r_poly.obj
 0002:00000d20       __real@4@4012f423fe6666666800 0046cd20     r_poly.obj
 0002:00000d24       __real@4@3ffe99999a0000000000 0046cd24     r_poly.obj
 0002:00000d28       __real@4@4012fffff00000000000 0046cd28     r_rast.obj
 0002:00000d2c       __real@4@40138000000000000000 0046cd2c     r_rast.obj
 0002:00001180       _inflate_copyright         0046d180     inftrees.obj
 0002:00001458       __real@4@400d8001000000000000 0046d458     jcdctmgr.obj
 0002:00001a50       __real@4@3fffa73d750000000000 0046da50     jfdctflt.obj
 0002:00001a54       __real@4@3ffe8a8bd40000000000 0046da54     jfdctflt.obj
 0002:00001a58       __real@4@3ffdc3ef150000000000 0046da58     jfdctflt.obj
 0002:00001a5c       __real@4@3ffeb504f30000000000 0046da5c     jfdctflt.obj
 0002:00001a60       __real@4@3fff8a8bd40000000000 0046da60     jidctflt.obj
 0002:00001a64       __real@4@4000a73d750000000000 0046da64     jidctflt.obj
 0002:00001a68       __real@4@3fffec835e0000000000 0046da68     jidctflt.obj
 0002:00001a6c       __real@4@3fffb504f30000000000 0046da6c     jidctflt.obj
 0002:00001b8c       _jpeg_natural_order        0046db8c     jutils.obj
 0002:00001cd0       _c_dfDIMouse               0046dcd0     dinput:dilib1.obj
 0002:00001cf4       __IMPORT_DESCRIPTOR_WINMM  0046dcf4     winmm:WINMM.dll
 0002:00001d08       __IMPORT_DESCRIPTOR_WSOCK32 0046dd08     wsock32:WSOCK32.dll
 0002:00001d1c       __IMPORT_DESCRIPTOR_KERNEL32 0046dd1c     kernel32:KERNEL32.dll
 0002:00001d30       __IMPORT_DESCRIPTOR_USER32 0046dd30     user32:USER32.dll
 0002:00001d44       __IMPORT_DESCRIPTOR_GDI32  0046dd44     gdi32:GDI32.dll
 0002:00001d58       __IMPORT_DESCRIPTOR_MSVCRT 0046dd58     MSVCRT:MSVCRT.dll
 0002:00001d6c       __NULL_IMPORT_DESCRIPTOR   0046dd6c     winmm:WINMM.dll
 0003:00000000       ___xc_a                    0046f000     MSVCRT:cinitexe.obj
 0003:00000004       ___xc_z                    0046f004     MSVCRT:cinitexe.obj
 0003:00000008       ___xi_a                    0046f008     MSVCRT:cinitexe.obj
 0003:0000000c       ___xi_z                    0046f00c     MSVCRT:cinitexe.obj
 0003:00000040       ??_C@_02PIFG@11?$AA@       0046f040     cd_win.obj
 0003:00000044       ??_C@_0N@CMBO@cd_looptrack?$AA@ 0046f044     cd_win.obj
 0003:00000054       ??_C@_01FBMM@4?$AA@        0046f054     cd_win.obj
 0003:00000058       ??_C@_0N@LJFD@cd_loopcount?$AA@ 0046f058     cd_win.obj
 0003:00000068       ??_C@_01PLJA@0?$AA@        0046f068     cd_win.obj
 0003:0000006c       ??_C@_07BPFK@cd_nocd?$AA@  0046f06c     cd_win.obj
 0003:00000074       ??_C@_0BP@IAAN@CDAudio?3?5MCI_PLAY?5failed?5?$CI?$CFi?$CJ?6?$AA@ 0046f074     cd_win.obj
 0003:00000094       ??_C@_0CA@JLLD@CDAudio?3?5track?5?$CFi?5is?5not?5audio?6?$AA@ 0046f094     cd_win.obj
 0003:000000b4       ??_C@_0BI@DDPM@MCI_STATUS?5failed?5?$CI?$CFi?$CJ?6?$AA@ 0046f0b4     cd_win.obj
 0003:000000cc       ??_C@_0BK@FODH@CDAudio?3?5no?5music?5tracks?6?$AA@ 0046f0cc     cd_win.obj
 0003:000000e8       ??_C@_0CF@NJAE@CDAudio?3?5get?5tracks?5?9?5status?5fai@ 0046f0e8     cd_win.obj
 0003:00000110       ??_C@_0BK@EBGL@CDAudio?3?5drive?5not?5ready?6?$AA@ 0046f110     cd_win.obj
 0003:0000012c       ??_C@_0CP@CDKN@CDAudio?3?5drive?5ready?5test?5?9?5get?5@ 0046f12c     cd_win.obj
 0003:0000015c       ??_C@_0BF@GBBG@MCI_STOP?5failed?5?$CI?$CFi?$CJ?$AA@ 0046f15c     cd_win.obj
 0003:00000174       ??_C@_0BG@OOII@MCI_PAUSE?5failed?5?$CI?$CFi?$CJ?$AA@ 0046f174     cd_win.obj
 0003:0000018c       ??_C@_0BE@KLKE@MCI_NOTIFY_FAILURE?6?$AA@ 0046f18c     cd_win.obj
 0003:000001a0       ??_C@_0CD@KMGL@Unexpected?5MM_MCINOTIFY?5type?5?$CI?$CFi@ 0046f1a0     cd_win.obj
 0003:000001c4       ??_C@_0BG@ONJF@CD?5Audio?5Initialized?6?$AA@ 0046f1c4     cd_win.obj
 0003:000001dc       ??_C@_02BJHE@cd?$AA@       0046f1dc     cd_win.obj
 0003:000001e0       ??_C@_0CB@HHAK@MCI_SET_TIME_FORMAT?5failed?5?$CI?$CFi?$CJ?6@ 0046f1e0     cd_win.obj
 0003:00000204       ??_C@_0CE@KOHC@CDAudio_Init?3?5MCI_OPEN?5failed?5?$CI?$CF@ 0046f204     cd_win.obj
 0003:00000228       ??_C@_07JNJJ@cdaudio?$AA@  0046f228     cd_win.obj
 0003:00000230       ??_C@_0BE@IFNH@Paused?5?$CFs?5track?5?$CFu?6?$AA@ 0046f230     cd_win.obj
 0003:00000244       ??_C@_0BH@DJIN@Currently?5?$CFs?5track?5?$CFu?6?$AA@ 0046f244     cd_win.obj
 0003:0000025c       ??_C@_07KKLA@playing?$AA@  0046f25c     cd_win.obj
 0003:00000264       ??_C@_07PNMG@looping?$AA@  0046f264     cd_win.obj
 0003:0000026c       ??_C@_0L@ECAH@?$CFu?5tracks?6?$AA@ 0046f26c     cd_win.obj
 0003:00000278       ??_C@_04LEMN@info?$AA@     0046f278     cd_win.obj
 0003:00000280       ??_C@_05NOIK@eject?$AA@    0046f280     cd_win.obj
 0003:00000288       ??_C@_06MJAA@resume?$AA@   0046f288     cd_win.obj
 0003:00000290       ??_C@_05PBCN@pause?$AA@    0046f290     cd_win.obj
 0003:00000298       ??_C@_04JPPJ@stop?$AA@     0046f298     cd_win.obj
 0003:000002a0       ??_C@_04FNBC@loop?$AA@     0046f2a0     cd_win.obj
 0003:000002a8       ??_C@_04HNFE@play?$AA@     0046f2a8     cd_win.obj
 0003:000002b0       ??_C@_0BC@KKKC@No?5CD?5in?5player?4?6?$AA@ 0046f2b0     cd_win.obj
 0003:000002c4       ??_C@_05JMGP@close?$AA@    0046f2c4     cd_win.obj
 0003:000002cc       ??_C@_0M@KKFO@?5?5?$CFu?5?9?$DO?5?$CFu?6?$AA@ 0046f2cc     cd_win.obj
 0003:000002d8       ??_C@_05HLLH@remap?$AA@    0046f2d8     cd_win.obj
 0003:000002e0       ??_C@_05NGOJ@reset?$AA@    0046f2e0     cd_win.obj
 0003:000002e8       ??_C@_03OJPB@off?$AA@      0046f2e8     cd_win.obj
 0003:000002ec       ??_C@_02PHBM@on?$AA@       0046f2ec     cd_win.obj
 0003:000002f0       ??_C@_0BP@KBID@MCI_SET_DOOR_OPEN?5failed?5?$CI?$CFi?$CJ?6?$AA@ 0046f2f0     cd_win.obj
 0003:00000310       ??_C@_0CB@HHPB@MCI_SET_DOOR_CLOSED?5failed?5?$CI?$CFi?$CJ?6@ 0046f310     cd_win.obj
 0003:00000334       ??_C@_0CE@HFAL@CDAudio_Shutdown?3?5MCI_CLOSE?5fail@ 0046f334     cd_win.obj
 0003:00000358       ??_C@_0P@FHKN@nextserver?5?$CFi?6?$AA@ 0046f358     cl_cin.obj
 0003:00000368       ??_C@_0BK@CNCG@Bad?5compressed?5frame?5size?$AA@ 0046f368     cl_cin.obj
 0003:00000384       ??_C@_0BN@GLIN@Decompression?5overread?5by?5?$CFd?$AA@ 0046f384     cl_cin.obj
 0003:000003a4       ??_C@_0BI@OCGK@Dropped?5frame?3?5?$CFd?5?$DO?5?$CFd?6?$AA@ 0046f3a4     cl_cin.obj
 0003:000003bc       ??_C@_05KNK@s_khz?$AA@     0046f3bc     cl_cin.obj
 0003:000003c4       ??_C@_08MMAN@video?1?$CFs?$AA@ 0046f3c4     cl_cin.obj
 0003:000003d0       ??_C@_0P@ECEO@?$CFs?5not?5found?4?6?$AA@ 0046f3d0     cl_cin.obj
 0003:000003e0       ??_C@_04LCGE@?4tga?$AA@    0046f3e0     cl_cin.obj
 0003:000003e8       ??_C@_04BLEC@?4jpg?$AA@    0046f3e8     cl_cin.obj
 0003:000003f0       ??_C@_04PHML@?4pcx?$AA@    0046f3f0     cl_cin.obj
 0003:00000428       ??_C@_0BB@GIOP@?5?5?5baseline?3?5?$CFd?6?$AA@ 0046f428     cl_ents.obj
 0003:0000043c       ??_C@_0O@HFOL@?5?5?5delta?3?5?$CFd?6?$AA@ 0046f43c     cl_ents.obj
 0003:0000044c       ??_C@_0BM@JPAC@U_REMOVE?3?5oldnum?5?$CB?$DN?5newnum?6?$AA@ 0046f44c     cl_ents.obj
 0003:00000468       ??_C@_0P@OPIO@?5?5?5remove?3?5?$CFd?6?$AA@ 0046f468     cl_ents.obj
 0003:00000478       ??_C@_0BC@NCCI@?5?5?5unchanged?3?5?$CFd?6?$AA@ 0046f478     cl_ents.obj
 0003:0000048c       ??_C@_0CH@CHFO@CL_ParsePacketEntities?3?5end?5of?5m@ 0046f48c     cl_ents.obj
 0003:000004b4       ??_C@_0CH@IKH@CL_ParsePacketEntities?3?5bad?5numb@ 0046f4b4     cl_ents.obj
 0003:000004dc       ??_C@_0CC@PCKK@CL_ParseFrame?3?5not?5packetentitie@ 0046f4dc     cl_ents.obj
 0003:00000500       ??_C@_0BO@OOHG@CL_ParseFrame?3?5not?5playerinfo?$AA@ 0046f500     cl_ents.obj
 0003:00000520       ??_C@_07HDAD@?$CF3d?3?$CFs?6?$AA@ 0046f520     cl_ents.obj
 0003:00000528       ??_C@_0BP@NGAC@Delta?5parse_entities?5too?5old?4?6?$AA@ 0046f528     cl_ents.obj
 0003:00000548       ??_C@_0BG@OFIJ@Delta?5frame?5too?5old?4?6?$AA@ 0046f548     cl_ents.obj
 0003:00000560       ??_C@_0DF@HHME@Delta?5from?5invalid?5frame?5?$CInot?5su@ 0046f560     cl_ents.obj
 0003:00000598       ??_C@_0BH@PDM@?5?5?5frame?3?$CFi?5?5delta?3?$CFi?6?$AA@ 0046f598     cl_ents.obj
 0003:000005b0       ??_C@_0BI@JBNJ@players?1male?1weapon?4md2?$AA@ 0046f5b0     cl_ents.obj
 0003:000005c8       ??_C@_0BG@NPF@players?1?$CFs?1weapon?4md2?$AA@ 0046f5c8     cl_ents.obj
 0003:000005e0       ??_C@_0O@MGPF@players?1?$CFs?1?$CFs?$AA@ 0046f5e0     cl_ents.obj
 0003:000005f0       ??_C@_04JGMG@male?$AA@     0046f5f0     cl_ents.obj
 0003:000005f8       ??_C@_0O@BPNL@low?5clamp?5?$CFi?6?$AA@ 0046f5f8     cl_ents.obj
 0003:00000608       ??_C@_0P@BBIF@high?5clamp?5?$CFi?6?$AA@ 0046f608     cl_ents.obj
 0003:00000618       ??_C@_0BM@CAHA@models?1items?1shell?1tris?4md2?$AA@ 0046f618     cl_ents.obj
 0003:00000634       ??_C@_0BI@NKGA@players?1cyborg?1tris?4md2?$AA@ 0046f634     cl_ents.obj
 0003:0000064c       ??_C@_0BM@KEMI@players?1cyborg?1disguise?4pcx?$AA@ 0046f64c     cl_ents.obj
 0003:00000668       ??_C@_0P@BODN@players?1cyborg?$AA@ 0046f668     cl_ents.obj
 0003:00000678       ??_C@_0BI@DGPK@players?1female?1tris?4md2?$AA@ 0046f678     cl_ents.obj
 0003:00000690       ??_C@_0BM@FCKM@players?1female?1disguise?4pcx?$AA@ 0046f690     cl_ents.obj
 0003:000006ac       ??_C@_0P@PDH@players?1female?$AA@ 0046f6ac     cl_ents.obj
 0003:000006bc       ??_C@_0BG@EKNO@players?1male?1tris?4md2?$AA@ 0046f6bc     cl_ents.obj
 0003:000006d4       ??_C@_0BK@POLB@players?1male?1disguise?4pcx?$AA@ 0046f6d4     cl_ents.obj
 0003:000006f0       ??_C@_0N@NDJC@players?1male?$AA@ 0046f6f0     cl_ents.obj
 0003:00000700       ??_C@_0CB@CNO@CL_GetEntitySoundOrigin?3?5bad?5ent@ 0046f700     cl_ents.obj
 0003:00000734       ??_C@_0BJ@OFEO@aaaaaaaaaaaaaaaazzzzzzzz?$AA@ 0046f734     cl_fx.obj
 0003:00000750       ??_C@_0BJ@CMIG@aaaaaaaazzzzzzzzaaaaaaaa?$AA@ 0046f750     cl_fx.obj
 0003:0000076c       ??_C@_0BJ@OAFP@zzzzzzzzaaaaaaaaaaaaaaaa?$AA@ 0046f76c     cl_fx.obj
 0003:00000788       ??_C@_0BB@EEPB@zzzzzzzzaaaaaaaa?$AA@ 0046f788     cl_fx.obj
 0003:0000079c       ??_C@_0CC@LDEI@mmmmnonmmmmnmmmmmnonmmmmmnmmmmmm@ 0046f79c     cl_fx.obj
 0003:000007c0       ??_C@_0CB@KHEF@mmnnoonnmmmmmmmmmnmmmmnonmmmmmmm@ 0046f7c0     cl_fx.obj
 0003:000007e4       ??_C@_0BP@NKDG@kmmmakakmmaaamammamkmamakmmmma?$AA@ 0046f7e4     cl_fx.obj
 0003:00000804       ??_C@_0BN@JIKL@kmamaamakmmmaakmamakmakmmmma?$AA@ 0046f804     cl_fx.obj
 0003:00000824       ??_C@_0BL@DCOL@mmnommomhkmmomnonmmonqnmmo?$AA@ 0046f824     cl_fx.obj
 0003:00000840       ??_C@_0BH@NBBL@Lightstyle?5length?5?$DN?5?$CFd?$AA@ 0046f840     cl_fx.obj
 0003:00000858       ??_C@_0BF@ICG@weapons?1blastf1a?4wav?$AA@ 0046f858     cl_fx.obj
 0003:00000870       ??_C@_0BE@GKPM@weapons?1disint2?4wav?$AA@ 0046f870     cl_fx.obj
 0003:00000884       ??_C@_0BF@NHEL@weapons?1hyprbf1a?4wav?$AA@ 0046f884     cl_fx.obj
 0003:0000089c       ??_C@_0BF@FKIN@weapons?1rippfire?4wav?$AA@ 0046f89c     cl_fx.obj
 0003:000008b4       ??_C@_0BF@KGGN@weapons?1plasshot?4wav?$AA@ 0046f8b4     cl_fx.obj
 0003:000008cc       ??_C@_0BC@GLHK@weapons?1nail1?4wav?$AA@ 0046f8cc     cl_fx.obj
 0003:000008e0       ??_C@_0BD@DJAL@weapons?1shotg2?4wav?$AA@ 0046f8e0     cl_fx.obj
 0003:000008f4       ??_C@_0BF@PMBF@weapons?1sshotf1b?4wav?$AA@ 0046f8f4     cl_fx.obj
 0003:0000090c       ??_C@_0BF@GEAE@weapons?1bfg__f1y?4wav?$AA@ 0046f90c     cl_fx.obj
 0003:00000924       ??_C@_0BF@ODJI@weapons?1grenlr1b?4wav?$AA@ 0046f924     cl_fx.obj
 0003:0000093c       ??_C@_0BF@FAPL@weapons?1grenlf1a?4wav?$AA@ 0046f93c     cl_fx.obj
 0003:00000954       ??_C@_0BF@LAKH@weapons?1rocklr1b?4wav?$AA@ 0046f954     cl_fx.obj
 0003:0000096c       ??_C@_0BF@DME@weapons?1rocklf1a?4wav?$AA@ 0046f96c     cl_fx.obj
 0003:00000984       ??_C@_0BF@JPPD@weapons?1railgf1a?4wav?$AA@ 0046f984     cl_fx.obj
 0003:0000099c       ??_C@_0BF@OJMF@weapons?1shotgr1b?4wav?$AA@ 0046f99c     cl_fx.obj
 0003:000009b4       ??_C@_0BF@LKMJ@weapons?1shotgf1b?4wav?$AA@ 0046f9b4     cl_fx.obj
 0003:000009cc       ??_C@_0BG@GNAE@weapons?1machgf?$CFib?4wav?$AA@ 0046f9cc     cl_fx.obj
 0003:000009e4       ??_C@_0CA@DHIG@CL_ParseMuzzleFlash?3?5bad?5entity?$AA@ 0046f9e4     cl_fx.obj
 0003:00000a04       ??_C@_0BA@OGNC@boss3?1xfire?4wav?$AA@ 0046fa04     cl_fx.obj
 0003:00000a14       ??_C@_0BD@NNP@makron?1blaster?4wav?$AA@ 0046fa14     cl_fx.obj
 0003:00000a28       ??_C@_0BE@FGKE@gunner?1gunatck3?4wav?$AA@ 0046fa28     cl_fx.obj
 0003:00000a3c       ??_C@_0BA@GCOI@tank?1rocket?4wav?$AA@ 0046fa3c     cl_fx.obj
 0003:00000a4c       ??_C@_0BC@HLMH@tank?1tnkatck1?4wav?$AA@ 0046fa4c     cl_fx.obj
 0003:00000a60       ??_C@_0BD@CGIG@chick?1chkatck2?4wav?$AA@ 0046fa60     cl_fx.obj
 0003:00000a74       ??_C@_0BD@FLOM@tank?1tnkatk2?$CFc?4wav?$AA@ 0046fa74     cl_fx.obj
 0003:00000a88       ??_C@_0BC@DLIN@tank?1tnkatck3?4wav?$AA@ 0046fa88     cl_fx.obj
 0003:00000a9c       ??_C@_0BF@ILOJ@soldier?1solatck1?4wav?$AA@ 0046fa9c     cl_fx.obj
 0003:00000ab4       ??_C@_0BF@ONDD@floater?1fltatck1?4wav?$AA@ 0046fab4     cl_fx.obj
 0003:00000acc       ??_C@_0BD@DKPH@hover?1hovatck1?4wav?$AA@ 0046facc     cl_fx.obj
 0003:00000ae0       ??_C@_0BD@GMHE@medic?1medatck1?4wav?$AA@ 0046fae0     cl_fx.obj
 0003:00000af4       ??_C@_0BD@LDPI@flyer?1flyatck3?4wav?$AA@ 0046faf4     cl_fx.obj
 0003:00000b08       ??_C@_0BF@GLIG@soldier?1solatck2?4wav?$AA@ 0046fb08     cl_fx.obj
 0003:00000b20       ??_C@_0BE@PGIB@gunner?1gunatck2?4wav?$AA@ 0046fb20     cl_fx.obj
 0003:00000b34       ??_C@_0BF@MLKD@soldier?1solatck3?4wav?$AA@ 0046fb34     cl_fx.obj
 0003:00000b4c       ??_C@_0BG@JHIL@infantry?1infatck1?4wav?$AA@ 0046fb4c     cl_fx.obj
 0003:00000b64       ??_C@_0CB@HIMD@CL_ParseMuzzleFlash2?3?5bad?5entity@ 0046fb64     cl_fx.obj
 0003:00000b88       ??_C@_0BD@NMFF@items?1respawn1?4wav?$AA@ 0046fb88     cl_fx.obj
 0003:00000b9c       ??_C@_0BB@IJGC@player?1land1?4wav?$AA@ 0046fb9c     cl_fx.obj
 0003:00000bb0       ??_C@_0L@JOBD@?$CKfall2?4wav?$AA@ 0046fbb0     cl_fx.obj
 0003:00000bbc       ??_C@_0L@HOHM@?$CKfall1?4wav?$AA@ 0046fbbc     cl_fx.obj
 0003:00000bc8       ??_C@_0P@IFGP@misc?1tele1?4wav?$AA@ 0046fbc8     cl_fx.obj
 0003:00000bd8       ??_C@_0BP@GHEI@Three?5keys?5down?5for?5a?5button?$CB?6?$AA@ 0046fbd8     cl_input.obj
 0003:00000bf8       ??_C@_0L@NLAG@cl_nodelta?$AA@ 0046fbf8     cl_input.obj
 0003:00000c04       ??_C@_06GJPN@?9klook?$AA@  0046fc04     cl_input.obj
 0003:00000c0c       ??_C@_06BEDN@?$CLklook?$AA@ 0046fc0c     cl_input.obj
 0003:00000c14       ??_C@_07ENEF@impulse?$AA@  0046fc14     cl_input.obj
 0003:00000c1c       ??_C@_04BFNL@?9use?$AA@    0046fc1c     cl_input.obj
 0003:00000c24       ??_C@_04MKDH@?$CLuse?$AA@  0046fc24     cl_input.obj
 0003:00000c2c       ??_C@_07EHKH@?9attack?$AA@ 0046fc2c     cl_input.obj
 0003:00000c34       ??_C@_07KANK@?$CLattack?$AA@ 0046fc34     cl_input.obj
 0003:00000c3c       ??_C@_06CNLP@?9speed?$AA@  0046fc3c     cl_input.obj
 0003:00000c44       ??_C@_06FAHP@?$CLspeed?$AA@ 0046fc44     cl_input.obj
 0003:00000c4c       ??_C@_0L@BMPO@?9moveright?$AA@ 0046fc4c     cl_input.obj
 0003:00000c58       ??_C@_0L@DMHD@?$CLmoveright?$AA@ 0046fc58     cl_input.obj
 0003:00000c64       ??_C@_09MLIL@?9moveleft?$AA@ 0046fc64     cl_input.obj
 0003:00000c70       ??_C@_09EGDL@?$CLmoveleft?$AA@ 0046fc70     cl_input.obj
 0003:00000c7c       ??_C@_07OMD@?9strafe?$AA@  0046fc7c     cl_input.obj
 0003:00000c84       ??_C@_07OJLO@?$CLstrafe?$AA@ 0046fc84     cl_input.obj
 0003:00000c8c       ??_C@_09OKBO@?9lookdown?$AA@ 0046fc8c     cl_input.obj
 0003:00000c98       ??_C@_09GHKO@?$CLlookdown?$AA@ 0046fc98     cl_input.obj
 0003:00000ca4       ??_C@_07PBGO@?9lookup?$AA@ 0046fca4     cl_input.obj
 0003:00000cac       ??_C@_07BGBD@?$CLlookup?$AA@ 0046fcac     cl_input.obj
 0003:00000cb4       ??_C@_05BMBD@?9back?$AA@   0046fcb4     cl_input.obj
 0003:00000cbc       ??_C@_05NMMM@?$CLback?$AA@ 0046fcbc     cl_input.obj
 0003:00000cc4       ??_C@_08MLFI@?9forward?$AA@ 0046fcc4     cl_input.obj
 0003:00000cd0       ??_C@_08HLLP@?$CLforward?$AA@ 0046fcd0     cl_input.obj
 0003:00000cdc       ??_C@_06CDHA@?9right?$AA@  0046fcdc     cl_input.obj
 0003:00000ce4       ??_C@_06FOLA@?$CLright?$AA@ 0046fce4     cl_input.obj
 0003:00000cec       ??_C@_05EFBI@?9left?$AA@   0046fcec     cl_input.obj
 0003:00000cf4       ??_C@_05IFMH@?$CLleft?$AA@ 0046fcf4     cl_input.obj
 0003:00000cfc       ??_C@_09BGG@?9movedown?$AA@ 0046fcfc     cl_input.obj
 0003:00000d08       ??_C@_09IMNG@?$CLmovedown?$AA@ 0046fd08     cl_input.obj
 0003:00000d14       ??_C@_07ECOP@?9moveup?$AA@ 0046fd14     cl_input.obj
 0003:00000d1c       ??_C@_07KFJC@?$CLmoveup?$AA@ 0046fd1c     cl_input.obj
 0003:00000d24       ??_C@_0L@EKJH@centerview?$AA@ 0046fd24     cl_input.obj
 0003:00000d30       ??_C@_0L@DEDD@?$CF6s?5?$CF3i?5?$CFs?$AA@ 0046fd30     cl_inv.obj
 0003:00000d3c       ??_C@_06JOFI@use?5?$CFs?$AA@ 0046fd3c     cl_inv.obj
 0003:00000d44       ??_C@_0BA@DCGD@?9?9?9?9?9?9?5?9?9?9?5?9?9?9?9?$AA@ 0046fd44     cl_inv.obj
 0003:00000d54       ??_C@_0BA@OMPJ@hotkey?5?$CD?$CD?$CD?5item?$AA@ 0046fd54     cl_inv.obj
 0003:00000d64       ??_C@_09BBEP@inventory?$AA@ 0046fd64     cl_inv.obj
 0003:00001168       ??_C@_0M@DJKI@r_sfx_pause?$AA@ 00470168     cl_main.obj
 0003:00001174       ??_C@_09IKEH@cl_draw2d?$AA@ 00470174     cl_main.obj
 0003:00001180       ??_C@_08MAAL@cl_newfx?$AA@ 00470180     cl_main.obj
 0003:0000118c       ??_C@_0P@KDIF@cl_extProtocol?$AA@ 0047018c     cl_main.obj
 0003:0000119c       ??_C@_02FCMB@10?$AA@       0047019c     cl_main.obj
 0003:000011a0       ??_C@_0BA@EGNO@cl_cameraheight?$AA@ 004701a0     cl_main.obj
 0003:000011b0       ??_C@_02PBDP@80?$AA@       004701b0     cl_main.obj
 0003:000011b4       ??_C@_0O@KBJJ@cl_cameradist?$AA@ 004701b4     cl_main.obj
 0003:000011c4       ??_C@_0O@MNBM@cl_3rd_person?$AA@ 004701c4     cl_main.obj
 0003:000011d4       ??_C@_07IOG@cl_vwep?$AA@   004701d4     cl_main.obj
 0003:000011dc       ??_C@_0M@PEB@gender_auto?$AA@ 004701dc     cl_main.obj
 0003:000011e8       ??_C@_06KFDE@gender?$AA@   004701e8     cl_main.obj
 0003:000011f0       ??_C@_03CBNM@fov?$AA@      004701f0     cl_main.obj
 0003:000011f4       ??_C@_04KBBO@hand?$AA@     004701f4     cl_main.obj
 0003:000011fc       ??_C@_03MBOC@msg?$AA@      004701fc     cl_main.obj
 0003:00001200       ??_C@_05COBI@25000?$AA@    00470200     cl_main.obj
 0003:00001208       ??_C@_04MMDE@rate?$AA@     00470208     cl_main.obj
 0003:00001210       ??_C@_0L@JLMI@male?1grunt?$AA@ 00470210     cl_main.obj
 0003:0000121c       ??_C@_04OFAC@skin?$AA@     0047021c     cl_main.obj
 0003:00001224       ??_C@_07DCBK@unnamed?$AA@  00470224     cl_main.obj
 0003:0000122c       ??_C@_04OPJK@name?$AA@     0047022c     cl_main.obj
 0003:00001234       ??_C@_09OOFE@spectator?$AA@ 00470234     cl_main.obj
 0003:00001240       ??_C@_08NPHI@password?$AA@ 00470240     cl_main.obj
 0003:0000124c       ??_C@_0N@EPAJ@rcon_address?$AA@ 0047024c     cl_main.obj
 0003:0000125c       ??_C@_0O@OCNK@rcon_password?$AA@ 0047025c     cl_main.obj
 0003:0000126c       ??_C@_08NIMA@timedemo?$AA@ 0047026c     cl_main.obj
 0003:00001278       ??_C@_06EOIN@paused?$AA@   00470278     cl_main.obj
 0003:00001280       ??_C@_03FIJH@120?$AA@      00470280     cl_main.obj
 0003:00001284       ??_C@_0L@IODP@cl_timeout?$AA@ 00470284     cl_main.obj
 0003:00001290       ??_C@_09LDLF@showclamp?$AA@ 00470290     cl_main.obj
 0003:0000129c       ??_C@_0M@CABA@cl_showmiss?$AA@ 0047029c     cl_main.obj
 0003:000012a8       ??_C@_0L@LFAH@cl_shownet?$AA@ 004702a8     cl_main.obj
 0003:000012b4       ??_C@_06MLIH@m_side?$AA@   004702b4     cl_main.obj
 0003:000012bc       ??_C@_09NFLM@m_forward?$AA@ 004702bc     cl_main.obj
 0003:000012c8       ??_C@_05LLLA@m_yaw?$AA@    004702c8     cl_main.obj
 0003:000012d0       ??_C@_05GGO@0?4022?$AA@    004702d0     cl_main.obj
 0003:000012d8       ??_C@_07FHKJ@m_pitch?$AA@  004702d8     cl_main.obj
 0003:000012e0       ??_C@_01ECJ@3?$AA@         004702e0     cl_main.obj
 0003:000012e4       ??_C@_0M@CKB@sensitivity?$AA@ 004702e4     cl_main.obj
 0003:000012f0       ??_C@_0L@DEGL@lookstrafe?$AA@ 004702f0     cl_main.obj
 0003:000012fc       ??_C@_0L@MEDB@lookspring?$AA@ 004702fc     cl_main.obj
 0003:00001308       ??_C@_08BADN@freelook?$AA@ 00470308     cl_main.obj
 0003:00001314       ??_C@_06HIKK@cl_run?$AA@   00470314     cl_main.obj
 0003:0000131c       ??_C@_03NNAL@1?45?$AA@     0047031c     cl_main.obj
 0003:00001320       ??_C@_0BB@MHNK@cl_anglespeedkey?$AA@ 00470320     cl_main.obj
 0003:00001334       ??_C@_03DJMC@150?$AA@      00470334     cl_main.obj
 0003:00001338       ??_C@_0O@IBII@cl_pitchspeed?$AA@ 00470338     cl_main.obj
 0003:00001348       ??_C@_03CPGI@140?$AA@      00470348     cl_main.obj
 0003:0000134c       ??_C@_0M@CKBA@cl_yawspeed?$AA@ 0047034c     cl_main.obj
 0003:00001358       ??_C@_0N@DLCL@cl_sidespeed?$AA@ 00470358     cl_main.obj
 0003:00001368       ??_C@_0BA@GNDE@cl_forwardspeed?$AA@ 00470368     cl_main.obj
 0003:00001378       ??_C@_03IDPJ@200?$AA@      00470378     cl_main.obj
 0003:0000137c       ??_C@_0L@BDND@cl_upspeed?$AA@ 0047037c     cl_main.obj
 0003:00001388       ??_C@_02OHJF@90?$AA@       00470388     cl_main.obj
 0003:0000138c       ??_C@_09CCG@cl_maxfps?$AA@ 0047038c     cl_main.obj
 0003:00001398       ??_C@_0L@KIND@cl_predict?$AA@ 00470398     cl_main.obj
 0003:000013a4       ??_C@_0N@KNJD@cl_autoskins?$AA@ 004703a4     cl_main.obj
 0003:000013b4       ??_C@_0L@FIGP@cl_noskins?$AA@ 004703b4     cl_main.obj
 0003:000013c0       ??_C@_0N@ODOD@cl_footsteps?$AA@ 004703c0     cl_main.obj
 0003:000013d0       ??_C@_06EDIM@cl_gun?$AA@   004703d0     cl_main.obj
 0003:000013d8       ??_C@_0M@DIJF@cl_entities?$AA@ 004703d8     cl_main.obj
 0003:000013e4       ??_C@_0N@LKNG@cl_particles?$AA@ 004703e4     cl_main.obj
 0003:000013f4       ??_C@_09DFML@cl_lights?$AA@ 004703f4     cl_main.obj
 0003:00001400       ??_C@_01FBAH@1?$AA@        00470400     cl_main.obj
 0003:00001404       ??_C@_08CJPB@cl_blend?$AA@ 00470404     cl_main.obj
 0003:00001410       ??_C@_09HNKG@cl_stereo?$AA@ 00470410     cl_main.obj
 0003:0000141c       ??_C@_03CFIK@0?44?$AA@     0047041c     cl_main.obj
 0003:00001420       ??_C@_0BF@ONEP@cl_stereo_separation?$AA@ 00470420     cl_main.obj
 0003:00001438       ??_C@_04MDJD@adr8?$AA@     00470438     cl_main.obj
 0003:00001440       ??_C@_04MCMO@adr7?$AA@     00470440     cl_main.obj
 0003:00001448       ??_C@_04GIFJ@adr6?$AA@     00470448     cl_main.obj
 0003:00001450       ??_C@_04JHOA@adr5?$AA@     00470450     cl_main.obj
 0003:00001458       ??_C@_04DNHH@adr4?$AA@     00470458     cl_main.obj
 0003:00001460       ??_C@_04GIJC@adr3?$AA@     00470460     cl_main.obj
 0003:00001468       ??_C@_04MCAF@adr2?$AA@     00470468     cl_main.obj
 0003:00001470       ??_C@_04DNLM@adr1?$AA@     00470470     cl_main.obj
 0003:00001478       ??_C@_04JHCL@adr0?$AA@     00470478     cl_main.obj
 0003:00001480       ??_C@_02HJLH@dn?$AA@       00470480     cl_main.obj
 0003:00001484       ??_C@_02HAO@up?$AA@        00470484     cl_main.obj
 0003:00001488       ??_C@_02PMAE@ft?$AA@       00470488     cl_main.obj
 0003:0000148c       ??_C@_02JIFL@lf?$AA@       0047048c     cl_main.obj
 0003:00001490       ??_C@_02OID@bk?$AA@        00470490     cl_main.obj
 0003:00001494       ??_C@_02MMAH@rt?$AA@       00470494     cl_main.obj
 0003:00001498       ??_C@_0P@DHN@Stopped?5demo?4?6?$AA@ 00470498     cl_main.obj
 0003:000014a8       ??_C@_0BH@BFNH@Not?5recording?5a?5demo?4?6?$AA@ 004704a8     cl_main.obj
 0003:000014c0       ??_C@_09DLPM@precache?6?$AA@ 004704c0     cl_main.obj
 0003:000014cc       ??_C@_0BH@KJBL@Cannot?5create?5file?5?$CFs?6?$AA@ 004704cc     cl_main.obj
 0003:000014e4       ??_C@_02NGAF@wb?$AA@       004704e4     cl_main.obj
 0003:000014e8       ??_C@_0BC@JCJK@recording?5to?5?$CFs?4?6?$AA@ 004704e8     cl_main.obj
 0003:000014fc       ??_C@_0BA@KOME@?$CFs?1demos?1?$CFs?4dm2?$AA@ 004704fc     cl_main.obj
 0003:0000150c       ??_C@_0CD@JMHA@You?5must?5be?5in?5a?5level?5to?5record@ 0047050c     cl_main.obj
 0003:00001530       ??_C@_0BE@LCIN@Already?5recording?4?6?$AA@ 00470530     cl_main.obj
 0003:00001544       ??_C@_0BK@LHPO@Usage?3?5record?5?$DMdemoname?$DO?6?$AA@ 00470544     cl_main.obj
 0003:00001560       ??_C@_0BG@GPBN@Unknown?5command?5?$CC?$CFs?$CC?6?$AA@ 00470560     cl_main.obj
 0003:00001578       ??_C@_01FCOA@?5?$AA@       00470578     cl_main.obj
 0003:0000157c       ??_C@_0O@PFJM@?$CFs?5undefined?6?$AA@ 0047057c     cl_main.obj
 0003:0000158c       ??_C@_06IKKH@?$CFs?$DN?$CFs?6?$AA@ 0047058c     cl_main.obj
 0003:00001594       ??_C@_01KPOD@?$DN?$AA@     00470594     cl_main.obj
 0003:00001598       ??_C@_0BL@GCG@Can?8t?5?$CC?$CFs?$CC?0?5not?5connected?6?$AA@ 00470598     cl_main.obj
 0003:000015b4       ??_C@_0L@IGMM@maxclients?$AA@ 004705b4     cl_main.obj
 0003:000015c0       ??_C@_0BH@KJED@connect?5?$CFd?5?$CFd?5?$CFd?5?$CC?$CFs?$CC?6?$AA@ 004705c0     cl_main.obj
 0003:000015d8       ??_C@_0BM@JLFG@Extended?5protocol?5disabled?6?$AA@ 004705d8     cl_main.obj
 0003:000015f4       ??_C@_0BK@NCFF@connect?5?$CFd?5?$CFd?5?$CFd?5?$CC?$CFs?$CC?5?$CFs?6?$AA@ 004705f4     cl_main.obj
 0003:00001610       ??_C@_06PGCO@gildor?$AA@   00470610     cl_main.obj
 0003:00001618       ??_C@_05CBME@qport?$AA@    00470618     cl_main.obj
 0003:00001620       ??_C@_0BH@NING@Bad?5server?5address?5?$CFs?6?$AA@ 00470620     cl_main.obj
 0003:00001638       ??_C@_0O@MJBF@getchallenge?6?$AA@ 00470638     cl_main.obj
 0003:00001648       ??_C@_07HNKM@status?6?$AA@ 00470648     cl_main.obj
 0003:00001650       ??_C@_0BF@DHHM@Connecting?5to?5?$CFs?4?4?4?6?$AA@ 00470650     cl_main.obj
 0003:00001668       ??_C@_09FBHK@localhost?$AA@ 00470668     cl_main.obj
 0003:00001674       ??_C@_0N@NHEN@Server?5quit?6?$AA@ 00470674     cl_main.obj
 0003:00001684       ??_C@_0BJ@DOD@Usage?3?5connect?5?$DMserver?$DO?6?$AA@ 00470684     cl_main.obj
 0003:000016a0       ??_C@_0CN@HEPM@Not?5connected?5and?5?$CCrcon_address?$CC@ 004706a0     cl_main.obj
 0003:000016d0       ??_C@_0N@NPOA@?$PP?$PP?$PP?$PPrcon?5?$CFs?5?$AA@ 004706d0     cl_main.obj
 0003:000016e0       ??_C@_0BM@ENGC@?$CCrcon_password?$CC?5is?5not?5set?6?$AA@ 004706e0     cl_main.obj
 0003:000016fc       ??_C@_0L@FPLB@disconnect?$AA@ 004706fc     cl_main.obj
 0003:00001708       ??_C@_0DP@HCOC@?$FO2Total?5?$CFd?5frames?0?5?$CF3?41f?5seconds@ 00470708     cl_main.obj
 0003:00001748       ??_C@_0BJ@NAGC@Disconnected?5from?5server?$AA@ 00470748     cl_main.obj
 0003:00001764       ??_C@_0BC@PNFB@?6Changing?5map?4?4?4?6?$AA@ 00470764     cl_main.obj
 0003:00001778       ??_C@_03IDPP@new?$AA@      00470778     cl_main.obj
 0003:0000177c       ??_C@_0BB@DJEH@reconnecting?4?4?4?6?$AA@ 0047077c     cl_main.obj
 0003:00001790       ??_C@_03HHKO@?$CFs?6?$AA@  00470790     cl_main.obj
 0003:00001794       ??_C@_0BB@CILL@Bad?5address?3?5?$CFs?6?$AA@ 00470794     cl_main.obj
 0003:000017a8       ??_C@_0P@GCID@pinging?5?$CFs?4?4?4?6?$AA@ 004707a8     cl_main.obj
 0003:000017b8       ??_C@_05EAEC@adr?$CFd?$AA@ 004707b8     cl_main.obj
 0003:000017c0       ??_C@_05PIII@noipx?$AA@    004707c0     cl_main.obj
 0003:000017c8       ??_C@_07EEBL@info?5?$CFd?$AA@ 004707c8     cl_main.obj
 0003:000017d0       ??_C@_05GFLG@noudp?$AA@    004707d0     cl_main.obj
 0003:000017d8       ??_C@_0BG@GFC@pinging?5broadcast?4?4?4?6?$AA@ 004707d8     cl_main.obj
 0003:000017f0       ??_C@_0P@MCNN@client?5?$CFd?3?5?$CFs?6?$AA@ 004707f0     cl_main.obj
 0003:00001800       ??_C@_0BH@OOAB@Unknown?5command?5?$CC?$CFs?$CC?4?6?$AA@ 00470800     cl_main.obj
 0003:00001818       ??_C@_04EDEH@echo?$AA@     00470818     cl_main.obj
 0003:00001820       ??_C@_06FLJA@cheats?$AA@   00470820     cl_main.obj
 0003:00001828       ??_C@_0BC@JBMH@no?5status?5answer?6?$AA@ 00470828     cl_main.obj
 0003:0000183c       ??_C@_09DMHI@challenge?$AA@ 0047083c     cl_main.obj
 0003:00001848       ??_C@_03INEA@ack?$AA@      00470848     cl_main.obj
 0003:0000184c       ??_C@_04LBKD@ping?$AA@     0047084c     cl_main.obj
 0003:00001854       ??_C@_02DILL@?$CFs?$AA@    00470854     cl_main.obj
 0003:00001858       ??_C@_05KCGF@print?$AA@    00470858     cl_main.obj
 0003:00001860       ??_C@_01BJG@?6?$AA@        00470860     cl_main.obj
 0003:00001864       ??_C@_0CM@KJPG@Command?5packet?5from?5remote?5host?4@ 00470864     cl_main.obj
 0003:00001890       ??_C@_03OKJL@cmd?$AA@      00470890     cl_main.obj
 0003:00001894       ??_C@_0CL@CMKN@Server?5does?5not?5support?5extended@ 00470894     cl_main.obj
 0003:000018c0       ??_C@_0CD@FDEJ@Connected?5using?5extended?5protoco@ 004708c0     cl_main.obj
 0003:000018e4       ??_C@_0BP@CDLO@dup?5connect?5received?3?5ignored?6?$AA@ 004708e4     cl_main.obj
 0003:00001904       ??_C@_0P@JGPO@client_connect?$AA@ 00470904     cl_main.obj
 0003:00001914       ??_C@_07OEOL@?$CFs?3?5?$CFs?6?$AA@ 00470914     cl_main.obj
 0003:0000191c       ??_C@_08NPAP@gamename?$AA@ 0047091c     cl_main.obj
 0003:00001928       ??_C@_07DOCO@mapname?$AA@  00470928     cl_main.obj
 0003:00001930       ??_C@_0BP@BEPE@?6Server?5connection?5timed?5out?4?6?$AA@ 00470930     cl_main.obj
 0003:00001950       ??_C@_0CJ@EGIC@?$CFs?3?5sequenced?5packet?5without?5con@ 00470950     cl_main.obj
 0003:0000197c       ??_C@_0BB@HD@?$CFs?3?5runt?5packet?6?$AA@ 0047097c     cl_main.obj
 0003:00001990       ??_C@_04KIKH@none?$AA@     00470990     cl_main.obj
 0003:00001998       ??_C@_06BKEF@female?$AA@   00470998     cl_main.obj
 0003:000019a0       ??_C@_06LEP@cyborg?$AA@    004709a0     cl_main.obj
 0003:000019a8       ??_C@_0BF@MOFK@User?5info?5settings?3?6?$AA@ 004709a8     cl_main.obj
 0003:000019c0       ??_C@_09HJPO@begin?5?$CFd?6?$AA@ 004709c0     cl_main.obj
 0003:000019cc       ??_C@_0BA@IDAI@textures?1?$CFs?4wal?$AA@ 004709cc     cl_main.obj
 0003:000019dc       ??_C@_0N@OLHP@env?1?$CFs?$CFs?4pcx?$AA@ 004709dc     cl_main.obj
 0003:000019ec       ??_C@_0DD@DK@Local?5map?5version?5differs?5from?5s@ 004709ec     cl_main.obj
 0003:00001a20       ??_C@_0BE@HMKI@players?1?$CFs?1?$CFs_i?4pcx?$AA@ 00470a20     cl_main.obj
 0003:00001a34       ??_C@_0BC@LCAL@players?1?$CFs?1?$CFs?4pcx?$AA@ 00470a34     cl_main.obj
 0003:00001a48       ??_C@_0BG@GDGF@players?1?$CFs?1weapon?4pcx?$AA@ 00470a48     cl_main.obj
 0003:00001a60       ??_C@_0BE@CNDM@players?1?$CFs?1tris?4md2?$AA@ 00470a60     cl_main.obj
 0003:00001a74       ??_C@_0M@GKBO@pics?1?$CFs?4pcx?$AA@ 00470a74     cl_main.obj
 0003:00001a80       ??_C@_08CIGF@sound?1?$CFs?$AA@ 00470a80     cl_main.obj
 0003:00001a8c       ??_C@_0BD@MHLF@?1levelshots?1?$CFs?4pcx?$AA@ 00470a8c     cl_main.obj
 0003:00001aa0       ??_C@_0BC@DCMP@?1?1?6?1?1?5Aliases?6?1?1?6?$AA@ 00470aa0     cl_main.obj
 0003:00001ab4       ??_C@_0BA@IKF@?1?1?6?1?1?5Cvars?6?1?1?6?$AA@ 00470ab4     cl_main.obj
 0003:00001ac4       ??_C@_0BH@IHL@?1?1?6?1?1?5Key?5bindings?6?1?1?6?$AA@ 00470ac4     cl_main.obj
 0003:00001adc       ??_C@_0CH@DJHP@?1?1?5generated?5by?5Quake2?0?5do?5not?5m@ 00470adc     cl_main.obj
 0003:00001b04       ??_C@_0BE@OCEN@Couldn?8t?5write?5?$CFs?4?6?$AA@ 00470b04     cl_main.obj
 0003:00001b18       ??_C@_05LELA@?$CFs?1?$CFs?$AA@ 00470b18     cl_main.obj
 0003:00001b20       ??_C@_01LLF@w?$AA@         00470b20     cl_main.obj
 0003:00001b24       ??_C@_04MELH@?4cfg?$AA@    00470b24     cl_main.obj
 0003:00001b2c       ??_C@_0BP@JGGC@Usage?3?5writeconfig?5?$DMfilename?$DO?6?$AA@ 00470b2c     cl_main.obj
 0003:00001b4c       ??_C@_08KKEF@weapprev?$AA@ 00470b4c     cl_main.obj
 0003:00001b58       ??_C@_08FDMA@weapnext?$AA@ 00470b58     cl_main.obj
 0003:00001b64       ??_C@_07DCEN@invdrop?$AA@  00470b64     cl_main.obj
 0003:00001b6c       ??_C@_07GMNC@invnext?$AA@  00470b6c     cl_main.obj
 0003:00001b74       ??_C@_07JFFH@invprev?$AA@  00470b74     cl_main.obj
 0003:00001b7c       ??_C@_06HJLO@invuse?$AA@   00470b7c     cl_main.obj
 0003:00001b84       ??_C@_06GMBK@noclip?$AA@   00470b84     cl_main.obj
 0003:00001b8c       ??_C@_08BHIO@notarget?$AA@ 00470b8c     cl_main.obj
 0003:00001b98       ??_C@_03IPJE@god?$AA@      00470b98     cl_main.obj
 0003:00001b9c       ??_C@_04JEOP@give?$AA@     00470b9c     cl_main.obj
 0003:00001ba4       ??_C@_04OAON@prog?$AA@     00470ba4     cl_main.obj
 0003:00001bac       ??_C@_08PAEI@say_team?$AA@ 00470bac     cl_main.obj
 0003:00001bb8       ??_C@_03NJAM@say?$AA@      00470bb8     cl_main.obj
 0003:00001bbc       ??_C@_04NMBB@drop?$AA@     00470bbc     cl_main.obj
 0003:00001bc4       ??_C@_03CFBD@use?$AA@      00470bc4     cl_main.obj
 0003:00001bc8       ??_C@_04CHLA@kill?$AA@     00470bc8     cl_main.obj
 0003:00001bd0       ??_C@_05MCDF@inven?$AA@    00470bd0     cl_main.obj
 0003:00001bd8       ??_C@_04FBHL@wave?$AA@     00470bd8     cl_main.obj
 0003:00001be0       ??_C@_0M@DAKA@writeconfig?$AA@ 00470be0     cl_main.obj
 0003:00001bec       ??_C@_08NKKF@download?$AA@ 00470bec     cl_main.obj
 0003:00001bf8       ??_C@_08GKBG@precache?$AA@ 00470bf8     cl_main.obj
 0003:00001c04       ??_C@_06OKEC@setenv?$AA@   00470c04     cl_main.obj
 0003:00001c0c       ??_C@_04CHBK@rcon?$AA@     00470c0c     cl_main.obj
 0003:00001c14       ??_C@_09CKHG@reconnect?$AA@ 00470c14     cl_main.obj
 0003:00001c20       ??_C@_07DHIJ@connect?$AA@  00470c20     cl_main.obj
 0003:00001c28       ??_C@_04FKOI@quit?$AA@     00470c28     cl_main.obj
 0003:00001c30       ??_C@_06JNOM@record?$AA@   00470c30     cl_main.obj
 0003:00001c38       ??_C@_08EOOP@changing?$AA@ 00470c38     cl_main.obj
 0003:00001c44       ??_C@_0M@IFHL@snd_restart?$AA@ 00470c44     cl_main.obj
 0003:00001c50       ??_C@_08ONDD@userinfo?$AA@ 00470c50     cl_main.obj
 0003:00001c5c       ??_C@_05ENAM@skins?$AA@    00470c5c     cl_main.obj
 0003:00001c64       ??_C@_0M@JMJB@pingservers?$AA@ 00470c64     cl_main.obj
 0003:00001c70       ??_C@_03HMFC@?$CFd?6?$AA@  00470c70     cl_main.obj
 0003:00001c74       ??_C@_02LOGN@0?6?$AA@      00470c74     cl_main.obj
 0003:00001c78       ??_C@_07ILLO@cfgfile?$AA@  00470c78     cl_main.obj
 0003:00001c80       ??_C@_0BE@OJFD@recursive?5shutdown?6?$AA@ 00470c80     cl_main.obj
 0003:00001cc4       _svc_strings               00470cc4     cl_parse.obj
 0003:000020c4       ??_C@_09DOGH@svc_frame?$AA@ 004710c4     cl_parse.obj
 0003:000020d0       ??_C@_0BI@ELFI@svc_deltapacketentities?$AA@ 004710d0     cl_parse.obj
 0003:000020e8       ??_C@_0BD@GJCL@svc_packetentities?$AA@ 004710e8     cl_parse.obj
 0003:000020fc       ??_C@_0P@JFIA@svc_playerinfo?$AA@ 004710fc     cl_parse.obj
 0003:0000210c       ??_C@_0N@CDLJ@svc_download?$AA@ 0047110c     cl_parse.obj
 0003:0000211c       ??_C@_0BA@HFKB@svc_centerprint?$AA@ 0047111c     cl_parse.obj
 0003:0000212c       ??_C@_0BC@NKGK@svc_spawnbaseline?$AA@ 0047112c     cl_parse.obj
 0003:00002140       ??_C@_0BB@FGCF@svc_configstring?$AA@ 00471140     cl_parse.obj
 0003:00002154       ??_C@_0P@GKHI@svc_serverdata?$AA@ 00471154     cl_parse.obj
 0003:00002164       ??_C@_0O@DCLL@svc_stufftext?$AA@ 00471164     cl_parse.obj
 0003:00002174       ??_C@_09FEEA@svc_print?$AA@ 00471174     cl_parse.obj
 0003:00002180       ??_C@_09CLHB@svc_sound?$AA@ 00471180     cl_parse.obj
 0003:0000218c       ??_C@_0O@NMIP@svc_reconnect?$AA@ 0047118c     cl_parse.obj
 0003:0000219c       ??_C@_0P@JIEH@svc_disconnect?$AA@ 0047119c     cl_parse.obj
 0003:000021ac       ??_C@_07GEPH@svc_nop?$AA@  004711ac     cl_parse.obj
 0003:000021b4       ??_C@_0O@OHLG@svc_inventory?$AA@ 004711b4     cl_parse.obj
 0003:000021c4       ??_C@_0L@FLHM@svc_layout?$AA@ 004711c4     cl_parse.obj
 0003:000021d0       ??_C@_0BA@DEAN@svc_temp_entity?$AA@ 004711d0     cl_parse.obj
 0003:000021e0       ??_C@_0BA@KJNC@svc_muzzlflash2?$AA@ 004711e0     cl_parse.obj
 0003:000021f0       ??_C@_0BA@KALL@svc_muzzleflash?$AA@ 004711f0     cl_parse.obj
 0003:00002200       ??_C@_07HNJP@svc_bad?$AA@  00471200     cl_parse.obj
 0003:00002208       ??_C@_06OOPP@baseq2?$AA@   00471208     cl_parse.obj
 0003:00002210       ??_C@_07PECE@players?$AA@  00471210     cl_parse.obj
 0003:00002218       ??_C@_0M@FCFA@download?5?$CFs?$AA@ 00471218     cl_parse.obj
 0003:00002224       ??_C@_0BA@LOJL@Downloading?5?$CFs?6?$AA@ 00471224     cl_parse.obj
 0003:00002234       ??_C@_0P@NHCB@download?5?$CFs?5?$CFi?$AA@ 00471234     cl_parse.obj
 0003:00002244       ??_C@_0N@CLGM@Resuming?5?$CFs?6?$AA@ 00471244     cl_parse.obj
 0003:00002254       ??_C@_03LLMP@r?$CLb?$AA@   00471254     cl_parse.obj
 0003:00002258       ??_C@_04CJIC@?4tmp?$AA@    00471258     cl_parse.obj
 0003:00002260       ??_C@_04GHND@?4wal?$AA@    00471260     cl_parse.obj
 0003:00002268       ??_C@_04EMJN@?4bsp?$AA@    00471268     cl_parse.obj
 0003:00002270       ??_C@_0CF@BGCJ@Refusing?5to?5download?5a?5path?5with@ 00471270     cl_parse.obj
 0003:00002298       ??_C@_02OOND@?4?4?$AA@     00471298     cl_parse.obj
 0003:0000229c       ??_C@_0BG@FFKD@File?5already?5exists?4?6?$AA@ 0047129c     cl_parse.obj
 0003:000022b4       ??_C@_0BM@JKMO@Usage?3?5download?5?$DMfilename?$DO?6?$AA@ 004712b4     cl_parse.obj
 0003:000022d0       ??_C@_0BD@GDLK@failed?5to?5rename?4?6?$AA@ 004712d0     cl_parse.obj
 0003:000022e4       ??_C@_06CCCC@nextdl?$AA@   004712e4     cl_parse.obj
 0003:000022ec       ??_C@_0BD@LGC@Failed?5to?5open?5?$CFs?6?$AA@ 004712ec     cl_parse.obj
 0003:00002300       ??_C@_0CB@INBI@Server?5does?5not?5have?5this?5file?4?6@ 00471300     cl_parse.obj
 0003:00002324       ??_C@_05MCIF@?$CFc?$CFs?6?$AA@ 00471324     cl_parse.obj
 0003:0000232c       ??_C@_0CK@BGKO@?6?6?$BN?$BO?$BO?$BO?$BO?$BO?$BO?$BO?$BO?$BO?$BO?$BO?$BO?$BO?$BO?$BO?$BO?$BO?$BO?$BO?$BO?$BO?$BO?$BO?$BO?$BO?$BO?$BO?$BO?$BO@ 0047132c     cl_parse.obj
 0003:00002358       ??_C@_04OAFI@game?$AA@     00471358     cl_parse.obj
 0003:00002360       ??_C@_0CD@OFII@Server?5returned?5version?5?$CFi?0?5not?5@ 00471360     cl_parse.obj
 0003:00002384       ??_C@_0BN@BOK@Serverdata?5packet?5received?4?6?$AA@ 00471384     cl_parse.obj
 0003:000023a4       ??_C@_0BK@CLKF@?1players?1male?1grunt_i?4pcx?$AA@ 004713a4     cl_parse.obj
 0003:000023c0       ??_C@_0BH@BKPO@players?1male?1grunt?4pcx?$AA@ 004713c0     cl_parse.obj
 0003:000023d8       ??_C@_0BF@NHGA@?1players?1?$CFs?1?$CFs_i?4pcx?$AA@ 004713d8     cl_parse.obj
 0003:000023f0       ??_C@_0BA@GDCM@players?1male?1?$CFs?$AA@ 004713f0     cl_parse.obj
 0003:00002400       ??_C@_0BF@DGJJ@players?1?$CFs?1grunt?4pcx?$AA@ 00471400     cl_parse.obj
 0003:00002418       ??_C@_0CB@BGFE@configstring?5?$DO?5MAX_CONFIGSTRINGS@ 00471418     cl_parse.obj
 0003:0000243c       ??_C@_0CD@PKNK@CL_ParseStartSoundPacket?3?5ent?5?$DN?5@ 0047143c     cl_parse.obj
 0003:00002460       ??_C@_0P@HHDF@END?5OF?5MESSAGE?$AA@ 00471460     cl_parse.obj
 0003:00002470       ??_C@_0CK@FPGD@CL_ParseServerMessage?3?5Bad?5serve@ 00471470     cl_parse.obj
 0003:0000249c       ??_C@_0DB@OJCG@CL_ParseServerMessage?3?5Illegible@ 0047149c     cl_parse.obj
 0003:000024d0       ??_C@_0BI@ENJH@Out?5of?5place?5frame?5data?$AA@ 004714d0     cl_parse.obj
 0003:000024e8       ??_C@_0P@IIMB@stufftext?3?5?$CFs?6?$AA@ 004714e8     cl_parse.obj
 0003:000024f8       ??_C@_0BG@CAAE@stuff?5?$CIdisabled?$CJ?3?5?$CFs?6?$AA@ 004714f8     cl_parse.obj
 0003:00002510       ??_C@_04EDH@set?5?$AA@     00471510     cl_parse.obj
 0003:00002518       ??_C@_0O@DEBE@misc?1talk?4wav?$AA@ 00471518     cl_parse.obj
 0003:00002528       ??_C@_0CD@KNJE@Server?5disconnected?0?5reconnectin@ 00471528     cl_parse.obj
 0003:0000254c       ??_C@_0BF@BAGD@Server?5disconnected?6?$AA@ 0047154c     cl_parse.obj
 0003:00002564       ??_C@_0BA@NCM@?$CF3d?3bad?5cmd?5?$CFd?6?$AA@ 00471564     cl_parse.obj
 0003:00002574       ??_C@_0BE@DLJO@?9?9?9?9?9?9?9?9?9?9?9?9?9?9?9?9?9?9?6?$AA@ 00471574     cl_parse.obj
 0003:00002588       ??_C@_03NGHA@?$CFi?5?$AA@  00471588     cl_parse.obj
 0003:0000258c       ??_C@_0BL@IACO@prediction?5miss?5on?5?$CFd?3?5?$CFd?6?$AA@ 0047158c     cl_pred.obj
 0003:000025a8       ??_C@_0CJ@GOCP@CL_PredictMovement?3?5exceeded?5CMD@ 004715a8     cl_pred.obj
 0003:00002700       ??_C@_0L@FJFP@anum_minus?$AA@ 00471700     cl_scrn.obj
 0003:0000270c       ??_C@_06MCGO@anum_9?$AA@   0047170c     cl_scrn.obj
 0003:00002714       ??_C@_06GIPJ@anum_8?$AA@   00471714     cl_scrn.obj
 0003:0000271c       ??_C@_06GJKE@anum_7?$AA@   0047171c     cl_scrn.obj
 0003:00002724       ??_C@_06MDDD@anum_6?$AA@   00471724     cl_scrn.obj
 0003:0000272c       ??_C@_06DMIK@anum_5?$AA@   0047172c     cl_scrn.obj
 0003:00002734       ??_C@_06JGBN@anum_4?$AA@   00471734     cl_scrn.obj
 0003:0000273c       ??_C@_06MDPI@anum_3?$AA@   0047173c     cl_scrn.obj
 0003:00002744       ??_C@_06GJGP@anum_2?$AA@   00471744     cl_scrn.obj
 0003:0000274c       ??_C@_06JGNG@anum_1?$AA@   0047174c     cl_scrn.obj
 0003:00002754       ??_C@_06DMEB@anum_0?$AA@   00471754     cl_scrn.obj
 0003:0000275c       ??_C@_09NOEG@num_minus?$AA@ 0047175c     cl_scrn.obj
 0003:00002768       ??_C@_05ILMD@num_9?$AA@    00471768     cl_scrn.obj
 0003:00002770       ??_C@_05CBFE@num_8?$AA@    00471770     cl_scrn.obj
 0003:00002778       ??_C@_05CAAJ@num_7?$AA@    00471778     cl_scrn.obj
 0003:00002780       ??_C@_05IKJO@num_6?$AA@    00471780     cl_scrn.obj
 0003:00002788       ??_C@_05HFCH@num_5?$AA@    00471788     cl_scrn.obj
 0003:00002790       ??_C@_05NPLA@num_4?$AA@    00471790     cl_scrn.obj
 0003:00002798       ??_C@_05IKFF@num_3?$AA@    00471798     cl_scrn.obj
 0003:000027a0       ??_C@_05CAMC@num_2?$AA@    004717a0     cl_scrn.obj
 0003:000027a8       ??_C@_05NPHL@num_1?$AA@    004717a8     cl_scrn.obj
 0003:000027b0       ??_C@_05HFOM@num_0?$AA@    004717b0     cl_scrn.obj
 0003:000027b8       ??_C@_0M@CGPG@scr_drawall?$AA@ 004717b8     cl_scrn.obj
 0003:000027c4       ??_C@_0L@LHBA@graphshift?$AA@ 004717c4     cl_scrn.obj
 0003:000027d0       ??_C@_0L@PJCF@graphscale?$AA@ 004717d0     cl_scrn.obj
 0003:000027dc       ??_C@_02CKLK@32?$AA@       004717dc     cl_scrn.obj
 0003:000027e0       ??_C@_0M@PAID@graphheight?$AA@ 004717e0     cl_scrn.obj
 0003:000027ec       ??_C@_0L@CIFP@debuggraph?$AA@ 004717ec     cl_scrn.obj
 0003:000027f8       ??_C@_09NGPH@timegraph?$AA@ 004717f8     cl_scrn.obj
 0003:00002804       ??_C@_08GDJN@netgraph?$AA@ 00471804     cl_scrn.obj
 0003:00002810       ??_C@_01KPCI@8?$AA@        00471810     cl_scrn.obj
 0003:00002814       ??_C@_0P@DNGH@scr_printspeed?$AA@ 00471814     cl_scrn.obj
 0003:00002824       ??_C@_03CLDA@2?45?$AA@     00471824     cl_scrn.obj
 0003:00002828       ??_C@_0P@DPIJ@scr_centertime?$AA@ 00471828     cl_scrn.obj
 0003:00002838       ??_C@_0O@BDOO@scr_showpause?$AA@ 00471838     cl_scrn.obj
 0003:00002848       ??_C@_0P@OMJJ@scr_showturtle?$AA@ 00471848     cl_scrn.obj
 0003:00002858       ??_C@_0N@IFHN@scr_conspeed?$AA@ 00471858     cl_scrn.obj
 0003:00002868       ??_C@_03HFMC@100?$AA@      00471868     cl_scrn.obj
 0003:0000286c       ??_C@_08NKJJ@viewsize?$AA@ 0047186c     cl_scrn.obj
 0003:00002878       ??_C@_0CN@NEC@Usage?3?5sky?5?$DMbasename?$DO?5?$DMrotate?$DO?5?$DM@ 00471878     cl_scrn.obj
 0003:000028a8       ??_C@_03EBAN@sky?$AA@      004718a8     cl_scrn.obj
 0003:000028ac       ??_C@_08POMM@sizedown?$AA@ 004718ac     cl_scrn.obj
 0003:000028b8       ??_C@_06IFPB@sizeup?$AA@   004718b8     cl_scrn.obj
 0003:000028c0       ??_C@_07PMFK@loading?$AA@  004718c0     cl_scrn.obj
 0003:000028c8       ??_C@_0M@MNON@timerefresh?$AA@ 004718c8     cl_scrn.obj
 0003:000028d4       ??_C@_03HMEG@net?$AA@      004718d4     cl_scrn.obj
 0003:000028d8       ??_C@_0BC@GJEH@SetLevelshot?3?5?$CFs?6?$AA@ 004718d8     cl_scrn.obj
 0003:000028ec       ??_C@_0BF@NAIN@?$CFf?5seconds?5?$CI?$CFf?5fps?$CJ?6?$AA@ 004718ec     cl_scrn.obj
 0003:00002904       ??_C@_08BFKF@backtile?$AA@ 00471904     cl_scrn.obj
 0003:00002910       ??_C@_02JAFN@?$CFi?$AA@    00471910     cl_scrn.obj
 0003:00002914       ??_C@_09KOO@crosshair?$AA@ 00471914     cl_scrn.obj
 0003:00002920       ??_C@_04CNF@ch?$CFd?$AA@   00471920     cl_scrn.obj
 0003:00002928       ??_C@_05HNIL@endif?$AA@    00471928     cl_scrn.obj
 0003:00002930       ??_C@_02NEFL@if?$AA@       00471930     cl_scrn.obj
 0003:00002934       ??_C@_07IIPC@string2?$AA@  00471934     cl_scrn.obj
 0003:0000293c       ??_C@_08FOPG@cstring2?$AA@ 0047193c     cl_scrn.obj
 0003:00002948       ??_C@_06EMNG@string?$AA@   00471948     cl_scrn.obj
 0003:00002950       ??_C@_07EILE@cstring?$AA@  00471950     cl_scrn.obj
 0003:00002958       ??_C@_0BG@HMBM@Bad?5stat_string?5index?$AA@ 00471958     cl_scrn.obj
 0003:00002970       ??_C@_0M@KGFB@stat_string?$AA@ 00471970     cl_scrn.obj
 0003:0000297c       ??_C@_04KAPC@rnum?$AA@     0047197c     cl_scrn.obj
 0003:00002984       ??_C@_04JKCF@anum?$AA@     00471984     cl_scrn.obj
 0003:0000298c       ??_C@_07IHFN@field_3?$AA@  0047198c     cl_scrn.obj
 0003:00002994       ??_C@_04JFOH@hnum?$AA@     00471994     cl_scrn.obj
 0003:0000299c       ??_C@_03EBLA@num?$AA@      0047199c     cl_scrn.obj
 0003:000029a0       ??_C@_04LGNI@picn?$AA@     004719a0     cl_scrn.obj
 0003:000029a8       ??_C@_0BB@PFPA@?$CF3d?5?$CF3d?5?$CF?912?412s?$AA@ 004719a8     cl_scrn.obj
 0003:000029bc       ??_C@_03HGOC@ctf?$AA@      004719bc     cl_scrn.obj
 0003:000029c0       ??_C@_09PEO@Time?3?5?5?$CFi?$AA@ 004719c0     cl_scrn.obj
 0003:000029cc       ??_C@_09FOJA@Ping?3?5?5?$CFi?$AA@ 004719cc     cl_scrn.obj
 0003:000029d8       ??_C@_07HICE@Score?3?5?$AA@ 004719d8     cl_scrn.obj
 0003:000029e0       ??_C@_0BG@HCFE@client?5?$DO?$DN?5MAX_CLIENTS?$AA@ 004719e0     cl_scrn.obj
 0003:000029f8       ??_C@_06ILMK@client?$AA@   004719f8     cl_scrn.obj
 0003:00002a00       ??_C@_0BC@DMHA@Pic?5?$DO?$DN?5MAX_IMAGES?$AA@ 00471a00     cl_scrn.obj
 0003:00002a14       ??_C@_03DCIF@pic?$AA@      00471a14     cl_scrn.obj
 0003:00002a18       ??_C@_02BHIC@yv?$AA@       00471a18     cl_scrn.obj
 0003:00002a1c       ??_C@_02BEKO@yb?$AA@       00471a1c     cl_scrn.obj
 0003:00002a20       ??_C@_02ECKM@yt?$AA@       00471a20     cl_scrn.obj
 0003:00002a24       ??_C@_02BCI@xv?$AA@        00471a24     cl_scrn.obj
 0003:00002a28       ??_C@_02KLHE@xr?$AA@       00471a28     cl_scrn.obj
 0003:00002a2c       ??_C@_02KJMO@xl?$AA@       00471a2c     cl_scrn.obj
 0003:00002a30       ??_C@_0BL@IPID@Loading?5plaque?5timed?5out?4?6?$AA@ 00471a30     cl_scrn.obj
 0003:00002af4       ??_C@_05FPAN@spit1?$AA@    00471af4     cl_tent.obj
 0003:00002afc       ??_C@_05FACJ@burp1?$AA@    00471afc     cl_tent.obj
 0003:00002b04       ??_C@_05DOKH@yawn2?$AA@    00471b04     cl_tent.obj
 0003:00002b0c       ??_C@_05MBBO@yawn1?$AA@    00471b0c     cl_tent.obj
 0003:00002b14       ??_C@_07MNKD@sneeze2?$AA@  00471b14     cl_tent.obj
 0003:00002b1c       ??_C@_07DCBK@sneeze1?$AA@  00471b1c     cl_tent.obj
 0003:00002b24       ??_C@_06IDM@cough2?$AA@    00471b24     cl_tent.obj
 0003:00002b2c       ??_C@_06PHIF@cough1?$AA@   00471b2c     cl_tent.obj
 0003:00002b34       ??_C@_08FLON@tinyfart?$AA@ 00471b34     cl_tent.obj
 0003:00002b40       ??_C@_05HCHG@stone?$AA@    00471b40     cl_tent.obj
 0003:00002b48       ??_C@_04KCFE@dirt?$AA@     00471b48     cl_tent.obj
 0003:00002b50       ??_C@_05DGDK@glass?$AA@    00471b50     cl_tent.obj
 0003:00002b58       ??_C@_05CCAC@water?$AA@    00471b58     cl_tent.obj
 0003:00002b60       ??_C@_04EOHJ@wood?$AA@     00471b60     cl_tent.obj
 0003:00002b68       ??_C@_06PKAF@marble?$AA@   00471b68     cl_tent.obj
 0003:00002b70       ??_C@_03COKM@tin?$AA@      00471b70     cl_tent.obj
 0003:00002b74       ??_C@_04NPOO@snow?$AA@     00471b74     cl_tent.obj
 0003:00002b7c       ??_C@_0M@BKJL@metal_light?$AA@ 00471b7c     cl_tent.obj
 0003:00002b88       ??_C@_05KMGP@metal?$AA@    00471b88     cl_tent.obj
 0003:00002b90       ??_C@_06JAEI@gravel?$AA@   00471b90     cl_tent.obj
 0003:00002b98       ??_C@_03LJKD@rug?$AA@      00471b98     cl_tent.obj
 0003:00002b9c       ??_C@_08PDHI@pavement?$AA@ 00471b9c     cl_tent.obj
 0003:00002ba8       ??_C@_0BH@HPKN@weapons?1disrupthit?4wav?$AA@ 00471ba8     cl_tent.obj
 0003:00002bc0       ??_C@_0BC@DCEO@weapons?1tesla?4wav?$AA@ 00471bc0     cl_tent.obj
 0003:00002bd4       ??_C@_0BH@DCAE@player?1reallife?1?$CFs?4wav?$AA@ 00471bd4     cl_tent.obj
 0003:00002bec       ??_C@_0BI@EICK@weapons?1?$CFs?1impact?$CFd?4wav?$AA@ 00471bec     cl_tent.obj
 0003:00002c04       ??_C@_0BP@DFHN@player?1footsteps?1?$CFs?1step?$CFd?4wav?$AA@ 00471c04     cl_tent.obj
 0003:00002c24       ??_C@_0BO@PGGG@player?1footsteps?1?$CFs?1land1?4wav?$AA@ 00471c24     cl_tent.obj
 0003:00002c44       ??_C@_0BC@OHAC@player?1step?$CFd?4wav?$AA@ 00471c44     cl_tent.obj
 0003:00002c58       ??_C@_0BB@PPG@player?1fall2?4wav?$AA@ 00471c58     cl_tent.obj
 0003:00002c6c       ??_C@_0BB@OPJJ@player?1fall1?4wav?$AA@ 00471c6c     cl_tent.obj
 0003:00002c80       ??_C@_0BF@NKOF@weapons?1xpld_wat?4wav?$AA@ 00471c80     cl_tent.obj
 0003:00002c98       ??_C@_0BF@CKHB@weapons?1grenlx1a?4wav?$AA@ 00471c98     cl_tent.obj
 0003:00002cb0       ??_C@_0BF@HJEO@weapons?1rocklx1a?4wav?$AA@ 00471cb0     cl_tent.obj
 0003:00002cc8       ??_C@_0BB@GOFH@world?1spark7?4wav?$AA@ 00471cc8     cl_tent.obj
 0003:00002cdc       ??_C@_0BB@MOHC@world?1spark6?4wav?$AA@ 00471cdc     cl_tent.obj
 0003:00002cf0       ??_C@_0BB@COBN@world?1spark5?4wav?$AA@ 00471cf0     cl_tent.obj
 0003:00002d04       ??_C@_0BD@BJLH@weapons?1lashit?4wav?$AA@ 00471d04     cl_tent.obj
 0003:00002d18       ??_C@_0BA@HPF@world?1ric?$CFd?4wav?$AA@ 00471d18     cl_tent.obj
 0003:00002d28       ??_C@_0BP@HEGE@models?1proj?1widowbeam?1tris?4md2?$AA@ 00471d28     cl_tent.obj
 0003:00002d48       ??_C@_0BK@OHJH@models?1proj?1beam?1tris?4md2?$AA@ 00471d48     cl_tent.obj
 0003:00002d64       ??_C@_0BP@MDCP@models?1proj?1lightning?1tris?4md2?$AA@ 00471d64     cl_tent.obj
 0003:00002d84       ??_C@_0CD@DCIM@models?1objects?1r_explode2?1tris?4m@ 00471d84     cl_tent.obj
 0003:00002da8       ??_C@_0L@EMLC@a_grenades?$AA@ 00471da8     cl_tent.obj
 0003:00002db4       ??_C@_08ICHB@i_health?$AA@ 00471db4     cl_tent.obj
 0003:00002dc0       ??_C@_09LIBP@a_bullets?$AA@ 00471dc0     cl_tent.obj
 0003:00002dcc       ??_C@_0N@MCPD@w_machinegun?$AA@ 00471dcc     cl_tent.obj
 0003:00002ddc       ??_C@_0CD@EFEH@models?1objects?1gibs?1bone2?1tris?4m@ 00471ddc     cl_tent.obj
 0003:00002e00       ??_C@_0CF@MFJE@models?1objects?1gibs?1sm_meat?1tris@ 00471e00     cl_tent.obj
 0003:00002e28       ??_C@_0CC@EBEB@models?1objects?1gibs?1bone?1tris?4md@ 00471e28     cl_tent.obj
 0003:00002e4c       ??_C@_0CB@LBHC@models?1weapons?1v_shotg2?1tris?4md2@ 00471e4c     cl_tent.obj
 0003:00002e70       ??_C@_0CB@BEBI@models?1weapons?1v_handgr?1tris?4md2@ 00471e70     cl_tent.obj
 0003:00002e94       ??_C@_0CA@BHPB@models?1weapons?1v_machn?1tris?4md2?$AA@ 00471e94     cl_tent.obj
 0003:00002eb4       ??_C@_0CB@DCNA@models?1objects?1grenade2?1tris?4md2@ 00471eb4     cl_tent.obj
 0003:00002ed8       ??_C@_0BO@EPDP@models?1objects?1laser?1tris?4md2?$AA@ 00471ed8     cl_tent.obj
 0003:00002ef8       ??_C@_0CD@BEEO@models?1items?1armor?1effect?1tris?4m@ 00471ef8     cl_tent.obj
 0003:00002f1c       ??_C@_0BD@JADH@sprites?1s_bfg2?4sp2?$AA@ 00471f1c     cl_tent.obj
 0003:00002f30       ??_C@_0CC@IKHK@models?1objects?1r_explode?1tris?4md@ 00471f30     cl_tent.obj
 0003:00002f54       ??_C@_0CG@OKHI@models?1monsters?1parasite?1tip?1tri@ 00471f54     cl_tent.obj
 0003:00002f7c       ??_C@_0BM@JJKF@models?1ctf?1segment?1tris?4md2?$AA@ 00471f7c     cl_tent.obj
 0003:00002f98       ??_C@_0CK@PFNN@models?1monsters?1parasite?1segment@ 00471f98     cl_tent.obj
 0003:00002fc4       ??_C@_0BO@NNLA@models?1objects?1flash?1tris?4md2?$AA@ 00471fc4     cl_tent.obj
 0003:00002fe4       ??_C@_0BO@JJKP@models?1objects?1smoke?1tris?4md2?$AA@ 00471fe4     cl_tent.obj
 0003:00003004       ??_C@_0CA@IAJE@models?1objects?1explode?1tris?4md2?$AA@ 00472004     cl_tent.obj
 0003:00003024       ??_C@_0BF@FOL@beam?5list?5overflow?$CB?6?$AA@ 00472024     cl_tent.obj
 0003:0000303c       ??_C@_0BH@OMGP@CL_ParseTEnt?3?5bad?5type?$AA@ 0047203c     cl_tent.obj
 0003:00003054       ??_C@_0BB@KGMJ@misc?1bigtele?4wav?$AA@ 00472054     cl_tent.obj
 0003:00003278       ??_C@_0L@IKEA@r_surfinfo?$AA@ 00472278     cl_view.obj
 0003:00003284       ??_C@_09EIBE@r_drawfps?$AA@ 00472284     cl_view.obj
 0003:00003290       ??_C@_0M@FNE@r_playerpos?$AA@ 00472290     cl_view.obj
 0003:0000329c       ??_C@_08LCFH@cl_stats?$AA@ 0047229c     cl_view.obj
 0003:000032a8       ??_C@_0O@MNNO@cl_testlights?$AA@ 004722a8     cl_view.obj
 0003:000032b8       ??_C@_0BA@IPCM@cl_testentities?$AA@ 004722b8     cl_view.obj
 0003:000032c8       ??_C@_0BB@DHGB@cl_testparticles?$AA@ 004722c8     cl_view.obj
 0003:000032dc       ??_C@_0N@DMCP@cl_testblend?$AA@ 004722dc     cl_view.obj
 0003:000032ec       ??_C@_01KOHF@7?$AA@        004722ec     cl_view.obj
 0003:000032f0       ??_C@_0P@OHHE@crosshaircolor?$AA@ 004722f0     cl_view.obj
 0003:00003300       ??_C@_04FMJA@tile?$AA@     00472300     cl_view.obj
 0003:00003308       ??_C@_07NOGN@metal_l?$AA@  00472308     cl_view.obj
 0003:00003310       ??_C@_06CONN@fabric?$AA@   00472310     cl_view.obj
 0003:00003318       ??_C@_08HJKO@concrete?$AA@ 00472318     cl_view.obj
 0003:00003324       ??_C@_06EBGC@silent?$AA@   00472324     cl_view.obj
 0003:0000332c       ??_C@_09NHKP@AUTOFLARE?$AA@ 0047232c     cl_view.obj
 0003:00003338       ??_C@_08FGHF@SPECULAR?$AA@ 00472338     cl_view.obj
 0003:00003344       ??_C@_07ONAA@DIFFUSE?$AA@  00472344     cl_view.obj
 0003:0000334c       ??_C@_05PGEK@ALPHA?$AA@    0047234c     cl_view.obj
 0003:00003354       ??_C@_06PEDG@NODRAW?$AA@   00472354     cl_view.obj
 0003:0000335c       ??_C@_07JNCB@FLOWING?$AA@  0047235c     cl_view.obj
 0003:00003364       ??_C@_07HJLK@TRANS66?$AA@  00472364     cl_view.obj
 0003:0000336c       ??_C@_07DFHB@TRANS33?$AA@  0047236c     cl_view.obj
 0003:00003374       ??_C@_04MNEP@WARP?$AA@     00472374     cl_view.obj
 0003:0000337c       ??_C@_03IEGK@SKY?$AA@      0047237c     cl_view.obj
 0003:00003380       ??_C@_05NIKB@SLICK?$AA@    00472380     cl_view.obj
 0003:00003388       ??_C@_05FBHK@LIGHT?$AA@    00472388     cl_view.obj
 0003:00003390       ??_C@_06IJPP@LADDER?$AA@   00472390     cl_view.obj
 0003:00003398       ??_C@_0M@PFLG@TRANSLUCENT?$AA@ 00472398     cl_view.obj
 0003:000033a4       ??_C@_06GEC@DETAIL?$AA@    004723a4     cl_view.obj
 0003:000033ac       ??_C@_0M@KPPG@DEADMONSTER?$AA@ 004723ac     cl_view.obj
 0003:000033b8       ??_C@_07JNDM@MONSTER?$AA@  004723b8     cl_view.obj
 0003:000033c0       ??_C@_06BPO@ORIGIN?$AA@    004723c0     cl_view.obj
 0003:000033c8       ??_C@_0N@DIDI@CURRENT_DOWN?$AA@ 004723c8     cl_view.obj
 0003:000033d8       ??_C@_0L@OIPB@CURRENT_UP?$AA@ 004723d8     cl_view.obj
 0003:000033e4       ??_C@_0M@DKME@CURRENT_270?$AA@ 004723e4     cl_view.obj
 0003:000033f0       ??_C@_0M@BIPO@CURRENT_180?$AA@ 004723f0     cl_view.obj
 0003:000033fc       ??_C@_0L@IPNI@CURRENT_90?$AA@ 004723fc     cl_view.obj
 0003:00003408       ??_C@_09LGED@CURRENT_0?$AA@ 00472408     cl_view.obj
 0003:00003414       ??_C@_0M@LPOP@MONSTERCLIP?$AA@ 00472414     cl_view.obj
 0003:00003420       ??_C@_0L@FDOC@PLAYERCLIP?$AA@ 00472420     cl_view.obj
 0003:0000342c       ??_C@_0L@LPLL@AREAPORTAL?$AA@ 0047242c     cl_view.obj
 0003:00003438       ??_C@_04NEBJ@MIST?$AA@     00472438     cl_view.obj
 0003:00003440       ??_C@_05EJIN@WATER?$AA@    00472440     cl_view.obj
 0003:00003448       ??_C@_05LBMA@SLIME?$AA@    00472448     cl_view.obj
 0003:00003450       ??_C@_04IEEF@LAVA?$AA@     00472450     cl_view.obj
 0003:00003458       ??_C@_03DLI@AUX?$AA@       00472458     cl_view.obj
 0003:0000345c       ??_C@_06DJMI@WINDOW?$AA@   0047245c     cl_view.obj
 0003:00003464       ??_C@_05DEEH@SOLID?$AA@    00472464     cl_view.obj
 0003:0000346c       ??_C@_08JPAH@?$CFf?5?$CFf?5?$CFf?$AA@ 0047246c     cl_view.obj
 0003:00003478       ??_C@_04IHDC@sky?$AN?$AA@  00472478     cl_view.obj
 0003:00003480       ??_C@_0BD@DGJJ@unnamed?2male?1grunt?$AA@ 00472480     cl_view.obj
 0003:00003494       ??_C@_0L@EFJD@client?5?$CFi?$AN?$AA@ 00472494     cl_view.obj
 0003:000034a0       ??_C@_07JBIL@images?$AN?$AA@ 004724a0     cl_view.obj
 0003:000034a8       ??_C@_03CCEL@?$CFs?$AN?$AA@ 004724a8     cl_view.obj
 0003:000034ac       ??_C@_0L@FPDF@weapon?4md2?$AA@ 004724ac     cl_view.obj
 0003:000034b8       ??_C@_05LFDI@pics?$AN?$AA@ 004724b8     cl_view.obj
 0003:000034c0       ??_C@_0CH@PLNP@?5?5?5?5?5?5?5?5?5?5?5?5?5?5?5?5?5?5?5?5?5?5?5?5?5?5?5?5?5?5?5?5@ 004724c0     cl_view.obj
 0003:000034e8       ??_C@_08DCJF@Map?3?5?$CFs?$AN?$AA@ 004724e8     cl_view.obj
 0003:000034f4       ??_C@_0M@KMDB@Bad?5fov?3?5?$CFf?$AA@ 004724f4     cl_view.obj
 0003:00003500       ??_C@_09KDBC@frame?5?$CFi?6?$AA@ 00472500     cl_view.obj
 0003:0000350c       ??_C@_0BD@HFBD@models?1?$CFs?1tris?4md2?$AA@ 0047250c     cl_view.obj
 0003:00003520       ??_C@_06DOBF@?$CFd?0?$CFd?0?$AA@ 00472520     cl_view.obj
 0003:00003528       ??_C@_0O@NIAC@ent?3?$CFd?5?5lt?3?$CFd?$AA@ 00472528     cl_view.obj
 0003:00003538       ??_C@_0N@BNFC@Material?3?5?$CFs?$AA@ 00472538     cl_view.obj
 0003:00003548       ??_C@_09DOPH@?$DP?$DP?5bad?5?$DP?$DP?$AA@ 00472548     cl_view.obj
 0003:00003554       ??_C@_0M@JDOK@SURF_UNK_?$CFX?$AA@ 00472554     cl_view.obj
 0003:00003560       ??_C@_05IKIK@SURF_?$AA@    00472560     cl_view.obj
 0003:00003568       ??_C@_0BB@KKCA@Value?3?5?$CFi?5?$CI0x?$CFX?$CJ?$AA@ 00472568     cl_view.obj
 0003:0000357c       ??_C@_0BD@DLNG@Normal?3?5?$CFg?5?5?$CFg?5?5?$CFg?$AA@ 0047257c     cl_view.obj
 0003:00003590       ??_C@_0BB@JAPF@Surface?5name?3?5?$CFs?$AA@ 00472590     cl_view.obj
 0003:000035a4       ??_C@_0BC@HOHC@Point?3?5?$CFg?5?5?$CFg?5?5?$CFg?$AA@ 004725a4     cl_view.obj
 0003:000035b8       ??_C@_0O@GKEL@?9?9?9?9?9?9?9?9?9?9?9?9?9?$AA@ 004725b8     cl_view.obj
 0003:000035c8       ??_C@_0O@JPFO@Surface?5info?3?$AA@ 004725c8     cl_view.obj
 0003:000035d8       ??_C@_04DCMN@?$CFs?$CFs?$AA@ 004725d8     cl_view.obj
 0003:000035e0       ??_C@_09KGGB@CONTENTS_?$AA@ 004725e0     cl_view.obj
 0003:000035ec       ??_C@_0P@MNKG@CONTENTS_EMPTY?$AA@ 004725ec     cl_view.obj
 0003:000035fc       ??_C@_09KDKA@?9?9?9?9?9?9?9?9?9?$AA@ 004725fc     cl_view.obj
 0003:00003608       ??_C@_09LIH@Contents?3?$AA@ 00472608     cl_view.obj
 0003:00003614       ??_C@_0CH@GJAA@Leaf?5number?3?5?$CFd?0?5cluster?3?5?$CFi?0?5ar@ 00472614     cl_view.obj
 0003:0000363c       ??_C@_0BL@LAHG@View?5direction?3?5?$CFg?5?5?$CFg?5?5?$CFg?$AA@ 0047263c     cl_view.obj
 0003:00003658       ??_C@_0BI@MGLN@Point?3?5?$CF?40f?5?5?$CF?40f?5?5?$CF?40f?$AA@ 00472658     cl_view.obj
 0003:00003670       ??_C@_0BB@FKFJ@?9?9?9?9?9?9?9?9?9?9?9?9?9?9?9?9?$AA@ 00472670     cl_view.obj
 0003:00003684       ??_C@_0BB@HACL@Player?5position?3?$AA@ 00472684     cl_view.obj
 0003:00003698       ??_C@_0CA@NEDD@FPS?3?5?$CF?42f?5?5min?3?5?$CF?42f?5?5max?3?5?$CF?42f?$AA@ 00472698     cl_view.obj
 0003:000036b8       ??_C@_0BB@NOCM@?$CI?$CFd?5?$CFd?5?$CFd?$CJ?5?3?5?$CFd?6?$AA@ 004726b8     cl_view.obj
 0003:000036cc       ??_C@_0L@BJLF@screenshot?$AA@ 004726cc     cl_view.obj
 0003:000036d8       ??_C@_07NEL@viewpos?$AA@   004726d8     cl_view.obj
 0003:000036e0       ??_C@_09FEAB@gun_model?$AA@ 004726e0     cl_view.obj
 0003:000036ec       ??_C@_08OBON@gun_prev?$AA@ 004726ec     cl_view.obj
 0003:000036f8       ??_C@_08BIGI@gun_next?$AA@ 004726f8     cl_view.obj
 0003:00003704       ??_C@_0BE@NCII@Unknown?5option?3?5?$CFs?6?$AA@ 00472704     cl_view.obj
 0003:00003718       ??_C@_0BG@NDOP@Invalid?5map_name?3?5?$CFs?6?$AA@ 00472718     cl_view.obj
 0003:00003730       ??_C@_0CF@IJKE@No?5levelshots?5in?5disconnected?5st@ 00472730     cl_view.obj
 0003:00003758       ??_C@_0BC@LJDI@?$CFs?1screenshots?1?$CFs?$AA@ 00472758     cl_view.obj
 0003:0000376c       ??_C@_0DA@BHOJ@WARNING?3?5name?5already?5specified?5@ 0047276c     cl_view.obj
 0003:0000379c       ??_C@_04OJNE@jpeg?$AA@     0047279c     cl_view.obj
 0003:000037a4       ??_C@_04CNMC@no2d?$AA@     004727a4     cl_view.obj
 0003:000037ac       ??_C@_0BB@EPBF@?$CFs?1levelshots?1?$CFs?$AA@ 004727ac     cl_view.obj
 0003:000037c0       ??_C@_09IADL@levelshot?$AA@ 004727c0     cl_view.obj
 0003:000037cc       ??_C@_0EH@HEHH@Usage?3?5screenshot?5?$FL?9levelshot?$FN?5?$FL@ 004727cc     cl_view.obj
 0003:00003814       ??_C@_02PLJO@?1?$DP?$AA@   00472814     cl_view.obj
 0003:00003818       ??_C@_0BE@GNFH@Cbuf_AddText?3?5?$CC?$CFs?$CC?6?$AA@ 00472818     cmd.obj
 0003:0000382c       ??_C@_0BI@BFIN@Cbuf_AddText?3?5?$CFd?5chars?6?$AA@ 0047282c     cmd.obj
 0003:00003844       ??_C@_0BI@FHKM@Cbuf_AddText?3?5overflow?6?$AA@ 00472844     cmd.obj
 0003:0000385c       ??_C@_0CA@FOOP@Cbuf_ExecuteText?3?5bad?5exec_when?$AA@ 0047285c     cmd.obj
 0003:0000387c       ??_C@_0L@EPED@set?5?$CFs?5?$CFs?6?$AA@ 0047287c     cmd.obj
 0003:00003888       ??_C@_04DIPB@?$CLset?$AA@  00472888     cmd.obj
 0003:00003890       ??_C@_0M@DOAP@Execing?5?$CFs?6?$AA@ 00472890     cmd.obj
 0003:0000389c       ??_C@_0BC@CGKB@Couldn?8t?5exec?5?$CFs?6?$AA@ 0047289c     cmd.obj
 0003:000038b0       ??_C@_0BI@BCCL@Usage?3?5exec?5?$DMfilename?$DO?6?$AA@ 004728b0     cmd.obj
 0003:000038c8       ??_C@_03CENI@?$CFs?5?$AA@  004728c8     cmd.obj
 0003:000038cc       ??_C@_08IDHN@?$CFs?5?$CC?$CFs?$CC?6?$AA@ 004728cc     cmd.obj
 0003:000038d8       ??_C@_0BJ@KMBC@Current?5alias?5commands?3?6?$AA@ 004728d8     cmd.obj
 0003:000038f4       ??_C@_0BN@CLLA@Usage?3?5alias?5?$DMname?$DO?5?$DMvalue?$DO?6?$AA@ 004728f4     cmd.obj
 0003:00003914       ??_C@_0BE@FJHA@?$CFd?5aliases?5removed?6?$AA@ 00472914     cmd.obj
 0003:00003928       ??_C@_0BH@CGBN@Usage?3?5unalias?5?$DMmask?$DO?6?$AA@ 00472928     cmd.obj
 0003:00003940       ??_C@_0P@HFDC@alias?5?$CFs?5?$CC?$CFs?$CC?6?$AA@ 00472940     cmd.obj
 0003:00003950       ??_C@_0CB@CKOM@Macro?5expansion?5loop?0?5discarded?6@ 00472950     cmd.obj
 0003:00003974       ??_C@_0CM@IPC@Expanded?5line?5exceeded?5?$CFd?5chars?0@ 00472974     cmd.obj
 0003:000039a0       ??_C@_0CG@GFJO@Line?5has?5unmatched?5quote?0?5discar@ 004729a0     cmd.obj
 0003:000039c8       ??_C@_0CD@KLAD@Line?5exceeded?5?$CFd?5chars?0?5discarde@ 004729c8     cmd.obj
 0003:000039ec       ??_C@_0CE@BKIP@Cmd_AddCommand?3?5?$CFs?5already?5defin@ 004729ec     cmd.obj
 0003:00003a10       ??_C@_0CN@NAFC@Cmd_AddCommand?3?5?$CFs?5already?5defin@ 00472a10     cmd.obj
 0003:00003a40       ??_C@_0CB@BIOC@Cmd_RemoveCommand?3?5?$CFs?5not?5found?6@ 00472a40     cmd.obj
 0003:00003a64       ??_C@_0BC@BMPO@ALIAS_LOOP_COUNT?6?$AA@ 00472a64     cmd.obj
 0003:00003a78       ??_C@_06FPGI@cmd?5?$CFs?$AA@ 00472a78     cmd.obj
 0003:00003a80       ??_C@_08FBEI@cmd?3?5?$CFs?6?$AA@ 00472a80     cmd.obj
 0003:00003a8c       ??_C@_04OMDE@wait?$AA@     00472a8c     cmd.obj
 0003:00003a94       ??_C@_07CHCF@unalias?$AA@  00472a94     cmd.obj
 0003:00003a9c       ??_C@_05CBKM@alias?$AA@    00472a9c     cmd.obj
 0003:00003aa4       ??_C@_04DBD@exec?$AA@      00472aa4     cmd.obj
 0003:00003aac       ??_C@_07KFEL@cmdlist?$AA@  00472aac     cmd.obj
 0003:00003ab4       ??_C@_0BM@GCKF@Usage?3?5wait?5?$FL?$DMnum_frames?$DO?$FN?6?$AA@ 00472ab4     cmd.obj
 0003:00003ad0       ??_C@_0N@MOJP@?$CFd?5commands?6?$AA@ 00472ad0     cmd.obj
 0003:00003ae0       ??_C@_0BJ@PKNG@Usage?3?5cmdlist?5?$FL?$DMmask?$DO?$FN?6?$AA@ 00472ae0     cmd.obj
 0003:00003afc       _numleafs                  00472afc     cmodel.obj
 0003:00003b00       _numareas                  00472b00     cmodel.obj
 0003:00003b04       _numclusters               00472b04     cmodel.obj
 0003:00003b44       ??_C@_08DIA@flushmap?$AA@  00472b44     cmodel.obj
 0003:00003b50       ??_C@_0M@IKNM@map_noareas?$AA@ 00472b50     cmodel.obj
 0003:00003b5c       ??_C@_0BK@FOKE@Surf?5?$CFs?5have?5material?5?$CFd?6?$AA@ 00472b5c     cmodel.obj
 0003:00003b78       ??_C@_0BE@CKNK@sound?1materials?4lst?$AA@ 00472b78     cmodel.obj
 0003:00003b8c       ??_C@_0BK@CAPH@Map?5has?5too?5many?5surfaces?$AA@ 00472b8c     cmodel.obj
 0003:00003ba8       ??_C@_0BF@ECHE@Map?5with?5no?5surfaces?$AA@ 00472ba8     cmodel.obj
 0003:00003bc0       ??_C@_0BL@EKH@Unexpected?5end?5of?5file?5?$CFs?6?$AA@ 00472bc0     cmodel.obj
 0003:00003bdc       ??_C@_0CC@HCFK@Unknown?5material?5mark?5?$CC?$CFs?$CC?5in?5?$CFs@ 00472bdc     cmodel.obj
 0003:00003c00       ??_C@_0CE@JLFE@ReadSurfMaterials?3?5?$CFs?5is?5not?5fou@ 00472c00     cmodel.obj
 0003:00003c24       ??_C@_0BH@MFMD@Map?5has?5too?5many?5nodes?$AA@ 00472c24     cmodel.obj
 0003:00003c3c       ??_C@_0BB@DDCL@Map?5has?5no?5nodes?$AA@ 00472c3c     cmodel.obj
 0003:00003c50       ??_C@_0BJ@FHAC@Map?5has?5too?5many?5brushes?$AA@ 00472c50     cmodel.obj
 0003:00003c6c       ??_C@_0CA@NLGE@Map?5does?5not?5have?5an?5empty?5leaf?$AA@ 00472c6c     cmodel.obj
 0003:00003c8c       ??_C@_0CB@GIMM@Map?5leaf?50?5is?5not?5CONTENTS_SOLID@ 00472c8c     cmodel.obj
 0003:00003cb0       ??_C@_0BH@MEAO@Map?5has?5too?5many?5leafs?$AA@ 00472cb0     cmodel.obj
 0003:00003cc8       ??_C@_0BC@JLOO@Map?5with?5no?5leafs?$AA@ 00472cc8     cmodel.obj
 0003:00003cdc       ??_C@_0BI@JNEC@Map?5has?5too?5many?5planes?$AA@ 00472cdc     cmodel.obj
 0003:00003cf4       ??_C@_0BD@BHBN@Map?5with?5no?5planes?$AA@ 00472cf4     cmodel.obj
 0003:00003d08       ??_C@_0BN@GCPJ@Map?5has?5too?5many?5leafbrushes?$AA@ 00472d08     cmodel.obj
 0003:00003d28       ??_C@_0BI@HDCD@Map?5with?5no?5leafbrushes?$AA@ 00472d28     cmodel.obj
 0003:00003d40       ??_C@_0BG@NJMD@Bad?5brushside?5texinfo?$AA@ 00472d40     cmodel.obj
 0003:00003d58       ??_C@_0BM@GOH@Map?5has?5too?5many?5brushsides?$AA@ 00472d58     cmodel.obj
 0003:00003d74       ??_C@_0BH@GDAE@Map?5has?5too?5many?5areas?$AA@ 00472d74     cmodel.obj
 0003:00003d8c       ??_C@_0BL@ONMA@CM_InlineModel?3?5bad?5number?$AA@ 00472d8c     cmodel.obj
 0003:00003da8       ??_C@_0BJ@CPOG@CM_InlineModel?3?5bad?5name?$AA@ 00472da8     cmodel.obj
 0003:00003dc4       ??_C@_0BM@DMDO@CM_LeafContents?3?5bad?5number?$AA@ 00472dc4     cmodel.obj
 0003:00003de0       ??_C@_0BL@JBNK@CM_LeafCluster?3?5bad?5number?$AA@ 00472de0     cmodel.obj
 0003:00003dfc       ??_C@_0BI@MLDM@CM_LeafArea?3?5bad?5number?$AA@ 00472dfc     cmodel.obj
 0003:00003e14       ??_C@_0BN@PANE@Not?5enough?5room?5for?5box?5tree?$AA@ 00472e14     cmodel.obj
 0003:00003e34       ??_C@_0CE@MHHN@WARNING?3?5Vis?5decompression?5overr@ 00472e34     cmodel.obj
 0003:00003e58       ??_C@_0BH@HHDN@FloodArea_r?3?5reflooded?$AA@ 00472e58     cmodel.obj
 0003:00003e70       ??_C@_0BM@IGEP@areaportal?5?$DO?5numareaportals?$AA@ 00472e70     cmodel.obj
 0003:00003e8c       ??_C@_0BA@PBOF@area?5?$DO?5numareas?$AA@ 00472e8c     cmodel.obj
 0003:00003ea0       _bytedirs                  00472ea0     common.obj
 0003:00004ae8       ??_C@_08PEEC@FreeTags?$AA@ 00473ae8     common.obj
 0003:00004af4       ??_C@_04NEN@Free?$AA@      00473af4     common.obj
 0003:00004afc       ??_C@_06FGBD@Malloc?$AA@   00473afc     common.obj
 0003:00004b04       ??_C@_08CKGE@SndIndex?$AA@ 00473b04     common.obj
 0003:00004b10       ??_C@_08LEPK@ImgIndex?$AA@ 00473b10     common.obj
 0003:00004b1c       ??_C@_08HHIL@ModIndex?$AA@ 00473b1c     common.obj
 0003:00004b28       ??_C@_05BDKN@Pmove?$AA@    00473b28     common.obj
 0003:00004b30       ??_C@_0L@HLNK@PtContents?$AA@ 00473b30     common.obj
 0003:00004b3c       ??_C@_05EMFM@Trace?$AA@    00473b3c     common.obj
 0003:00004b44       ??_C@_0L@DDPI@AreaEdicts?$AA@ 00473b44     common.obj
 0003:00004b50       ??_C@_0M@GOJ@UnlinkEdict?$AA@ 00473b50     common.obj
 0003:00004b5c       ??_C@_09FCBE@LinkEdict?$AA@ 00473b5c     common.obj
 0003:00004b68       ??_C@_09GLCL@dedicated?$AA@ 00473b68     common.obj
 0003:00004b74       ??_C@_07OFK@logfile?$AA@   00473b74     common.obj
 0003:00004b7c       ??_C@_09GDME@fixedtime?$AA@ 00473b7c     common.obj
 0003:00004b88       ??_C@_09PFGA@timescale?$AA@ 00473b88     common.obj
 0003:00004b94       ??_C@_09KOCP@developer?$AA@ 00473b94     common.obj
 0003:00004ba0       ??_C@_09BEOF@log_stats?$AA@ 00473ba0     common.obj
 0003:00004bac       ??_C@_0L@OINE@com_speeds?$AA@ 00473bac     common.obj
 0003:00004bb8       ??_C@_01FNLH@a?$AA@        00473bb8     common.obj
 0003:00004bbc       ??_C@_0P@OGMM@?$CFs?1console?4log?$AA@ 00473bbc     common.obj
 0003:00004bcc       ??_C@_04OHIG@?$FO4?$CFs?$AA@ 00473bcc     common.obj
 0003:00004bd4       ??_C@_0CG@OBIB@?6?6?9?9?9?9?9?5Quake2?5debug?5log?5on?5?$CFs?5?9@ 00473bd4     common.obj
 0003:00004bfc       ??_C@_0BI@HGMM@?$CFa?5?$CFb?5?$CFd?0?5?$CFY?5?$CI?$CFH?3?$CFM?3?$CFS?$CJ?$AA@ 00473bfc     common.obj
 0003:00004c14       ??_C@_09PPIM@debug?4log?$AA@ 00473c14     common.obj
 0003:00004c20       ??_C@_02JALM@a?$CL?$AA@    00473c20     common.obj
 0003:00004c24       ??_C@_04FJOH@?$FO3?$CFs?$AA@ 00473c24     common.obj
 0003:00004c2c       ??_C@_0BK@LBEM@Server?5fatal?5crashed?3?5?$CFs?6?$AA@ 00473c2c     common.obj
 0003:00004c48       ??_C@_0BE@GPDD@Server?5crashed?3?5?$CFs?6?$AA@ 00473c48     common.obj
 0003:00004c5c       ??_C@_0DH@EPCI@?$FO1?$CK?$CK?$CK?$CK?$CK?$CK?$CK?$CK?$CK?$CK?$CK?$CK?$CK?$CK?$CK?$CK?$CK?$CK?$CK?$CK?6ERROR?3?5?$CFs@ 00473c5c     common.obj
 0003:00004c94       ??_C@_0BK@GCKO@recursive?5error?5after?3?5?$CFs?$AA@ 00473c94     common.obj
 0003:00004cb0       ??_C@_0CG@LNFM@CheckMask?$CI?$CJ?3?5skip?5empty?5mask?5in?5@ 00473cb0     common.obj
 0003:00004cd8       ??_C@_0BO@KBHK@IPWildcard?3?5bad?5char?5in?5?$CC?$CFs?$CC?6?$AA@ 00473cd8     common.obj
 0003:00004cf8       ??_C@_0BN@JGPE@IPWildcard?3?5short?5mask?5?$CC?$CFs?$CC?6?$AA@ 00473cf8     common.obj
 0003:00004d18       ??_C@_0BK@OJBA@MSG_ReadDir?3?5out?5of?5range?$AA@ 00473d18     common.obj
 0003:00004d34       ??_C@_0BM@PCGB@Entity?5number?5?$DO?$DN?5MAX_EDICTS?$AA@ 00473d34     common.obj
 0003:00004d50       ??_C@_0BE@IKFJ@Unset?5entity?5number?$AA@ 00473d50     common.obj
 0003:00004d64       ??_C@_0CJ@MBBM@SZ_GetSpace?3?5overflow?5?$CImax?$DN?$CFd?0?5n@ 00473d64     common.obj
 0003:00004d90       ??_C@_0CG@FFIF@SZ_GetSpace?3?5?$CFi?5is?5?$DO?5full?5buffer@ 00473d90     common.obj
 0003:00004db8       ??_C@_0DA@KHCI@SZ_GetSpace?3?5overflow?5without?5al@ 00473db8     common.obj
 0003:00004de8       ??_C@_0BF@GHMA@argc?5?$DO?5MAX_NUM_ARGVS?$AA@ 00473de8     common.obj
 0003:00004e00       ??_C@_0BN@KHMC@Info_Print?$CI?$CJ?3?5missing?5value?6?$AA@ 00473e00     common.obj
 0003:00004e20       ??_C@_0BH@JNPH@BlockCRC?3?5sequence?5?$DM?50?$AA@ 00473e20     common.obj
 0003:00004e38       ??_C@_0CD@EGAB@?$DN?$DN?$DN?$DN?$DN?$DN?5Quake2?5Initialized?5?$DN?$DN?$DN?$DN?$DN?$DN@ 00473e38     common.obj
 0003:00004e5c       ??_C@_0BB@MFEB@dedicated_start?6?$AA@ 00473e5c     common.obj
 0003:00004e70       ??_C@_03CHOC@d1?6?$AA@     00473e70     common.obj
 0003:00004e74       ??_C@_07BPOH@version?$AA@  00473e74     common.obj
 0003:00004e7c       ??_C@_0P@IMB@?$CF4?42f?5?$CFs?5?$CFs?5?$CFs?$AA@ 00473e7c     common.obj
 0003:00004e8c       ??_C@_03HION@x86?$AA@      00473e8c     common.obj
 0003:00004e90       ??_C@_0M@BDND@May?527?52003?$AA@ 00473e90     common.obj
 0003:00004e9c       ??_C@_0O@MAFB@Win32?5RELEASE?$AA@ 00473e9c     common.obj
 0003:00004eac       ??_C@_05COLM@error?$AA@    00473eac     common.obj
 0003:00004eb4       ??_C@_0BM@EJHE@Error?5during?5initialization?$AA@ 00473eb4     common.obj
 0003:00004ed0       ??_C@_0M@PFH@?$CFs?3?5?$CF3d?5?$CF4f?$AA@ 00473ed0     common.obj
 0003:00004edc       ??_C@_0BM@DFMO@tr?3?5?$CF4d?5?$CI?$CF4d?$CJ?5pt?3?5?$CF4d?5?$CI?$CF4d?$CJ?$AA@ 00473edc     common.obj
 0003:00004ef8       ??_C@_0CK@IONG@sv?3?$CF2d?5gm?3?$CF2d?5?$CI?$CF2d?$CJ?5cl?3?$CF2d?5rf?3?$CF2@ 00473ef8     common.obj
 0003:00004f24       ??_C@_0CD@HKPH@entities?0dlights?0parts?0frame?5tim@ 00473f24     common.obj
 0003:00004f48       ??_C@_09DKOP@stats?4log?$AA@ 00473f48     common.obj
 0003:00004f54       ??_C@_0BE@OKIA@Qhost?5not?5present?4?6?$AA@ 00473f54     conproc.obj
 0003:00004f68       ??_C@_0BO@GPEP@Couldn?8t?5create?5QHOST?5thread?6?$AA@ 00473f68     conproc.obj
 0003:00004f88       ??_C@_0BM@CFBN@Couldn?8t?5create?5heventDone?6?$AA@ 00473f88     conproc.obj
 0003:00004fa4       ??_C@_0BJ@CNFP@Initializing?5for?5qhost?4?6?$AA@ 00473fa4     conproc.obj
 0003:00004fc0       ??_C@_07GNDC@?9HCHILD?$AA@ 00473fc0     conproc.obj
 0003:00004fc8       ??_C@_08HMIJ@?9HPARENT?$AA@ 00473fc8     conproc.obj
 0003:00004fd4       ??_C@_06POGL@?9HFILE?$AA@  00473fd4     conproc.obj
 0003:00004fdc       ??_C@_0BF@BPBE@Invalid?5hfileBuffer?6?$AA@ 00473fdc     conproc.obj
 0003:00005028       ??_C@_0O@NKNC@con_colortext?$AA@ 00474028     console.obj
 0003:00005038       ??_C@_0N@EFOH@con_wordwrap?$AA@ 00474038     console.obj
 0003:00005048       ??_C@_0P@KPEI@con_notifytime?$AA@ 00474048     console.obj
 0003:00005058       ??_C@_0M@OCGL@killserver?6?$AA@ 00474058     console.obj
 0003:00005064       ??_C@_07BOCA@condump?$AA@  00474064     console.obj
 0003:0000506c       ??_C@_05BDJO@clear?$AA@    0047406c     console.obj
 0003:00005074       ??_C@_0N@OKBC@messagemode2?$AA@ 00474074     console.obj
 0003:00005084       ??_C@_0M@KMFF@messagemode?$AA@ 00474084     console.obj
 0003:00005090       ??_C@_0L@FEKD@togglechat?$AA@ 00474090     console.obj
 0003:0000509c       ??_C@_0O@PBHO@toggleconsole?$AA@ 0047409c     console.obj
 0003:000050ac       ??_C@_0BG@JNHM@Console?5initialized?4?6?$AA@ 004740ac     console.obj
 0003:000050c4       ??_C@_0BH@PIJG@ERROR?3?5couldn?8t?5open?4?6?$AA@ 004740c4     console.obj
 0003:000050dc       ??_C@_0BM@IEDC@Dumped?5console?5text?5to?5?$CFs?4?6?$AA@ 004740dc     console.obj
 0003:000050f8       ??_C@_09IEOG@?$CFs?1?$CFs?4txt?$AA@ 004740f8     console.obj
 0003:00005104       ??_C@_0BL@HCGG@usage?3?5condump?5?$DMfilename?$DO?6?$AA@ 00474104     console.obj
 0003:00005120       ??_C@_04BNNP@say?3?$AA@    00474120     console.obj
 0003:00005128       ??_C@_09GEPG@say_team?3?$AA@ 00474128     console.obj
 0003:00005134       ??_C@_07FCPE@?5?$CF02d?$CF?$CF?$AA@ 00474134     console.obj
 0003:0000513c       ??_C@_02HFBK@?3?5?$AA@     0047413c     console.obj
 0003:00005140       ??_C@_03NAME@?4?4?4?$AA@   00474140     console.obj
 0003:00005144       ??_C@_07GICG@conback?$AA@  00474144     console.obj
 0003:0000514c       ??_C@_0N@LACK@Quake2?5v4?400?$AA@ 0047414c     console.obj
 0003:00005360       ??_C@_0BJ@JIGN@Invalid?5info?5cvar?5value?6?$AA@ 00474360     cvar.obj
 0003:0000537c       ??_C@_0CP@CFHC@Different?5default?5value?5for?5cvar@ 0047437c     cvar.obj
 0003:000053ac       ??_C@_0BI@DGEI@Invalid?5info?5cvar?5name?6?$AA@ 004743ac     cvar.obj
 0003:000053c4       ??_C@_02DLJH@?$CFg?$AA@    004743c4     cvar.obj
 0003:000053c8       ??_C@_0CD@GBGG@?$CFs?5will?5be?5changed?5for?5next?5game@ 004743c8     cvar.obj
 0003:000053ec       ??_C@_0BH@FDIH@?$CFs?5is?5cheat?5protected?6?$AA@ 004743ec     cvar.obj
 0003:00005404       ??_C@_0BH@EAGI@?$CFs?5is?5write?5protected?6?$AA@ 00474404     cvar.obj
 0003:0000541c       ??_C@_02MECO@?$CFd?$AA@    0047441c     cvar.obj
 0003:00005420       ??_C@_0BD@DOLD@?$CC?$CFs?$CC?5is?3?$CC?$CFs?$CC?5?$CFs?$CFs?6?$AA@ 00474420     cvar.obj
 0003:00005434       ??_C@_0N@LNED@?$CIno?5default?$CJ?$AA@ 00474434     cvar.obj
 0003:00005444       ??_C@_0N@KINN@default?3?$CC?$CFs?$CC?$AA@ 00474444     cvar.obj
 0003:00005454       ??_C@_08NEHJ@?9?$DO?5?$CC?$CFs?$CC?5?$AA@ 00474454     cvar.obj
 0003:00005460       ??_C@_0P@HEND@set?$CFc?5?$CFs?5?$CC?$CFs?$CC?6?$AA@ 00474460     cvar.obj
 0003:00005470       ??_C@_0BG@JGCG@fixing?5cheat?5cvar?5?$CFs?6?$AA@ 00474470     cvar.obj
 0003:00005488       ??_C@_05BPBD@cycle?$AA@    00474488     cvar.obj
 0003:00005490       ??_C@_06KGCE@toggle?$AA@   00474490     cvar.obj
 0003:00005498       ??_C@_05IMHO@scale?$AA@    00474498     cvar.obj
 0003:000054a0       ??_C@_03ONEI@add?$AA@      004744a0     cvar.obj
 0003:000054a4       ??_C@_08DHNN@cvarlist?$AA@ 004744a4     cvar.obj
 0003:000054b0       ??_C@_04PHDO@sets?$AA@     004744b0     cvar.obj
 0003:000054b8       ??_C@_04IEM@setu?$AA@      004744b8     cvar.obj
 0003:000054c0       ??_C@_04LGA@seta?$AA@      004744c0     cvar.obj
 0003:000054c8       ??_C@_03NHNF@set?$AA@      004744c8     cvar.obj
 0003:000054cc       ??_C@_0BK@HFIG@Invalid?5flag?5for?5set?3?5?$CFc?6?$AA@ 004744cc     cvar.obj
 0003:000054e8       ??_C@_0EH@DNNB@Usage?3?5set?5?$DMvariable?$DO?5?$DMvalue?$DO?5?$FLu@ 004744e8     cvar.obj
 0003:00005530       ??_C@_0CA@DHAI@Usage?3?5seta?5?$DMvariable?$DO?5?$DMvalue?$DO?6?$AA@ 00474530     cvar.obj
 0003:00005550       ??_C@_0CA@HCDI@Usage?3?5setu?5?$DMvariable?$DO?5?$DMvalue?$DO?6?$AA@ 00474550     cvar.obj
 0003:00005570       ??_C@_0CA@BDLA@Usage?3?5sets?5?$DMvariable?$DO?5?$DMvalue?$DO?6?$AA@ 00474570     cvar.obj
 0003:00005590       ??_C@_0BF@LGPO@Usage?3?5reset?5?$DMmask?$DO?6?$AA@ 00474590     cvar.obj
 0003:000055a8       ??_C@_0O@FMEK@?5?5?5?5?$CFd?5cvars?6?$AA@ 004745a8     cvar.obj
 0003:000055b8       ??_C@_0O@LFFB@?$CFs?5?$CFs?$CFs?5?$CC?$CFs?$CC?6?$AA@ 004745b8     cvar.obj
 0003:000055c8       ??_C@_02FDKA@?$FO1?$AA@    004745c8     cvar.obj
 0003:000055cc       ??_C@_02PJPM@?$FO5?$AA@    004745cc     cvar.obj
 0003:000055d0       ??_C@_02GEF@?$FO6?$AA@     004745d0     cvar.obj
 0003:000055d4       ??_C@_06NPIL@?5?5?5?5?5?5?$AA@ 004745d4     cvar.obj
 0003:000055dc       ??_C@_0BK@FEJA@Usage?3?5cvarlist?5?$FL?$DMmask?$DO?$FN?6?$AA@ 004745dc     cvar.obj
 0003:000055f8       ??_C@_0BB@LABI@?$CFs?5is?5not?5found?6?$AA@ 004745f8     cvar.obj
 0003:0000560c       ??_C@_0BB@FAIO@add?3?5MIN?5?$DO?$DN?5MAX?6?$AA@ 0047460c     cvar.obj
 0003:00005620       ??_C@_0BK@BDKF@Invalid?5flag?5for?5add?3?5?$CFc?6?$AA@ 00474620     cvar.obj
 0003:0000563c       ??_C@_0DI@LNAG@Usage?3?5add?5?$DMvariable?$DO?5?$DMincrement@ 0047463c     cvar.obj
 0003:00005674       ??_C@_0CB@KHPP@Usage?3?5scale?5?$DMvariable?$DO?5?$DMscale?$DO?6@ 00474674     cvar.obj
 0003:00005698       ??_C@_0BK@DBGB@Usage?3?5toggle?5?$DMvariable?$DO?6?$AA@ 00474698     cvar.obj
 0003:000056b4       ??_C@_0DK@HFBF@Usage?3?5cycle?5?$DMvariable?$DO?5?$DMvalue1?$DO@ 004746b4     cvar.obj
 0003:00005748       ??_C@_08HPLN@fs_debug?$AA@ 00474748     files.obj
 0003:00005754       ??_C@_05NOEM@cddir?$AA@    00474754     files.obj
 0003:0000575c       ??_C@_0L@DMHA@config?4cfg?$AA@ 0047475c     files.obj
 0003:00005768       ??_C@_01PJCK@?4?$AA@       00474768     files.obj
 0003:0000576c       ??_C@_07JKBB@basedir?$AA@  0047476c     files.obj
 0003:00005774       ??_C@_06NNND@?5?$FLzip?$FN?$AA@ 00474774     files.obj
 0003:0000577c       ??_C@_04LPB@?$FO2?$CFs?$AA@ 0047477c     files.obj
 0003:00005784       ??_C@_09HGHK@path?3?5?$CFs?6?$AA@ 00474784     files.obj
 0003:00005790       ??_C@_0N@CAF@?3?5can?8t?5dst?6?$AA@ 00474790     files.obj
 0003:000057a0       ??_C@_09EEPI@?3?5no?5src?6?$AA@ 004747a0     files.obj
 0003:000057ac       ??_C@_02JKAF@rb?$AA@       004747ac     files.obj
 0003:000057b0       ??_C@_0P@KHIG@copy?$CI?$CFs?5?9?$DO?5?$CFs?$CJ?$AA@ 004747b0     files.obj
 0003:000057c0       ??_C@_0BN@EANL@CopyFiles?3?5bad?5srcMask?5?$CC?$CFs?$CC?6?$AA@ 004747c0     files.obj
 0003:000057e0       ??_C@_0BD@PMPF@CopyFiles?$CI?$CFs?9?$DO?$CFs?$CJ?6?$AA@ 004747e0     files.obj
 0003:000057f4       ??_C@_08JCJC@del?$CI?$CFs?$CJ?6?$AA@ 004747f4     files.obj
 0003:00005800       ??_C@_0BB@LNHI@RemoveFiles?$CI?$CFs?$CJ?6?$AA@ 00474800     files.obj
 0003:00005814       ??_C@_05LGKD@rogue?$AA@    00474814     files.obj
 0003:0000581c       ??_C@_06CMKC@xatrix?$AA@   0047481c     files.obj
 0003:00005824       ??_C@_0CG@FFIO@FS_FCloseFile?3?5damaged?5zip?5file?5@ 00474824     files.obj
 0003:0000584c       ??_C@_0DE@OMMO@FS_FCloseFile?3?5invalid?5file?5hand@ 0047484c     files.obj
 0003:00005880       ??_C@_0M@NIP@no?5file?5?$CFs?6?$AA@ 00474880     files.obj
 0003:0000588c       ??_C@_0L@IGJB@rfile?3?5?$CFs?6?$AA@ 0047488c     files.obj
 0003:00005898       ??_C@_0BA@GILD@pfile?3?5?$CFs?5?$CI?$CFs?$CJ?6?$AA@ 00474898     files.obj
 0003:000058a8       ??_C@_09GNOK@file?3?5?$CFs?6?$AA@ 004748a8     files.obj
 0003:000058b4       ??_C@_0BL@MAPJ@FS_FOpenFile?3?5bad?5path?5?$CFs?6?$AA@ 004748b4     files.obj
 0003:000058d0       ??_C@_09HGNB@link?3?5?$CFs?6?$AA@ 004748d0     files.obj
 0003:000058dc       ??_C@_0BN@NHIO@FS_FileExists?3?5bad?5path?3?5?$CFs?6?$AA@ 004748dc     files.obj
 0003:000058fc       ??_C@_0L@GGMM@check?3?5?$CFs?6?$AA@ 004748fc     files.obj
 0003:00005908       ??_C@_0BH@CPFC@FS_Read?3?5?91?5bytes?5read?$AA@ 00474908     files.obj
 0003:00005920       ??_C@_0BJ@JLFJ@Error?5reading?5zip?5file?4?6?$AA@ 00474920     files.obj
 0003:0000593c       ??_C@_0BO@HCGA@Cannot?5open?5file?5?$CFs?5in?5zip?5?$CFs?$AA@ 0047493c     files.obj
 0003:0000595c       ??_C@_0BH@MOEI@Couldn?8t?5reopen?5zip?5?$CFs?$AA@ 0047495c     files.obj
 0003:00005974       ??_C@_0P@PKOB@Cannot?5seek?5?$CFs?$AA@ 00474974     files.obj
 0003:00005984       ??_C@_0BD@IPHH@Couldn?8t?5reopen?5?$CFs?$AA@ 00474984     files.obj
 0003:00005998       ??_C@_0BE@BDDP@Cannot?5open?5file?5?$CFs?$AA@ 00474998     files.obj
 0003:000059ac       ??_C@_0CO@EJPB@FS_Read?3?5invalid?5file?5handle?5?$CIca@ 004749ac     files.obj
 0003:000059dc       ??_C@_0CA@LGJK@Added?5packfile?$CFs?5?$CFs?5?$CI?$CFd?5files?$CJ?6?$AA@ 004749dc     files.obj
 0003:000059fc       ??_C@_0BH@PBHF@Cannot?5seek?5pakfile?5?$CFs?$AA@ 004749fc     files.obj
 0003:00005a14       ??_C@_0BG@PDLL@?$CFs?5is?5not?5a?5packfile?6?$AA@ 00474a14     files.obj
 0003:00005a2c       ??_C@_0BJ@MFIO@Cannot?5read?5packfile?5?$CFs?6?$AA@ 00474a2c     files.obj
 0003:00005a48       ??_C@_0BJ@PAHA@Cannot?5open?5packfile?5?$CFs?6?$AA@ 00474a48     files.obj
 0003:00005a64       ??_C@_0BN@FKDH@Unloading?5pak?5?$CFs?5?$CI?$CFd?5files?$CJ?6?$AA@ 00474a64     files.obj
 0003:00005a84       ??_C@_0CK@CCBE@AddGameDirectory?3?5path?5?$CC?$CFs?$CC?5is?5n@ 00474a84     files.obj
 0003:00005ab0       ??_C@_08LIIG@?$CFs?1?$CK?4pak?$AA@ 00474ab0     files.obj
 0003:00005abc       ??_C@_04FIFD@?$CFs?1?$CK?$AA@ 00474abc     files.obj
 0003:00005ac4       ??_C@_01FDHG@?$CK?$AA@     00474ac4     files.obj
 0003:00005ac8       ??_C@_0BD@EAME@exec?5autoexec?4cfg?6?$AA@ 00474ac8     files.obj
 0003:00005adc       ??_C@_0BA@DALF@?$CFs?1autoexec?4cfg?$AA@ 00474adc     files.obj
 0003:00005aec       ??_C@_0BC@LCK@exec?5default?4cfg?6?$AA@ 00474aec     files.obj
 0003:00005b00       ??_C@_0CF@DFHG@unbindall?6reset?5?$CK?6unalias?5?$CK?6exec@ 00474b00     files.obj
 0003:00005b28       ??_C@_01LHO@r?$AA@         00474b28     files.obj
 0003:00005b2c       ??_C@_07MNHC@gamedir?$AA@  00474b2c     files.obj
 0003:00005b34       ??_C@_0DB@BEAB@Gamedir?5should?5be?5a?5single?5filen@ 00474b34     files.obj
 0003:00005b68       ??_C@_0BM@GIMG@Invalid?5game?5directory?3?5?$CFs?6?$AA@ 00474b68     files.obj
 0003:00005b84       ??_C@_0BJ@FGHA@vid_restart?6snd_restart?6?$AA@ 00474b84     files.obj
 0003:00005ba0       ??_C@_07EDLB@?$CFs?1?$CFs?1?$CK?$AA@ 00474ba0     files.obj
 0003:00005ba8       ??_C@_0BL@LMGH@FS_ListFiles?3?5bad?5path?5?$CFs?6?$AA@ 00474ba8     files.obj
 0003:00005bc4       ??_C@_09GAIG@list?3?5?$CFs?6?$AA@ 00474bc4     files.obj
 0003:00005bd0       ??_C@_09FHIO@?$CFs?1baseq2?$AA@ 00474bd0     files.obj
 0003:00005bdc       ??_C@_04PIKN@type?$AA@     00474bdc     files.obj
 0003:00005be4       ??_C@_03KMBF@cat?$AA@      00474be4     files.obj
 0003:00005be8       ??_C@_09POHG@unloadpak?$AA@ 00474be8     files.obj
 0003:00005bf4       ??_C@_07DFHG@loadpak?$AA@  00474bf4     files.obj
 0003:00005bfc       ??_C@_03FIFC@dir?$AA@      00474bfc     files.obj
 0003:00005c00       ??_C@_04KFLO@link?$AA@     00474c00     files.obj
 0003:00005c08       ??_C@_04NCOD@path?$AA@     00474c08     files.obj
 0003:00005c10       ??_C@_0BH@EIKK@Added?5?$CFd?5inline?5files?6?$AA@ 00474c10     files.obj
 0003:00005c28       ??_C@_0BK@IALJ@Packfile?5?$CFs?5is?5not?5found?6?$AA@ 00474c28     files.obj
 0003:00005c44       ??_C@_04IMFH@?4pak?$AA@    00474c44     files.obj
 0003:00005c4c       ??_C@_0DK@OKCK@Usage?3?5loadpak?5?$DMpakname?$DO?$FL?4pak?$FN?6?5@ 00474c4c     files.obj
 0003:00005c88       ??_C@_0BP@CBNL@Packfile?5?$CFs?5is?5already?5loaded?6?$AA@ 00474c88     files.obj
 0003:00005ca8       ??_C@_0BL@LOCO@Packfile?5?$CFs?5is?5not?5loaded?6?$AA@ 00474ca8     files.obj
 0003:00005cc4       ??_C@_03FELK@?1?$CFs?$AA@  00474cc4     files.obj
 0003:00005cc8       ??_C@_0DO@FKGH@Usage?3?5unloadpak?5?$DMpakname?$DO?$FL?4pak?$FN@ 00474cc8     files.obj
 0003:00005d08       ??_C@_0BJ@CCLN@Usage?3?5link?5?$DMfrom?$DO?5?$DMto?$DO?6?$AA@ 00474d08     files.obj
 0003:00005d24       ??_C@_0BK@NOKB@Directory?5of?5?$CFs?6?9?9?9?9?9?9?9?9?6?$AA@ 00474d24     files.obj
 0003:00005d40       ??_C@_04EIKO@?1?$CK?4?$CK?$AA@ 00474d40     files.obj
 0003:00005d48       ??_C@_03DCMC@?$CK?4?$CK?$AA@ 00474d48     files.obj
 0003:00005d4c       ??_C@_0BJ@DJPM@Usage?3?5dir?5?$FL?$DMwildcard?$DO?$FN?6?$AA@ 00474d4c     files.obj
 0003:00005d68       ??_C@_08KOAJ@?$CFs?5?3?5?$CFs?6?$AA@ 00474d68     files.obj
 0003:00005d74       ??_C@_08BPPO@?6Links?3?6?$AA@ 00474d74     files.obj
 0003:00005d80       ??_C@_0BB@JIPE@?$CFs?$CFs?5?$CI?$CFi?5files?$CJ?6?$AA@ 00474d80     files.obj
 0003:00005d94       ??_C@_0M@NHAD@?9?9?9?9?9?9?9?9?9?9?6?$AA@ 00474d94     files.obj
 0003:00005da0       ??_C@_0BG@FLGJ@Current?5search?5path?3?6?$AA@ 00474da0     files.obj
 0003:00005db8       ??_C@_0BL@DFHA@?6binary?5file?5?4?4?4?5stopped?4?6?$AA@ 00474db8     files.obj
 0003:00005dd4       ??_C@_02JBML@?$CFc?$AA@    00474dd4     files.obj
 0003:00005dd8       ??_C@_0L@MFDD@?6?9?9?9?9?9?9?9?9?6?$AA@ 00474dd8     files.obj
 0003:00005de4       ??_C@_0BG@FHIN@File?5?$CFs?5is?5not?5found?6?$AA@ 00474de4     files.obj
 0003:00005dfc       ??_C@_0BH@IAD@Usage?3?5cat?5?$DMfilename?$DO?6?$AA@ 00474dfc     files.obj
 0003:00005e14       ??_C@_0BC@OMJL@length?3?5?$CFd?5bytes?6?$AA@ 00474e14     files.obj
 0003:00005e28       ??_C@_0BI@POEI@File?5?$CC?$CFs?$CC?5is?5not?5found?6?$AA@ 00474e28     files.obj
 0003:00005e40       ??_C@_0BI@COAN@Usage?3?5type?5?$DMfilename?$DO?6?$AA@ 00474e40     files.obj
 0003:00005e58       ??_C@_0BL@CIA@LoadPCX?$CI?$CFs?$CJ?3?5bad?5pcx?5file?6?$AA@ 00474e58     images.obj
 0003:00005e74       ??_C@_0CA@DBNL@LoadPCX?$CI?$CFs?$CJ?3?5file?5was?5malformed?$AA@ 00474e74     images.obj
 0003:00005e94       ??_C@_0CL@KDOH@LoadTGA?3?5illegal?5pixel?5size?5?$CFd?5i@ 00474e94     images.obj
 0003:00005ec0       ??_C@_0CP@EEDO@LoadTGA?$CI?$CFs?$CJ?3?5illegal?5pixel?5size?5@ 00474ec0     images.obj
 0003:00005ef0       ??_C@_0CE@CLLD@LoadTGA?$CI?$CFs?$CJ?3?5illegal?5pixel?5size?5@ 00474ef0     images.obj
 0003:00005f14       ??_C@_0DB@OJBJ@LoadTGA?$CI?$CFs?$CJ?3?5Only?532?5or?524?5bit?5i@ 00474f14     images.obj
 0003:00005f48       ??_C@_0CG@MDFJ@LoadTGA?$CI?$CFs?$CJ?3?5colormaps?5not?5suppo@ 00474f48     images.obj
 0003:00005f70       ??_C@_0FG@DMPC@LoadTGA?$CI?$CFs?$CJ?3?5Only?5type?52?5?$CIRGB?$CJ?0?5@ 00474f70     images.obj
 0003:00005fc8       ??_C@_0CB@NKB@LoadJPG?$CI?$CFs?$CJ?3?5image?5is?5too?5large?6@ 00474fc8     images.obj
 0003:00005fec       ??_C@_0CL@KMKN@LoadJPG?$CI?$CFs?$CJ?3?5color?5components?5no@ 00474fec     images.obj
 0003:00006018       ??_C@_0BG@MADD@Damaged?5JPEG?5file?5?$CFs?6?$AA@ 00475018     images.obj
 0003:00006030       ??_C@_0L@LCIE@JPEG?5error?$AA@ 00475030     images.obj
 0003:0000603c       ??_C@_0BB@IMMK@JPEG?5warning?5?$CFd?6?$AA@ 0047503c     images.obj
 0003:00006050       ??_C@_07FFBL@?$CFs?1?$CFs?4?$CK?$AA@ 00475050     images.obj
 0003:00006058       ??_C@_0CC@NEH@WriteTGA?$CI?$CFs?$CJ?3?5cannot?5create?5file@ 00475058     images.obj
 0003:0000607c       ??_C@_0CC@HMFG@WriteJPG?$CI?$CFs?$CJ?3?5cannot?5create?5file@ 0047507c     images.obj
 0003:00006230       ??_C@_03DNJI@500?$AA@      00475230     in_win.obj
 0003:00006234       ??_C@_0O@GJCG@v_centerspeed?$AA@ 00475234     in_win.obj
 0003:00006244       ??_C@_0N@KEFH@v_centermove?$AA@ 00475244     in_win.obj
 0003:00006254       ??_C@_0BD@IDGL@joy_yawsensitivity?$AA@ 00475254     in_win.obj
 0003:00006268       ??_C@_0BF@JOGL@joy_pitchsensitivity?$AA@ 00475268     in_win.obj
 0003:00006280       ??_C@_0BC@HKFA@joy_upsensitivity?$AA@ 00475280     in_win.obj
 0003:00006294       ??_C@_0BE@FDDD@joy_sidesensitivity?$AA@ 00475294     in_win.obj
 0003:000062a8       ??_C@_02HNAB@?91?$AA@      004752a8     in_win.obj
 0003:000062ac       ??_C@_0BH@KNIA@joy_forwardsensitivity?$AA@ 004752ac     in_win.obj
 0003:000062c4       ??_C@_0BB@EKNA@joy_yawthreshold?$AA@ 004752c4     in_win.obj
 0003:000062d8       ??_C@_0BD@NPHD@joy_pitchthreshold?$AA@ 004752d8     in_win.obj
 0003:000062ec       ??_C@_0BA@PFBP@joy_upthreshold?$AA@ 004752ec     in_win.obj
 0003:000062fc       ??_C@_0BC@NJMO@joy_sidethreshold?$AA@ 004752fc     in_win.obj
 0003:00006310       ??_C@_04JDHO@0?415?$AA@    00475310     in_win.obj
 0003:00006318       ??_C@_0BF@JJMF@joy_forwardthreshold?$AA@ 00475318     in_win.obj
 0003:00006330       ??_C@_0N@HIFL@joy_advaxisv?$AA@ 00475330     in_win.obj
 0003:00006340       ??_C@_0N@IHOC@joy_advaxisu?$AA@ 00475340     in_win.obj
 0003:00006350       ??_C@_0N@NCAH@joy_advaxisr?$AA@ 00475350     in_win.obj
 0003:00006360       ??_C@_0N@IGLP@joy_advaxisz?$AA@ 00475360     in_win.obj
 0003:00006370       ??_C@_0N@HJAG@joy_advaxisy?$AA@ 00475370     in_win.obj
 0003:00006380       ??_C@_0N@NDJB@joy_advaxisx?$AA@ 00475380     in_win.obj
 0003:00006390       ??_C@_0N@CHAG@joy_advanced?$AA@ 00475390     in_win.obj
 0003:000063a0       ??_C@_08GHPG@joystick?$AA@ 004753a0     in_win.obj
 0003:000063ac       ??_C@_08COCC@joy_name?$AA@ 004753ac     in_win.obj
 0003:000063b8       ??_C@_0M@JGHL@in_joystick?$AA@ 004753b8     in_win.obj
 0003:000063c4       ??_C@_01KOLO@2?$AA@        004753c4     in_win.obj
 0003:000063c8       ??_C@_08LDNF@in_mouse?$AA@ 004753c8     in_win.obj
 0003:000063d4       ??_C@_08MAF@m_filter?$AA@  004753d4     in_win.obj
 0003:000063e0       ??_C@_0N@OPOH@in_initmouse?$AA@ 004753e0     in_win.obj
 0003:000063f0       ??_C@_0BD@ILGG@joy_advancedupdate?$AA@ 004753f0     in_win.obj
 0003:00006404       ??_C@_06KJCC@?9mlook?$AA@  00475404     in_win.obj
 0003:0000640c       ??_C@_06NEOC@?$CLmlook?$AA@ 0047540c     in_win.obj
 0003:00006414       ??_C@_0BM@EBOM@Shutdown?5DirectInput?5mouse?6?$AA@ 00475414     in_win.obj
 0003:00006430       ??_C@_0BG@HCNK@Shutdown?5Win32?5mouse?6?$AA@ 00475430     in_win.obj
 0003:00006448       ??_C@_0N@EEGM@r_fullscreen?$AA@ 00475448     in_win.obj
 0003:00006458       ??_C@_0BO@DHIK@error?5on?5DI?5mouse?5GetState?$CI?$CJ?6?$AA@ 00475458     in_win.obj
 0003:00006478       ??_C@_0BE@EKBC@reactivating?5mouse?6?$AA@ 00475478     in_win.obj
 0003:0000648c       ??_C@_0BG@CCKB@Cannot?5acquire?5mouse?6?$AA@ 0047548c     in_win.obj
 0003:000064a4       ??_C@_0BO@EDKD@Cannot?5set?5cooperative?5level?6?$AA@ 004754a4     in_win.obj
 0003:000064c4       ??_C@_0CD@HEFO@ok?6?4?4?4creating?5DirectInput?5mouse@ 004754c4     in_win.obj
 0003:000064e8       ??_C@_0CB@LIKM@?4?4?4creating?5DirectInput?5object?3?5@ 004754e8     in_win.obj
 0003:0000650c       ??_C@_0CD@BEJC@?$CK?$CK?$CK?5couldn?8t?5get?5DI?5proc?5addr?5?$CK?$CK@ 0047550c     in_win.obj
 0003:00006530       ??_C@_0BD@NJCB@DirectInputCreateA?$AA@ 00475530     in_win.obj
 0003:00006544       ??_C@_07MNBK@failed?6?$AA@ 00475544     in_win.obj
 0003:0000654c       ??_C@_0L@NOHA@dinput?4dll?$AA@ 0047554c     in_win.obj
 0003:00006558       ??_C@_0BH@LPAJ@?4?4?4loading?5dinput?4dll?6?$AA@ 00475558     in_win.obj
 0003:00006570       ??_C@_03BJGB@ok?6?$AA@     00475570     in_win.obj
 0003:00006574       ??_C@_0BK@HAJB@Initializing?5DirectInput?6?$AA@ 00475574     in_win.obj
 0003:00006590       ??_C@_0CC@PKCJ@Initializing?5Win32?5mouse?5support@ 00475590     in_win.obj
 0003:000065b4       ??_C@_0BF@MFF@?6joystick?5detected?6?6?$AA@ 004755b4     in_win.obj
 0003:000065cc       ??_C@_0DM@ELKJ@?6joystick?5not?5found?5?9?9?5invalid?5j@ 004755cc     in_win.obj
 0003:00006608       ??_C@_0DB@CEKP@?6joystick?5not?5found?5?9?9?5no?5valid?5@ 00475608     in_win.obj
 0003:0000663c       ??_C@_0L@MGBM@in_initjoy?$AA@ 0047563c     in_win.obj
 0003:00006648       ??_C@_0BB@KOMD@?6?$CFs?5configured?6?6?$AA@ 00475648     in_win.obj
 0003:000069c0       ??_C@_09MGLF@SEMICOLON?$AA@ 004759c0     keys.obj
 0003:000069cc       ??_C@_05DOGF@COMMA?$AA@    004759cc     keys.obj
 0003:000069d4       ??_C@_05JKKC@PAUSE?$AA@    004759d4     keys.obj
 0003:000069dc       ??_C@_0L@FKGC@MWHEELDOWN?$AA@ 004759dc     keys.obj
 0003:000069e8       ??_C@_08HCBF@MWHEELUP?$AA@ 004759e8     keys.obj
 0003:000069f4       ??_C@_05MACF@UNK5F?$AA@    004759f4     keys.obj
 0003:000069fc       ??_C@_05DPJM@UNK5E?$AA@    004759fc     keys.obj
 0003:00006a04       ??_C@_05JFAL@UNK5D?$AA@    00475a04     keys.obj
 0003:00006a0c       ??_C@_05MAOO@UNK5C?$AA@    00475a0c     keys.obj
 0003:00006a14       ??_C@_05GKHJ@UNK5B?$AA@    00475a14     keys.obj
 0003:00006a1c       ??_C@_05JFMA@UNK5A?$AA@    00475a1c     keys.obj
 0003:00006a24       ??_C@_05JPCI@UNK59?$AA@    00475a24     keys.obj
 0003:00006a2c       ??_C@_05IINP@UNK46?$AA@    00475a2c     keys.obj
 0003:00006a34       ??_C@_07NJEF@KP_PLUS?$AA@  00475a34     keys.obj
 0003:00006a3c       ??_C@_08FMBO@KP_MINUS?$AA@ 00475a3c     keys.obj
 0003:00006a48       ??_C@_08HEPO@KP_SLASH?$AA@ 00475a48     keys.obj
 0003:00006a54       ??_C@_06NBBC@KP_DEL?$AA@   00475a54     keys.obj
 0003:00006a5c       ??_C@_06HNGN@KP_INS?$AA@   00475a5c     keys.obj
 0003:00006a64       ??_C@_08HCEG@KP_ENTER?$AA@ 00475a64     keys.obj
 0003:00006a70       ??_C@_07DOML@KP_PGDN?$AA@  00475a70     keys.obj
 0003:00006a78       ??_C@_0N@KEGD@KP_DOWNARROW?$AA@ 00475a78     keys.obj
 0003:00006a88       ??_C@_06FJBH@KP_END?$AA@   00475a88     keys.obj
 0003:00006a90       ??_C@_0O@JPAK@KP_RIGHTARROW?$AA@ 00475a90     keys.obj
 0003:00006aa0       ??_C@_04FKHF@KP_5?$AA@     00475aa0     keys.obj
 0003:00006aa8       ??_C@_0N@HMIH@KP_LEFTARROW?$AA@ 00475aa8     keys.obj
 0003:00006ab8       ??_C@_07EAHC@KP_PGUP?$AA@  00475ab8     keys.obj
 0003:00006ac0       ??_C@_0L@LHCJ@KP_UPARROW?$AA@ 00475ac0     keys.obj
 0003:00006acc       ??_C@_07NJDA@KP_HOME?$AA@  00475acc     keys.obj
 0003:00006ad4       ??_C@_05GAA@AUX32?$AA@     00475ad4     keys.obj
 0003:00006adc       ??_C@_05PJLJ@AUX31?$AA@    00475adc     keys.obj
 0003:00006ae4       ??_C@_05FDCO@AUX30?$AA@    00475ae4     keys.obj
 0003:00006aec       ??_C@_05LLKL@AUX29?$AA@    00475aec     keys.obj
 0003:00006af4       ??_C@_05BBDM@AUX28?$AA@    00475af4     keys.obj
 0003:00006afc       ??_C@_05BAGB@AUX27?$AA@    00475afc     keys.obj
 0003:00006b04       ??_C@_05LKPG@AUX26?$AA@    00475b04     keys.obj
 0003:00006b0c       ??_C@_05EFEP@AUX25?$AA@    00475b0c     keys.obj
 0003:00006b14       ??_C@_05OPNI@AUX24?$AA@    00475b14     keys.obj
 0003:00006b1c       ??_C@_05LKDN@AUX23?$AA@    00475b1c     keys.obj
 0003:00006b24       ??_C@_05BAKK@AUX22?$AA@    00475b24     keys.obj
 0003:00006b2c       ??_C@_05OPBD@AUX21?$AA@    00475b2c     keys.obj
 0003:00006b34       ??_C@_05EFIE@AUX20?$AA@    00475b34     keys.obj
 0003:00006b3c       ??_C@_05IAFE@AUX19?$AA@    00475b3c     keys.obj
 0003:00006b44       ??_C@_05CKMD@AUX18?$AA@    00475b44     keys.obj
 0003:00006b4c       ??_C@_05CLJO@AUX17?$AA@    00475b4c     keys.obj
 0003:00006b54       ??_C@_05IBAJ@AUX16?$AA@    00475b54     keys.obj
 0003:00006b5c       ??_C@_05HOLA@AUX15?$AA@    00475b5c     keys.obj
 0003:00006b64       ??_C@_05NECH@AUX14?$AA@    00475b64     keys.obj
 0003:00006b6c       ??_C@_05IBMC@AUX13?$AA@    00475b6c     keys.obj
 0003:00006b74       ??_C@_05CLFF@AUX12?$AA@    00475b74     keys.obj
 0003:00006b7c       ??_C@_05NEOM@AUX11?$AA@    00475b7c     keys.obj
 0003:00006b84       ??_C@_05HOHL@AUX10?$AA@    00475b84     keys.obj
 0003:00006b8c       ??_C@_04LPLM@AUX9?$AA@     00475b8c     keys.obj
 0003:00006b94       ??_C@_04BFCL@AUX8?$AA@     00475b94     keys.obj
 0003:00006b9c       ??_C@_04BEHG@AUX7?$AA@     00475b9c     keys.obj
 0003:00006ba4       ??_C@_04LOOB@AUX6?$AA@     00475ba4     keys.obj
 0003:00006bac       ??_C@_04EBFI@AUX5?$AA@     00475bac     keys.obj
 0003:00006bb4       ??_C@_04OLMP@AUX4?$AA@     00475bb4     keys.obj
 0003:00006bbc       ??_C@_04LOCK@AUX3?$AA@     00475bbc     keys.obj
 0003:00006bc4       ??_C@_04BELN@AUX2?$AA@     00475bc4     keys.obj
 0003:00006bcc       ??_C@_04OLAE@AUX1?$AA@     00475bcc     keys.obj
 0003:00006bd4       ??_C@_04KNPB@JOY4?$AA@     00475bd4     keys.obj
 0003:00006bdc       ??_C@_04PIBE@JOY3?$AA@     00475bdc     keys.obj
 0003:00006be4       ??_C@_04FCID@JOY2?$AA@     00475be4     keys.obj
 0003:00006bec       ??_C@_04KNDK@JOY1?$AA@     00475bec     keys.obj
 0003:00006bf4       ??_C@_06GPGF@MOUSE3?$AA@   00475bf4     keys.obj
 0003:00006bfc       ??_C@_06MFPC@MOUSE2?$AA@   00475bfc     keys.obj
 0003:00006c04       ??_C@_06DKEL@MOUSE1?$AA@   00475c04     keys.obj
 0003:00006c0c       ??_C@_03PIHE@END?$AA@      00475c0c     keys.obj
 0003:00006c10       ??_C@_04CDJB@HOME?$AA@     00475c10     keys.obj
 0003:00006c18       ??_C@_04LKND@PGUP?$AA@     00475c18     keys.obj
 0003:00006c20       ??_C@_04MEGK@PGDN?$AA@     00475c20     keys.obj
 0003:00006c28       ??_C@_03HAHB@DEL?$AA@      00475c28     keys.obj
 0003:00006c2c       ??_C@_03NMAO@INS?$AA@      00475c2c     keys.obj
 0003:00006c30       ??_C@_03GODC@F12?$AA@      00475c30     keys.obj
 0003:00006c34       ??_C@_03JBIL@F11?$AA@      00475c34     keys.obj
 0003:00006c38       ??_C@_03DLBM@F10?$AA@      00475c38     keys.obj
 0003:00006c3c       ??_C@_02NIOF@F9?$AA@       00475c3c     keys.obj
 0003:00006c40       ??_C@_02HCHC@F8?$AA@       00475c40     keys.obj
 0003:00006c44       ??_C@_02HDCP@F7?$AA@       00475c44     keys.obj
 0003:00006c48       ??_C@_02NJLI@F6?$AA@       00475c48     keys.obj
 0003:00006c4c       ??_C@_02CGAB@F5?$AA@       00475c4c     keys.obj
 0003:00006c50       ??_C@_02IMJG@F4?$AA@       00475c50     keys.obj
 0003:00006c54       ??_C@_02NJHD@F3?$AA@       00475c54     keys.obj
 0003:00006c58       ??_C@_02HDOE@F2?$AA@       00475c58     keys.obj
 0003:00006c5c       ??_C@_02IMFN@F1?$AA@       00475c5c     keys.obj
 0003:00006c60       ??_C@_05KJME@SHIFT?$AA@    00475c60     keys.obj
 0003:00006c68       ??_C@_04GBJE@CTRL?$AA@     00475c68     keys.obj
 0003:00006c70       ??_C@_03DEAL@ALT?$AA@      00475c70     keys.obj
 0003:00006c74       ??_C@_0L@NCHP@RIGHTARROW?$AA@ 00475c74     keys.obj
 0003:00006c80       ??_C@_09JKI@LEFTARROW?$AA@ 00475c80     keys.obj
 0003:00006c8c       ??_C@_09NBEM@DOWNARROW?$AA@ 00475c8c     keys.obj
 0003:00006c98       ??_C@_07CPJH@UPARROW?$AA@  00475c98     keys.obj
 0003:00006ca0       ??_C@_09PBAJ@BACKSPACE?$AA@ 00475ca0     keys.obj
 0003:00006cac       ??_C@_05JCH@SPACE?$AA@     00475cac     keys.obj
 0003:00006cb4       ??_C@_06MJIP@ESCAPE?$AA@   00475cb4     keys.obj
 0003:00006cbc       ??_C@_05NLLM@ENTER?$AA@    00475cbc     keys.obj
 0003:00006cc4       ??_C@_03KAHL@TAB?$AA@      00475cc4     keys.obj
 0003:00006cc8       ??_C@_0BD@NPOJ@?$FO1?$DMUNKNOWN?5KEYNUM?$DO?$AA@ 00475cc8     keys.obj
 0003:00006cdc       ??_C@_0BC@HGGL@?$FO1?$DMKEY?5NOT?5FOUND?$DO?$AA@ 00475cdc     keys.obj
 0003:00006cf0       ??_C@_06MIF@clear?6?$AA@   00475cf0     keys.obj
 0003:00006cf8       ??_C@_06KMHK@?$CFs?1?$CK?$CFs?$AA@ 00475cf8     keys.obj
 0003:00006d00       ??_C@_04PIAG@?4dm2?$AA@    00475d00     keys.obj
 0003:00006d08       ??_C@_05IECP@demos?$AA@    00475d08     keys.obj
 0003:00006d10       ??_C@_07KKKB@demomap?$AA@  00475d10     keys.obj
 0003:00006d18       ??_C@_04EFJD@maps?$AA@     00475d18     keys.obj
 0003:00006d20       ??_C@_03HKIL@map?$AA@      00475d20     keys.obj
 0003:00006d24       ??_C@_05JKGE@?$CFs?5?$CFs?$AA@ 00475d24     keys.obj
 0003:00006d2c       ??_C@_05CHFJ@?$FN?1?$CFs?6?$AA@ 00475d2c     keys.obj
 0003:00006d34       ??_C@_0N@DKEE@bind?5?$CFs?5?$CC?$CFs?$CC?$AA@ 00475d34     keys.obj
 0003:00006d44       ??_C@_04FBJP@bind?$AA@     00475d44     keys.obj
 0003:00006d4c       ??_C@_0O@KEOC@alias?5?$CFs?5?$CC?$CFs?$CC?$AA@ 00475d4c     keys.obj
 0003:00006d5c       ??_C@_09LBAL@?5?5?$CFc?5?5?$CFs?6?$AA@ 00475d5c     keys.obj
 0003:00006d68       ??_C@_06BGHK@?$CFs?5?$CFs?5?$AA@ 00475d68     keys.obj
 0003:00006d70       ??_C@_02PJJB@?$CC?6?$AA@   00475d70     keys.obj
 0003:00006d74       ??_C@_05MCHL@say?5?$CC?$AA@ 00475d74     keys.obj
 0003:00006d7c       ??_C@_0L@LAAC@say_team?5?$CC?$AA@ 00475d7c     keys.obj
 0003:00006d88       ??_C@_0BE@PFHH@?5?5?5?5?$CFd?5binds?5found?6?$AA@ 00475d88     keys.obj
 0003:00006d9c       ??_C@_0CB@GLPL@Usage?3?5bindlist?5?$FL?$DMaction?5mask?$DO?$FN?6@ 00475d9c     keys.obj
 0003:00006dc0       ??_C@_0O@DFKM@bind?5?$CFs?5?$CC?$CFs?$CC?6?$AA@ 00475dc0     keys.obj
 0003:00006dd0       ??_C@_08KMAH@bindlist?$AA@ 00475dd0     keys.obj
 0003:00006ddc       ??_C@_09KOHL@unbindall?$AA@ 00475ddc     keys.obj
 0003:00006de8       ??_C@_06NILL@unbind?$AA@   00475de8     keys.obj
 0003:00006df0       ??_C@_0BI@GELF@?$CC?$CFs?$CC?5isn?8t?5a?5valid?5key?6?$AA@ 00475df0     keys.obj
 0003:00006e08       ??_C@_0BD@FLKM@?$CFd?5key?$CIs?$CJ?5unbound?6?$AA@ 00475e08     keys.obj
 0003:00006e1c       ??_C@_0L@OPEO@unbind?5?$CFs?6?$AA@ 00475e1c     keys.obj
 0003:00006e28       ??_C@_0DD@MAL@unbind?5?$DMkey?5mask?$DO?5?3?5remove?5comma@ 00475e28     keys.obj
 0003:00006e5c       ??_C@_0BD@DLNG@?$CC?$CFs?$CC?5is?5not?5bound?6?$AA@ 00475e5c     keys.obj
 0003:00006e70       ??_C@_0N@DLB@?$CC?$CFs?$CC?5?$DN?5?$CC?$CFs?$CC?6?$AA@ 00475e70     keys.obj
 0003:00006e80       ??_C@_0BG@MBP@bind?5?$DMkey?$DO?5?$FLcommand?$FN?6?$AA@ 00475e80     keys.obj
 0003:00006e98       ??_C@_0BB@LMNF@Bad?5cls?4key_dest?$AA@ 00475e98     keys.obj
 0003:00006eac       ??_C@_09PAKF@?$CFs?5?$CFi?5?$CFi?6?$AA@ 00475eac     keys.obj
 0003:00006eb8       ??_C@_0L@MGDF@?9?$CFs?5?$CFi?5?$CFi?6?$AA@ 00475eb8     keys.obj
 0003:00006ec4       ??_C@_0N@GBFE@cmd?5putaway?6?$AA@ 00475ec4     keys.obj
 0003:00006ed4       ??_C@_0BO@ICBH@?$CFs?5is?5unbound?0?5hit?5F4?5to?5set?6?$AA@ 00475ed4     keys.obj
 0003:00006ef4       _monster_flash_offset      00475ef4     m_flash.obj
 0003:00007924       ??_C@_0CG@GMIG@Z_Free?3?5bad?5magic?5?$CFX?5?$CIcall?5from?5@ 00476924     memory.obj
 0003:0000794c       ??_C@_0CL@NPKG@Z_Malloc?3?5failed?5on?5allocation?5o@ 0047694c     memory.obj
 0003:00007978       ??_C@_0CN@KCBF@AllocChunk?3?5failed?5on?5allocation@ 00476978     memory.obj
 0003:000079a8       ??_C@_07GKHE@z_stats?$AA@  004769a8     memory.obj
 0003:000079b0       ??_C@_0BH@OKOO@?$CFd?5bytes?5in?5?$CFd?5blocks?6?$AA@ 004769b0     memory.obj
 0003:00007fb0       ??_C@_06NCNO@center?$AA@   00476fb0     menu.obj
 0003:00007fb8       ??_C@_04GACI@left?$AA@     00476fb8     menu.obj
 0003:00007fc0       ??_C@_05PJFF@right?$AA@    00476fc0     menu.obj
 0003:00007fc8       ??_C@_0N@OGEE@User?5defined?$AA@ 00476fc8     menu.obj
 0003:00007fd8       ??_C@_06FHHN@T1?1LAN?$AA@  00476fd8     menu.obj
 0003:00007fe0       ??_C@_0BA@NKHA@Dual?5ISDN?1Cable?$AA@ 00476fe0     menu.obj
 0003:00007ff0       ??_C@_0M@CKMP@Single?5ISDN?$AA@ 00476ff0     menu.obj
 0003:00007ffc       ??_C@_0L@DKAE@33?46?5Modem?$AA@ 00476ffc     menu.obj
 0003:00008008       ??_C@_0L@HCIP@28?48?5Modem?$AA@ 00477008     menu.obj
 0003:00008014       ??_C@_08FJAL@by?5model?$AA@ 00477014     menu.obj
 0003:00008020       ??_C@_07HFPB@by?5skin?$AA@ 00477020     menu.obj
 0003:00008028       ??_C@_03GFNH@tag?$AA@      00477028     menu.obj
 0003:0000802c       ??_C@_0M@FDIE@cooperative?$AA@ 0047702c     menu.obj
 0003:00008038       ??_C@_0L@IKBP@deathmatch?$AA@ 00477038     menu.obj
 0003:00008044       ??_C@_04CEEJ@hard?$AA@     00477044     menu.obj
 0003:0000804c       ??_C@_06LDM@medium?$AA@    0047704c     menu.obj
 0003:00008054       ??_C@_04FFGK@easy?$AA@     00477054     menu.obj
 0003:0000805c       ??_C@_03LGKI@yes?$AA@      0047705c     menu.obj
 0003:00008060       ??_C@_02ELCB@no?$AA@       00477060     menu.obj
 0003:00008064       ??_C@_0BA@HGCM@max?5performance?$AA@ 00477064     menu.obj
 0003:00008074       ??_C@_0BC@PPOD@max?5compatibility?$AA@ 00477074     menu.obj
 0003:00008088       ??_C@_06KADK@44?5khz?$AA@  00477088     menu.obj
 0003:00008090       ??_C@_06BNCF@22?5khz?$AA@  00477090     menu.obj
 0003:00008098       ??_C@_06EDKK@11?5khz?$AA@  00477098     menu.obj
 0003:000080a0       ??_C@_07IHHA@enabled?$AA@  004770a0     menu.obj
 0003:000080a8       ??_C@_08FDGF@disabled?$AA@ 004770a8     menu.obj
 0003:000080b4       ??_C@_08LCMG@?$FO1?$CInone?$CJ?$AA@ 004770b4     menu.obj
 0003:000080c0       ??_C@_0M@GOEC@m_main_quit?$AA@ 004770c0     menu.obj
 0003:000080cc       ??_C@_0N@IHOK@m_main_video?$AA@ 004770cc     menu.obj
 0003:000080dc       ??_C@_0P@GNPE@m_main_options?$AA@ 004770dc     menu.obj
 0003:000080ec       ??_C@_0BD@JFAK@m_main_multiplayer?$AA@ 004770ec     menu.obj
 0003:00008100       ??_C@_0M@NEPC@m_main_game?$AA@ 00477100     menu.obj
 0003:0000810c       ??_C@_0P@DGIH@misc?1menu3?4wav?$AA@ 0047710c     menu.obj
 0003:0000811c       ??_C@_0P@JGKC@misc?1menu2?4wav?$AA@ 0047711c     menu.obj
 0003:0000812c       ??_C@_0P@HGMN@misc?1menu1?4wav?$AA@ 0047712c     menu.obj
 0003:0000813c       ??_C@_0BL@LDPL@M_PushMenu?3?5MAX_MENU_DEPTH?$AA@ 0047713c     menu.obj
 0003:00008158       ??_C@_0BF@CFFI@M_PopMenu?3?5depth?5?$DM?51?$AA@ 00477158     menu.obj
 0003:00008170       ??_C@_0L@BLAH@m_cursor?$CFd?$AA@ 00477170     menu.obj
 0003:0000817c       ??_C@_0M@HEMB@m_main_logo?$AA@ 0047717c     menu.obj
 0003:00008188       ??_C@_0O@IMJO@m_main_plaque?$AA@ 00477188     menu.obj
 0003:00008198       ??_C@_04PLJH@_sel?$AA@     00477198     menu.obj
 0003:000081a0       ??_C@_0BF@NADA@m_banner_multiplayer?$AA@ 004771a0     menu.obj
 0003:000081b8       ??_C@_0O@IJCA@?5player?5setup?$AA@ 004771b8     menu.obj
 0003:000081c8       ??_C@_0BG@KFFD@?5start?5network?5server?$AA@ 004771c8     menu.obj
 0003:000081e0       ??_C@_0BF@MBJF@?5join?5network?5server?$AA@ 004771e0     menu.obj
 0003:000081f8       ??_C@_0CE@JBIB@enter?5to?5change?0?5backspace?5to?5cl@ 004771f8     menu.obj
 0003:0000821c       ??_C@_09EDPF@binds?4lst?$AA@ 0047721c     menu.obj
 0003:00008228       ??_C@_02KAII@or?$AA@       00477228     menu.obj
 0003:0000822c       ??_C@_0O@DGOB@?$FO1?$CInot?5bound?$CJ?$AA@ 0047722c     menu.obj
 0003:0000823c       ??_C@_0BA@EDEH@bind?5?$CC?$CFs?$CC?5?$CC?$CFs?$CC?6?$AA@ 0047723c     menu.obj
 0003:0000824c       ??_C@_0CG@FAHM@press?5a?5key?5or?5button?5for?5this?5a@ 0047724c     menu.obj
 0003:00008274       ??_C@_0O@GLMC@go?5to?5console?$AA@ 00477274     menu.obj
 0003:00008284       ??_C@_0P@INEE@reset?5defaults?$AA@ 00477284     menu.obj
 0003:00008294       ??_C@_0BD@CAPK@customize?5controls?$AA@ 00477294     menu.obj
 0003:000082a8       ??_C@_0N@DAJN@use?5joystick?$AA@ 004772a8     menu.obj
 0003:000082b8       ??_C@_0BA@CPP@crosshair?5color?$AA@ 004772b8     menu.obj
 0003:000082c8       ??_C@_0BA@DCNA@crosshair?5shape?$AA@ 004772c8     menu.obj
 0003:000082d8       ??_C@_09ONIG@free?5look?$AA@ 004772d8     menu.obj
 0003:000082e4       ??_C@_0N@HDIH@invert?5mouse?$AA@ 004772e4     menu.obj
 0003:000082f4       ??_C@_0L@NGMM@always?5run?$AA@ 004772f4     menu.obj
 0003:00008300       ??_C@_0M@PPMI@mouse?5speed?$AA@ 00477300     menu.obj
 0003:0000830c       ??_C@_0BE@GDGM@sound?5compatibility?$AA@ 0047730c     menu.obj
 0003:00008320       ??_C@_0P@GGIE@reverse?5stereo?$AA@ 00477320     menu.obj
 0003:00008330       ??_C@_0M@EAAA@8?5bit?5sound?$AA@ 00477330     menu.obj
 0003:0000833c       ??_C@_0O@FCMP@sound?5quality?$AA@ 0047733c     menu.obj
 0003:0000834c       ??_C@_08ILMK@CD?5music?$AA@ 0047734c     menu.obj
 0003:00008358       ??_C@_0P@EHL@effects?5volume?$AA@ 00477358     menu.obj
 0003:00008368       ??_C@_09HPMN@s_primary?$AA@ 00477368     menu.obj
 0003:00008374       ??_C@_0BB@KJKE@s_reverse_stereo?$AA@ 00477374     menu.obj
 0003:00008388       ??_C@_0N@BJNB@s_loadas8bit?$AA@ 00477388     menu.obj
 0003:00008398       ??_C@_08POHF@s_volume?$AA@ 00477398     menu.obj
 0003:000083a4       ??_C@_0BD@KJEP@please?5be?5patient?4?$AA@ 004773a4     menu.obj
 0003:000083b8       ??_C@_0BO@LNLI@could?5take?5up?5to?5a?5minute?0?5so?$AA@ 004773b8     menu.obj
 0003:000083d8       ??_C@_0CC@BPKH@Restarting?5the?5sound?5system?4?5Thi@ 004773d8     menu.obj
 0003:000083fc       ??_C@_09KDID@pics?1ch?$CFd?$AA@ 004773fc     menu.obj
 0003:00008408       ??_C@_0BB@GKOM@m_banner_options?$AA@ 00477408     menu.obj
 0003:0000841c       ??_C@_08MJMH@xcredits?$AA@ 0047741c     menu.obj
 0003:00008428       ??_C@_08BIOO@rcredits?$AA@ 00477428     menu.obj
 0003:00008434       ??_C@_07ECN@credits?$AA@   00477434     menu.obj
 0003:0000843c       ??_C@_09HNCJ@save?5game?$AA@ 0047743c     menu.obj
 0003:00008448       ??_C@_09EAJD@load?5game?$AA@ 00477448     menu.obj
 0003:00008454       ??_C@_05MIHE@skill?$AA@    00477454     menu.obj
 0003:0000845c       ??_C@_0CH@LHBI@loading?5?$DL?5killserver?5?$DL?5wait?5?$DL?5ne@ 0047745c     menu.obj
 0003:00008484       ??_C@_09IDKD@gamerules?$AA@ 00477484     menu.obj
 0003:00008490       ??_C@_04INDM@coop?$AA@     00477490     menu.obj
 0003:00008498       ??_C@_0O@PMHE@m_banner_game?$AA@ 00477498     menu.obj
 0003:000084a8       ??_C@_07KIGE@?$DMEMPTY?$DO?$AA@ 004774a8     menu.obj
 0003:000084b0       ??_C@_0BK@HGCJ@?$CFs?1save?1save?$CFd?1server?4ssv?$AA@ 004774b0     menu.obj
 0003:000084cc       ??_C@_0N@CFFO@load?5save?$CFd?6?$AA@ 004774cc     menu.obj
 0003:000084dc       ??_C@_0BD@JKMN@m_banner_load_game?$AA@ 004774dc     menu.obj
 0003:000084f0       ??_C@_0BD@KHHH@m_banner_save_game?$AA@ 004774f0     menu.obj
 0003:00008504       ??_C@_0N@CPEK@save?5save?$CFd?6?$AA@ 00477504     menu.obj
 0003:00008514       ??_C@_0BH@EHAO@press?5ENTER?5to?5connect?$AA@ 00477514     menu.obj
 0003:0000852c       ??_C@_0M@KOPI@?$DMno?5server?$DO?$AA@ 0047752c     menu.obj
 0003:00008538       ??_C@_0O@IEPF@connect?5to?4?4?4?$AA@ 00477538     menu.obj
 0003:00008548       ??_C@_0N@KDGA@address?5book?$AA@ 00477548     menu.obj
 0003:00008558       ??_C@_0BD@CJGK@search?5for?5servers?$AA@ 00477558     menu.obj
 0003:0000856c       ??_C@_0M@HMCF@connect?5?$CFs?6?$AA@ 0047756c     menu.obj
 0003:00008578       ??_C@_0CC@IHBN@Searching?5for?5local?5servers?0?5thi@ 00477578     menu.obj
 0003:0000859c       ??_C@_0BF@JHPK@m_banner_join_server?$AA@ 0047759c     menu.obj
 0003:000085b4       ??_C@_05PKJE@begin?$AA@    004775b4     menu.obj
 0003:000085bc       ??_C@_0M@INKA@browse?5maps?$AA@ 004775bc     menu.obj
 0003:000085c8       ??_C@_0BB@JIPI@deathmatch?5flags?$AA@ 004775c8     menu.obj
 0003:000085dc       ??_C@_08NNNB@hostname?$AA@ 004775dc     menu.obj
 0003:000085e8       ??_C@_0M@HNOE@max?5players?$AA@ 004775e8     menu.obj
 0003:000085f4       ??_C@_0L@HOE@frag?5limit?$AA@ 004775f4     menu.obj
 0003:00008600       ??_C@_09DPJO@fraglimit?$AA@ 00477600     menu.obj
 0003:0000860c       ??_C@_09GBNJ@timelimit?$AA@ 0047760c     menu.obj
 0003:00008618       ??_C@_0N@CIAO@0?5?$DN?5no?5limit?$AA@ 00477618     menu.obj
 0003:00008628       ??_C@_0L@KILK@time?5limit?$AA@ 00477628     menu.obj
 0003:00008634       ??_C@_05NJJD@rules?$AA@    00477634     menu.obj
 0003:0000863c       ??_C@_0M@IFFP@initial?5map?$AA@ 0047763c     menu.obj
 0003:00008648       ??_C@_05OMCJ@?$CFs?6?$CFs?$AA@ 00477648     menu.obj
 0003:00008650       ??_C@_0BI@OHHO@Couldn?8t?5find?5maps?4lst?6?$AA@ 00477650     menu.obj
 0003:00008668       ??_C@_08INBG@maps?4lst?$AA@ 00477668     menu.obj
 0003:00008674       ??_C@_0M@OMFL@?$CFs?1maps?4lst?$AA@ 00477674     menu.obj
 0003:00008680       ??_C@_0BE@OPMB@N?1A?5for?5cooperative?$AA@ 00477680     menu.obj
 0003:00008694       ??_C@_0BK@PAEC@4?5maximum?5for?5cooperative?$AA@ 00477694     menu.obj
 0003:000086b0       ??_C@_07MFI@map?5?$CFs?6?$AA@ 004776b0     menu.obj
 0003:000086b8       ??_C@_0BC@MGDF@gamemap?5?$CC?$CK?$CFs$?$CFs?$CC?6?$AA@ 004776b8     menu.obj
 0003:000086cc       ??_C@_0M@PFMJ@disconnect?6?$AA@ 004776cc     menu.obj
 0003:000086d8       ??_C@_05IIAE@start?$AA@    004776d8     menu.obj
 0003:000086e0       ??_C@_09LOGP@unitstart?$AA@ 004776e0     menu.obj
 0003:000086ec       ??_C@_08OEFI@bosstart?$AA@ 004776ec     menu.obj
 0003:000086f8       ??_C@_05MNF@boss1?$AA@     004776f8     menu.obj
 0003:00008700       ??_C@_05FFHM@city1?$AA@    00477700     menu.obj
 0003:00008708       ??_C@_07HOML@hangar1?$AA@  00477708     menu.obj
 0003:00008710       ??_C@_06HPEJ@bstart?$AA@   00477710     menu.obj
 0003:00008718       ??_C@_06CDGP@biggun?$AA@   00477718     menu.obj
 0003:00008720       ??_C@_06OAL@pstart?$AA@    00477720     menu.obj
 0003:00008728       ??_C@_06PEG@power1?$AA@    00477728     menu.obj
 0003:00008730       ??_C@_05DJAD@fact1?$AA@    00477730     menu.obj
 0003:00008738       ??_C@_06HFFP@mintro?$AA@   00477738     menu.obj
 0003:00008740       ??_C@_05ENKO@bunk1?$AA@    00477740     menu.obj
 0003:00008748       ??_C@_0P@EADO@remove?5spheres?$AA@ 00477748     menu.obj
 0003:00008758       ??_C@_0BD@OLCO@2x?14x?5stacking?5off?$AA@ 00477758     menu.obj
 0003:0000876c       ??_C@_0N@LPPI@remove?5nukes?$AA@ 0047776c     menu.obj
 0003:0000877c       ??_C@_0N@KPCC@remove?5mines?$AA@ 0047777c     menu.obj
 0003:0000878c       ??_C@_0O@CFML@friendly?5fire?$AA@ 0047778c     menu.obj
 0003:0000879c       ??_C@_09NCLB@quad?5drop?$AA@ 0047779c     menu.obj
 0003:000087a8       ??_C@_09GHAH@fixed?5FOV?$AA@ 004777a8     menu.obj
 0003:000087b4       ??_C@_0O@IGHH@infinite?5ammo?$AA@ 004777b4     menu.obj
 0003:000087c4       ??_C@_0L@JIOL@allow?5exit?$AA@ 004777c4     menu.obj
 0003:000087d0       ??_C@_08FHKG@teamplay?$AA@ 004777d0     menu.obj
 0003:000087dc       ??_C@_0O@BPHA@force?5respawn?$AA@ 004777dc     menu.obj
 0003:000087ec       ??_C@_08ECAP@same?5map?$AA@ 004777ec     menu.obj
 0003:000087f8       ??_C@_0P@PHOJ@spawn?5farthest?$AA@ 004777f8     menu.obj
 0003:00008808       ??_C@_0M@GEBP@allow?5armor?$AA@ 00477808     menu.obj
 0003:00008814       ??_C@_0N@LLOO@allow?5health?$AA@ 00477814     menu.obj
 0003:00008824       ??_C@_0P@JENC@allow?5powerups?$AA@ 00477824     menu.obj
 0003:00008834       ??_C@_0BB@ICPM@instant?5powerups?$AA@ 00477834     menu.obj
 0003:00008848       ??_C@_0N@BOBM@weapons?5stay?$AA@ 00477848     menu.obj
 0003:00008858       ??_C@_0P@ENLL@falling?5damage?$AA@ 00477858     menu.obj
 0003:00008868       ??_C@_07NJLK@dmflags?$AA@  00477868     menu.obj
 0003:00008870       ??_C@_0N@FJJN@dmflags?5?$DN?5?$CFd?$AA@ 00477870     menu.obj
 0003:00008880       ??_C@_0BG@CNCP@allow_download_sounds?$AA@ 00477880     menu.obj
 0003:00008898       ??_C@_06HADE@sounds?$AA@   00477898     menu.obj
 0003:000088a0       ??_C@_0BG@EEF@allow_download_models?$AA@ 004778a0     menu.obj
 0003:000088b8       ??_C@_06FJFO@models?$AA@   004778b8     menu.obj
 0003:000088c0       ??_C@_0BH@EOHJ@allow_download_players?$AA@ 004778c0     menu.obj
 0003:000088d8       ??_C@_0BE@IECK@player?5models?1skins?$AA@ 004778d8     menu.obj
 0003:000088ec       ??_C@_0BE@LNDL@allow_download_maps?$AA@ 004778ec     menu.obj
 0003:00008900       ??_C@_0BC@HOGO@allow?5downloading?$AA@ 00477900     menu.obj
 0003:00008914       ??_C@_0BB@FKPK@Download?5Options?$AA@ 00477914     menu.obj
 0003:00008928       ??_C@_0P@EAMI@allow_download?$AA@ 00477928     menu.obj
 0003:00008938       ??_C@_0BF@IBBK@m_banner_addressbook?$AA@ 00477938     menu.obj
 0003:00008950       ??_C@_0BP@OBEJ@?$FO1No?5valid?5player?5models?5found?$AA@ 00477950     menu.obj
 0003:00008970       ??_C@_0BB@LABK@download?5options?$AA@ 00477970     menu.obj
 0003:00008984       ??_C@_0O@CHM@connect?5speed?$AA@ 00477984     menu.obj
 0003:00008994       ??_C@_0L@JGGH@handedness?$AA@ 00477994     menu.obj
 0003:000089a0       ??_C@_05LHJL@model?$AA@    004779a0     menu.obj
 0003:000089a8       ??_C@_05DJEP@grunt?$AA@    004779a8     menu.obj
 0003:000089b0       ??_C@_0BJ@MLOE@ModelCallback?3?5bad?5index?$AA@ 004779b0     menu.obj
 0003:000089cc       ??_C@_06NAEO@?$CFs?1?$CK?4?$CK?$AA@ 004779cc     menu.obj
 0003:000089d4       ??_C@_0M@JMPH@?$CFs?1tris?4md2?$AA@ 004779d4     menu.obj
 0003:000089e0       ??_C@_0P@NIK@?$CFs?1players?1?$CK?4?$CK?$AA@ 004779e0     menu.obj
 0003:000089f0       ??_C@_06CMFA@_i?4pcx?$AA@  004779f0     menu.obj
 0003:000089f8       ??_C@_04KGKE@?$CFs?$FO7?$AA@ 004779f8     menu.obj
 0003:00008a00       ??_C@_0BE@DNIO@No?5levelshots?5found?$AA@ 00477a00     menu.obj
 0003:00008a14       ??_C@_0CG@NOJD@Maximum?5number?5of?5levelshots?5rea@ 00477a14     menu.obj
 0003:00008a3c       ??_C@_0M@HBDC@maps?1?$CFs?4bsp?$AA@ 00477a3c     menu.obj
 0003:00008a48       ??_C@_0BC@KALF@?$CFs?1levelshots?1?$CK?4?$CK?$AA@ 00477a48     menu.obj
 0003:00008a5c       ??_C@_09PFNO@menu_quit?$AA@ 00477a5c     menu.obj
 0003:00008a68       ??_C@_09NOON@menu_keys?$AA@ 00477a68     menu.obj
 0003:00008a74       ??_C@_0N@FFLM@menu_options?$AA@ 00477a74     menu.obj
 0003:00008a84       ??_C@_0L@CAHB@menu_video?$AA@ 00477a84     menu.obj
 0003:00008a90       ??_C@_0BB@JJLE@menu_multiplayer?$AA@ 00477a90     menu.obj
 0003:00008aa4       ??_C@_0N@JGCC@menu_credits?$AA@ 00477aa4     menu.obj
 0003:00008ab4       ??_C@_0BF@FDOP@menu_downloadoptions?$AA@ 00477ab4     menu.obj
 0003:00008acc       ??_C@_0BC@IDMK@menu_playerconfig?$AA@ 00477acc     menu.obj
 0003:00008ae0       ??_C@_0O@CMJG@menu_dmbrowse?$AA@ 00477ae0     menu.obj
 0003:00008af0       ??_C@_0P@GOII@menu_dmoptions?$AA@ 00477af0     menu.obj
 0003:00008b00       ??_C@_0BB@POMC@menu_startserver?$AA@ 00477b00     menu.obj
 0003:00008b14       ??_C@_0BB@MIJO@menu_addressbook?$AA@ 00477b14     menu.obj
 0003:00008b28       ??_C@_0BA@MHIP@menu_joinserver?$AA@ 00477b28     menu.obj
 0003:00008b38       ??_C@_0O@LJOP@menu_savegame?$AA@ 00477b38     menu.obj
 0003:00008b48       ??_C@_0O@DCM@menu_loadgame?$AA@ 00477b48     menu.obj
 0003:00008b58       ??_C@_09EPGO@menu_game?$AA@ 00477b58     menu.obj
 0003:00008b64       ??_C@_09NOPB@menu_main?$AA@ 00477b64     menu.obj
 0003:00008b70       ??_C@_0BK@HLLD@?$CFs?5is?5version?5?$CFi?0?5not?5?$CFi?6?$AA@ 00477b70     model.obj
 0003:00008b8c       ??_C@_0BD@LGDL@Map?5with?5no?5models?$AA@ 00477b8c     model.obj
 0003:00008ba0       ??_C@_0BO@KBOB@LoadBSPFile?3?5funny?5lump?5size?6?$AA@ 00477ba0     model.obj
 0003:00008bc0       ??_C@_0CL@MOLC@LoadBrushModel?3?5?$CFs?5has?5a?5wrong?5B@ 00477bc0     model.obj
 0003:00008bec       ??_C@_0BB@KFPO@Couldn?8t?5load?5?$CFs?$AA@ 00477bec     model.obj
 0003:00008c00       ??_C@_0DC@ECOH@ProcessEntstring?$CI?$CJ?3?5old?5size?5?$DN?5?$CF@ 00477c00     model.obj
 0003:00008c34       ??_C@_0BJ@MIIC@Adding?5entity?5patch?5?4?4?4?6?$AA@ 00477c34     model.obj
 0003:00008c50       ??_C@_0BG@GGJC@Kingpin?5map?5detected?6?$AA@ 00477c50     model.obj
 0003:00008c68       ??_C@_0O@PLAB@?$CCfogdensity2?$CC?$AA@ 00477c68     model.obj
 0003:00008c78       ??_C@_0BJ@PIJA@?$CCclassname?$CC?5?$CClightflare?$CC?$AA@ 00477c78     model.obj
 0003:00008c94       ??_C@_0BF@KIIB@?$CCclassname?$CC?5?$CCjunior?$CC?$AA@ 00477c94     model.obj
 0003:00008cac       ??_C@_06CKJG@?$CFs?4add?$AA@ 00477cac     model.obj
 0003:00008cb4       ??_C@_0BF@OJJ@EntString?5error?3?5?$CFs?6?$AA@ 00477cb4     model.obj
 0003:00008ccc       ??_C@_0N@EHLC@expected?5?$CC?$HL?$CC?$AA@ 00477ccc     model.obj
 0003:00008cdc       ??_C@_0P@CODN@MAX_ENT_FIELDS?$AA@ 00477cdc     model.obj
 0003:00008cec       ??_C@_0BH@ENLB@unexpected?5end?5of?5data?$AA@ 00477cec     model.obj
 0003:00008d04       ??_C@_02ONJM@?$HN?6?$AA@   00477d04     model.obj
 0003:00008d08       ??_C@_0L@LNNB@?$CC?$CFs?$CC?5?$CC?$CFs?$CC?6?$AA@ 00477d08     model.obj
 0003:00008d14       ??_C@_02JKGD@?$HL?6?$AA@   00477d14     model.obj
 0003:00008d18       ??_C@_06NOHF@origin?$AA@   00477d18     model.obj
 0003:00008d20       ??_C@_0BF@OCLF@MAX_TARGETS?5reached?6?$AA@ 00477d20     model.obj
 0003:00008d38       ??_C@_0L@PMO@targetname?$AA@ 00477d38     model.obj
 0003:00008d44       ??_C@_07LLBN@fogval2?$AA@  00477d44     model.obj
 0003:00008d4c       ??_C@_0M@KJNG@fogdensity2?$AA@ 00477d4c     model.obj
 0003:00008d58       ??_C@_0N@HPMD@_sun_surface?$AA@ 00477d58     model.obj
 0003:00008d68       ??_C@_0N@FMCD@_sun_ambient?$AA@ 00477d68     model.obj
 0003:00008d78       ??_C@_0N@ECDG@_sun?$CFd_light?$AA@ 00477d78     model.obj
 0003:00008d88       ??_C@_0L@CJCG@_sun_light?$AA@ 00477d88     model.obj
 0003:00008d94       ??_C@_0L@GPLD@_sun_color?$AA@ 00477d94     model.obj
 0003:00008da0       ??_C@_0BH@JLFC@_sun_angle?0_sun_mangle?$AA@ 00477da0     model.obj
 0003:00008db8       ??_C@_04MEBA@_sun?$AA@     00477db8     model.obj
 0003:00008dc0       ??_C@_0M@NNGE@_sun_vector?$AA@ 00477dc0     model.obj
 0003:00008dcc       ??_C@_05LMLC@_sun?$CK?$AA@ 00477dcc     model.obj
 0003:00008dd4       ??_C@_0BJ@LCOJ@_ambient?0light?0_minlight?$AA@ 00477dd4     model.obj
 0003:00008df0       ??_C@_0L@GILE@fogdensity?$AA@ 00477df0     model.obj
 0003:00008dfc       ??_C@_06KDGB@fogval?$AA@   00477dfc     model.obj
 0003:00008e04       ??_C@_02CFNP@sr?$AA@       00477e04     model.obj
 0003:00008e08       ??_C@_0L@LME@worldspawn?$AA@ 00477e08     model.obj
 0003:00008e14       ??_C@_09OGED@func_lift?$AA@ 00477e14     model.obj
 0003:00008e20       ??_C@_0BE@PEIJ@func_train_rotating?$AA@ 00477e20     model.obj
 0003:00008e34       ??_C@_0P@CDNG@func_explosive?$AA@ 00477e34     model.obj
 0003:00008e44       ??_C@_0BD@DIJK@func_door_rotating?$AA@ 00477e44     model.obj
 0003:00008e58       ??_C@_09HMCI@func_door?$AA@ 00477e58     model.obj
 0003:00008e64       ??_C@_0L@OLKI@func_train?$AA@ 00477e64     model.obj
 0003:00008e70       ??_C@_09DHI@func_wall?$AA@ 00477e70     model.obj
 0003:00008e7c       ??_C@_06NLLI@junior?$AA@   00477e7c     model.obj
 0003:00008e84       ??_C@_0BL@HJNM@no?5flags?5specified?5for?5?$CFs?6?$AA@ 00477e84     model.obj
 0003:00008ea0       ??_C@_0BJ@IEPG@texinfo?5?$CFs?5is?5not?5found?6?$AA@ 00477ea0     model.obj
 0003:00008ebc       ??_C@_05MJGO@?$CFd?5?$CFd?$AA@ 00477ebc     model.obj
 0003:00008ec4       ??_C@_07IHDE@inflags?$AA@  00477ec4     model.obj
 0003:00008ecc       ??_C@_05KGBM@flags?$AA@    00477ecc     model.obj
 0003:00008ed4       ??_C@_09GDDG@surfparam?$AA@ 00477ed4     model.obj
 0003:00008ee0       ??_C@_06FNFB@_focus?$AA@   00477ee0     model.obj
 0003:00008ee8       ??_C@_05FIPM@_cone?$AA@    00477ee8     model.obj
 0003:00008ef0       ??_C@_0BN@PHIO@spotlight?5without?5direction?6?$AA@ 00477ef0     model.obj
 0003:00008f10       ??_C@_05LIJM@angle?$AA@    00477f10     model.obj
 0003:00008f18       ??_C@_05NGOE@?$CFf?5?$CFf?$AA@ 00477f18     model.obj
 0003:00008f20       ??_C@_0BD@NNFL@_mangle?0_spotangle?$AA@ 00477f20     model.obj
 0003:00008f34       ??_C@_0L@JPPJ@_spotpoint?$AA@ 00477f34     model.obj
 0003:00008f40       ??_C@_0M@ILIF@_spotvector?$AA@ 00477f40     model.obj
 0003:00008f4c       ??_C@_0CK@IHFG@_spotvector?0_spotpoint?0_mangle?0_@ 00477f4c     model.obj
 0003:00008f78       ??_C@_05BHCO@_spot?$AA@    00477f78     model.obj
 0003:00008f80       ??_C@_06CCPD@target?$AA@   00477f80     model.obj
 0003:00008f88       ??_C@_0M@OIHG@_wait?0_fade?$AA@ 00477f88     model.obj
 0003:00008f94       ??_C@_08MNFC@_falloff?$AA@ 00477f94     model.obj
 0003:00008fa0       ??_C@_0N@IGOF@color?0_color?$AA@ 00477fa0     model.obj
 0003:00008fb0       ??_C@_0N@MANK@light?0_light?$AA@ 00477fb0     model.obj
 0003:00008fc0       ??_C@_08NNKG@?$CFd?5?$CFd?5?$CFd?$AA@ 00477fc0     model.obj
 0003:00008fcc       ??_C@_05HMGA@color?$AA@    00477fcc     model.obj
 0003:00008fd4       ??_C@_06JGHA@radius?$AA@   00477fd4     model.obj
 0003:00008fdc       ??_C@_0BE@FHOB@HAVE?5SUN?5FLARE?3?5?$CFs?6?$AA@ 00477fdc     model.obj
 0003:00008ff0       ??_C@_03KLED@dmg?$AA@      00477ff0     model.obj
 0003:00008ff4       ??_C@_06HECL@health?$AA@   00477ff4     model.obj
 0003:00008ffc       ??_C@_05NGLH@flare?$AA@    00477ffc     model.obj
 0003:00009004       ??_C@_0N@FBG@style?0_style?$AA@ 00478004     model.obj
 0003:00009014       ??_C@_05DKPF@light?$AA@    00478014     model.obj
 0003:0000901c       ??_C@_0BI@BJJF@invalid?5model?5index?5?$CFd?6?$AA@ 0047801c     model.obj
 0003:00009034       ??_C@_03LCGD@?$CK?$CFd?$AA@ 00478034     model.obj
 0003:00009038       ??_C@_0L@CANC@spawnflags?$AA@ 00478038     model.obj
 0003:00009044       ??_C@_09JDJH@classname?$AA@ 00478044     model.obj
 0003:00009050       ??_C@_0BK@MBJG@target?5?$CC?$CFs?$CC?5is?5not?5found?6?$AA@ 00478050     model.obj
 0003:0000906c       ??_C@_08HNLA@showdrop?$AA@ 0047806c     net_chan.obj
 0003:00009078       ??_C@_0M@FDHI@showpackets?$AA@ 00478078     net_chan.obj
 0003:00009084       ??_C@_0CA@FAJD@send?5?$CF4i?5?3?5s?$DN?$CFi?5ack?$DN?$CFi?5rack?$DN?$CFi?6?$AA@ 00478084     net_chan.obj
 0003:000090a4       ??_C@_0CM@NEJP@send?5?$CF4i?5?3?5s?$DN?$CFi?5reliable?$DN?$CFi?5ack?$DN@ 004780a4     net_chan.obj
 0003:000090d0       ??_C@_0CF@LMMD@Netchan_Transmit?3?5dumped?5unrelia@ 004780d0     net_chan.obj
 0003:000090f8       ??_C@_0BP@DHDF@?$CFs?3?5outgoing?5message?5overflow?6?$AA@ 004780f8     net_chan.obj
 0003:00009118       ??_C@_0BN@HPPO@?$CFs?3Dropped?5?$CFi?5packets?5at?5?$CFi?6?$AA@ 00478118     net_chan.obj
 0003:00009138       ??_C@_0CB@MPHL@?$CFs?3Out?5of?5order?5packet?5?$CFi?5at?5?$CFi?6@ 00478138     net_chan.obj
 0003:0000915c       ??_C@_0CA@OEMD@recv?5?$CF4i?5?3?5s?$DN?$CFi?5ack?$DN?$CFi?5rack?$DN?$CFi?6?$AA@ 0047815c     net_chan.obj
 0003:0000917c       ??_C@_0CM@HAFP@recv?5?$CF4i?5?3?5s?$DN?$CFi?5reliable?$DN?$CFi?5ack?$DN@ 0047817c     net_chan.obj
 0003:000093d0       ??_C@_0M@HKBP@net_shownet?$AA@ 004783d0     net_wins.obj
 0003:000093dc       ??_C@_07PCIB@NO_DATA?$AA@  004783dc     net_wins.obj
 0003:000093e4       ??_C@_0M@IKOO@NO_RECOVERY?$AA@ 004783e4     net_wins.obj
 0003:000093f0       ??_C@_09BAHP@TRY_AGAIN?$AA@ 004783f0     net_wins.obj
 0003:000093fc       ??_C@_0P@LEPK@HOST_NOT_FOUND?$AA@ 004783fc     net_wins.obj
 0003:0000940c       ??_C@_08BKPG@EREFUSED?$AA@ 0047840c     net_wins.obj
 0003:00009418       ??_C@_0N@PFKN@_E_CANCELLED?$AA@ 00478418     net_wins.obj
 0003:00009428       ??_C@_0L@OIFL@_E_NO_MORE?$AA@ 00478428     net_wins.obj
 0003:00009434       ??_C@_0P@DHNM@TYPE_NOT_FOUND?$AA@ 00478434     net_wins.obj
 0003:00009444       ??_C@_0BC@IOAI@SERVICE_NOT_FOUND?$AA@ 00478444     net_wins.obj
 0003:00009458       ??_C@_0P@HOHJ@SYSCALLFAILURE?$AA@ 00478458     net_wins.obj
 0003:00009468       ??_C@_0BE@IFIG@EPROVIDERFAILEDINIT?$AA@ 00478468     net_wins.obj
 0003:0000947c       ??_C@_0BB@FDNH@EINVALIDPROVIDER?$AA@ 0047847c     net_wins.obj
 0003:00009490       ??_C@_0BC@LBMM@EINVALIDPROCTABLE?$AA@ 00478490     net_wins.obj
 0003:000094a4       ??_C@_0L@EBJF@ECANCELLED?$AA@ 004784a4     net_wins.obj
 0003:000094b0       ??_C@_07MMME@ENOMORE?$AA@  004784b0     net_wins.obj
 0003:000094b8       ??_C@_0P@JAON@NOTINITIALISED?$AA@ 004784b8     net_wins.obj
 0003:000094c8       ??_C@_0BA@LGGB@VERNOTSUPPORTED?$AA@ 004784c8     net_wins.obj
 0003:000094d8       ??_C@_0M@MFMD@SYSNOTREADY?$AA@ 004784d8     net_wins.obj
 0003:000094e4       ??_C@_07FLNI@EREMOTE?$AA@  004784e4     net_wins.obj
 0003:000094ec       ??_C@_06ODEH@ESTALE?$AA@   004784ec     net_wins.obj
 0003:000094f4       ??_C@_06GANK@EDQUOT?$AA@   004784f4     net_wins.obj
 0003:000094fc       ??_C@_06GPHM@EUSERS?$AA@   004784fc     net_wins.obj
 0003:00009504       ??_C@_08MABC@EPROCLIM?$AA@ 00478504     net_wins.obj
 0003:00009510       ??_C@_09PEOB@ENOTEMPTY?$AA@ 00478510     net_wins.obj
 0003:0000951c       ??_C@_0N@FHHG@EHOSTUNREACH?$AA@ 0047851c     net_wins.obj
 0003:0000952c       ??_C@_09MJAA@EHOSTDOWN?$AA@ 0047852c     net_wins.obj
 0003:00009538       ??_C@_0N@BEIO@ENAMETOOLONG?$AA@ 00478538     net_wins.obj
 0003:00009548       ??_C@_05BLND@ELOOP?$AA@    00478548     net_wins.obj
 0003:00009550       ??_C@_0N@JDEH@ECONNREFUSED?$AA@ 00478550     net_wins.obj
 0003:00009560       ??_C@_09GAFK@ETIMEDOUT?$AA@ 00478560     net_wins.obj
 0003:0000956c       ??_C@_0N@KOGG@ETOOMANYREFS?$AA@ 0047856c     net_wins.obj
 0003:0000957c       ??_C@_09GGMG@ESHUTDOWN?$AA@ 0047857c     net_wins.obj
 0003:00009588       ??_C@_08FHM@ENOTCONN?$AA@  00478588     net_wins.obj
 0003:00009594       ??_C@_07HMGE@EISCONN?$AA@  00478594     net_wins.obj
 0003:0000959c       ??_C@_07GPBJ@ENOBUFS?$AA@  0047859c     net_wins.obj
 0003:000095a4       ??_C@_0L@BFIE@ECONNRESET?$AA@ 004785a4     net_wins.obj
 0003:000095b0       ??_C@_0N@EBD@ECONNABORTED?$AA@ 004785b0     net_wins.obj
 0003:000095c0       ??_C@_09ELBD@ENETRESET?$AA@ 004785c0     net_wins.obj
 0003:000095cc       ??_C@_0M@MFKL@ENETUNREACH?$AA@ 004785cc     net_wins.obj
 0003:000095d8       ??_C@_08LANE@ENETDOWN?$AA@ 004785d8     net_wins.obj
 0003:000095e4       ??_C@_0O@NIMO@EADDRNOTAVAIL?$AA@ 004785e4     net_wins.obj
 0003:000095f4       ??_C@_0L@NEKG@EADDRINUSE?$AA@ 004785f4     net_wins.obj
 0003:00009600       ??_C@_0N@KCKI@EAFNOSUPPORT?$AA@ 00478600     net_wins.obj
 0003:00009610       ??_C@_0N@OANL@EPFNOSUPPORT?$AA@ 00478610     net_wins.obj
 0003:00009620       ??_C@_0L@IKIB@EOPNOTSUPP?$AA@ 00478620     net_wins.obj
 0003:0000962c       ??_C@_0BA@FLIJ@ESOCKTNOSUPPORT?$AA@ 0047862c     net_wins.obj
 0003:0000963c       ??_C@_0BA@JBLC@EPROTONOSUPPORT?$AA@ 0047863c     net_wins.obj
 0003:0000964c       ??_C@_0M@PFGD@ENOPROTOOPT?$AA@ 0047864c     net_wins.obj
 0003:00009658       ??_C@_0L@GMGL@EPROTOTYPE?$AA@ 00478658     net_wins.obj
 0003:00009664       ??_C@_08BHCP@EMSGSIZE?$AA@ 00478664     net_wins.obj
 0003:00009670       ??_C@_0N@IHAI@EDESTADDRREQ?$AA@ 00478670     net_wins.obj
 0003:00009680       ??_C@_08KJMC@ENOTSOCK?$AA@ 00478680     net_wins.obj
 0003:0000968c       ??_C@_08BLM@EALREADY?$AA@  0047868c     net_wins.obj
 0003:00009698       ??_C@_0M@OPHH@EINPROGRESS?$AA@ 00478698     net_wins.obj
 0003:000096a4       ??_C@_0M@KNGP@EWOULDBLOCK?$AA@ 004786a4     net_wins.obj
 0003:000096b0       ??_C@_06KPNH@EMFILE?$AA@   004786b0     net_wins.obj
 0003:000096b8       ??_C@_06NBH@EINVAL?$AA@    004786b8     net_wins.obj
 0003:000096c0       ??_C@_06EOEO@EFAULT?$AA@   004786c0     net_wins.obj
 0003:000096c8       ??_C@_07MKBE@EDISCON?$AA@  004786c8     net_wins.obj
 0003:000096d0       ??_C@_06FPBG@EACCES?$AA@   004786d0     net_wins.obj
 0003:000096d8       ??_C@_05EKME@EBADF?$AA@    004786d8     net_wins.obj
 0003:000096e0       ??_C@_05EIPD@EINTR?$AA@    004786e0     net_wins.obj
 0003:000096e8       ??_C@_0CN@LMOE@?$CF02x?$CF02x?$CF02x?$CF02x?3?$CF02x?$CF02x?$CF02x?$CF02@ 004786e8     net_wins.obj
 0003:00009718       ??_C@_0P@EOMI@?$CFd?4?$CFd?4?$CFd?4?$CFd?3?$CFd?$AA@ 00478718     net_wins.obj
 0003:00009728       ??_C@_08KME@loopback?$AA@  00478728     net_wins.obj
 0003:00009734       ??_C@_02MHMJ@?$CFu?$AA@    00478734     net_wins.obj
 0003:00009738       ??_C@_02JDLK@?$CFx?$AA@    00478738     net_wins.obj
 0003:0000973c       ??_C@_0BJ@DNJE@Oversize?5packet?5from?5?$CFs?6?$AA@ 0047873c     net_wins.obj
 0003:00009758       ??_C@_0BH@LDLC@NET_GetPacket?$CI?$CFs?$CJ?3?5?$CFs?6?$AA@ 00478758     net_wins.obj
 0003:00009770       ??_C@_05OKKO@WSA?$CFs?$AA@ 00478770     net_wins.obj
 0003:00009778       ??_C@_0L@EAM@WSA_ERR_?$CFd?$AA@ 00478778     net_wins.obj
 0003:00009784       ??_C@_0BL@JFAD@NET_SendPacket?$CI?$CFs?0?$CFd?$CJ?3?5?$CFs?6?$AA@ 00478784     net_wins.obj
 0003:000097a0       ??_C@_0CE@PAEP@NET_SendPacket?3?5bad?5address?5type@ 004787a0     net_wins.obj
 0003:000097c4       ??_C@_0BK@FCJP@UDP_OpenSocket?3?5bind?3?5?$CFs?6?$AA@ 004787c4     net_wins.obj
 0003:000097e0       ??_C@_0CN@BFOC@UDP_OpenSocket?3?5setsockopt?5SO_BR@ 004787e0     net_wins.obj
 0003:00009810       ??_C@_0CD@GOMM@UDP_OpenSocket?3?5ioctl?5FIONBIO?3?5?$CF@ 00478810     net_wins.obj
 0003:00009834       ??_C@_0BL@DOBB@UDP_OpenSocket?3?5socket?3?5?$CFs?$AA@ 00478834     net_wins.obj
 0003:00009850       ??_C@_0L@LBHI@clientport?$AA@ 00478850     net_wins.obj
 0003:0000985c       ??_C@_0O@MODK@ip_clientport?$AA@ 0047885c     net_wins.obj
 0003:0000986c       ??_C@_0CL@HGO@Couldn?8t?5allocate?5dedicated?5serv@ 0047886c     net_wins.obj
 0003:00009898       ??_C@_04IOEK@port?$AA@     00478898     net_wins.obj
 0003:000098a0       ??_C@_08LMAB@hostport?$AA@ 004788a0     net_wins.obj
 0003:000098ac       ??_C@_0M@OPDH@ip_hostport?$AA@ 004788ac     net_wins.obj
 0003:000098b8       ??_C@_02ICFJ@ip?$AA@       004788b8     net_wins.obj
 0003:000098bc       ??_C@_0BG@OALH@IPX_Socket?3?5bind?3?5?$CFs?6?$AA@ 004788bc     net_wins.obj
 0003:000098d4       ??_C@_0CJ@MPHA@IPX_Socket?3?5setsockopt?5SO_BROADC@ 004788d4     net_wins.obj
 0003:00009900       ??_C@_0BP@PPBG@IPX_Socket?3?5ioctl?5FIONBIO?3?5?$CFs?6?$AA@ 00478900     net_wins.obj
 0003:00009920       ??_C@_0BI@ENEN@IPX_Socket?3?5socket?3?5?$CFs?6?$AA@ 00478920     net_wins.obj
 0003:00009938       ??_C@_0P@NBBO@ipx_clientport?$AA@ 00478938     net_wins.obj
 0003:00009948       ??_C@_0N@ECGE@ipx_hostport?$AA@ 00478948     net_wins.obj
 0003:00009958       ??_C@_0BF@PC@Winsock?5Initialized?6?$AA@ 00478958     net_wins.obj
 0003:00009970       ??_C@_0BP@CEKH@Winsock?5initialization?5failed?4?$AA@ 00478970     net_wins.obj
 0003:000099dc       ??_C@_0BJ@GBLJ@Bad?5InitialSnapPosition?6?$AA@ 004789dc     pmove.obj
 0003:000099f8       ??_C@_0CO@GIJI@Com_sprintf?3?5overflow?5of?5?$CFd?5?$CIcal@ 004789f8     q_shared2.obj
 0003:00009a28       ??_C@_0CF@BJNI@Can?8t?5use?5keys?5or?5values?5with?5a?5@ 00478a28     q_shared2.obj
 0003:00009a50       ??_C@_0CF@IDAP@Can?8t?5use?5keys?5or?5values?5with?5a?5@ 00478a50     q_shared2.obj
 0003:00009a78       ??_C@_0CJ@KFGO@Keys?5and?5values?5must?5be?5?$DM?564?5cha@ 00478a78     q_shared2.obj
 0003:00009aa4       ??_C@_0BN@DPCF@Info?5string?5length?5exceeded?6?$AA@ 00478aa4     q_shared2.obj
 0003:00009ac4       ??_C@_06GNBE@?2?$CFs?2?$CFs?$AA@ 00478ac4     q_shared2.obj
 0003:00009acc       ??_C@_0CL@GPCB@Can?8t?5use?5keys?5or?5values?5with?5a?5@ 00478acc     q_shared2.obj
 0003:00009af8       ??_C@_03JJHE@?6?$AN?$AI?$AA@ 00478af8     qmenu.obj
 0003:00009b80       ??_C@_0M@MICD@s_testsound?$AA@ 00478b80     snd_dma.obj
 0003:00009b8c       ??_C@_06GBKH@s_show?$AA@   00478b8c     snd_dma.obj
 0003:00009b94       ??_C@_03NKPI@0?42?$AA@     00478b94     snd_dma.obj
 0003:00009b98       ??_C@_0L@DOGK@s_mixahead?$AA@ 00478b98     snd_dma.obj
 0003:00009ba4       ??_C@_02DMBA@22?$AA@       00478ba4     snd_dma.obj
 0003:00009ba8       ??_C@_03NKDD@0?47?$AA@     00478ba8     snd_dma.obj
 0003:00009bac       ??_C@_0BB@HPKE@0x?$CFx?5dma?5buffer?6?$AA@ 00478bac     snd_dma.obj
 0003:00009bc0       ??_C@_0L@JCHF@?$CF5d?5speed?6?$AA@ 00478bc0     snd_dma.obj
 0003:00009bcc       ??_C@_0BG@JJMA@?$CF5d?5submission_chunk?6?$AA@ 00478bcc     snd_dma.obj
 0003:00009be4       ??_C@_0BA@MLCC@?$CF5d?5samplebits?6?$AA@ 00478be4     snd_dma.obj
 0003:00009bf4       ??_C@_0P@IGHG@?$CF5d?5samplepos?6?$AA@ 00478bf4     snd_dma.obj
 0003:00009c04       ??_C@_0N@KDEK@?$CF5d?5samples?6?$AA@ 00478c04     snd_dma.obj
 0003:00009c14       ??_C@_0M@PEPK@?$CF5d?5stereo?6?$AA@ 00478c14     snd_dma.obj
 0003:00009c20       ??_C@_0BK@JHHA@sound?5system?5not?5started?6?$AA@ 00478c20     snd_dma.obj
 0003:00009c3c       ??_C@_0BJ@ODPP@Parsed?5?$CFi?5model?5genders?6?$AA@ 00478c3c     snd_dma.obj
 0003:00009c58       ??_C@_0BI@CIPL@model?4lst?5is?5too?5large?6?$AA@ 00478c58     snd_dma.obj
 0003:00009c70       ??_C@_0CA@HLPL@Female?5model?3?5?$CFs?5?$CInamelen?3?5?$CFd?$CJ?6?$AA@ 00478c70     snd_dma.obj
 0003:00009c90       ??_C@_0CA@KOBO@players?1model?4lst?5is?5not?5found?6?$AA@ 00478c90     snd_dma.obj
 0003:00009cb0       ??_C@_0BC@BFFJ@players?1model?4lst?$AA@ 00478cb0     snd_dma.obj
 0003:00009cc4       ??_C@_0BF@HFED@?4?4?4hardcoded?5female?6?$AA@ 00478cc4     snd_dma.obj
 0003:00009cdc       ??_C@_0L@NBOP@?4?4?4female?6?$AA@ 00478cdc     snd_dma.obj
 0003:00009ce8       ??_C@_08LOA@?4?4?4male?6?$AA@ 00478ce8     snd_dma.obj
 0003:00009cf4       ??_C@_07NHE@?$CFs?5?4?4?4?6?$AA@ 00478cf4     snd_dma.obj
 0003:00009cfc       ??_C@_07EIBF@crakhor?$AA@  00478cfc     snd_dma.obj
 0003:00009d04       ??_C@_0BH@PAN@Checking?5?$CFs?5gender?4?4?4?6?$AA@ 00478d04     snd_dma.obj
 0003:00009d1c       ??_C@_0CG@MIPN@?9?9?9?9?9?9?9?9?9?9?9?9?9?9?9?9?9?9?9?9?9?9?9?9?9?9?9?9?9?9?9?9@ 00478d1c     snd_dma.obj
 0003:00009d44       ??_C@_0BJ@PEMA@sound?5sampling?5rate?3?5?$CFi?6?$AA@ 00478d44     snd_dma.obj
 0003:00009d60       ??_C@_09DBLB@soundinfo?$AA@ 00478d60     snd_dma.obj
 0003:00009d6c       ??_C@_09BLBC@soundlist?$AA@ 00478d6c     snd_dma.obj
 0003:00009d78       ??_C@_09IELC@stopsound?$AA@ 00478d78     snd_dma.obj
 0003:00009d84       ??_C@_0BD@IPOK@not?5initializing?4?6?$AA@ 00478d84     snd_dma.obj
 0003:00009d98       ??_C@_0M@GMFD@s_initsound?$AA@ 00478d98     snd_dma.obj
 0003:00009da4       ??_C@_0CH@DKLF@?6?9?9?9?9?9?9?9?5sound?5initialization?5?9?9@ 00478da4     snd_dma.obj
 0003:00009dcc       ??_C@_0BJ@BOFF@S_FindName?3?5out?5of?5sfx_t?$AA@ 00478dcc     snd_dma.obj
 0003:00009de8       ??_C@_0BI@HAHM@Sound?5name?5too?5long?3?5?$CFs?$AA@ 00478de8     snd_dma.obj
 0003:00009e00       ??_C@_0BI@MPPL@S_FindName?3?5empty?5name?6?$AA@ 00478e00     snd_dma.obj
 0003:00009e18       ??_C@_0BC@INLJ@S_FindName?3?5NULL?6?$AA@ 00478e18     snd_dma.obj
 0003:00009e2c       ??_C@_0BM@MBGK@S_PickChannel?3?5entchannel?$DM0?$AA@ 00478e2c     snd_dma.obj
 0003:00009e48       ??_C@_0CI@FFOK@Issue?5?$CFi?5?5for?5entity?5?$CFi?5?5at?5chan@ 00478e48     snd_dma.obj
 0003:00009e70       ??_C@_0P@NKDI@player?1male?1?$CFs?$AA@ 00478e70     snd_dma.obj
 0003:00009e80       ??_C@_0BB@HAFO@player?1female?1?$CFs?$AA@ 00478e80     snd_dma.obj
 0003:00009e94       ??_C@_0P@CMCL@?$CDplayers?1?$CFs?1?$CFs?$AA@ 00478e94     snd_dma.obj
 0003:00009ea4       ??_C@_0CD@BKPA@S_StartLocalSound?3?5can?8t?5cache?5?$CF@ 00478ea4     snd_dma.obj
 0003:00009ec8       ??_C@_0BK@NGAB@?9?9?9?9?$CI?$CFi?$CJ?9?9?9?9?5painted?3?5?$CFi?6?$AA@ 00478ec8     snd_dma.obj
 0003:00009ee4       ??_C@_0M@OMDK@?$CF3i?5?$CF3i?5?$CFs?6?$AA@ 00478ee4     snd_dma.obj
 0003:00009ef0       ??_C@_0BG@DBOM@S_Update_?5?3?5overflow?6?$AA@ 00478ef0     snd_dma.obj
 0003:00009f08       ??_C@_04MPDF@?4wav?$AA@    00478f08     snd_dma.obj
 0003:00009f10       ??_C@_0BE@KMED@Total?5resident?3?5?$CFi?6?$AA@ 00478f10     snd_dma.obj
 0003:00009f24       ??_C@_0P@HFMP@?5?5not?5loaded?5?5?$AA@ 00478f24     snd_dma.obj
 0003:00009f34       ??_C@_0BD@KCLG@?$FO1?5?5not?5found?5?5?5?$FO7?$AA@ 00478f34     snd_dma.obj
 0003:00009f48       ??_C@_0P@IEKE@?5?5placeholder?5?$AA@ 00478f48     snd_dma.obj
 0003:00009f58       ??_C@_0BB@GLMG@?$CI?$CF2db?$CJ?5?$CF6i?5?3?5?$CFs?6?$AA@ 00478f58     snd_dma.obj
 0003:00009f6c       ??_C@_01FLCE@L?$AA@        00478f6c     snd_dma.obj
 0003:00009f70       ??_C@_0BH@BKDA@?$CFs?5is?5a?5stereo?5sample?6?$AA@ 00478f70     snd_mem.obj
 0003:00009f88       ??_C@_0BC@DJDD@Couldn?8t?5load?5?$CFs?6?$AA@ 00478f88     snd_mem.obj
 0003:00009f9c       ??_C@_0BK@HDNC@Missing?5RIFF?1WAVE?5chunks?6?$AA@ 00478f9c     snd_mem.obj
 0003:00009fb8       ??_C@_0BP@CLHH@Sound?5?$CFs?5has?5a?5bad?5loop?5length?$AA@ 00478fb8     snd_mem.obj
 0003:00009fd8       ??_C@_0BE@OGAC@Missing?5data?5chunk?6?$AA@ 00478fd8     snd_mem.obj
 0003:00009fec       ??_C@_04OMKF@data?$AA@     00478fec     snd_mem.obj
 0003:00009ff4       ??_C@_04JFAO@mark?$AA@     00478ff4     snd_mem.obj
 0003:00009ffc       ??_C@_04PBEL@LIST?$AA@     00478ffc     snd_mem.obj
 0003:0000a004       ??_C@_04MHP@cue?5?$AA@     00479004     snd_mem.obj
 0003:0000a00c       ??_C@_0BL@CPKL@Microsoft?5PCM?5format?5only?6?$AA@ 0047900c     snd_mem.obj
 0003:0000a028       ??_C@_0BD@LFCE@Missing?5fmt?5chunk?6?$AA@ 00479028     snd_mem.obj
 0003:0000a03c       ??_C@_04HBLJ@fmt?5?$AA@    0047903c     snd_mem.obj
 0003:0000a044       ??_C@_04DOFO@WAVE?$AA@     00479044     snd_mem.obj
 0003:0000a04c       ??_C@_04ILOB@RIFF?$AA@     0047904c     snd_mem.obj
 0003:0000a058       ??_C@_0BH@MNDJ@?4?4?4freeing?5DSOUND?4DLL?6?$AA@ 00479058     snd_win.obj
 0003:0000a070       ??_C@_0BI@MGAJ@?4?4?4releasing?5DS?5object?6?$AA@ 00479070     snd_win.obj
 0003:0000a088       ??_C@_0BM@MLMO@Shutting?5down?5sound?5system?6?$AA@ 00479088     snd_win.obj
 0003:0000a0a4       ??_C@_0BN@OBDC@?4?4?4releasing?5primary?5buffer?6?$AA@ 004790a4     snd_win.obj
 0003:0000a0c4       ??_C@_0CI@NPAP@?4?4?4stopping?5and?5releasing?5sound?5@ 004790c4     snd_win.obj
 0003:0000a0ec       ??_C@_0BO@FPOK@?4?4?4setting?5NORMAL?5coop?5level?6?$AA@ 004790ec     snd_win.obj
 0003:0000a10c       ??_C@_0BH@IDCM@Destroying?5DS?5buffers?6?$AA@ 0047910c     snd_win.obj
 0003:0000a124       ??_C@_0CB@OELN@failed?0?5hardware?5already?5in?5use?6@ 00479124     snd_win.obj
 0003:0000a148       ??_C@_0BL@PJEE@?4?4?4completed?5successfully?6?$AA@ 00479148     snd_win.obj
 0003:0000a164       ??_C@_0N@HOHD@retrying?4?4?4?6?$AA@ 00479164     snd_win.obj
 0003:0000a174       ??_C@_0BI@FMOF@?4?4?4creating?5DS?5object?3?5?$AA@ 00479174     snd_win.obj
 0003:0000a18c       ??_C@_0CD@EFCI@?$CK?$CK?$CK?5couldn?8t?5get?5DS?5proc?5addr?5?$CK?$CK@ 0047918c     snd_win.obj
 0003:0000a1b0       ??_C@_0BC@OJFH@DirectSoundCreate?$AA@ 004791b0     snd_win.obj
 0003:0000a1c4       ??_C@_0L@PLHI@dsound?4dll?$AA@ 004791c4     snd_win.obj
 0003:0000a1d0       ??_C@_0BI@JDCH@?4?4?4loading?5dsound?4dll?3?5?$AA@ 004791d0     snd_win.obj
 0003:0000a1e8       ??_C@_0BK@JBKA@Initializing?5DirectSound?6?$AA@ 004791e8     snd_win.obj
 0003:0000a204       ??_C@_0DE@DCGK@?5?5?5?$CFd?5channel?$CIs?$CJ?6?5?5?5?$CFd?5bits?1samp@ 00479204     snd_win.obj
 0003:0000a238       ??_C@_0CB@CFEN@?4?4?4using?5secondary?5sound?5buffer?6@ 00479238     snd_win.obj
 0003:0000a25c       ??_C@_0BP@EBHA@?4?4?4creating?5secondary?5buffer?3?5?$AA@ 0047925c     snd_win.obj
 0003:0000a27c       ??_C@_0CF@OENB@?4?4?4setting?5primary?5sound?5format?3@ 0047927c     snd_win.obj
 0003:0000a2a4       ??_C@_0BI@EOFF@?$CK?$CK?$CK?5GetCaps?5failed?5?$CK?$CK?$CK?6?$AA@ 004792a4     snd_win.obj
 0003:0000a2bc       ??_C@_0CF@KFBO@?4?4?4setting?5WRITEPRIMARY?5coop?5lev@ 004792bc     snd_win.obj
 0003:0000a2e4       ??_C@_0BJ@KLHA@?4?4?4using?5primary?5buffer?6?$AA@ 004792e4     snd_win.obj
 0003:0000a300       ??_C@_0CJ@HPFH@?4?4?4setting?5primary?5sound?5format?3@ 00479300     snd_win.obj
 0003:0000a32c       ??_C@_0BN@IKOP@?4?4?4creating?5primary?5buffer?3?5?$AA@ 0047932c     snd_win.obj
 0003:0000a34c       ??_C@_0CB@BHNP@?4?4?4setting?5PRIORITY?5coop?5level?3?5@ 0047934c     snd_win.obj
 0003:0000a370       ??_C@_0BF@MHHH@Creating?5DS?5buffers?6?$AA@ 00479370     snd_win.obj
 0003:0000a388       ??_C@_0BM@GEGJ@?$CK?$CK?$CK?5dsound?5init?5failed?5?$CK?$CK?$CK?6?$AA@ 00479388     snd_win.obj
 0003:0000a3a4       ??_C@_0BH@DHHL@dsound?5init?5succeeded?6?$AA@ 004793a4     snd_win.obj
 0003:0000a3bc       ??_C@_0DB@MAFM@S_TransferStereo16?3?5Lock?5failed?5@ 004793bc     snd_win.obj
 0003:0000a3f0       ??_C@_0BD@JMDM@DSERR_INVALIDPARAM?$AA@ 004793f0     snd_win.obj
 0003:0000a404       ??_C@_0BD@NIEA@DSERR_INVALIDCALLS?$AA@ 00479404     snd_win.obj
 0003:0000a418       ??_C@_0BG@MDBD@DSERR_PRIOLEVELNEEDED?$AA@ 00479418     snd_win.obj
 0003:0000a430       ??_C@_07CAMD@unknown?$AA@  00479430     snd_win.obj
 0003:0000a438       ??_C@_0CC@PILE@Couldn?8t?5get?5sound?5buffer?5status@ 00479438     snd_win.obj
 0003:0000a45c       ??_C@_0BB@PMMC@Sending?5a?5ping?4?6?$AA@ 0047945c     sv_ccmds.obj
 0003:0000a470       ??_C@_0BF@OAM@Master?5server?5at?5?$CFs?6?$AA@ 00479470     sv_ccmds.obj
 0003:0000a488       ??_C@_06NGHH@public?$AA@   00479488     sv_ccmds.obj
 0003:0000a490       ??_C@_0CF@FEG@Only?5dedicated?5servers?5use?5maste@ 00479490     sv_ccmds.obj
 0003:0000a4b8       ??_C@_0P@CCBL@?$CFs?1save?1?$CFs?1?$CK?4?$CK?$AA@ 004794b8     sv_ccmds.obj
 0003:0000a4c8       ??_C@_0BF@GKPD@SV_WipeSaveGame?$CI?$CFs?$CJ?6?$AA@ 004794c8     sv_ccmds.obj
 0003:0000a4e0       ??_C@_0M@OFIB@?$CFs?1save?1?$CFs?1?$AA@ 004794e0     sv_ccmds.obj
 0003:0000a4ec       ??_C@_0BJ@KHEP@SV_CopySaveGame?$CI?$CFs?0?5?$CFs?$CJ?6?$AA@ 004794ec     sv_ccmds.obj
 0003:0000a508       ??_C@_0BH@GEOK@?$CFs?1save?1current?1?$CFs?4sav?$AA@ 00479508     sv_ccmds.obj
 0003:0000a520       ??_C@_0BH@GAIK@?$CFs?1save?1current?1?$CFs?4sv2?$AA@ 00479520     sv_ccmds.obj
 0003:0000a538       ??_C@_0BF@LIHG@SV_WriteLevelFile?$CI?$CJ?6?$AA@ 00479538     sv_ccmds.obj
 0003:0000a550       ??_C@_0BE@PDLB@SV_ReadLevelFile?$CI?$CJ?6?$AA@ 00479550     sv_ccmds.obj
 0003:0000a564       ??_C@_0BA@GPDA@?$CFs?1save?1?$CFs?1shot?$AA@ 00479564     sv_ccmds.obj
 0003:0000a574       ??_C@_0BE@HNJD@?$CFs?1save?1?$CFs?1game?4ssv?$AA@ 00479574     sv_ccmds.obj
 0003:0000a588       ??_C@_0BI@GKOA@Cvar?5too?5long?3?5?$CFs?5?$DN?5?$CFs?6?$AA@ 00479588     sv_ccmds.obj
 0003:0000a5a0       ??_C@_0M@MMJA@ENTERING?5?$CFs?$AA@ 004795a0     sv_ccmds.obj
 0003:0000a5ac       ??_C@_0BD@BMPE@?$CF2d?3?$CFd?$CFd?5?$CF2d?1?$CF2d?5?5?$AA@ 004795ac     sv_ccmds.obj
 0003:0000a5c0       ??_C@_0BD@CDPL@Couldn?8t?5write?5?$CFs?6?$AA@ 004795c0     sv_ccmds.obj
 0003:0000a5d4       ??_C@_0BG@PKLB@?$CFs?1save?1?$CFs?1server?4ssv?$AA@ 004795d4     sv_ccmds.obj
 0003:0000a5ec       ??_C@_0BM@MEBO@SV_WriteServerFile?$CI?$CFs?0?5?$CFs?$CJ?6?$AA@ 004795ec     sv_ccmds.obj
 0003:0000a608       ??_C@_05NAGO@false?$AA@    00479608     sv_ccmds.obj
 0003:0000a610       ??_C@_04NCCD@true?$AA@     00479610     sv_ccmds.obj
 0003:0000a618       ??_C@_0BJ@HBCM@?$CFs?1save?1current?1game?4ssv?$AA@ 00479618     sv_ccmds.obj
 0003:0000a634       ??_C@_0N@OMIM@Set?5?$CFs?5?$DN?5?$CFs?6?$AA@ 00479634     sv_ccmds.obj
 0003:0000a644       ??_C@_0BC@GDMP@Couldn?8t?5read?5?$CFs?6?$AA@ 00479644     sv_ccmds.obj
 0003:0000a658       ??_C@_0BL@KAFO@?$CFs?1save?1current?1server?4ssv?$AA@ 00479658     sv_ccmds.obj
 0003:0000a674       ??_C@_0BH@CGAI@?1save?1current?1shot?4pcx?$AA@ 00479674     sv_ccmds.obj
 0003:0000a68c       ??_C@_0BF@FIGK@SV_ReadServerFile?$CI?$CJ?6?$AA@ 0047968c     sv_ccmds.obj
 0003:0000a6a4       ??_C@_06GAOG@?$CFs?4dm2?$AA@ 004796a4     sv_ccmds.obj
 0003:0000a6ac       ??_C@_05PGFE@save0?$AA@    004796ac     sv_ccmds.obj
 0003:0000a6b4       ??_C@_0BB@BHO@?$CFs?1save?1current?1?$AA@ 004796b4     sv_ccmds.obj
 0003:0000a6c8       ??_C@_07HLIN@current?$AA@  004796c8     sv_ccmds.obj
 0003:0000a6d0       ??_C@_0BA@FFIL@SV_GameMap?$CI?$CFs?$CJ?6?$AA@ 004796d0     sv_ccmds.obj
 0003:0000a6e0       ??_C@_0BG@FJEL@Usage?3?5gamemap?5?$DMmap?$DO?6?$AA@ 004796e0     sv_ccmds.obj
 0003:0000a6f8       ??_C@_0P@JOEA@Can?8t?5find?5?$CFs?6?$AA@ 004796f8     sv_ccmds.obj
 0003:0000a708       ??_C@_0N@ELMN@Bad?5savedir?6?$AA@ 00479708     sv_ccmds.obj
 0003:0000a718       ??_C@_0BG@IAAB@No?5such?5savegame?3?5?$CFs?6?$AA@ 00479718     sv_ccmds.obj
 0003:0000a730       ??_C@_0BB@GFMF@Loading?5game?4?4?4?6?$AA@ 00479730     sv_ccmds.obj
 0003:0000a744       ??_C@_0BN@FADC@Usage?3?5loadgame?5?$DMdirectory?$DO?6?$AA@ 00479744     sv_ccmds.obj
 0003:0000a764       ??_C@_06JCEA@Done?4?6?$AA@ 00479764     sv_ccmds.obj
 0003:0000a76c       ??_C@_0BA@EJPL@Saving?5game?4?4?4?6?$AA@ 0047976c     sv_ccmds.obj
 0003:0000a77c       ??_C@_0BN@HNDE@?6Can?8t?5savegame?5while?5dead?$CB?6?$AA@ 0047977c     sv_ccmds.obj
 0003:0000a79c       ??_C@_0BJ@MDNH@Can?8t?5save?5to?5?8current?8?6?$AA@ 0047979c     sv_ccmds.obj
 0003:0000a7b8       ??_C@_0CA@PPCA@Can?8t?5savegame?5in?5a?5deathmatch?6?$AA@ 004797b8     sv_ccmds.obj
 0003:0000a7d8       ??_C@_0BN@LOOP@Usage?3?5savegame?5?$DMdirectory?$DO?6?$AA@ 004797d8     sv_ccmds.obj
 0003:0000a7f8       ??_C@_0CA@FPJJ@You?5must?5be?5in?5a?5game?5to?5save?4?6?$AA@ 004797f8     sv_ccmds.obj
 0003:0000a818       ??_C@_02IPID@sv?$AA@       00479818     sv_ccmds.obj
 0003:0000a81c       ??_C@_0L@PNBO@killserver?$AA@ 0047981c     sv_ccmds.obj
 0003:0000a828       ??_C@_04JMJF@load?$AA@     00479828     sv_ccmds.obj
 0003:0000a830       ??_C@_04MEDD@save?$AA@     00479830     sv_ccmds.obj
 0003:0000a838       ??_C@_0L@NONC@serverstop?$AA@ 00479838     sv_ccmds.obj
 0003:0000a844       ??_C@_0N@LMDI@serverrecord?$AA@ 00479844     sv_ccmds.obj
 0003:0000a854       ??_C@_09LGEG@setmaster?$AA@ 00479854     sv_ccmds.obj
 0003:0000a860       ??_C@_07OPKL@gamemap?$AA@  00479860     sv_ccmds.obj
 0003:0000a868       ??_C@_08KKFE@dumpuser?$AA@ 00479868     sv_ccmds.obj
 0003:0000a874       ??_C@_0L@PFOG@serverinfo?$AA@ 00479874     sv_ccmds.obj
 0003:0000a880       ??_C@_06DKLM@status?$AA@   00479880     sv_ccmds.obj
 0003:0000a888       ??_C@_09GFGG@banremove?$AA@ 00479888     sv_ccmds.obj
 0003:0000a894       ??_C@_07DBDP@banlist?$AA@  00479894     sv_ccmds.obj
 0003:0000a89c       ??_C@_05KPMF@banip?$AA@    0047989c     sv_ccmds.obj
 0003:0000a8a4       ??_C@_03FGOF@ban?$AA@      004798a4     sv_ccmds.obj
 0003:0000a8a8       ??_C@_04KGFE@kick?$AA@     004798a8     sv_ccmds.obj
 0003:0000a8b0       ??_C@_09CAJF@heartbeat?$AA@ 004798b0     sv_ccmds.obj
 0003:0000a8bc       ??_C@_0L@PJPJ@was?5kicked?$AA@ 004798bc     sv_ccmds.obj
 0003:0000a8c8       ??_C@_0BJ@LHLB@Cannot?5kick?5host?5player?6?$AA@ 004798c8     sv_ccmds.obj
 0003:0000a8e4       ??_C@_0BG@FFOD@Usage?3?5kick?5?$DMuserid?$DO?6?$AA@ 004798e4     sv_ccmds.obj
 0003:0000a8fc       ??_C@_0BE@PLJD@No?5server?5running?4?6?$AA@ 004798fc     sv_ccmds.obj
 0003:0000a910       ??_C@_0CA@HDFP@Userid?5?$CFs?5is?5not?5on?5the?5server?6?$AA@ 00479910     sv_ccmds.obj
 0003:0000a930       ??_C@_0BJ@PCKC@Client?5?$CFd?5is?5not?5active?6?$AA@ 00479930     sv_ccmds.obj
 0003:0000a94c       ??_C@_0BF@FHHD@Bad?5client?5slot?3?5?$CFd?6?$AA@ 0047994c     sv_ccmds.obj
 0003:0000a964       ??_C@_0L@EALE@was?5banned?$AA@ 00479964     sv_ccmds.obj
 0003:0000a970       ??_C@_0M@IBML@?$CFd?4?$CFd?4?$CFd?4?$CFd?$AA@ 00479970     sv_ccmds.obj
 0003:0000a97c       ??_C@_0BK@NJOK@Cannot?5ban?5non?9IP?5client?6?$AA@ 0047997c     sv_ccmds.obj
 0003:0000a998       ??_C@_0BF@MGKE@Usage?3?5ban?5?$DMuserid?$DO?6?$AA@ 00479998     sv_ccmds.obj
 0003:0000a9b0       ??_C@_0BD@CCOH@Add?5?$CFs?5to?5banlist?6?$AA@ 004799b0     sv_ccmds.obj
 0003:0000a9c4       ??_C@_0BO@DECP@Cannot?5ban?5?$CFs?3?5ban?5list?5full?6?$AA@ 004799c4     sv_ccmds.obj
 0003:0000a9e4       ??_C@_0BD@DCKE@?$CFs?5already?5banned?6?$AA@ 004799e4     sv_ccmds.obj
 0003:0000a9f8       ??_C@_0BF@NFIF@IP?9mask?5is?5too?5long?6?$AA@ 004799f8     sv_ccmds.obj
 0003:0000aa10       ??_C@_0BI@OAG@Usage?3?5banip?5?$DMip?9mask?$DO?6?$AA@ 00479a10     sv_ccmds.obj
 0003:0000aa28       ??_C@_09NIGE@?$CF?92d?3?5?$CFs?6?$AA@ 00479a28     sv_ccmds.obj
 0003:0000aa34       ??_C@_0O@NKD@Banned?5IP?8s?3?6?$AA@ 00479a34     sv_ccmds.obj
 0003:0000aa44       ??_C@_0BD@NNDK@Bad?5list?5index?5?$CFd?6?$AA@ 00479a44     sv_ccmds.obj
 0003:0000aa58       ??_C@_0CA@MOJ@Index?5?$CFd?5is?5out?5of?5list?5bounds?6?$AA@ 00479a58     sv_ccmds.obj
 0003:0000aa78       ??_C@_0BM@HBKB@Mask?5?$CFs?5is?5not?5in?5ban?5list?6?$AA@ 00479a78     sv_ccmds.obj
 0003:0000aa94       ??_C@_0CK@OPDJ@Usage?3?5banremove?5?$DMlist?9index?5or?5@ 00479a94     sv_ccmds.obj
 0003:0000aac0       ??_C@_09KEKF@?9?9?9?9?9?9?9?9?6?$AA@ 00479ac0     sv_ccmds.obj
 0003:0000aacc       ??_C@_09IHL@userinfo?6?$AA@ 00479acc     sv_ccmds.obj
 0003:0000aad8       ??_C@_0BG@NDDP@Usage?3?5info?5?$DMuserid?$DO?6?$AA@ 00479ad8     sv_ccmds.obj
 0003:0000aaf0       ??_C@_0BF@FFNB@?$CF?915s?5?$CF7d?5?$CF?921s?5?$CF5d?6?$AA@ 00479af0     sv_ccmds.obj
 0003:0000ab08       ??_C@_04EGAA@?$CF4d?5?$AA@ 00479b08     sv_ccmds.obj
 0003:0000ab10       ??_C@_07FKBG@?$FO1ZMBI?5?$AA@ 00479b10     sv_ccmds.obj
 0003:0000ab18       ??_C@_05PDBF@CNCT?5?$AA@   00479b18     sv_ccmds.obj
 0003:0000ab20       ??_C@_08LPCH@?$CF3d?5?$CF5d?5?$AA@ 00479b20     sv_ccmds.obj
 0003:0000ab2c       ??_C@_0EF@IKJJ@?9?9?9?5?9?9?9?9?9?5?9?9?9?9?5?9?9?9?9?9?9?9?9?9?9?9?9?9?9?9?5?9@ 00479b2c     sv_ccmds.obj
 0003:0000ab74       ??_C@_0EF@PBEG@num?5score?5ping?5name?5?5?5?5?5?5?5?5?5?5?5?5l@ 00479b74     sv_ccmds.obj
 0003:0000abbc       ??_C@_08GCKC@map?3?5?$CFs?6?$AA@ 00479bbc     sv_ccmds.obj
 0003:0000abc8       ??_C@_09HDOH@console?3?5?$AA@ 00479bc8     sv_ccmds.obj
 0003:0000abd4       ??_C@_0BH@NHEI@Server?5info?5settings?3?6?$AA@ 00479bd4     sv_ccmds.obj
 0003:0000abec       ??_C@_0BL@CDPE@signon?5message?5length?3?5?$CFi?6?$AA@ 00479bec     sv_ccmds.obj
 0003:0000ac08       ??_C@_0BG@PICA@ERROR?3?5couldn?8t?5open?6?$AA@ 00479c08     sv_ccmds.obj
 0003:0000ac20       ??_C@_0BB@PEEL@recording?5to?5?$CFs?6?$AA@ 00479c20     sv_ccmds.obj
 0003:0000ac34       ??_C@_0CC@BOAA@You?5must?5be?5in?5a?5level?5to?5record@ 00479c34     sv_ccmds.obj
 0003:0000ac58       ??_C@_0BD@ODDC@Already?5recording?6?$AA@ 00479c58     sv_ccmds.obj
 0003:0000ac6c       ??_C@_0CA@KCOO@Usage?3?5serverrecord?5?$DMdemoname?$DO?6?$AA@ 00479c6c     sv_ccmds.obj
 0003:0000ac8c       ??_C@_0BG@LOMO@Recording?5completed?4?6?$AA@ 00479c8c     sv_ccmds.obj
 0003:0000aca4       ??_C@_0BL@GMKD@Not?5doing?5a?5serverrecord?4?6?$AA@ 00479ca4     sv_ccmds.obj
 0003:0000acc0       ??_C@_0BE@PIIA@Server?5was?5killed?4?6?$AA@ 00479cc0     sv_ccmds.obj
 0003:0000acd4       ??_C@_0BB@NPBO@No?5game?5loaded?4?6?$AA@ 00479cd4     sv_ccmds.obj
 0003:0000ace8       ??_C@_0BF@BKHO@SV_FatPVS?3?5count?5?$DM?51?$AA@ 00479ce8     sv_ents.obj
 0003:0000ad00       ??_C@_0BJ@BDMB@FIXING?5ENT?9?$DOS?4NUMBER?$CB?$CB?$CB?6?$AA@ 00479d00     sv_ents.obj
 0003:0000ad1c       ??_C@_0BL@JJJD@game?5is?5version?5?$CFi?0?5not?5?$CFi?$AA@ 00479d1c     sv_game.obj
 0003:0000ad38       ??_C@_0BI@GBHP@failed?5to?5load?5game?5DLL?$AA@ 00479d38     sv_game.obj
 0003:0000ad50       ??_C@_0BI@DKJ@cprintf?5to?5a?5non?9client?$AA@ 00479d50     sv_game.obj
 0003:0000ad68       ??_C@_0P@NPOJ@Game?5Error?3?5?$CFs?$AA@ 00479d68     sv_game.obj
 0003:0000ad78       ??_C@_0BH@IKIP@PF_setmodel?3?5NULL?5name?$AA@ 00479d78     sv_game.obj
 0003:0000ad90       ??_C@_0BM@CNAK@configstring?3?5bad?5index?5?$CFi?6?$AA@ 00479d90     sv_game.obj
 0003:0000adac       ??_C@_0BB@NLNL@?$CKIndex?3?5overflow?$AA@ 00479dac     sv_init.obj
 0003:0000adc0       ??_C@_0CH@OFFJ@?9?9?9?9?9?9?9?9?9?9?9?9?9?9?9?9?9?9?9?9?9?9?9?9?9?9?9?9?9?9?9?9@ 00479dc0     sv_init.obj
 0003:0000ade8       ??_C@_03OGBA@?$CK?$CFi?$AA@ 00479de8     sv_init.obj
 0003:0000adec       ??_C@_0BB@GLPC@SpawnServer?3?5?$CFs?6?$AA@ 00479dec     sv_init.obj
 0003:0000ae00       ??_C@_0CH@IKHO@?9?9?9?9?9?9?9?5Server?5Initialization?5?9?9@ 00479e00     sv_init.obj
 0003:0000ae28       ??_C@_0BB@GHKI@192?4246?440?437?3?$CFi?$AA@ 00479e28     sv_init.obj
 0003:0000ae3c       ??_C@_0CO@HHKO@Deathmatch?5and?5Coop?5both?5set?0?5di@ 00479e3c     sv_init.obj
 0003:0000ae6c       ??_C@_0BC@IKLG@Server?5restarted?6?$AA@ 00479e6c     sv_init.obj
 0003:0000ae80       ??_C@_0L@BGLM@reconnect?6?$AA@ 00479e80     sv_init.obj
 0003:0000ae8c       ??_C@_09LPNI@changing?6?$AA@ 00479e8c     sv_init.obj
 0003:0000ae98       ??_C@_04OOJJ@?4cin?$AA@    00479e98     sv_init.obj
 0003:0000aea0       ??_C@_0BB@JIPH@gamemap?5?$CC?$CKbase1?$CC?$AA@ 00479ea0     sv_init.obj
 0003:0000aeb4       ??_C@_0M@NDJE@victory?4pcx?$AA@ 00479eb4     sv_init.obj
 0003:0000aec0       ??_C@_0L@GJBA@nextserver?$AA@ 00479ec0     sv_init.obj
 0003:0000aecc       ??_C@_0N@GFOP@gamemap?5?$CC?$CFs?$CC?$AA@ 00479ecc     sv_init.obj
 0003:0000b088       ??_C@_0BA@KAM@sv_camperSounds?$AA@ 0047a088     sv_main.obj
 0003:0000b098       ??_C@_0P@JJPJ@sv_extProtocol?$AA@ 0047a098     sv_main.obj
 0003:0000b0a8       ??_C@_0BD@JBOO@sv_reconnect_limit?$AA@ 0047a0a8     sv_main.obj
 0003:0000b0bc       ??_C@_0BB@JJBE@sv_airaccelerate?$AA@ 0047a0bc     sv_main.obj
 0003:0000b0d0       ??_C@_0M@HDMP@sv_noreload?$AA@ 0047a0d0     sv_main.obj
 0003:0000b0dc       ??_C@_0P@HFJA@sv_enforcetime?$AA@ 0047a0dc     sv_main.obj
 0003:0000b0ec       ??_C@_0L@JNGG@zombietime?$AA@ 0047a0ec     sv_main.obj
 0003:0000b0f8       ??_C@_03FIFM@125?$AA@      0047a0f8     sv_main.obj
 0003:0000b0fc       ??_C@_07OGDM@timeout?$AA@  0047a0fc     sv_main.obj
 0003:0000b104       ??_C@_06IPHI@noname?$AA@   0047a104     sv_main.obj
 0003:0000b10c       ??_C@_06EFAM@?$CFs?5?$CFs?6?$AA@ 0047a10c     sv_main.obj
 0003:0000b114       ??_C@_0M@MMFA@?$CFd?5?$CFd?5?$CC?$CFs?$CC?6?$AA@ 0047a114     sv_main.obj
 0003:0000b120       ??_C@_08FFBJ@print?6?$CFs?$AA@ 0047a120     sv_main.obj
 0003:0000b12c       ??_C@_0BK@HJDC@Ping?5acknowledge?5from?5?$CFs?6?$AA@ 0047a12c     sv_main.obj
 0003:0000b148       ??_C@_07MOMD@info?6?$CFs?$AA@ 0047a148     sv_main.obj
 0003:0000b150       ??_C@_0BC@HIGA@?$CF16s?5?$CF8s?5?$CF2d?1?$CF2d?6?$AA@ 0047a150     sv_main.obj
 0003:0000b164       ??_C@_0BD@MBL@?$CFs?3?5wrong?5version?6?$AA@ 0047a164     sv_main.obj
 0003:0000b178       ??_C@_0N@LFIF@challenge?5?$CFd?$AA@ 0047a178     sv_main.obj
 0003:0000b188       ??_C@_0BC@IIEA@client_connect?5?$CFs?$AA@ 0047a188     sv_main.obj
 0003:0000b19c       ??_C@_0CL@EBBP@Connecting?5client?5using?5extended@ 0047a19c     sv_main.obj
 0003:0000b1c8       ??_C@_0BN@MCHJ@Game?5rejected?5a?5connection?4?6?$AA@ 0047a1c8     sv_main.obj
 0003:0000b1e8       ??_C@_0BI@NPCI@Rejected?5a?5connection?4?6?$AA@ 0047a1e8     sv_main.obj
 0003:0000b200       ??_C@_0BH@EJBL@print?6Server?5is?5full?4?6?$AA@ 0047a200     sv_main.obj
 0003:0000b218       ??_C@_0BO@JIEH@print?6?$CFs?6Connection?5refused?4?6?$AA@ 0047a218     sv_main.obj
 0003:0000b238       ??_C@_06NPBA@rejmsg?$AA@   0047a238     sv_main.obj
 0003:0000b240       ??_C@_0O@PINL@?$CFs?3reconnect?6?$AA@ 0047a240     sv_main.obj
 0003:0000b250       ??_C@_0CC@HDAG@?$CFs?3reconnect?5rejected?5?3?5too?5soon@ 0047a250     sv_main.obj
 0003:0000b274       ??_C@_0BG@FLBC@print?6Bad?5challenge?4?6?$AA@ 0047a274     sv_main.obj
 0003:0000b28c       ??_C@_0CB@NJKI@print?6No?5challenge?5for?5address?4?6@ 0047a28c     sv_main.obj
 0003:0000b2b0       ??_C@_0BL@MOAJ@print?6Connection?5refused?4?6?$AA@ 0047a2b0     sv_main.obj
 0003:0000b2cc       ??_C@_0CL@HPIH@Remote?5connect?5in?5attract?5loop?4?5@ 0047a2cc     sv_main.obj
 0003:0000b2f8       ??_C@_0CE@CCFI@?5?5rejected?5connect?5from?5version?5@ 0047a2f8     sv_main.obj
 0003:0000b31c       ??_C@_0CA@DFPL@print?6Server?5is?5version?5?$CF4?42f?4?6?$AA@ 0047a31c     sv_main.obj
 0003:0000b33c       ??_C@_0BF@PAKP@SVC_DirectConnect?$CI?$CJ?6?$AA@ 0047a33c     sv_main.obj
 0003:0000b354       ??_C@_0BE@NOD@Bad?5rcon_password?4?6?$AA@ 0047a354     sv_main.obj
 0003:0000b368       ??_C@_0BC@IMG@Rcon?5from?5?$CFs?3?6?$CFs?6?$AA@ 0047a368     sv_main.obj
 0003:0000b37c       ??_C@_0BG@HOCP@Bad?5rcon?5from?5?$CFs?3?6?$CFs?6?$AA@ 0047a37c     sv_main.obj
 0003:0000b394       ??_C@_0CJ@FIJF@Bad?5connectionless?5packet?5from?5?$CF@ 0047a394     sv_main.obj
 0003:0000b3c0       ??_C@_0N@IDFB@getchallenge?$AA@ 0047a3c0     sv_main.obj
 0003:0000b3d0       ??_C@_0M@FCEE@?4?4?4?5banned?6?$AA@ 0047a3d0     sv_main.obj
 0003:0000b3dc       ??_C@_0BA@DJJM@Packet?5?$CFs?5?3?5?$CFs?6?$AA@ 0047a3dc     sv_main.obj
 0003:0000b3ec       ??_C@_0CN@JDAA@SV_ReadPackets?3?5fixing?5up?5a?5tran@ 0047a3ec     sv_main.obj
 0003:0000b41c       ??_C@_09BKMO@timed?5out?$AA@ 0047a41c     sv_main.obj
 0003:0000b428       ??_C@_09FMPF@?$CKfall?4wav?$AA@ 0047a428     sv_main.obj
 0003:0000b434       ??_C@_0O@FDAE@sv?5highclamp?6?$AA@ 0047a434     sv_main.obj
 0003:0000b444       ??_C@_0N@DOEE@sv?5lowclamp?6?$AA@ 0047a444     sv_main.obj
 0003:0000b454       ??_C@_0N@OALD@heartbeat?6?$CFs?$AA@ 0047a454     sv_main.obj
 0003:0000b464       ??_C@_0BJ@BMKD@Sending?5heartbeat?5to?5?$CFs?6?$AA@ 0047a464     sv_main.obj
 0003:0000b480       ??_C@_08DHEI@shutdown?$AA@ 0047a480     sv_main.obj
 0003:0000b48c       ??_C@_08OEPO@protocol?$AA@ 0047a48c     sv_main.obj
 0003:0000b498       ??_C@_04PNMK@?$FO1?$CFs?$AA@ 0047a498     sv_main.obj
 0003:0000b4a0       ??_C@_0BI@KKOF@SV_Multicast?3?5bad?5to?3?$CFi?$AA@ 0047a4a0     sv_send.obj
 0003:0000b4b8       ??_C@_0BM@BECA@SV_StartSound?3?5timeofs?5?$DN?5?$CFf?$AA@ 0047a4b8     sv_send.obj
 0003:0000b4d4       ??_C@_0CA@JBBE@SV_StartSound?3?5attenuation?5?$DN?5?$CFf?$AA@ 0047a4d4     sv_send.obj
 0003:0000b4f4       ??_C@_0BL@LNPI@SV_StartSound?3?5volume?5?$DN?5?$CFf?$AA@ 0047a4f4     sv_send.obj
 0003:0000b510       ??_C@_0BH@FOOP@Msg?5overflowed?5for?5?$CFs?6?$AA@ 0047a510     sv_send.obj
 0003:0000b528       ??_C@_0BM@JJLC@Datagram?5overflowed?5for?5?$CFs?6?$AA@ 0047a528     sv_send.obj
 0003:0000b544       ??_C@_0L@DLGO@overflowed?$AA@ 0047a544     sv_send.obj
 0003:0000b550       ??_C@_0CL@JPLE@SV_SendClientMessages?3?5msglen?5?$DO?5@ 0047a550     sv_send.obj
 0003:0000b580       _ucmds                     0047a580     sv_user.obj
 0003:0000b5d0       ??_C@_09LPDF@baselines?$AA@ 0047a5d0     sv_user.obj
 0003:0000b5dc       ??_C@_0O@KHFO@configstrings?$AA@ 0047a5dc     sv_user.obj
 0003:0000b5ec       ??_C@_0BC@KCLP@Couldn?8t?5open?5?$CFs?6?$AA@ 0047a5ec     sv_user.obj
 0003:0000b600       ??_C@_08IDHK@demos?1?$CFs?$AA@ 0047a600     sv_user.obj
 0003:0000b60c       ??_C@_0BI@BJGL@cmd?5configstrings?5?$CFi?50?6?$AA@ 0047a60c     sv_user.obj
 0003:0000b624       ??_C@_0CC@OENI@New?5not?5valid?5?9?9?5already?5spawned@ 0047a624     sv_user.obj
 0003:0000b648       ??_C@_0P@PNCG@New?$CI?$CJ?5from?5?$CFs?6?$AA@ 0047a648     sv_user.obj
 0003:0000b658       ??_C@_0BJ@KDKB@cmd?5configstrings?5?$CFi?5?$CFi?6?$AA@ 0047a658     sv_user.obj
 0003:0000b674       ??_C@_0BE@OBMO@cmd?5baselines?5?$CFi?50?6?$AA@ 0047a674     sv_user.obj
 0003:0000b688       ??_C@_0CJ@PHAB@SV_Configstrings_f?5from?5differen@ 0047a688     sv_user.obj
 0003:0000b6b4       ??_C@_0CM@BIPJ@configstrings?5not?5valid?5?9?9?5alrea@ 0047a6b4     sv_user.obj
 0003:0000b6e0       ??_C@_0BJ@LAHB@Configstrings?$CI?$CJ?5from?5?$CFs?6?$AA@ 0047a6e0     sv_user.obj
 0003:0000b6fc       ??_C@_0BF@COFJ@cmd?5baselines?5?$CFi?5?$CFi?6?$AA@ 0047a6fc     sv_user.obj
 0003:0000b714       ??_C@_0N@ICEK@precache?5?$CFi?6?$AA@ 0047a714     sv_user.obj
 0003:0000b724       ??_C@_0CF@HKKI@SV_Baselines_f?5from?5different?5le@ 0047a724     sv_user.obj
 0003:0000b74c       ??_C@_0CI@DKBH@baselines?5not?5valid?5?9?9?5already?5s@ 0047a74c     sv_user.obj
 0003:0000b774       ??_C@_0BF@GBGN@Baselines?$CI?$CJ?5from?5?$CFs?6?$AA@ 0047a774     sv_user.obj
 0003:0000b78c       ??_C@_0CB@ILDH@SV_Begin_f?5from?5different?5level?6@ 0047a78c     sv_user.obj
 0003:0000b7b0       ??_C@_0BB@EAAN@Begin?$CI?$CJ?5from?5?$CFs?6?$AA@ 0047a7b0     sv_user.obj
 0003:0000b7c4       ??_C@_0BM@GAAA@Couldn?8t?5download?5?$CFs?5to?5?$CFs?6?$AA@ 0047a7c4     sv_user.obj
 0003:0000b7e0       ??_C@_0BG@CEDO@Downloading?5?$CFs?5to?5?$CFs?6?$AA@ 0047a7e0     sv_user.obj
 0003:0000b7f8       ??_C@_05GMPI@maps?1?$AA@   0047a7f8     sv_user.obj
 0003:0000b800       ??_C@_06ICGA@sound?1?$AA@  0047a800     sv_user.obj
 0003:0000b808       ??_C@_07KPOE@models?1?$AA@ 0047a808     sv_user.obj
 0003:0000b810       ??_C@_08KDEJ@players?1?$AA@ 0047a810     sv_user.obj
 0003:0000b81c       ??_C@_0BG@OHIL@Nextserver?$CI?$CJ?5from?5?$CFs?6?$AA@ 0047a81c     sv_user.obj
 0003:0000b834       ??_C@_0CI@GELI@Nextserver?$CI?$CJ?5from?5wrong?5level?0?5f@ 0047a834     sv_user.obj
 0003:0000b85c       ??_C@_0BP@PHFB@commandMsec?5underflow?5from?5?$CFs?6?$AA@ 0047a85c     sv_user.obj
 0003:0000b87c       ??_C@_0CO@HDIJ@Failed?5command?5checksum?5for?5?$CFs?5?$CI@ 0047a87c     sv_user.obj
 0003:0000b8ac       ??_C@_0CM@FKEM@SV_ReadClientMessage?3?5unknown?5co@ 0047a8ac     sv_user.obj
 0003:0000b8d8       ??_C@_0BP@JOFM@SV_ReadClientMessage?3?5badread?6?$AA@ 0047a8d8     sv_user.obj
 0003:0000b8f8       ??_C@_0CF@CPLA@Object?5touching?53?5areas?5at?5?$CFf?5?$CFf@ 0047a8f8     sv_world.obj
 0003:0000b920       ??_C@_0CD@JLKE@MOVETYPE_PUSH?5with?5a?5non?5bsp?5mod@ 0047a920     sv_world.obj
 0003:0000b944       ??_C@_0BJ@DAAG@SV_AreaEdicts?3?5MAXCOUNT?6?$AA@ 0047a944     sv_world.obj
 0003:0000b964       ??_C@_0M@MIKD@Fatal?5error?$AA@ 0047a964     sys_win.obj
 0003:0000b970       ??_C@_0BK@BEMN@?$CFsinstall?1data?1quake2?4exe?$AA@ 0047a970     sys_win.obj
 0003:0000b98c       ??_C@_0P@GHLE@?$CFsinstall?1data?$AA@ 0047a98c     sys_win.obj
 0003:0000b99c       ??_C@_0CJ@OAMN@Couldn?8t?5create?5dedicated?5server@ 0047a99c     sys_win.obj
 0003:0000b9c8       ??_C@_0BN@BND@Quake2?5doesn?8t?5run?5on?5Win32s?$AA@ 0047a9c8     sys_win.obj
 0003:0000b9e8       ??_C@_0CN@OIAN@Quake2?5requires?5windows?5version?5@ 0047a9e8     sys_win.obj
 0003:0000ba18       ??_C@_0BF@HIO@Couldn?8t?5get?5OS?5info?$AA@ 0047aa18     sys_win.obj
 0003:0000ba30       ??_C@_0BD@GCDK@?$CK?$CK?$CK?$CK?$CK?5CRUSH?5?$CK?$CK?$CK?$CK?$CK?6?$AA@ 0047aa30     sys_win.obj
 0003:0000ba44       ??_C@_0BI@IDDA@Stack?5frame?5?$CICS?3?$CF08X?$CJ?3?6?$AA@ 0047aa44     sys_win.obj
 0003:0000ba5c       ??_C@_0BA@FDKH@?5?5EFLAGS?3?5?$CF08X?6?$AA@ 0047aa5c     sys_win.obj
 0003:0000ba6c       ??_C@_02DIPJ@GS?$AA@       0047aa6c     sys_win.obj
 0003:0000ba70       ??_C@_02COFD@FS?$AA@       0047aa70     sys_win.obj
 0003:0000ba74       ??_C@_02BFKM@ES?$AA@       0047aa74     sys_win.obj
 0003:0000ba78       ??_C@_02DAG@DS?$AA@        0047aa78     sys_win.obj
 0003:0000ba7c       ??_C@_02IPK@SS?$AA@        0047aa7c     sys_win.obj
 0003:0000ba80       ??_C@_02GCFD@CS?$AA@       0047aa80     sys_win.obj
 0003:0000ba84       ??_C@_0L@JJGB@?5?5?$CFs?3?5?$CF04X?$AA@ 0047aa84     sys_win.obj
 0003:0000ba90       ??_C@_03JKAN@EIP?$AA@      0047aa90     sys_win.obj
 0003:0000ba94       ??_C@_03GIKF@ESP?$AA@      0047aa94     sys_win.obj
 0003:0000ba98       ??_C@_03BEKG@EBP?$AA@      0047aa98     sys_win.obj
 0003:0000ba9c       ??_C@_03DEAG@EDI?$AA@      0047aa9c     sys_win.obj
 0003:0000baa0       ??_C@_03DPPK@ESI?$AA@      0047aaa0     sys_win.obj
 0003:0000baa4       ??_C@_03DHOB@EDX?$AA@      0047aaa4     sys_win.obj
 0003:0000baa8       ??_C@_03FGLE@ECX?$AA@      0047aaa8     sys_win.obj
 0003:0000baac       ??_C@_03EABO@EBX?$AA@      0047aaac     sys_win.obj
 0003:0000bab0       ??_C@_03HLOB@EAX?$AA@      0047aab0     sys_win.obj
 0003:0000bab4       ??_C@_0CN@OHNK@Exception?5?$CF08X?5at?5address?5?$CF08X?5i@ 0047aab4     sys_win.obj
 0003:0000bae4       ??_C@_05KGON@?$DMN?1A?$DO?$AA@ 0047aae4     sys_win.obj
 0003:0000baec       ??_C@_0CE@HCJB@?9?9?9?9?9?5Quake2?5crush?5log?5on?5?$CFs?5?9?9?9@ 0047aaec     sys_win.obj
 0003:0000bb10       ??_C@_09PGPG@crush?4log?$AA@ 0047ab10     sys_win.obj
 0003:0000bb1c       ??_C@_02IHLC@?5?5?$AA@     0047ab1c     sys_win.obj
 0003:0000bb20       ??_C@_05LHOL@?5?$CF02X?$AA@ 0047ab20     sys_win.obj
 0003:0000bb28       ??_C@_06BCOJ@?5?$DMN?1A?$DO?$AA@ 0047ab28     sys_win.obj
 0003:0000bb30       ??_C@_0N@IODG@?5?5?$CFs?3?5?$CF08X?5?5?$AA@ 0047ab30     sys_win.obj
 0003:0000bb40       ??_C@_06JLOO@?5?5?$CF08X?$AA@ 0047ab40     sys_win.obj
 0003:0000bb48       ??_C@_03BBFP@?$AI?5?$AI?$AA@ 0047ab48     sys_win.obj
 0003:0000bb4c       ??_C@_02PIMC@?$AN?6?$AA@   0047ab4c     sys_win.obj
 0003:0000bb50       ??_C@_0BM@DCEG@Couldn?8t?5read?5console?5input?$AA@ 0047ab50     sys_win.obj
 0003:0000bb6c       ??_C@_0BM@ICBN@Error?5reading?5console?5input?$AA@ 0047ab6c     sys_win.obj
 0003:0000bb88       ??_C@_0CC@KAGK@Error?5getting?5?$CD?5of?5console?5event@ 0047ab88     sys_win.obj
 0003:0000bbac       ??_C@_0CE@PHFH@FreeLibrary?5failed?5for?5game?5libr@ 0047abac     sys_win.obj
 0003:0000bbd0       ??_C@_0L@OIFE@GetGameAPI?$AA@ 0047abd0     sys_win.obj
 0003:0000bbdc       ??_C@_0BC@OKKB@LoadLibrary?5?$CI?$CFs?$CJ?6?$AA@ 0047abdc     sys_win.obj
 0003:0000bbf0       ??_C@_08MFKL@?$CFs?1?$CFs?1?$CFs?$AA@ 0047abf0     sys_win.obj
 0003:0000bbfc       ??_C@_07FCDP@release?$AA@  0047abfc     sys_win.obj
 0003:0000bc04       ??_C@_0M@KCKA@gamex86?4dll?$AA@ 0047ac04     sys_win.obj
 0003:0000bc10       ??_C@_0CK@HGID@Sys_GetGameAPI?$CI?$CJ?5without?5Sys_Unl@ 0047ac10     sys_win.obj
 0003:0000bc3c       ??_C@_03IKNC@exe?$AA@      0047ac3c     sys_win.obj
 0003:0000bc40       _ri                        0047ac40     vid_dll.obj
 0003:0000be70       ??_C@_0BC@PEGA@win_priorityBoost?$AA@ 0047ae70     vid_dll.obj
 0003:0000be84       ??_C@_0N@ECGB@win_noalttab?$AA@ 0047ae84     vid_dll.obj
 0003:0000be94       ??_C@_07JEME@r_gamma?$AA@  0047ae94     vid_dll.obj
 0003:0000be9c       ??_C@_08LJOP@vid_ypos?$AA@ 0047ae9c     vid_dll.obj
 0003:0000bea8       ??_C@_08JMLN@vid_xpos?$AA@ 0047aea8     vid_dll.obj
 0003:0000beb4       ??_C@_04NBLP@soft?$AA@     0047aeb4     vid_dll.obj
 0003:0000bebc       ??_C@_07LICL@vid_ref?$AA@  0047aebc     vid_dll.obj
 0003:0000bec4       ??_C@_0CJ@PEPJ@Vid_CreateWindow?3?5couldn?8t?5creat@ 0047aec4     vid_dll.obj
 0003:0000bef0       ??_C@_0DB@MNPL@Vid_CreateWindow?3?5couldn?8t?5regis@ 0047aef0     vid_dll.obj
 0003:0000bf24       ??_C@_06GPJN@Quake2?$AA@   0047af24     vid_dll.obj
 0003:0000bf2c       ??_C@_0BD@HHHC@Unknown?5key?3?50x?$CFX?6?$AA@ 0047af2c     vid_dll.obj
 0003:0000bf40       ??_C@_0BA@CLBL@MSWHEEL_ROLLMSG?$AA@ 0047af40     vid_dll.obj
 0003:0000bf50       ??_C@_0BG@OLGM@?4?4?4destroying?5window?6?$AA@ 0047af50     vid_dll.obj
 0003:0000bf68       ??_C@_0BM@OEEC@Reflib?5FreeLibrary?$CI?$CJ?5failed?$AA@ 0047af68     vid_dll.obj
 0003:0000bf84       ??_C@_0CH@DLII@Couldn?8t?5fall?5back?5to?5software?5r@ 0047af84     vid_dll.obj
 0003:0000bfac       ??_C@_0CB@KEBK@?$CFs?5has?5incompatible?5API_VERSION?6@ 0047afac     vid_dll.obj
 0003:0000bfd0       ??_C@_0BP@MBIM@GetProcAddress?$CI?$CJ?5failed?5on?5?$CFs?6?$AA@ 0047afd0     vid_dll.obj
 0003:0000bff0       ??_C@_09MGLB@GetRefAPI?$AA@ 0047aff0     vid_dll.obj
 0003:0000bffc       ??_C@_0BK@JHO@LoadLibrary?$CI?$CC?$CFs?$CC?$CJ?5failed?6?$AA@ 0047affc     vid_dll.obj
 0003:0000c018       ??_C@_02BHGG@gl?$AA@       0047b018     vid_dll.obj
 0003:0000c01c       ??_C@_0BM@PECE@?9?9?9?9?9?9?9?5Loading?5?$CFs?5?9?9?9?9?9?9?9?6?$AA@ 0047b01c     vid_dll.obj
 0003:0000c038       ??_C@_0L@GFMM@ref_?$CFs?4dll?$AA@ 0047b038     vid_dll.obj
 0003:0000c044       ??_C@_0CO@OMOF@Screenshots?5are?5unsupported?5by?5t@ 0047b044     vid_dll.obj
 0003:0000c074       ??_C@_0BF@PGBM@FX_GLIDE_NO_SPLASH?$DN0?$AA@ 0047b074     vid_dll.obj
 0003:0000c08c       ??_C@_09EDGJ@vid_front?$AA@ 0047b08c     vid_dll.obj
 0003:0000c098       ??_C@_0M@GKIE@vid_restart?$AA@ 0047b098     vid_dll.obj
 0003:0000c17c       ??_C@_0P@LBKH@gl_vertexLight?$AA@ 0047b17c     vid_menu.obj
 0003:0000c18c       ??_C@_0P@HLID@gl_textureBits?$AA@ 0047b18c     vid_menu.obj
 0003:0000c19c       ??_C@_0M@GPNJ@gl_bitdepth?$AA@ 0047b19c     vid_menu.obj
 0003:0000c1a8       ??_C@_09HOCI@gl_picmip?$AA@ 0047b1a8     vid_menu.obj
 0003:0000c1b4       ??_C@_0N@BPDG@r_saturation?$AA@ 0047b1b4     vid_menu.obj
 0003:0000c1c4       ??_C@_09PIFN@trilinear?$AA@ 0047b1c4     vid_menu.obj
 0003:0000c1d0       ??_C@_08IMBI@bilinear?$AA@ 0047b1d0     vid_menu.obj
 0003:0000c1dc       ??_C@_06KAJD@vertex?$AA@   0047b1dc     vid_menu.obj
 0003:0000c1e4       ??_C@_08DOMB@lightmap?$AA@ 0047b1e4     vid_menu.obj
 0003:0000c1f0       ??_C@_06PHEG@32?5bit?$AA@  0047b1f0     vid_menu.obj
 0003:0000c1f8       ??_C@_06FMJD@16?5bit?$AA@  0047b1f8     vid_menu.obj
 0003:0000c200       ??_C@_07FMEP@default?$AA@  0047b200     vid_menu.obj
 0003:0000c208       ??_C@_0L@DKK@?$FLOpenGL?5?5?$FN?$AA@ 0047b208     vid_menu.obj
 0003:0000c214       ??_C@_0L@DBJK@?$FLsoftware?$FN?$AA@ 0047b214     vid_menu.obj
 0003:0000c220       ??_C@_0M@KGKK@?$FL2048?51536?$FN?$AA@ 0047b220     vid_menu.obj
 0003:0000c22c       ??_C@_0M@JEDB@?$FL1600?51200?$FN?$AA@ 0047b22c     vid_menu.obj
 0003:0000c238       ??_C@_0M@CCKO@?$FL1280?5960?5?$FN?$AA@ 0047b238     vid_menu.obj
 0003:0000c244       ??_C@_0M@PIMC@?$FL1152?5864?5?$FN?$AA@ 0047b244     vid_menu.obj
 0003:0000c250       ??_C@_0M@JMAB@?$FL1024?5768?5?$FN?$AA@ 0047b250     vid_menu.obj
 0003:0000c25c       ??_C@_0M@KJAP@?$FL960?5?5720?5?$FN?$AA@ 0047b25c     vid_menu.obj
 0003:0000c268       ??_C@_0M@EBPM@?$FL800?5?5600?5?$FN?$AA@ 0047b268     vid_menu.obj
 0003:0000c274       ??_C@_0M@HMJJ@?$FL640?5?5480?5?$FN?$AA@ 0047b274     vid_menu.obj
 0003:0000c280       ??_C@_0M@JPEK@?$FL512?5?5384?5?$FN?$AA@ 0047b280     vid_menu.obj
 0003:0000c28c       ??_C@_0M@CAFH@?$FL400?5?5300?5?$FN?$AA@ 0047b28c     vid_menu.obj
 0003:0000c298       ??_C@_0M@DOOF@?$FL320?5?5240?5?$FN?$AA@ 0047b298     vid_menu.obj
 0003:0000c2a4       ??_C@_0BB@IF@sync?5every?5frame?$AA@ 0047b2a4     vid_menu.obj
 0003:0000c2b8       ??_C@_09IEFK@gl_finish?$AA@ 0047b2b8     vid_menu.obj
 0003:0000c2c4       ??_C@_0P@NBDD@gl_texturemode?$AA@ 0047b2c4     vid_menu.obj
 0003:0000c2d4       ??_C@_0BJ@CJFK@GL_LINEAR_MIPMAP_NEAREST?$AA@ 0047b2d4     vid_menu.obj
 0003:0000c2f0       ??_C@_0P@CPGH@texture?5filter?$AA@ 0047b2f0     vid_menu.obj
 0003:0000c300       ??_C@_0BI@KDJA@GL_LINEAR_MIPMAP_LINEAR?$AA@ 0047b300     vid_menu.obj
 0003:0000c318       ??_C@_0BA@LBFK@texture?5quality?$AA@ 0047b318     vid_menu.obj
 0003:0000c328       ??_C@_0P@CMEL@texture?5detail?$AA@ 0047b328     vid_menu.obj
 0003:0000c338       ??_C@_08LLEH@fast?5sky?$AA@ 0047b338     vid_menu.obj
 0003:0000c344       ??_C@_0L@BOGB@gl_fastsky?$AA@ 0047b344     vid_menu.obj
 0003:0000c350       ??_C@_08FOAP@lighting?$AA@ 0047b350     vid_menu.obj
 0003:0000c35c       ??_C@_0M@NNNN@color?5depth?$AA@ 0047b35c     vid_menu.obj
 0003:0000c368       ??_C@_0O@NPLC@stipple?5alpha?$AA@ 0047b368     vid_menu.obj
 0003:0000c378       ??_C@_0BA@HFJP@sw_stipplealpha?$AA@ 0047b378     vid_menu.obj
 0003:0000c388       ??_C@_0BC@LFLI@reset?5to?5defaults?$AA@ 0047b388     vid_menu.obj
 0003:0000c39c       ??_C@_06MPPK@cancel?$AA@   0047b39c     vid_menu.obj
 0003:0000c3a4       ??_C@_0L@EMDO@fullscreen?$AA@ 0047b3a4     vid_menu.obj
 0003:0000c3b0       ??_C@_0L@BHGE@saturation?$AA@ 0047b3b0     vid_menu.obj
 0003:0000c3bc       ??_C@_0L@HCKI@brightness?$AA@ 0047b3bc     vid_menu.obj
 0003:0000c3c8       ??_C@_0L@NADB@video?5mode?$AA@ 0047b3c8     vid_menu.obj
 0003:0000c3d4       ??_C@_0M@LAAH@screen?5size?$AA@ 0047b3d4     vid_menu.obj
 0003:0000c3e0       ??_C@_06GIC@driver?$AA@    0047b3e0     vid_menu.obj
 0003:0000c3e8       ??_C@_07KMDJ@gl_mode?$AA@  0047b3e8     vid_menu.obj
 0003:0000c3f0       ??_C@_07LGNG@sw_mode?$AA@  0047b3f0     vid_menu.obj
 0003:0000c3f8       ??_C@_0P@PNMC@m_banner_video?$AA@ 0047b3f8     vid_menu.obj
 0003:0000c498       ??_C@_0EB@GNHN@SetCurrentShader?$CI?$CFs?$CJ?5without?5flu@ 0047b498     gl_backend.obj
 0003:0000c4dc       ??_C@_0CC@CADN@SetCurrentShader?$CI?$CJ?5without?5flush@ 0047b4dc     gl_backend.obj
 0003:0000c500       ??_C@_04DJDA@test?$AA@     0047b500     gl_backend.obj
 0003:0000c508       ??_C@_0BJ@CEAG@?9?9?5pass?5?$CFd?5?$CImtex?5?$CFd?$CJ?5?9?9?6?$AA@ 0047b508     gl_backend.obj
 0003:0000c524       ??_C@_0CD@KFNF@?$CK?$CK?$CK?5StageIterator?$CI?$CFs?0?5?$CFd?0?5?$CFd?$CJ?5?$CK?$CK@ 0047b524     gl_backend.obj
 0003:0000c548       ??_C@_0CO@GGBO@R_PreprocessShader?3?5numStages?5is@ 0047b548     gl_backend.obj
 0003:0000c578       ??_C@_0CB@BDNL@R_PreprocessShader?$CI?$CFs?$CJ?3?50?5stages@ 0047b578     gl_backend.obj
 0003:0000c59c       ??_C@_0BP@FPB@ReserveVerts?3?5?$CFd?5?$DO?5MAX_INDEXES?$AA@ 0047b59c     gl_backend.obj
 0003:0000c5bc       ??_C@_0CA@JIJH@ReserveVerts?3?5?$CFd?5?$DO?5MAX_VERTEXES?$AA@ 0047b5bc     gl_backend.obj
 0003:0000c5dc       ??_C@_08IIC@GL_FRONT?$AA@  0047b5dc     gl_backend.obj
 0003:0000c5e8       ??_C@_0CK@PLKL@?$CK?$CK?$CK?$CK?$CK?$CK?$CK?$CK?5Change?5entity?5to?5WORLD?5@ 0047b5e8     gl_backend.obj
 0003:0000c614       ??_C@_0CH@CPPL@?$CK?$CK?$CK?$CK?$CK?$CK?$CK?$CK?5Change?5entity?5to?5?$CFs?5?$CK?$CK?$CK@ 0047b614     gl_backend.obj
 0003:0000c63c       ??_C@_0CH@EKMG@?$CK?$CK?$CK?$CK?$CK?$CK?$CK?$CK?5Change?5shader?5to?5?$CFs?5?$CK?$CK?$CK@ 0047b63c     gl_backend.obj
 0003:0000c664       ??_C@_0DE@CGGF@?$CK?$CK?$CK?$CK?$CK?$CK?$CK?$CK?5R_DrawScene?3?5?$CI?$CFg?0?5?$CFg?$CJ?5?9@ 0047b664     gl_backend.obj
 0003:0000c698       ??_C@_0BG@IIHG@?$CK?$CK?$CK?5DrawSkyBox?$CI?$CJ?5?$CK?$CK?$CK?6?$AA@ 0047b698     gl_backend.obj
 0003:0000c6b0       ??_C@_0BO@KCCO@?$CK?$CK?$CK?5FastIterator?$CI?$CFs?0?5?$CFd?$CJ?5?$CK?$CK?$CK?6?$AA@ 0047b6b0     gl_backend.obj
 0003:0000c6d0       ??_C@_0CD@JOHA@?$FO1?5?$CK?$CK?$CK?$CK?5buf?3?5?$CF08X?5?$CI?$CFd?5bytes?$CJ?5?$CK?$CK?$CK@ 0047b6d0     gl_backend.obj
 0003:0000c6f4       ??_C@_0FI@INGO@?$FO1Cannot?5allocate?5video?5memory?5f@ 0047b6f4     gl_backend.obj
 0003:0000c880       ??_C@_08IECI@RGBA_ARB?$AA@ 0047b880     gl_image.obj
 0003:0000c88c       ??_C@_07MDOP@RGB_ARB?$AA@  0047b88c     gl_image.obj
 0003:0000c894       ??_C@_0L@DHJK@RGBA4_S3TC?$AA@ 0047b894     gl_image.obj
 0003:0000c8a0       ??_C@_09JFEH@RGBA_S3TC?$AA@ 0047b8a0     gl_image.obj
 0003:0000c8ac       ??_C@_04DLAJ@S3TC?$AA@     0047b8ac     gl_image.obj
 0003:0000c8b4       ??_C@_0L@BGEN@GL_RGB5_A1?$AA@ 0047b8b4     gl_image.obj
 0003:0000c8c0       ??_C@_08DIEF@GL_RGBA8?$AA@ 0047b8c0     gl_image.obj
 0003:0000c8cc       ??_C@_08MGKB@GL_RGBA4?$AA@ 0047b8cc     gl_image.obj
 0003:0000c8d8       ??_C@_07MNMK@GL_RGB8?$AA@  0047b8d8     gl_image.obj
 0003:0000c8e0       ??_C@_07JJLJ@GL_RGB5?$AA@  0047b8e0     gl_image.obj
 0003:0000c8e8       ??_C@_04PIGM@RGBA?$AA@     0047b8e8     gl_image.obj
 0003:0000c8f0       ??_C@_03DLPD@RGB?$AA@      0047b8f0     gl_image.obj
 0003:0000c8f4       ??_C@_0BJ@FEEC@GL_NEAREST_MIPMAP_LINEAR?$AA@ 0047b8f4     gl_image.obj
 0003:0000c910       ??_C@_0BK@NEKN@GL_NEAREST_MIPMAP_NEAREST?$AA@ 0047b910     gl_image.obj
 0003:0000c92c       ??_C@_09KGLC@GL_LINEAR?$AA@ 0047b92c     gl_image.obj
 0003:0000c938       ??_C@_0L@FLFP@GL_NEAREST?$AA@ 0047b938     gl_image.obj
 0003:0000c944       ??_C@_0CA@DIF@R_TextureMode?3?5bad?5filter?5name?6?$AA@ 0047b944     gl_image.obj
 0003:0000c964       ??_C@_0CF@IAOJ@R_CreateImage?$CI?$CFs?$CJ?3?5MAX_TEXTURES?5@ 0047b964     gl_image.obj
 0003:0000c98c       ??_C@_0BJ@GEHM@R_CreateImage?3?5null?5name?$AA@ 0047b98c     gl_image.obj
 0003:0000c9a8       ??_C@_0N@FJFI@?$FO5?$CFs?3?5?$CFd?5ms?6?$AA@ 0047b9a8     gl_image.obj
 0003:0000c9b8       ??_C@_0L@GIOJ@r_profile2?$AA@ 0047b9b8     gl_image.obj
 0003:0000c9c4       ??_C@_09PAG@Wrote?5?$CFs?6?$AA@ 0047b9c4     gl_image.obj
 0003:0000c9d0       ??_C@_0BK@BKCN@?$CFs?1screenshots?1shot?$CF04d?$CFs?$AA@ 0047b9d0     gl_image.obj
 0003:0000c9ec       ??_C@_0M@MKJA@env?1diffuse?$AA@ 0047b9ec     gl_image.obj
 0003:0000c9f8       ??_C@_0N@FKLC@env?1specular?$AA@ 0047b9f8     gl_image.obj
 0003:0000ca08       ??_C@_09IPNB@?$CKparticle?$AA@ 0047ba08     gl_image.obj
 0003:0000ca14       ??_C@_07ELEK@?$CKdlight?$AA@ 0047ba14     gl_image.obj
 0003:0000ca1c       ??_C@_0P@CFMF@?$CKidentityLight?$AA@ 0047ba1c     gl_image.obj
 0003:0000ca2c       ??_C@_06EGJL@?$CKvideo?$AA@ 0047ba2c     gl_image.obj
 0003:0000ca34       ??_C@_08IILE@?$CKdefault?$AA@ 0047ba34     gl_image.obj
 0003:0000ca40       ??_C@_09PCJE@imagelist?$AA@ 0047ba40     gl_image.obj
 0003:0000ca4c       ??_C@_0CA@GDHD@Couldn?8t?5load?5pics?1colormap?4pcx?$AA@ 0047ba4c     gl_image.obj
 0003:0000ca6c       ??_C@_0BC@EOBO@pics?1colormap?4pcx?$AA@ 0047ba6c     gl_image.obj
 0003:0000ca80       ??_C@_0BA@FDPA@Chain?5?$CFdx?5?3?5?$CFd?6?$AA@ 0047ba80     gl_image.obj
 0003:0000ca90       ??_C@_0CD@KFPJ@?9?9?9?9?9?9?9?9?9?9?9?9?9?9?6Hash?5distribution@ 0047ba90     gl_image.obj
 0003:0000cab4       ??_C@_0DM@DMPK@Total?5?$CFd?5images?5with?5texel?5count@ 0047bab4     gl_image.obj
 0003:0000caf0       ??_C@_0CC@ICP@?$CF?93d?5?$CF?93d?5?$CF?93d?5?$CFc?5?$CFc?5?5?$CFc?5?$CF?98s?5?$CFs@ 0047baf0     gl_image.obj
 0003:0000cb14       ??_C@_07NJP@?$FO1?$DP?$DP?$DP?$FO7?$AA@ 0047bb14     gl_image.obj
 0003:0000cb1c       ??_C@_0CM@JHLG@?9?9?9?9w?9?9?9h?9?9?9a?9wr?9m?9fmt?9?9?9?9?9?9name@ 0047bb1c     gl_image.obj
 0003:0000cb48       ??_C@_0BL@LKOO@Usaeg?3?5imagelist?5?$FL?$DMmask?$DO?$FN?6?$AA@ 0047bb48     gl_image.obj
 0003:0000cb64       ??_C@_0BI@EEPA@Cannot?5find?5image?5?$CFs?4?$CK?6?$AA@ 0047bb64     gl_image.obj
 0003:0000cb7c       ??_C@_0CG@CBPD@R_FindImage?$CI?$CFs?$CJ?3?5cannot?5load?5tex@ 0047bb7c     gl_image.obj
 0003:0000cba4       ??_C@_0DK@OIIH@R_FindImage?$CI?$CFs?$CJ?3?5Reusing?5image?5w@ 0047bba4     gl_image.obj
 0003:0000cbe0       ??_C@_0EE@CALI@R_FindImage?$CI?$CFs?$CJ?3?5Using?5different@ 0047bbe0     gl_image.obj
 0003:0000cdc8       ??_C@_0BA@LEFD@?1?1?5GL_Bind?$CI?$CFs?$CJ?6?$AA@ 0047bdc8     gl_interface.obj
 0003:0000cdd8       ??_C@_0BC@NDEN@pics?1conchars?4pcx?$AA@ 0047bdd8     gl_interface.obj
 0003:0000cdec       ??_C@_0BL@BMDP@R_SetMultitexture?$CI?$CFd?5?$DO?5?$CFd?$CJ?$AA@ 0047bdec     gl_interface.obj
 0003:0000ce08       ??_C@_0BJ@HGEL@?$CK?$CK?$CK?$CK?$CK?5Set2DMode?$CI?$CJ?5?$CK?$CK?$CK?$CK?$CK?6?$AA@ 0047be08     gl_interface.obj
 0003:0000ce24       ??_C@_0BE@OBE@?$CK?$CK?$CK?5GL_Setup?$CI?$CJ?5?$CK?$CK?$CK?6?$AA@ 0047be24     gl_interface.obj
 0003:0000cebc       ??_C@_0M@KPEJ@inv2?5slight?$AA@ 0047bebc     gl_light.obj
 0003:0000cec8       ??_C@_0BG@JEGA@unknown?5point?5sl?4type?$AA@ 0047bec8     gl_light.obj
 0003:0000cee0       ??_C@_0M@GCNE@?$CKlightmap?$CFd?$AA@ 0047bee0     gl_lightmap.obj
 0003:0000ceec       ??_C@_0BP@HCJJ@LM_NewBlock?3?5MAX_LIGHTMAPS?5hit?$AA@ 0047beec     gl_lightmap.obj
 0003:0000d348       ??_C@_07MDNP@GL_BACK?$AA@  0047c348     gl_main.obj
 0003:0000d350       ??_C@_0O@KCBC@gl_drawbuffer?$AA@ 0047c350     gl_main.obj
 0003:0000d360       ??_C@_0BC@HKAH@gl_allow_software?$AA@ 0047c360     gl_main.obj
 0003:0000d374       ??_C@_0M@JOO@gl_logTexts?$AA@ 0047c374     gl_main.obj
 0003:0000d380       ??_C@_0BA@BNID@gl_singleShader?$AA@ 0047c380     gl_main.obj
 0003:0000d390       ??_C@_0O@NKJC@gl_showLights?$AA@ 0047c390     gl_main.obj
 0003:0000d3a0       ??_C@_0O@CCNN@gl_lightLines?$AA@ 0047c3a0     gl_main.obj
 0003:0000d3b0       ??_C@_0P@BOBN@gl_shownormals?$AA@ 0047c3b0     gl_main.obj
 0003:0000d3c0       ??_C@_0M@GFIA@gl_showtris?$AA@ 0047c3c0     gl_main.obj
 0003:0000d3cc       ??_C@_0O@CIOL@gl_showbboxes?$AA@ 0047c3cc     gl_main.obj
 0003:0000d3dc       ??_C@_0P@LECL@r_drawentities?$AA@ 0047c3dc     gl_main.obj
 0003:0000d3ec       ??_C@_0M@GFDO@r_drawworld?$AA@ 0047c3ec     gl_main.obj
 0003:0000d3f8       ??_C@_0L@LHEF@gl_showsky?$AA@ 0047c3f8     gl_main.obj
 0003:0000d404       ??_C@_0L@DOIK@r_lightmap?$AA@ 0047c404     gl_main.obj
 0003:0000d410       ??_C@_0N@MMGG@r_fullbright?$AA@ 0047c410     gl_main.obj
 0003:0000d420       ??_C@_08MNKK@r_speeds?$AA@ 0047c420     gl_main.obj
 0003:0000d42c       ??_C@_0N@JDBG@gl_sortAlpha?$AA@ 0047c42c     gl_main.obj
 0003:0000d43c       ??_C@_0BB@INHL@gl_facePlaneCull?$AA@ 0047c43c     gl_main.obj
 0003:0000d450       ??_C@_08HJPD@r_nocull?$AA@ 0047c450     gl_main.obj
 0003:0000d45c       ??_C@_07CBKH@r_novis?$AA@  0047c45c     gl_main.obj
 0003:0000d464       ??_C@_0L@PDBC@gl_logFile?$AA@ 0047c464     gl_main.obj
 0003:0000d470       ??_C@_0O@BEBM@gl_showImages?$AA@ 0047c470     gl_main.obj
 0003:0000d480       ??_C@_0BB@ELDF@r_colorMipLevels?$AA@ 0047c480     gl_main.obj
 0003:0000d494       ??_C@_09DLEF@gl_nobind?$AA@ 0047c494     gl_main.obj
 0003:0000d4a0       ??_C@_0BL@OLPN@gl_ext_compressed_textures?$AA@ 0047c4a0     gl_main.obj
 0003:0000d4bc       ??_C@_0BK@IJOJ@gl_ext_vertex_array_range?$AA@ 0047c4bc     gl_main.obj
 0003:0000d4d8       ??_C@_0BH@HIH@gl_ext_fog_distance_nv?$AA@ 0047c4d8     gl_main.obj
 0003:0000d4f0       ??_C@_0BN@OJDH@gl_ext_compiled_vertex_array?$AA@ 0047c4f0     gl_main.obj
 0003:0000d510       ??_C@_0BO@DPKO@gl_ext_texture_env_combine_nv?$AA@ 0047c510     gl_main.obj
 0003:0000d530       ??_C@_0BL@IKDG@gl_ext_texture_env_combine?$AA@ 0047c530     gl_main.obj
 0003:0000d54c       ??_C@_0BH@LMED@gl_ext_texture_env_add?$AA@ 0047c54c     gl_main.obj
 0003:0000d564       ??_C@_0BE@IOJK@gl_ext_multitexture?$AA@ 0047c564     gl_main.obj
 0003:0000d578       ??_C@_08MLDJ@opengl32?$AA@ 0047c578     gl_main.obj
 0003:0000d584       ??_C@_09MLK@gl_driver?$AA@ 0047c584     gl_main.obj
 0003:0000d590       ??_C@_0BA@NBPP@gl_swapinterval?$AA@ 0047c590     gl_main.obj
 0003:0000d5a0       ??_C@_08MCJD@gl_znear?$AA@ 0047c5a0     gl_main.obj
 0003:0000d5ac       ??_C@_08CLGN@gl_clear?$AA@ 0047c5ac     gl_main.obj
 0003:0000d5b8       ??_C@_0BC@GDA@gl_ignoreFastPath?$AA@ 0047c5b8     gl_main.obj
 0003:0000d5cc       ??_C@_0M@KDMC@gl_showgrid?$AA@ 0047c5cc     gl_main.obj
 0003:0000d5d8       ??_C@_09KNOO@gl_nogrid?$AA@ 0047c5d8     gl_main.obj
 0003:0000d5e4       ??_C@_0P@MBNP@gl_dlightBacks?$AA@ 0047c5e4     gl_main.obj
 0003:0000d5f4       ??_C@_0L@KKKG@gl_dynamic?$AA@ 0047c5f4     gl_main.obj
 0003:0000d600       ??_C@_09CMAH@gl_flares?$AA@ 0047c600     gl_main.obj
 0003:0000d60c       ??_C@_06ELJN@gl_fog?$AA@   0047c60c     gl_main.obj
 0003:0000d614       ??_C@_0BC@BFJK@gl_overBrightBits?$AA@ 0047c614     gl_main.obj
 0003:0000d628       ??_C@_0BA@BLLL@r_ignorehwgamma?$AA@ 0047c628     gl_main.obj
 0003:0000d638       ??_C@_0M@HPFC@r_intensity?$AA@ 0047c638     gl_main.obj
 0003:0000d644       ??_C@_0L@DBKC@r_contrast?$AA@ 0047c644     gl_main.obj
 0003:0000d650       ??_C@_0N@HKPK@r_brightness?$AA@ 0047c650     gl_main.obj
 0003:0000d660       ??_C@_0BD@BNAA@gl_roundImagesDown?$AA@ 0047c660     gl_main.obj
 0003:0000d674       ??_C@_0BA@CPDK@gl_console_only?$AA@ 0047c674     gl_main.obj
 0003:0000d684       ??_C@_0CB@GCIO@?9?9?9?9?9?9?9?5finished?5R_Init?5?9?9?9?9?9?9?9?6@ 0047c684     gl_main.obj
 0003:0000d6a8       ??_C@_0BA@ICOO@Cannot?5load?5?$CFs?6?$AA@ 0047c6a8     gl_main.obj
 0003:0000d6b8       ??_C@_09CLHH@?$FO1failed?6?$AA@ 0047c6b8     gl_main.obj
 0003:0000d6c4       ??_C@_0CK@LCCO@ref_gl?3?3R_Init?$CI?$CJ?5?9?5could?5not?5R_S@ 0047c6c4     gl_main.obj
 0003:0000d6f0       ??_C@_03IOOG@OK?6?$AA@     0047c6f0     gl_main.obj
 0003:0000d6f4       ??_C@_0DB@JCAB@Cannot?5load?5?$CFs?5?9?5trying?5default?5@ 0047c6f4     gl_main.obj
 0003:0000d728       ??_C@_0BJ@HDNJ@ref_gl?5version?3?5GL?50?499?6?$AA@ 0047c728     gl_main.obj
 0003:0000d744       ??_C@_0BI@NMOA@?9?9?9?9?9?9?9?5R_Init?5?9?9?9?9?9?9?9?6?$AA@ 0047c744     gl_main.obj
 0003:0000d75c       ??_C@_07KFLF@gfxinfo?$AA@  0047c75c     gl_main.obj
 0003:0000d764       ??_C@_0O@PKBD@Lighting?3?5?$CFs?6?$AA@ 0047c764     gl_main.obj
 0003:0000d774       ??_C@_03BBNN@no?6?$AA@     0047c774     gl_main.obj
 0003:0000d778       ??_C@_0BH@KABN@yes?0?5?$CFd?5texture?5units?6?$AA@ 0047c778     gl_main.obj
 0003:0000d790       ??_C@_0BB@LOGD@Multitexturing?3?5?$AA@ 0047c790     gl_main.obj
 0003:0000d7a4       ??_C@_0BD@PFIA@GL_EXTENSIONS?3?5?$CFs?6?$AA@ 0047c7a4     gl_main.obj
 0003:0000d7b8       ??_C@_0BA@PCBE@GL_VERSION?3?5?$CFs?6?$AA@ 0047c7b8     gl_main.obj
 0003:0000d7c8       ??_C@_0BB@KKEK@GL_RENDERER?3?5?$CFs?6?$AA@ 0047c7c8     gl_main.obj
 0003:0000d7dc       ??_C@_0P@KDAA@GL_VENDOR?3?5?$CFs?6?$AA@ 0047c7dc     gl_main.obj
 0003:0000d7ec       ??_C@_0CN@PBPO@R_SetMode?$CI?$CJ?5?9?5could?5not?5revert?5t@ 0047c7ec     gl_main.obj
 0003:0000d81c       ??_C@_0BM@KCLC@R_SetMode?$CI?$CJ?5?9?5invalid?5mode?6?$AA@ 0047c81c     gl_main.obj
 0003:0000d838       ??_C@_0DD@POCJ@R_SetMode?$CI?$CJ?5?9?5fullscreen?5unavail@ 0047c838     gl_main.obj
 0003:0000d86c       ??_C@_0CF@FFFN@?6?9?9?9?9?9?9?9?9?9?9?5Begin?5Frame?5?9?9?9?9?9?9?9?9@ 0047c86c     gl_main.obj
 0003:0000d894       ??_C@_0CL@MILD@fe?3?5?$CF2d?5bk?3?5?$CF2d?5?$CIsrt?3?5?$CF2d?53d?3?5?$CF2@ 0047c894     gl_main.obj
 0003:0000d8c0       ??_C@_0CB@OOFB@binds?3?5?$CFd?5uploads?3?5?$CF2d?5draws?3?5?$CFd@ 0047c8c0     gl_main.obj
 0003:0000d8e4       ??_C@_0CK@PGJD@flares?3?5?$CFd?5test?3?5?$CFd?5cull?3?5?$CFd?5lgr@ 0047c8e4     gl_main.obj
 0003:0000d910       ??_C@_0CA@FDBP@dlights?3?5?$CFd?5surfs?3?5?$CFd?5verts?3?5?$CFd?$AA@ 0047c910     gl_main.obj
 0003:0000d930       ??_C@_0BH@PIML@particles?3?5?$CFd?5cull?3?5?$CFd?$AA@ 0047c930     gl_main.obj
 0003:0000d948       ??_C@_0BP@EICO@ents?3?5?$CFd?5fcull?3?5?$CFd?$CL?$CFd?5cull?3?5?$CFd?$AA@ 0047c948     gl_main.obj
 0003:0000d968       ??_C@_0BL@BPJJ@tris?3?5?$CFd?5?$CI?$CL?$CFd?$CJ?5mtex?3?5?$CF1?42f?$AA@ 0047c968     gl_main.obj
 0003:0000d984       ??_C@_0BF@ODOL@surfs?3?5?$CFd?5culled?3?5?$CFd?$AA@ 0047c984     gl_main.obj
 0003:0000d99c       ??_C@_0CD@FMOJ@visLeafs?3?5?$CFd?5frLeafs?3?5?$CFd?5total?3?5@ 0047c99c     gl_main.obj
 0003:0000d9c0       ??_C@_0BP@LMAI@R_RenderFrame?3?5NULL?5worldModel?$AA@ 0047c9c0     gl_main.obj
 0003:0000d9e0       ??_C@_05PCCD@?$FO5?$CFs?6?$AA@ 0047c9e0     gl_main.obj
 0003:0000d9e8       ??_C@_0BI@EEG@?$CFs?5is?5not?5a?5sky?5shader?6?$AA@ 0047c9e8     gl_main.obj
 0003:0000da00       ??_C@_04MEHM@env?1?$AA@    0047ca00     gl_main.obj
 0003:0000da08       _mathFuncs                 0047ca08     gl_math.obj
 0003:0000db38       ??_C@_03GMPC@md3?$AA@      0047cb38     gl_model.obj
 0003:0000db3c       ??_C@_03KLMO@sp2?$AA@      0047cb3c     gl_model.obj
 0003:0000db40       ??_C@_03LBEE@inl?$AA@      0047cb40     gl_model.obj
 0003:0000db44       ??_C@_0CD@DLII@R_FindModel?3?5unknown?5ID?50x?$CFX?5in?5@ 0047cb44     gl_model.obj
 0003:0000db68       ??_C@_09FHBP@r_profile?$AA@ 0047cb68     gl_model.obj
 0003:0000db74       ??_C@_0BL@CII@R_FindModel?3?5?$CFs?5not?5found?6?$AA@ 0047cb74     gl_model.obj
 0003:0000db90       ??_C@_0BL@GGOP@R_FindModel?3?5MAX_GLMODELS?6?$AA@ 0047cb90     gl_model.obj
 0003:0000dbac       ??_C@_0BH@EMAN@R_FindModel?3?5NULL?5name?$AA@ 0047cbac     gl_model.obj
 0003:0000dbc4       ??_C@_0CB@JGKO@R_LoadWorldMap?3?5unknown?5BSP?5type@ 0047cbc4     gl_model.obj
 0003:0000dbe8       ??_C@_0CK@LDPP@Used?5minlight?5from?5lightmap?5?$HL?$CFd?0@ 0047cbe8     gl_model.obj
 0003:0000dc14       ??_C@_0BK@LGBA@R_LoadWorldMap?3?5NULL?5name?$AA@ 0047cc14     gl_model.obj
 0003:0000dc30       ??_C@_0CG@FPHI@?$CFs?3?5animation?5chain?5is?5too?5long?5@ 0047cc30     gl_model.obj
 0003:0000dc58       ??_C@_0M@BDNM@textures?1?$CFs?$AA@ 0047cc58     gl_model.obj
 0003:0000dc64       ??_C@_0DE@COII@LM_AllocBlock?3?5unable?5to?5allocat@ 0047cc64     gl_model.obj
 0003:0000dc98       ??_C@_0BD@IEOE@Disable?5lm?5for?5?$CFs?6?$AA@ 0047cc98     gl_model.obj
 0003:0000dcac       ??_C@_0BJ@IDMC@R_PointInLeaf?3?5bad?5model?$AA@ 0047ccac     gl_model.obj
 0003:0000dcc8       ??_C@_0CM@EMOM@R_LoadMd2?3?5?$CFs?5has?5incorrect?5tria@ 0047ccc8     gl_model.obj
 0003:0000dcf4       ??_C@_0CG@ENDK@LoadMD2?$CI?$CFs?$CJ?3?5?$CFd?5xyz?5?5?$CFd?5st?5?5?$CFd?5v@ 0047ccf4     gl_model.obj
 0003:0000dd1c       ??_C@_0CE@NAHF@R_LoadMd2?3?5?$CFs?5has?5wrong?5version?5@ 0047cd1c     gl_model.obj
 0003:0000dd40       ??_C@_0CG@HDHN@R_LoadMd2?3?5?$CFs?5has?5too?5much?5texco@ 0047cd40     gl_model.obj
 0003:0000dd68       ??_C@_0CE@JAMN@LoadMD2?$CI?$CFs?$CJ?3?5?$CFs?5or?5?$CFs?5is?5not?5fou@ 0047cd68     gl_model.obj
 0003:0000dd8c       ??_C@_0CA@KJKJ@R_LoadSp2?$CI?$CFs?$CJ?3?5?$CFs?5is?5not?5found?6?$AA@ 0047cd8c     gl_model.obj
 0003:0000ddac       ??_C@_0CM@IOEC@R_LoadSp2?3?5?$CFs?5has?5incorrect?5fram@ 0047cdac     gl_model.obj
 0003:0000ddd8       ??_C@_0CE@LAIM@R_LoadSp2?3?5?$CFs?5has?5wrong?5version?5@ 0047cdd8     gl_model.obj
 0003:0000ddfc       ??_C@_0CD@JIFE@R_FreeModel?3?5unknown?5model?5type?5@ 0047cdfc     gl_model.obj
 0003:0000de20       ??_C@_09HFGF@modellist?$AA@ 0047ce20     gl_model.obj
 0003:0000de2c       ??_C@_0P@GBDD@?$CF?93d?5?5?$CF3s?5?5?$CFs?6?$AA@ 0047ce2c     gl_model.obj
 0003:0000de3c       ??_C@_0BJ@CDLO@?9?9?9?9?9type?9name?9?9?9?9?9?9?9?9?9?6?$AA@ 0047ce3c     gl_model.obj
 0003:0000de58       ??_C@_0CC@OIPN@SubdividePlane?3?5MAX_POLYVERTS?5hi@ 0047ce58     gl_poly.obj
 0003:0000deb4       ??_C@_0O@OOHM@?5?$FO1?$CIerrors?$CJ?$FO7?$AA@ 0047ceb4     gl_shader.obj
 0003:0000dec4       ??_C@_01PJOB@?$CL?$AA@     0047cec4     gl_shader.obj
 0003:0000dec8       ??_C@_03EGJN@por?$AA@      0047cec8     gl_shader.obj
 0003:0000decc       ??_C@_03CCDL@fog?$AA@      0047cecc     gl_shader.obj
 0003:0000ded0       ??_C@_0L@OIIH@shaderlist?$AA@ 0047ced0     gl_shader.obj
 0003:0000dedc       ??_C@_0O@EPPL@?5?5?$CFd?5shaders?6?$AA@ 0047cedc     gl_shader.obj
 0003:0000deec       ??_C@_0CA@LNJJ@?$CF?93d?5?$CFd?5?5?$CFs?5?$CF2s?5?$CF?92g?5?$CF3s?5?5?$CFs?$CFs?6?$AA@ 0047ceec     gl_shader.obj
 0003:0000df0c       ??_C@_01KBCC@v?$AA@        0047cf0c     gl_shader.obj
 0003:0000df10       ??_C@_06BACG@?$FO1?9?9?$FO7?$AA@ 0047cf10     gl_shader.obj
 0003:0000df18       ??_C@_0CC@IMCH@?9?9?9?9ns?9f?9lm?9s?9?9type?9name?9?9?9?9?9?9?9?9@ 0047cf18     gl_shader.obj
 0003:0000df3c       ??_C@_0BM@OFNH@Usage?3?5shaderlist?5?$FL?$DMmask?$DO?$FN?6?$AA@ 0047cf3c     gl_shader.obj
 0003:0000df58       ??_C@_0DJ@NKFP@R_SetShaderLightmap?$CI?$CFs?0?5?$CFd?$CJ?3?5lig@ 0047cf58     gl_shader.obj
 0003:0000df94       ??_C@_0CJ@EOOP@AddPermanentShader?$CI?$CFs?$CJ?3?5MAX_SHAD@ 0047cf94     gl_shader.obj
 0003:0000dfc0       ??_C@_02LDBK@?$CDa?$AA@    0047cfc0     gl_shader.obj
 0003:0000dfc4       ??_C@_0CK@KBDO@R_GetAlphaShader?$CI?$CFs?$CJ?3?5already?5ha@ 0047cfc4     gl_shader.obj
 0003:0000dff0       ??_C@_0DM@IEIL@R_FinishShader?$CI?$CFs?$CJ?3?5strange?5blen@ 0047cff0     gl_shader.obj
 0003:0000e02c       ??_C@_0CI@JKEH@R_FindShader?3?5couldn?8t?5find?5imag@ 0047d02c     gl_shader.obj
 0003:0000e054       ??_C@_0CG@FPHL@Too?5many?5tcMod?5stages?5in?5shader?5@ 0047d054     gl_shader.obj
 0003:0000e07c       ??_C@_0O@DNNE@pics?1conchars?$AA@ 0047d07c     gl_shader.obj
 0003:0000e08c       ??_C@_04ILHL@?$CKsky?$AA@  0047d08c     gl_shader.obj
 0003:0000e094       ??_C@_0P@KJIC@env?1colorshell?$AA@ 0047d094     gl_shader.obj
 0003:0000e0a4       ??_C@_0M@LNBL@?$CKcolorShell?$AA@ 0047d0a4     gl_shader.obj
 0003:0000e0b0       ??_C@_0P@BDLB@sprites?1corona?$AA@ 0047d0b0     gl_shader.obj
 0003:0000e0c0       ??_C@_06OEPC@?$CKflare?$AA@ 0047d0c0     gl_shader.obj
 0003:0000e0c8       ??_C@_0BA@BOJP@?$CKidentitylight2?$AA@ 0047d0c8     gl_shader.obj
 0003:0000e0d8       ??_C@_07PKKI@?$CKalpha1?$AA@ 0047d0d8     gl_shader.obj
 0003:0000e0e0       ??_C@_07FBB@?$CKalpha2?$AA@ 0047d0e0     gl_shader.obj
 0003:0000e1c0       ??_C@_0CD@HACB@ClipSkyPolygon?3?5MAX_CLIP_VERTS?5h@ 0047d1c0     gl_sky.obj
 0003:0000e1e4       ??_C@_0CA@CAHK@R_AddEntity?3?5no?5frame?5?$CFd?5in?5?$CFs?6?$AA@ 0047d1e4     gl_world.obj
 0003:0000e204       ??_C@_0CB@MOGN@R_AddEntity?3?5MAX_GLENTITIES?5hit?6@ 0047d204     gl_world.obj
 0003:0000e228       ??_C@_0CA@PEKO@R_AddDlight?3?5MAX_GLDLIGHTS?5hit?6?$AA@ 0047d228     gl_world.obj
 0003:0000e248       ??_C@_0BF@EAAG@unknows?5surface?5type?$AA@ 0047d248     gl_world.obj
 0003:0000e260       ??_C@_0P@LPD@NULL?5entity?5?$CFd?$AA@ 0047d260     gl_world.obj
 0003:0000e270       ??_C@_0CA@IHNN@DrawEntities?3?5bad?5model?5type?5?$CFd?$AA@ 0047d270     gl_world.obj
 0003:0000e290       ??_C@_0CF@DGAI@GLimp_CreateWindow?3?5InitGL?$CI?$CJ?5fai@ 0047d290     glw_imp.obj
 0003:0000e2b8       ??_C@_04LDCD@?5ok?6?$AA@   0047d2b8     glw_imp.obj
 0003:0000e2c0       ??_C@_0BK@GIGP@?4?4?4setting?5windowed?5mode?6?$AA@ 0047d2c0     glw_imp.obj
 0003:0000e2dc       ??_C@_08MIMI@?5failed?6?$AA@ 0047d2dc     glw_imp.obj
 0003:0000e2e8       ??_C@_0CH@FLII@?4?4?4calling?5CDS?5assuming?5dual?5mon@ 0047d2e8     glw_imp.obj
 0003:0000e310       ??_C@_0BB@GOGC@?4?4?4calling?5CDS?3?5?$AA@ 0047d310     glw_imp.obj
 0003:0000e324       ??_C@_0CG@DLHK@?4?4?4using?5desktop?5display?5depth?5o@ 0047d324     glw_imp.obj
 0003:0000e34c       ??_C@_0BJ@HJFI@?4?4?4using?5bitdepth?5of?5?$CFd?6?$AA@ 0047d34c     glw_imp.obj
 0003:0000e368       ??_C@_0BK@NIFM@?4?4?4attempting?5fullscreen?6?$AA@ 0047d368     glw_imp.obj
 0003:0000e384       ??_C@_0L@KBPO@?5?$CFd?5?$CFd?5?$CFs?6?$AA@ 0047d384     glw_imp.obj
 0003:0000e390       ??_C@_01FJFF@W?$AA@        0047d390     glw_imp.obj
 0003:0000e394       ??_C@_0P@MBPJ@?5invalid?5mode?6?$AA@ 0047d394     glw_imp.obj
 0003:0000e3a4       ??_C@_0BE@GOGB@?4?4?4setting?5mode?5?$CFd?3?$AA@ 0047d3a4     glw_imp.obj
 0003:0000e3b8       ??_C@_0BN@OHDF@Initializing?5OpenGL?5display?6?$AA@ 0047d3b8     glw_imp.obj
 0003:0000e3d8       ??_C@_0BF@MKFF@?4?4?4ReleaseDC?5failed?6?$AA@ 0047d3d8     glw_imp.obj
 0003:0000e3f0       ??_C@_0BM@LJMG@?4?4?4wglDeleteContext?5failed?6?$AA@ 0047d3f0     glw_imp.obj
 0003:0000e40c       ??_C@_0BK@DPJF@?4?4?4wglMakeCurrent?5failed?6?$AA@ 0047d40c     glw_imp.obj
 0003:0000e428       ??_C@_0BI@DDJC@?4?4?4performing?5shutdown?6?$AA@ 0047d428     glw_imp.obj
 0003:0000e440       ??_C@_0CD@BAPN@GLimp_Init?$CI?$CJ?3?5GetVersionEx?5faile@ 0047d440     glw_imp.obj
 0003:0000e464       ??_C@_0L@PAH@GAMMA?3?5?$CFs?6?$AA@ 0047d464     glw_imp.obj
 0003:0000e470       ??_C@_08LLFG@software?$AA@ 0047d470     glw_imp.obj
 0003:0000e47c       ??_C@_08DNLP@hardware?$AA@ 0047d47c     glw_imp.obj
 0003:0000e488       ??_C@_0BD@PLGO@?4?4?4GetDC?$CI?$CJ?5failed?6?$AA@ 0047d488     glw_imp.obj
 0003:0000e49c       ??_C@_0BH@DCFE@?4?4?4non?9NULL?5DC?5exists?6?$AA@ 0047d49c     glw_imp.obj
 0003:0000e4b4       ??_C@_0CC@HECM@GL?5PFD?3?5color?$CI?$CFd?9bits?$CJ?5Z?$CI?$CFd?9bit?$CJ@ 0047d4b4     glw_imp.obj
 0003:0000e4d8       ??_C@_0CG@KCEF@?4?4?4no?5hardware?5acceleration?5dete@ 0047d4d8     glw_imp.obj
 0003:0000e500       ??_C@_0BL@IPKI@?4?4?4qwglMakeCurrent?5failed?6?$AA@ 0047d500     glw_imp.obj
 0003:0000e51c       ??_C@_0BN@NNMM@?4?4?4qwglCreateContext?5failed?6?$AA@ 0047d51c     glw_imp.obj
 0003:0000e53c       ??_C@_0CG@FAPB@GLimp_Init?$CI?$CJ?5?9?5SetPixelFormat?5fa@ 0047d53c     glw_imp.obj
 0003:0000e564       ??_C@_0CJ@JNOB@GLimp_Init?$CI?$CJ?5?9?5ChoosePixelFormat@ 0047d564     glw_imp.obj
 0003:0000e590       ??_C@_0CK@DGCM@GLimp_Init?$CI?$CJ?5?9?5qwglSetPixelForma@ 0047d590     glw_imp.obj
 0003:0000e5bc       ??_C@_0CN@INPE@GLimp_Init?$CI?$CJ?5?9?5qwglChoosePixelFo@ 0047d5bc     glw_imp.obj
 0003:0000e5ec       ??_C@_0M@OLMH@gdi?5generic?$AA@ 0047d5ec     glw_imp.obj
 0003:0000e5f8       ??_C@_0CK@PHLH@GLimp_EndFrame?$CI?$CJ?5?9?5SwapBuffers?$CI?$CJ@ 0047d5f8     glw_imp.obj
 0003:0000e624       ??_C@_0P@BDAP@SwapBuffers?$CI?$CJ?6?$AA@ 0047d624     glw_imp.obj
 0003:0000e634       ??_C@_0BC@BACP@GLimp_EndFrame?$CI?$CJ?6?$AA@ 0047d634     glw_imp.obj
 0003:0000ea20       ??_C@_0BJ@MCO@GL_NV_vertex_array_range?$AA@ 0047da20     qgl_win.obj
 0003:0000ea3c       ??_C@_0BF@NADO@WGL_EXT_swap_control?$AA@ 0047da3c     qgl_win.obj
 0003:0000ea54       ??_C@_0M@MBFH@GL_NV_fence?$AA@ 0047da54     qgl_win.obj
 0003:0000ea60       ??_C@_0BD@MLJD@GL_NV_fog_distance?$AA@ 0047da60     qgl_win.obj
 0003:0000ea74       ??_C@_0BN@MLLO@GL_EXT_compiled_vertex_array?$AA@ 0047da74     qgl_win.obj
 0003:0000ea94       ??_C@_0BL@CKIC@GL_ARB_texture_compression?$AA@ 0047da94     qgl_win.obj
 0003:0000eab0       ??_C@_0L@PFAE@GL_S3_s3tc?$AA@ 0047dab0     qgl_win.obj
 0003:0000eabc       ??_C@_0BL@KFEH@GL_NV_texture_env_combine4?$AA@ 0047dabc     qgl_win.obj
 0003:0000ead8       ??_C@_0BL@FJOC@GL_ARB_texture_env_combine?$AA@ 0047dad8     qgl_win.obj
 0003:0000eaf4       ??_C@_0BL@NCJN@GL_EXT_texture_env_combine?$AA@ 0047daf4     qgl_win.obj
 0003:0000eb10       ??_C@_0BH@BIPA@GL_ARB_texture_env_add?$AA@ 0047db10     qgl_win.obj
 0003:0000eb28       ??_C@_0BH@BODG@GL_EXT_texture_env_add?$AA@ 0047db28     qgl_win.obj
 0003:0000eb40       ??_C@_0BE@EHGK@GL_ARB_multitexture?$AA@ 0047db40     qgl_win.obj
 0003:0000eb54       ??_C@_0BF@IIHM@GL_SGIS_multitexture?$AA@ 0047db54     qgl_win.obj
 0003:0000eb6c       ??_C@_0BA@CMIE@wglFreeMemoryNV?$AA@ 0047db6c     qgl_win.obj
 0003:0000eb7c       ??_C@_0BE@JMCI@wglAllocateMemoryNV?$AA@ 0047db7c     qgl_win.obj
 0003:0000eb90       ??_C@_0BK@PALM@glFlushVertexArrayRangeNV?$AA@ 0047db90     qgl_win.obj
 0003:0000ebac       ??_C@_0BF@NEKF@glVertexArrayRangeNV?$AA@ 0047dbac     qgl_win.obj
 0003:0000ebc4       ??_C@_0BD@LGGF@wglSwapIntervalEXT?$AA@ 0047dbc4     qgl_win.obj
 0003:0000ebd8       ??_C@_0BA@MFGK@glFinishFenceNV?$AA@ 0047dbd8     qgl_win.obj
 0003:0000ebe8       ??_C@_0N@KMGB@glSetFenceNV?$AA@ 0047dbe8     qgl_win.obj
 0003:0000ebf8       ??_C@_0BB@LDDE@glDeleteFencesNV?$AA@ 0047dbf8     qgl_win.obj
 0003:0000ec0c       ??_C@_0O@GJEF@glGenFencesNV?$AA@ 0047dc0c     qgl_win.obj
 0003:0000ec1c       ??_C@_0BC@MMDJ@glUnlockArraysEXT?$AA@ 0047dc1c     qgl_win.obj
 0003:0000ec30       ??_C@_0BA@NLCH@glLockArraysEXT?$AA@ 0047dc30     qgl_win.obj
 0003:0000ec40       ??_C@_0BF@HBBL@glMultiTexCoord2fARB?$AA@ 0047dc40     qgl_win.obj
 0003:0000ec58       ??_C@_0BJ@NIEC@glClientActiveTextureARB?$AA@ 0047dc58     qgl_win.obj
 0003:0000ec74       ??_C@_0BD@IJD@glActiveTextureARB?$AA@ 0047dc74     qgl_win.obj
 0003:0000ec88       ??_C@_0BG@OAHA@glMultiTexCoord2fSGIS?$AA@ 0047dc88     qgl_win.obj
 0003:0000eca0       ??_C@_0BM@DCJF@glSelectTextureCoordSetSGIS?$AA@ 0047dca0     qgl_win.obj
 0003:0000ecbc       ??_C@_0BE@LEFG@glSelectTextureSGIS?$AA@ 0047dcbc     qgl_win.obj
 0003:0000ecd0       ??_C@_0P@NFHG@wglMakeCurrent?$AA@ 0047dcd0     qgl_win.obj
 0003:0000ece0       ??_C@_0BC@HKHL@wglGetProcAddress?$AA@ 0047dce0     qgl_win.obj
 0003:0000ecf4       ??_C@_0BB@IOBP@wglDeleteContext?$AA@ 0047dcf4     qgl_win.obj
 0003:0000ed08       ??_C@_0BB@GGNL@wglCreateContext?$AA@ 0047dd08     qgl_win.obj
 0003:0000ed1c       ??_C@_0P@EKFP@wglSwapBuffers?$AA@ 0047dd1c     qgl_win.obj
 0003:0000ed2c       ??_C@_0BC@PJLC@wglSetPixelFormat?$AA@ 0047dd2c     qgl_win.obj
 0003:0000ed40       ??_C@_0BH@IJMD@wglDescribePixelFormat?$AA@ 0047dd40     qgl_win.obj
 0003:0000ed58       ??_C@_0BF@HPKH@wglChoosePixelFormat?$AA@ 0047dd58     qgl_win.obj
 0003:0000ed70       ??_C@_0L@INIC@glViewport?$AA@ 0047dd70     qgl_win.obj
 0003:0000ed7c       ??_C@_0BA@OGPO@glVertexPointer?$AA@ 0047dd7c     qgl_win.obj
 0003:0000ed8c       ??_C@_0M@PAAJ@glVertex3fv?$AA@ 0047dd8c     qgl_win.obj
 0003:0000ed98       ??_C@_0L@CLBF@glVertex3f?$AA@ 0047dd98     qgl_win.obj
 0003:0000eda4       ??_C@_0L@DNLP@glVertex2f?$AA@ 0047dda4     qgl_win.obj
 0003:0000edb0       ??_C@_0N@NKAJ@glTranslatef?$AA@ 0047ddb0     qgl_win.obj
 0003:0000edc0       ??_C@_0BA@KFAN@glTexSubImage2D?$AA@ 0047ddc0     qgl_win.obj
 0003:0000edd0       ??_C@_0BA@CLDA@glTexParameterf?$AA@ 0047ddd0     qgl_win.obj
 0003:0000ede0       ??_C@_0N@IAMC@glTexImage2D?$AA@ 0047dde0     qgl_win.obj
 0003:0000edf0       ??_C@_09CIAL@glTexEnvi?$AA@ 0047ddf0     qgl_win.obj
 0003:0000edfc       ??_C@_0L@IHAL@glTexEnvfv?$AA@ 0047ddfc     qgl_win.obj
 0003:0000ee08       ??_C@_09CJFG@glTexEnvf?$AA@ 0047de08     qgl_win.obj
 0003:0000ee14       ??_C@_0BC@EKAK@glTexCoordPointer?$AA@ 0047de14     qgl_win.obj
 0003:0000ee28       ??_C@_0N@PDBC@glTexCoord2f?$AA@ 0047de28     qgl_win.obj
 0003:0000ee38       ??_C@_0N@LIFO@glShadeModel?$AA@ 0047de38     qgl_win.obj
 0003:0000ee48       ??_C@_09HOGJ@glScissor?$AA@ 0047de48     qgl_win.obj
 0003:0000ee54       ??_C@_08NBED@glScalef?$AA@ 0047de54     qgl_win.obj
 0003:0000ee60       ??_C@_09LCHL@glRotatef?$AA@ 0047de60     qgl_win.obj
 0003:0000ee6c       ??_C@_0N@LBPG@glReadPixels?$AA@ 0047de6c     qgl_win.obj
 0003:0000ee7c       ??_C@_0N@KEGE@glPushMatrix?$AA@ 0047de7c     qgl_win.obj
 0003:0000ee8c       ??_C@_0M@LACG@glPopMatrix?$AA@ 0047de8c     qgl_win.obj
 0003:0000ee98       ??_C@_0BA@BALB@glPolygonOffset?$AA@ 0047de98     qgl_win.obj
 0003:0000eea8       ??_C@_0O@FGKK@glPolygonMode?$AA@ 0047dea8     qgl_win.obj
 0003:0000eeb8       ??_C@_07ICOP@glOrtho?$AA@  0047deb8     qgl_win.obj
 0003:0000eec0       ??_C@_0N@JNJF@glMatrixMode?$AA@ 0047dec0     qgl_win.obj
 0003:0000eed0       ??_C@_0O@KDCF@glLoadMatrixf?$AA@ 0047ded0     qgl_win.obj
 0003:0000eee0       ??_C@_0P@MLMG@glLoadIdentity?$AA@ 0047dee0     qgl_win.obj
 0003:0000eef0       ??_C@_0M@EJHF@glGetString?$AA@ 0047def0     qgl_win.obj
 0003:0000eefc       ??_C@_0O@PMHI@glGetIntegerv?$AA@ 0047defc     qgl_win.obj
 0003:0000ef0c       ??_C@_0M@HNHJ@glGetFloatv?$AA@ 0047df0c     qgl_win.obj
 0003:0000ef18       ??_C@_0L@INBB@glGetError?$AA@ 0047df18     qgl_win.obj
 0003:0000ef24       ??_C@_09KLFM@glFrustum?$AA@ 0047df24     qgl_win.obj
 0003:0000ef30       ??_C@_07KOOO@glFogfv?$AA@  0047df30     qgl_win.obj
 0003:0000ef38       ??_C@_06MMBO@glFogf?$AA@   0047df38     qgl_win.obj
 0003:0000ef40       ??_C@_08HFPP@glFinish?$AA@ 0047df40     qgl_win.obj
 0003:0000ef4c       ??_C@_05FDNN@glEnd?$AA@    0047df4c     qgl_win.obj
 0003:0000ef54       ??_C@_0BE@JJFB@glEnableClientState?$AA@ 0047df54     qgl_win.obj
 0003:0000ef68       ??_C@_08PHJO@glEnable?$AA@ 0047df68     qgl_win.obj
 0003:0000ef74       ??_C@_0P@EAHC@glDrawElements?$AA@ 0047df74     qgl_win.obj
 0003:0000ef84       ??_C@_0N@DBGG@glDrawBuffer?$AA@ 0047df84     qgl_win.obj
 0003:0000ef94       ??_C@_0BF@HABO@glDisableClientState?$AA@ 0047df94     qgl_win.obj
 0003:0000efac       ??_C@_09DADM@glDisable?$AA@ 0047dfac     qgl_win.obj
 0003:0000efb8       ??_C@_0N@OLL@glDepthRange?$AA@ 0047dfb8     qgl_win.obj
 0003:0000efc8       ??_C@_0M@LIJE@glDepthMask?$AA@ 0047dfc8     qgl_win.obj
 0003:0000efd4       ??_C@_0M@FDIH@glDepthFunc?$AA@ 0047dfd4     qgl_win.obj
 0003:0000efe0       ??_C@_0BB@OKAI@glDeleteTextures?$AA@ 0047dfe0     qgl_win.obj
 0003:0000eff4       ??_C@_0L@LIEG@glCullFace?$AA@ 0047dff4     qgl_win.obj
 0003:0000f000       ??_C@_0P@PPM@glColorPointer?$AA@ 0047e000     qgl_win.obj
 0003:0000f010       ??_C@_0M@EHCG@glColor4ubv?$AA@ 0047e010     qgl_win.obj
 0003:0000f01c       ??_C@_0L@EOB@glColor4ub?$AA@ 0047e01c     qgl_win.obj
 0003:0000f028       ??_C@_0L@FGJL@glColor4fv?$AA@ 0047e028     qgl_win.obj
 0003:0000f034       ??_C@_09LJGG@glColor4f?$AA@ 0047e034     qgl_win.obj
 0003:0000f040       ??_C@_0L@OIPK@glColor3fv?$AA@ 0047e040     qgl_win.obj
 0003:0000f04c       ??_C@_09NIDD@glColor3f?$AA@ 0047e04c     qgl_win.obj
 0003:0000f058       ??_C@_0N@DFBF@glClearDepth?$AA@ 0047e058     qgl_win.obj
 0003:0000f068       ??_C@_0N@IALK@glClearColor?$AA@ 0047e068     qgl_win.obj
 0003:0000f078       ??_C@_07IOIM@glClear?$AA@  0047e078     qgl_win.obj
 0003:0000f080       ??_C@_0M@PHAI@glBlendFunc?$AA@ 0047e080     qgl_win.obj
 0003:0000f08c       ??_C@_0O@NAMD@glBindTexture?$AA@ 0047e08c     qgl_win.obj
 0003:0000f09c       ??_C@_07GHIG@glBegin?$AA@  0047e09c     qgl_win.obj
 0003:0000f0a4       ??_C@_0P@ODMD@glArrayElement?$AA@ 0047e0a4     qgl_win.obj
 0003:0000f0b4       ??_C@_0M@JBDJ@glAlphaFunc?$AA@ 0047e0b4     qgl_win.obj
 0003:0000f0c0       ??_C@_0BA@CLML@?$CFs?5?$CIGL_?$CFs?0?5?$CFg?$CJ?6?$AA@ 0047e0c0     qgl_win.obj
 0003:0000f0d0       ??_C@_03NMFM@?$DP?$DP?$DP?$AA@ 0047e0d0     qgl_win.obj
 0003:0000f0d4       ??_C@_0O@LKEO@EYE_RADIAL_NV?$AA@ 0047e0d4     qgl_win.obj
 0003:0000f0e4       ??_C@_0BF@DIIJ@FOG_DISTANCE_MODE_NV?$AA@ 0047e0e4     qgl_win.obj
 0003:0000f0fc       ??_C@_0BC@EPOK@OPERAND3_ALPHA_NV?$AA@ 0047e0fc     qgl_win.obj
 0003:0000f110       ??_C@_0BB@DDB@SOURCE3_ALPHA_NV?$AA@ 0047e110     qgl_win.obj
 0003:0000f124       ??_C@_0BA@HMDO@OPERAND3_RGB_NV?$AA@ 0047e124     qgl_win.obj
 0003:0000f134       ??_C@_0P@NPGG@SOURCE3_RGB_NV?$AA@ 0047e134     qgl_win.obj
 0003:0000f144       ??_C@_0BC@EADM@PRIMARY_COLOR_ARB?$AA@ 0047e144     qgl_win.obj
 0003:0000f158       ??_C@_0N@BKGO@PREVIOUS_ARB?$AA@ 0047e158     qgl_win.obj
 0003:0000f168       ??_C@_0N@PKDH@CONSTANT_ARB?$AA@ 0047e168     qgl_win.obj
 0003:0000f178       ??_C@_0BA@KKBO@INTERPOLATE_ARB?$AA@ 0047e178     qgl_win.obj
 0003:0000f188       ??_C@_0BD@JOFA@OPERAND2_ALPHA_ARB?$AA@ 0047e188     qgl_win.obj
 0003:0000f19c       ??_C@_0BC@COBM@SOURCE2_ALPHA_ARB?$AA@ 0047e19c     qgl_win.obj
 0003:0000f1b0       ??_C@_0BB@IJKE@OPERAND2_RGB_ARB?$AA@ 0047e1b0     qgl_win.obj
 0003:0000f1c4       ??_C@_0BA@FCAH@SOURCE2_RGB_ARB?$AA@ 0047e1c4     qgl_win.obj
 0003:0000f1d4       ??_C@_0BD@KBMA@OPERAND1_ALPHA_ARB?$AA@ 0047e1d4     qgl_win.obj
 0003:0000f1e8       ??_C@_0BC@BBIM@SOURCE1_ALPHA_ARB?$AA@ 0047e1e8     qgl_win.obj
 0003:0000f1fc       ??_C@_0BB@MPHM@OPERAND1_RGB_ARB?$AA@ 0047e1fc     qgl_win.obj
 0003:0000f210       ??_C@_0BA@BENP@SOURCE1_RGB_ARB?$AA@ 0047e210     qgl_win.obj
 0003:0000f220       ??_C@_0BD@ELEP@OPERAND0_ALPHA_ARB?$AA@ 0047e220     qgl_win.obj
 0003:0000f234       ??_C@_0BC@PLAD@SOURCE0_ALPHA_ARB?$AA@ 0047e234     qgl_win.obj
 0003:0000f248       ??_C@_0BB@NDE@OPERAND0_RGB_ARB?$AA@ 0047e248     qgl_win.obj
 0003:0000f25c       ??_C@_0BA@NGJH@SOURCE0_RGB_ARB?$AA@ 0047e25c     qgl_win.obj
 0003:0000f26c       ??_C@_0O@DGNK@RGB_SCALE_ARB?$AA@ 0047e26c     qgl_win.obj
 0003:0000f27c       ??_C@_0BC@GJJF@COMBINE_ALPHA_ARB?$AA@ 0047e27c     qgl_win.obj
 0003:0000f290       ??_C@_0BA@OEFK@COMBINE_RGB_ARB?$AA@ 0047e290     qgl_win.obj
 0003:0000f2a0       ??_C@_0M@BIII@COMBINE_ARB?$AA@ 0047e2a0     qgl_win.obj
 0003:0000f2ac       ??_C@_0M@HIPK@COMBINE4_NV?$AA@ 0047e2ac     qgl_win.obj
 0003:0000f2b8       ??_C@_0BD@KCJL@ACTIVE_TEXTURE_ARB?$AA@ 0047e2b8     qgl_win.obj
 0003:0000f2cc       ??_C@_0BK@MMII@CLIENT_ACTIVE_TEXTURE_ARB?$AA@ 0047e2cc     qgl_win.obj
 0003:0000f2e8       ??_C@_0BG@DAAF@MAX_TEXTURE_UNITS_ARB?$AA@ 0047e2e8     qgl_win.obj
 0003:0000f300       ??_C@_0BD@GMGA@COMPRESSED_RGB_ARB?$AA@ 0047e300     qgl_win.obj
 0003:0000f314       ??_C@_0BE@IH@COMPRESSED_RGBA_ARB?$AA@ 0047e314     qgl_win.obj
 0003:0000f328       ??_C@_0N@JLBF@TEXTURE3_ARB?$AA@ 0047e328     qgl_win.obj
 0003:0000f338       ??_C@_0O@LKHK@TEXTURE0_SGIS?$AA@ 0047e338     qgl_win.obj
 0003:0000f348       ??_C@_0O@CPNK@TEXTURE1_SGIS?$AA@ 0047e348     qgl_win.obj
 0003:0000f358       ??_C@_09NAGI@RGB4_S3TC?$AA@ 0047e358     qgl_win.obj
 0003:0000f364       ??_C@_0N@HLHK@TEXTURE0_ARB?$AA@ 0047e364     qgl_win.obj
 0003:0000f374       ??_C@_0N@NLFP@TEXTURE1_ARB?$AA@ 0047e374     qgl_win.obj
 0003:0000f384       ??_C@_0N@DLDA@TEXTURE2_ARB?$AA@ 0047e384     qgl_win.obj
 0003:0000f394       ??_C@_0BC@OBEG@MAX_TEXTURES_SGIS?$AA@ 0047e394     qgl_win.obj
 0003:0000f3a8       ??_C@_05CJDE@RGBA4?$AA@    0047e3a8     qgl_win.obj
 0003:0000f3b0       ??_C@_07PAAL@RGB5_A1?$AA@  0047e3b0     qgl_win.obj
 0003:0000f3b8       ??_C@_05NHNA@RGBA8?$AA@    0047e3b8     qgl_win.obj
 0003:0000f3c0       ??_C@_0N@HGH@VERTEX_ARRAY?$AA@ 0047e3c0     qgl_win.obj
 0003:0000f3d0       ??_C@_0M@EMKC@COLOR_ARRAY?$AA@ 0047e3d0     qgl_win.obj
 0003:0000f3dc       ??_C@_0BE@JCFC@TEXTURE_COORD_ARRAY?$AA@ 0047e3dc     qgl_win.obj
 0003:0000f3f0       ??_C@_04FIBD@RGB8?$AA@     0047e3f0     qgl_win.obj
 0003:0000f3f8       ??_C@_0BD@HEDF@TEXTURE_MIN_FILTER?$AA@ 0047e3f8     qgl_win.obj
 0003:0000f40c       ??_C@_0P@KNF@TEXTURE_WRAP_S?$AA@ 0047e40c     qgl_win.obj
 0003:0000f41c       ??_C@_0P@FPDA@TEXTURE_WRAP_T?$AA@ 0047e41c     qgl_win.obj
 0003:0000f42c       ??_C@_05IKJL@CLAMP?$AA@    0047e42c     qgl_win.obj
 0003:0000f434       ??_C@_06LEAO@REPEAT?$AA@   0047e434     qgl_win.obj
 0003:0000f43c       ??_C@_04MGA@RGB5?$AA@      0047e43c     qgl_win.obj
 0003:0000f444       ??_C@_0BD@GPCO@TEXTURE_MAG_FILTER?$AA@ 0047e444     qgl_win.obj
 0003:0000f458       ??_C@_06OAFN@LINEAR?$AA@   0047e458     qgl_win.obj
 0003:0000f460       ??_C@_0BH@PDFC@NEAREST_MIPMAP_NEAREST?$AA@ 0047e460     qgl_win.obj
 0003:0000f478       ??_C@_0BG@NGHK@LINEAR_MIPMAP_NEAREST?$AA@ 0047e478     qgl_win.obj
 0003:0000f490       ??_C@_0BG@KLGC@NEAREST_MIPMAP_LINEAR?$AA@ 0047e490     qgl_win.obj
 0003:0000f4a8       ??_C@_0BF@IDPG@LINEAR_MIPMAP_LINEAR?$AA@ 0047e4a8     qgl_win.obj
 0003:0000f4c0       ??_C@_07LNBJ@NEAREST?$AA@  0047e4c0     qgl_win.obj
 0003:0000f4c8       ??_C@_07LJIB@REPLACE?$AA@  0047e4c8     qgl_win.obj
 0003:0000f4d0       ??_C@_08CMBM@MODULATE?$AA@ 0047e4d0     qgl_win.obj
 0003:0000f4dc       ??_C@_05PJOE@DECAL?$AA@    0047e4dc     qgl_win.obj
 0003:0000f4e4       ??_C@_0BB@NLLP@TEXTURE_ENV_MODE?$AA@ 0047e4e4     qgl_win.obj
 0003:0000f4f8       ??_C@_0BC@DLAE@TEXTURE_ENV_COLOR?$AA@ 0047e4f8     qgl_win.obj
 0003:0000f50c       ??_C@_0M@NBKK@TEXTURE_ENV?$AA@ 0047e50c     qgl_win.obj
 0003:0000f518       ??_C@_07DFFE@TEXTURE?$AA@  0047e518     qgl_win.obj
 0003:0000f520       ??_C@_03IJOL@INT?$AA@      0047e520     qgl_win.obj
 0003:0000f524       ??_C@_0N@JHEK@UNSIGNED_INT?$AA@ 0047e524     qgl_win.obj
 0003:0000f534       ??_C@_05JDEL@FLOAT?$AA@    0047e534     qgl_win.obj
 0003:0000f53c       ??_C@_06CGGE@DOUBLE?$AA@   0047e53c     qgl_win.obj
 0003:0000f544       ??_C@_09ODHH@MODELVIEW?$AA@ 0047e544     qgl_win.obj
 0003:0000f550       ??_C@_0L@OBAA@PROJECTION?$AA@ 0047e550     qgl_win.obj
 0003:0000f55c       ??_C@_0P@CEOH@UNSIGNED_SHORT?$AA@ 0047e55c     qgl_win.obj
 0003:0000f56c       ??_C@_0L@GPNO@ALPHA_TEST?$AA@ 0047e56c     qgl_win.obj
 0003:0000f578       ??_C@_05FKDH@BLEND?$AA@    0047e578     qgl_win.obj
 0003:0000f580       ??_C@_0L@BNFJ@TEXTURE_2D?$AA@ 0047e580     qgl_win.obj
 0003:0000f58c       ??_C@_04EHOP@BYTE?$AA@     0047e58c     qgl_win.obj
 0003:0000f594       ??_C@_0O@BAPB@UNSIGNED_BYTE?$AA@ 0047e594     qgl_win.obj
 0003:0000f5a4       ??_C@_05HFLA@SHORT?$AA@    0047e5a4     qgl_win.obj
 0003:0000f5ac       ??_C@_0L@BABM@DEPTH_TEST?$AA@ 0047e5ac     qgl_win.obj
 0003:0000f5b8       ??_C@_0M@CNMJ@FOG_DENSITY?$AA@ 0047e5b8     qgl_win.obj
 0003:0000f5c4       ??_C@_09FFMC@FOG_START?$AA@ 0047e5c4     qgl_win.obj
 0003:0000f5d0       ??_C@_07CPCN@FOG_END?$AA@  0047e5d0     qgl_win.obj
 0003:0000f5d8       ??_C@_08HJKC@FOG_MODE?$AA@ 0047e5d8     qgl_win.obj
 0003:0000f5e4       ??_C@_09KBKG@FOG_COLOR?$AA@ 0047e5e4     qgl_win.obj
 0003:0000f5f0       ??_C@_03OHFM@FOG?$AA@      0047e5f0     qgl_win.obj
 0003:0000f5f4       ??_C@_09FMPF@DST_COLOR?$AA@ 0047e5f4     qgl_win.obj
 0003:0000f600       ??_C@_0BE@LFCA@ONE_MINUS_DST_COLOR?$AA@ 0047e600     qgl_win.obj
 0003:0000f614       ??_C@_0BD@KGEA@SRC_ALPHA_SATURATE?$AA@ 0047e614     qgl_win.obj
 0003:0000f628       ??_C@_05OHBH@FRONT?$AA@    0047e628     qgl_win.obj
 0003:0000f630       ??_C@_04FGAG@BACK?$AA@     0047e630     qgl_win.obj
 0003:0000f638       ??_C@_09MPEF@CULL_FACE?$AA@ 0047e638     qgl_win.obj
 0003:0000f644       ??_C@_0BE@FEIF@ONE_MINUS_DST_ALPHA?$AA@ 0047e644     qgl_win.obj
 0003:0000f658       ??_C@_06MJBP@ALWAYS?$AA@   0047e658     qgl_win.obj
 0003:0000f660       ??_C@_09FPBD@SRC_COLOR?$AA@ 0047e660     qgl_win.obj
 0003:0000f66c       ??_C@_0BE@LGMG@ONE_MINUS_SRC_COLOR?$AA@ 0047e66c     qgl_win.obj
 0003:0000f680       ??_C@_09LOLG@SRC_ALPHA?$AA@ 0047e680     qgl_win.obj
 0003:0000f68c       ??_C@_0BE@FHGD@ONE_MINUS_SRC_ALPHA?$AA@ 0047e68c     qgl_win.obj
 0003:0000f6a0       ??_C@_09LNFA@DST_ALPHA?$AA@ 0047e6a0     qgl_win.obj
 0003:0000f6ac       ??_C@_06NENM@GEQUAL?$AA@   0047e6ac     qgl_win.obj
 0003:0000f6b4       ??_C@_05NLLC@NEVER?$AA@    0047e6b4     qgl_win.obj
 0003:0000f6bc       ??_C@_04HMEB@LESS?$AA@     0047e6bc     qgl_win.obj
 0003:0000f6c4       ??_C@_05FELF@EQUAL?$AA@    0047e6c4     qgl_win.obj
 0003:0000f6cc       ??_C@_06MHDN@LEQUAL?$AA@   0047e6cc     qgl_win.obj
 0003:0000f6d4       ??_C@_07HOFJ@GREATER?$AA@  0047e6d4     qgl_win.obj
 0003:0000f6dc       ??_C@_08NCCF@NOTEQUAL?$AA@ 0047e6dc     qgl_win.obj
 0003:0000f6e8       ??_C@_03CICP@ADD?$AA@      0047e6e8     qgl_win.obj
 0003:0000f6ec       ??_C@_03GGHL@ONE?$AA@      0047e6ec     qgl_win.obj
 0003:0000f6f0       ??_C@_04LHLC@ZERO?$AA@     0047e6f0     qgl_win.obj
 0003:0000f6f8       ??_C@_07KMLC@POLYGON?$AA@  0047e6f8     qgl_win.obj
 0003:0000f700       ??_C@_0L@KPMO@QUAD_STRIP?$AA@ 0047e700     qgl_win.obj
 0003:0000f70c       ??_C@_05MOCA@QUADS?$AA@    0047e70c     qgl_win.obj
 0003:0000f714       ??_C@_0N@LKDL@TRIANGLE_FAN?$AA@ 0047e714     qgl_win.obj
 0003:0000f724       ??_C@_0P@GLMF@TRIANGLE_STRIP?$AA@ 0047e724     qgl_win.obj
 0003:0000f734       ??_C@_09IKDC@TRIANGLES?$AA@ 0047e734     qgl_win.obj
 0003:0000f740       ??_C@_0L@DFPI@LINE_STRIP?$AA@ 0047e740     qgl_win.obj
 0003:0000f74c       ??_C@_09EOOC@LINE_LOOP?$AA@ 0047e74c     qgl_win.obj
 0003:0000f758       ??_C@_08NDLN@?$CFs?5?$CI?$CFd?$CJ?6?$AA@ 0047e758     qgl_win.obj
 0003:0000f764       ??_C@_0M@JAMH@?$CFs?5?$CIGL_?$CFs?$CJ?6?$AA@ 0047e764     qgl_win.obj
 0003:0000f770       ??_C@_0BA@NNPA@?$CFs?5?$CIGL_?$CFs?0?5?$CFd?$CJ?6?$AA@ 0047e770     qgl_win.obj
 0003:0000f780       ??_C@_0BD@LHJN@?$CFs?5?$CIGL_?$CFs?0?5GL_?$CFs?$CJ?6?$AA@ 0047e780     qgl_win.obj
 0003:0000f794       ??_C@_0BF@PLKJ@?$CFs?5?$CI?$CFg?0?5?$CFg?0?5?$CFg?0?5?$CFg?$CJ?6?$AA@ 0047e794     qgl_win.obj
 0003:0000f7ac       ??_C@_08CFIG@?$CFs?5?$CI?$CFg?$CJ?6?$AA@ 0047e7ac     qgl_win.obj
 0003:0000f7b8       ??_C@_0BB@NPFI@?$CFs?5?$CI?$CFg?0?5?$CFg?0?5?$CFg?$CJ?6?$AA@ 0047e7b8     qgl_win.obj
 0003:0000f7cc       ??_C@_0BF@GFM@?$CFs?5?$CI?$CFd?0?5?$CFd?0?5?$CFd?0?5?$CFd?$CJ?6?$AA@ 0047e7cc     qgl_win.obj
 0003:0000f7e4       ??_C@_0BJ@MPOB@?$CFs?5?$CI?$CFd?0?5GL_?$CFs?0?5?$CFd?0?5$?$CFX?$CJ?6?$AA@ 0047e7e4     qgl_win.obj
 0003:0000f800       ??_C@_0O@JIGC@?$CFs?5?$CI?$CFd?0?5$?$CFX?$CJ?6?$AA@ 0047e800     qgl_win.obj
 0003:0000f810       ??_C@_0N@CNFJ@?$CFs?5?$CI?$CFg?0?5?$CFg?$CJ?6?$AA@ 0047e810     qgl_win.obj
 0003:0000f820       ??_C@_0BM@EJLJ@?$CFs?5?$CIGL_?$CFs?0?5?$CFd?0?5GL_?$CFs?0?5$?$CFX?$CJ?6?$AA@ 0047e820     qgl_win.obj
 0003:0000f83c       ??_C@_0BB@PLBH@?$CFs?5?$CIGL_?$CFs?0?5$?$CFX?$CJ?6?$AA@ 0047e83c     qgl_win.obj
 0003:0000f850       ??_C@_0BN@BCG@?$CFs?5?$CI?$CFg?0?5?$CFg?0?5?$CFg?0?5?$CFg?0?5?$CFg?0?5?$CFg?$CJ?6?$AA@ 0047e850     qgl_win.obj
 0003:0000f870       ??_C@_0CI@ENE@?$CFs?5?$CI?$CFd?0?5?$CFd?0?5?$CFd?0?5?$CFd?0?5GL_?$CFs?0?5GL_?$CFs@ 0047e870     qgl_win.obj
 0003:0000f898       ??_C@_0BH@GDNB@?$CFs?5?$CIGL_?$CFs?0?5GL_?$CFs?0?5?$CFg?$CJ?6?$AA@ 0047e898     qgl_win.obj
 0003:0000f8b0       ??_C@_0BI@GBFP@?$CFs?5?$CIGL_?$CFs?0?5GL_?$CFs?0?5$?$CFX?$CJ?6?$AA@ 0047e8b0     qgl_win.obj
 0003:0000f8c8       ??_C@_0BK@DNBE@?$CFs?5?$CIGL_?$CFs?0?5GL_?$CFs?0?5GL_?$CFs?$CJ?6?$AA@ 0047e8c8     qgl_win.obj
 0003:0000f8e4       ??_C@_0DD@PHF@?$CFs?5?$CIGL_?$CFs?0?5?$CFd?0?5?$CFd?0?5?$CFd?0?5?$CFd?0?5?$CFd?0?5G@ 0047e8e4     qgl_win.obj
 0003:0000f918       ??_C@_0BE@KIHO@?$CFs?5?$CIGL_?$CFs?0?5?$CFg?0?5?$CFg?$CJ?6?$AA@ 0047e918     qgl_win.obj
 0003:0000f92c       ??_C@_0N@KINM@?$CFs?5?$CI?$CFd?0?5?$CFd?$CJ?6?$AA@ 0047e92c     qgl_win.obj
 0003:0000f93c       ??_C@_0BD@MANN@glAllocateMemoryNV?$AA@ 0047e93c     qgl_win.obj
 0003:0000f950       ??_C@_0P@LHPO@glFreeMemoryNV?$AA@ 0047e950     qgl_win.obj
 0003:0000f960       ??_C@_0EF@GBON@QGL_Init?3?5inconsistent?5OpenGL?5li@ 0047e960     qgl_win.obj
 0003:0000f9a8       ??_C@_0CD@JMON@QGL_Init?3?5LoadLibrary?5?$CI?$CFs?$CJ?5faile@ 0047e9a8     qgl_win.obj
 0003:0000f9cc       ??_C@_0BI@ECOL@?5?5?5?$CFs?5is?5covered?5by?5?$CFs?6?$AA@ 0047e9cc     qgl_win.obj
 0003:0000f9e4       ??_C@_0BL@ELJI@?4?4?4undetected?5extensions?3?6?$AA@ 0047e9e4     qgl_win.obj
 0003:0000fa00       ??_C@_08MJAO@?$FO6?5?5?5?$CFs?6?$AA@ 0047ea00     qgl_win.obj
 0003:0000fa0c       ??_C@_0BL@HBLH@?$FO6?4?4?4disabled?5extensions?3?6?$AA@ 0047ea0c     qgl_win.obj
 0003:0000fa28       ??_C@_0BM@LPPM@?4?4?4no?5extensions?5was?5found?6?$AA@ 0047ea28     qgl_win.obj
 0003:0000fa44       ??_C@_06GNEC@?5?5?5?$CFs?6?$AA@ 0047ea44     qgl_win.obj
 0003:0000fa4c       ??_C@_0CB@IAKB@?5?5?5?$CFs?5deprecated?5in?5favor?5of?5?$CFs?6@ 0047ea4c     qgl_win.obj
 0003:0000fa70       ??_C@_0BF@IGJL@?4?4?4used?5extensions?3?6?$AA@ 0047ea70     qgl_win.obj
 0003:0000fa88       ??_C@_0BE@LAAD@?$CFs?5required?5for?5?$CFs?6?$AA@ 0047ea88     qgl_win.obj
 0003:0000fa9c       ??_C@_0DG@MIOL@Inconsistent?5extension?5?$CFs?5?9?5func@ 0047ea9c     qgl_win.obj
 0003:0000fad4       ??_C@_09EIMA@?$CFs?1gl?4log?$AA@ 0047ead4     qgl_win.obj
 0003:0000fae0       ??_C@_0CB@ILMK@R_AllocDynamicMemory?$CI?$CFd?$CJ?5failed?6@ 0047eae0     gl_buffers.obj
 0003:0000fb04       ??_C@_0DB@JB@R_ResizeDynamicMemory?3?5out?5of?5me@ 0047eb04     gl_buffers.obj
 0003:0000fb38       ??_C@_0CD@GOLC@R_ResizeDynamicMemory?3?5bad?5point@ 0047eb38     gl_buffers.obj
 0003:0000fb5c       ??_C@_0CN@MCKO@R_InsertShaderIndex?$CI?$CFd?$CJ?3?5changed@ 0047eb5c     gl_buffers.obj
 0003:0000fb8c       ??_C@_0BM@HKED@VirtualAlloc?5reserve?5failed?$AA@ 0047eb8c     q_shwin.obj
 0003:0000fba8       ??_C@_0BE@LBDL@Hunk_Alloc?5overflow?$AA@ 0047eba8     q_shwin.obj
 0003:0000fbbc       ??_C@_0BM@OBIG@VirtualAlloc?5commit?5failed?4?$AA@ 0047ebbc     q_shwin.obj
 0003:0000fbd8       ??_C@_0BM@NAGK@Sys_BeginFind?5without?5close?$AA@ 0047ebd8     q_shwin.obj
 0003:0000fbf8       _r_avertexnormals          0047ebf8     r_alias.obj
 0003:000103f0       ??_C@_0CN@ECPF@R_AliasSetupFrames?5?$CFs?3?5no?5such?5l@ 0047f3f0     r_alias.obj
 0003:00010420       ??_C@_0CN@FLCI@R_AliasSetupFrames?5?$CFs?3?5no?5such?5t@ 0047f420     r_alias.obj
 0003:00010450       ??_C@_0CG@IHP@R_AliasDrawModel?5?$CFs?3?5NULL?5skin?5f@ 0047f450     r_alias.obj
 0003:00010478       ??_C@_0CI@LMKC@R_AliasSetupSkin?5?$CFs?3?5no?5such?5ski@ 0047f478     r_alias.obj
 0003:000104a0       ??_C@_0BJ@KFLF@Out?5of?5edges?5for?5bmodel?6?$AA@ 0047f4a0     r_bsp.obj
 0003:000104dc       _next_left_y               0047f4dc     r_draw.obj
 0003:000104e0       _next_right_y              0047f4e0     r_draw.obj
 0003:000104e4       ??_C@_08CFBM@conchars?$AA@ 0047f4e4     r_draw.obj
 0003:000104f0       ??_C@_0BK@GEDK@Draw_Pic?3?5bad?5coordinates?$AA@ 0047f4f0     r_draw.obj
 0003:0001050c       ??_C@_0BE@OFJF@Can?8t?5find?5pic?3?5?$CFs?6?$AA@ 0047f50c     r_draw.obj
 0003:00010520       ??_C@_0CF@EAAB@Total?5?$CFi?5images?5with?5texel?5count@ 0047f520     r_image.obj
 0003:00010548       ??_C@_0BG@BFKM@?$CF?93i?5?$CFs?5?$CF?93i?5?$CF?93i?5?$CFs?6?$AA@ 0047f548     r_image.obj
 0003:00010560       ??_C@_03LNJI@skn?$AA@      0047f560     r_image.obj
 0003:00010564       ??_C@_03OAO@spr?$AA@       0047f564     r_image.obj
 0003:00010568       ??_C@_03DION@wal?$AA@      0047f568     r_image.obj
 0003:0001056c       ??_C@_03HGLM@tmp?$AA@      0047f56c     r_image.obj
 0003:00010570       ??_C@_03HLMP@?5?$DP?5?$AA@ 0047f570     r_image.obj
 0003:00010574       ??_C@_0CC@OAEO@?9?9?9?9t?9?9?9w?9?9?9h?9?9?9name?9?9?9?9?9?9?9?9?9?9?9?9@ 0047f574     r_image.obj
 0003:00010598       ??_C@_0M@GKJI@MAX_RIMAGES?$AA@ 0047f598     r_image.obj
 0003:000105a4       ??_C@_0BP@NGM@Draw_LoadPic?3?5?$CC?$CFs?$CC?5is?5too?5long?$AA@ 0047f5a4     r_image.obj
 0003:000105c4       ??_C@_0BK@CFIO@R_LoadWal?3?5can?8t?5load?5?$CFs?6?$AA@ 0047f5c4     r_image.obj
 0003:000105e0       ??_C@_0CC@DGNL@Unrecognized?5image?5extension?3?5?$CFs@ 0047f5e0     r_image.obj
 0003:00010604       ??_C@_0BI@BLMG@Cannot?5load?5texture?5?$CFs?6?$AA@ 0047f604     r_image.obj
 0003:0001061c       ??_C@_05LCPG@pics?1?$AA@   0047f61c     r_image.obj
 0003:00010624       ??_C@_04IDGC@?4?$DP?$DP?$DP?$AA@ 0047f624     r_image.obj
 0003:0001062c       ??_C@_0BB@FGEH@sw_prefer8bittex?$AA@ 0047f62c     r_image.obj
 0003:00010640       ??_C@_0BN@CIBM@Couldn?8t?5load?5pics?116to8?4dat?$AA@ 0047f640     r_image.obj
 0003:00010660       ??_C@_0P@OFCI@pics?116to8?4dat?$AA@ 0047f660     r_image.obj
 0003:00010670       _r_viewlighting            0047f670     r_main.obj
 0003:0001067c       _r_aliasuvscale            0047f67c     r_main.obj
 0003:00010680       _r_framecount              0047f680     r_main.obj
 0003:00010828       _suf                       0047f828     r_main.obj
 0003:00010840       _r_skysideimage            0047f840     r_main.obj
 0003:00010858       ??_C@_0L@LHBK@sw_lockpvs?$AA@ 0047f858     r_main.obj
 0003:00010864       ??_C@_0N@IKOP@r_lerpmodels?$AA@ 0047f864     r_main.obj
 0003:00010874       ??_C@_09KGHJ@r_dspeeds?$AA@ 0047f874     r_main.obj
 0003:00010880       ??_C@_0N@JNIO@sw_waterwarp?$AA@ 0047f880     r_main.obj
 0003:00010890       ??_C@_0BF@EDBP@sw_surfcacheoverride?$AA@ 0047f890     r_main.obj
 0003:000108a8       ??_C@_0BB@NGIF@sw_reportsurfout?$AA@ 0047f8a8     r_main.obj
 0003:000108bc       ??_C@_0BB@FKBD@sw_reportedgeout?$AA@ 0047f8bc     r_main.obj
 0003:000108d0       ??_C@_0M@NFOG@sw_mipscale?$AA@ 0047f8d0     r_main.obj
 0003:000108dc       ??_C@_09IPAG@sw_mipcap?$AA@ 0047f8dc     r_main.obj
 0003:000108e8       ??_C@_0M@JPNF@sw_maxsurfs?$AA@ 0047f8e8     r_main.obj
 0003:000108f4       ??_C@_0N@HONO@sw_draworder?$AA@ 0047f8f4     r_main.obj
 0003:00010904       ??_C@_0M@LNJC@sw_drawflat?$AA@ 0047f904     r_main.obj
 0003:00010910       ??_C@_0O@PHMK@sw_clearcolor?$AA@ 0047f910     r_main.obj
 0003:00010920       ??_C@_0P@FFBA@sw_allow_modex?$AA@ 0047f920     r_main.obj
 0003:00010930       ??_C@_0BC@BCOK@sw_polymodelstats?$AA@ 0047f930     r_main.obj
 0003:00010944       ??_C@_0M@CNPF@sw_maxedges?$AA@ 0047f944     r_main.obj
 0003:00010950       ??_C@_0BN@EDC@ref_soft?5version?3?5SOFT?50?401?6?$AA@ 0047f950     r_main.obj
 0003:00010970       ??_C@_0BI@HODH@Short?5roughly?5?$CFd?5edges?6?$AA@ 0047f970     r_main.obj
 0003:00010988       ??_C@_0BD@EAMI@Short?5?$CFd?5surfaces?6?$AA@ 0047f988     r_main.obj
 0003:0001099c       ??_C@_0BO@BODI@R_RenderView?3?5NULL?5worldmodel?$AA@ 0047f99c     r_main.obj
 0003:000109bc       ??_C@_0DN@JKMP@ref_soft?3?3R_BeginFrame?$CI?$CJ?5?9?5catas@ 0047f9bc     r_main.obj
 0003:000109fc       ??_C@_0EA@DNHK@ref_soft?3?3R_BeginFrame?$CI?$CJ?5?9?5fulls@ 0047f9fc     r_main.obj
 0003:00010a3c       ??_C@_0CP@KDLA@ref_soft?3?3R_BeginFrame?$CI?$CJ?5?9?5could@ 0047fa3c     r_main.obj
 0003:00010a6c       ??_C@_0BA@OINA@sw_console_only?$AA@ 0047fa6c     r_main.obj
 0003:00010a88       ??_C@_0CB@JALA@?$CF5i?5ms?5?$CF3i?1?$CF3i?1?$CF3i?5poly?5?$CF3i?5surf@ 0047fa88     r_misc.obj
 0003:00010aac       ??_C@_0CC@GKJG@?$CF3i?5?$CF2ip?5?$CF2iw?5?$CF2ib?5?$CF2is?5?$CF2ie?5?$CF2i@ 0047faac     r_misc.obj
 0003:00010ad0       ??_C@_0BJ@JNHJ@?$CF3i?5polygon?5model?5drawn?6?$AA@ 0047fad0     r_misc.obj
 0003:00010aec       ??_C@_0BG@ENI@Failed?5to?5open?5to?5?$CFs?6?$AA@ 0047faec     r_misc.obj
 0003:00010b04       ??_C@_0BM@CPFJ@?$CFs?1screenshots?1shot?$CF04d?4pcx?$AA@ 0047fb04     r_misc.obj
 0003:00010b20       ??_C@_0CP@JLGC@WARNING?3?5unsupported?5?$CCsmall?$CC?5and@ 0047fb20     r_misc.obj
 0003:00010b50       ??_C@_09EHLB@?$CF8i?5?3?5?$CFs?6?$AA@ 0047fb50     r_model.obj
 0003:00010b5c       ??_C@_0BA@GMNB@Loaded?5models?3?6?$AA@ 0047fb5c     r_model.obj
 0003:00010b6c       ??_C@_0CG@HPCL@Mod_NumForName?3?5unknown?5fileid?5f@ 0047fb6c     r_model.obj
 0003:00010b94       ??_C@_0BN@DJML@Mod_NumForName?3?5?$CFs?5not?5found?$AA@ 0047fb94     r_model.obj
 0003:00010bb4       ??_C@_0CG@CJM@Internal?5error?5while?5loadinf?5BSP@ 0047fbb4     r_model.obj
 0003:00010bdc       ??_C@_0BO@PLCA@mod_numknown?5?$DN?$DN?5MAX_MOD_KNOWN?$AA@ 0047fbdc     r_model.obj
 0003:00010bfc       ??_C@_0BI@DAMF@bad?5inline?5model?5number?$AA@ 0047fbfc     r_model.obj
 0003:00010c14       ??_C@_0BH@LKJJ@Mod_ForName?3?5NULL?5name?$AA@ 0047fc14     r_model.obj
 0003:00010c2c       ??_C@_0BL@HBDH@Mod_PointInLeaf?3?5bad?5model?$AA@ 0047fc2c     r_model.obj
 0003:00010c48       ??_C@_0BN@MMMH@Bad?5surface?5extents?3?5?$CFd?5x?5?$CFd?$AA@ 0047fc48     r_model.obj
 0003:00010c68       ??_C@_0CD@COFD@MOD_LoadBmodel?3?5bad?5texinfo?5numb@ 0047fc68     r_model.obj
 0003:00010c8c       ??_C@_0BG@JLIP@Surface?5with?5?$CFs?5edges?$AA@ 0047fc8c     r_model.obj
 0003:00010ca4       ??_C@_0CK@NMOI@Mod_ParseMarksurfaces?3?5bad?5surfa@ 0047fca4     r_model.obj
 0003:00010cd0       ??_C@_0CC@NIFN@Inline?5model?5?$CFi?5has?5bad?5firstnod@ 0047fcd0     r_model.obj
 0003:00010cf4       ??_C@_0CF@GBO@Loaded?5a?5brush?5model?5after?5the?5w@ 0047fcf4     r_model.obj
 0003:00010d1c       ??_C@_0BH@IMJD@model?5?$CFs?5has?5no?5frames?$AA@ 0047fd1c     r_model.obj
 0003:00010d34       ??_C@_0BK@EBGJ@model?5?$CFs?5has?5no?5triangles?$AA@ 0047fd34     r_model.obj
 0003:00010d50       ??_C@_0BM@MLIA@model?5?$CFs?5has?5no?5st?5vertices?$AA@ 0047fd50     r_model.obj
 0003:00010d6c       ??_C@_0BP@KFMM@model?5?$CFs?5has?5too?5many?5vertices?$AA@ 0047fd6c     r_model.obj
 0003:00010d8c       ??_C@_0BJ@BMCG@model?5?$CFs?5has?5no?5vertices?$AA@ 0047fd8c     r_model.obj
 0003:00010da8       ??_C@_0CD@DNIE@model?5?$CFs?5has?5a?5skin?5taller?5than?5@ 0047fda8     r_model.obj
 0003:00010dcc       ??_C@_0CO@LDOK@?$CFs?5has?5wrong?5version?5number?5?$CI?$CFi?5@ 0047fdcc     r_model.obj
 0003:00010dfc       ??_C@_0CB@KANI@?$CFs?5has?5too?5many?5frames?5?$CI?$CFi?5?$DO?5?$CFi?$CJ@ 0047fdfc     r_model.obj
 0003:00010e20       ??_C@_0CH@DCLE@R_ClipAndDrawPoly?3?5too?5many?5poin@ 0047fe20     r_poly.obj
 0003:00010e48       _rand1k                    0047fe48     r_polyse.obj
 0003:00011e48       _edgetables                00480e48     r_polyse.obj
 0003:00011ff8       _irtable                   00480ff8     r_polyse.obj
 0003:000120f8       _skybox_planes             004810f8     r_rast.obj
 0003:00012128       _box_surfedges             00481128     r_rast.obj
 0003:00012188       _box_edges                 00481188     r_rast.obj
 0003:000121e8       _box_faces                 004811e8     r_rast.obj
 0003:00012200       _box_vecs                  00481200     r_rast.obj
 0003:00012290       _box_verts                 00481290     r_rast.obj
 0003:000122f0       ??_C@_0BJ@GDFM@InitSkyBox?3?5map?5overflow?$AA@ 004812f0     r_rast.obj
 0003:0001231c       ??_C@_0BD@KA@?$CFik?5surface?5cache?6?$AA@ 0048131c     r_surf.obj
 0003:00012330       ??_C@_0CB@BKBM@D_SCAlloc?3?5hit?5the?5end?5of?5memory@ 00481330     r_surf.obj
 0003:00012354       ??_C@_0CB@GMCK@D_SCAlloc?3?5?$CFi?5?$DO?5cache?5size?5of?5?$CFi@ 00481354     r_surf.obj
 0003:00012378       ??_C@_0BO@CAOH@D_SCAlloc?3?5bad?5cache?5size?5?$CFd?6?$AA@ 00481378     r_surf.obj
 0003:00012398       ??_C@_0BP@BJDK@D_SCAlloc?3?5bad?5cache?5width?5?$CFd?6?$AA@ 00481398     r_surf.obj
 0003:00012688       ??_C@_06FPNF@XALIGN?$AA@   00481688     rw_ddraw.obj
 0003:00012690       ??_C@_09BJFO@WRONGMODE?$AA@ 00481690     rw_ddraw.obj
 0003:0001269c       ??_C@_0BA@BPBA@WASSTILLDRAWING?$AA@ 0048169c     rw_ddraw.obj
 0003:000126ac       ??_C@_0BI@KMIK@VERTICALBLANKINPROGRESS?$AA@ 004816ac     rw_ddraw.obj
 0003:000126c4       ??_C@_0BA@LEEK@UNSUPPORTEDMASK?$AA@ 004816c4     rw_ddraw.obj
 0003:000126d4       ??_C@_0BC@FJLH@UNSUPPORTEDFORMAT?$AA@ 004816d4     rw_ddraw.obj
 0003:000126e8       ??_C@_0M@KMCG@UNSUPPORTED?$AA@ 004816e8     rw_ddraw.obj
 0003:000126f4       ??_C@_0M@DNBN@TOOBIGWIDTH?$AA@ 004816f4     rw_ddraw.obj
 0003:00012700       ??_C@_0L@FLAN@TOOBIGSIZE?$AA@ 00481700     rw_ddraw.obj
 0003:0001270c       ??_C@_0N@BNNG@TOOBIGHEIGHT?$AA@ 0048170c     rw_ddraw.obj
 0003:0001271c       ??_C@_0BD@GPOD@SURFACENOTATTACHED?$AA@ 0048171c     rw_ddraw.obj
 0003:00012730       ??_C@_0M@GIHG@SURFACELOST?$AA@ 00481730     rw_ddraw.obj
 0003:0001273c       ??_C@_0BC@ONJA@SURFACEISOBSCURED?$AA@ 0048173c     rw_ddraw.obj
 0003:00012750       ??_C@_0M@NMIL@SURFACEBUSY?$AA@ 00481750     rw_ddraw.obj
 0003:0001275c       ??_C@_0BI@FJPA@SURFACEALREADYDEPENDENT?$AA@ 0048175c     rw_ddraw.obj
 0003:00012774       ??_C@_0BH@CGKG@SURFACEALREADYATTACHED?$AA@ 00481774     rw_ddraw.obj
 0003:0001278c       ??_C@_0P@CEFM@REGIONTOOSMALL?$AA@ 0048178c     rw_ddraw.obj
 0003:0001279c       ??_C@_0BM@GBBL@PRIMARYSURFACEALREADYEXISTS?$AA@ 0048179c     rw_ddraw.obj
 0003:000127b8       ??_C@_0M@IMMN@PALETTEBUSY?$AA@ 004817b8     rw_ddraw.obj
 0003:000127c4       ??_C@_0BC@IJAK@OVERLAYNOTVISIBLE?$AA@ 004817c4     rw_ddraw.obj
 0003:000127d8       ??_C@_0BN@MEFO@OVERLAYCOLORKEYONLYONEACTIVE?$AA@ 004817d8     rw_ddraw.obj
 0003:000127f8       ??_C@_0BA@FMGI@OVERLAYCANTCLIP?$AA@ 004817f8     rw_ddraw.obj
 0003:00012808       ??_C@_0BB@PBCC@OUTOFVIDEOMEMORY?$AA@ 00481808     rw_ddraw.obj
 0003:0001281c       ??_C@_0M@MEID@OUTOFMEMORY?$AA@ 0048181c     rw_ddraw.obj
 0003:00012828       ??_C@_09ODCH@OUTOFCAPS?$AA@ 00481828     rw_ddraw.obj
 0003:00012834       ??_C@_0N@HBIL@NOZOVERLAYHW?$AA@ 00481834     rw_ddraw.obj
 0003:00012844       ??_C@_0M@LEKE@NOZBUFFERHW?$AA@ 00481844     rw_ddraw.obj
 0003:00012850       ??_C@_09KGIE@NOVSYNCHW?$AA@ 00481850     rw_ddraw.obj
 0003:0001285c       ??_C@_0O@EICE@NOTPALETTIZED?$AA@ 0048185c     rw_ddraw.obj
 0003:0001286c       ??_C@_09IDOE@NOTLOCKED?$AA@ 0048186c     rw_ddraw.obj
 0003:00012878       ??_C@_08BCKO@NOTFOUND?$AA@ 00481878     rw_ddraw.obj
 0003:00012884       ??_C@_0N@CLJM@NOTFLIPPABLE?$AA@ 00481884     rw_ddraw.obj
 0003:00012894       ??_C@_0M@JABO@NOTEXTUREHW?$AA@ 00481894     rw_ddraw.obj
 0003:000128a0       ??_C@_0BD@GFNM@NOTAOVERLAYSURFACE?$AA@ 004818a0     rw_ddraw.obj
 0003:000128b4       ??_C@_0N@EABM@NOT8BITCOLOR?$AA@ 004818b4     rw_ddraw.obj
 0003:000128c4       ??_C@_0BC@JCLP@NOT4BITCOLORINDEX?$AA@ 004818c4     rw_ddraw.obj
 0003:000128d8       ??_C@_0N@FLHN@NOT4BITCOLOR?$AA@ 004818d8     rw_ddraw.obj
 0003:000128e8       ??_C@_0M@KJKK@NOSTRETCHHW?$AA@ 004818e8     rw_ddraw.obj
 0003:000128f4       ??_C@_0N@BCJF@NOROTATIONHW?$AA@ 004818f4     rw_ddraw.obj
 0003:00012904       ??_C@_0N@HJCO@NORASTEROPHW?$AA@ 00481904     rw_ddraw.obj
 0003:00012914       ??_C@_0M@FKOD@NOPALETTEHW?$AA@ 00481914     rw_ddraw.obj
 0003:00012920       ??_C@_0BC@HNLP@NOPALETTEATTACHED?$AA@ 00481920     rw_ddraw.obj
 0003:00012934       ??_C@_0M@KOGD@NOOVERLAYHW?$AA@ 00481934     rw_ddraw.obj
 0003:00012940       ??_C@_0O@BCHD@NOOVERLAYDEST?$AA@ 00481940     rw_ddraw.obj
 0003:00012950       ??_C@_0L@CMEI@NOMIRRORHW?$AA@ 00481950     rw_ddraw.obj
 0003:0001295c       ??_C@_06NDGK@NOHWND?$AA@   0048195c     rw_ddraw.obj
 0003:00012964       ??_C@_05NMCB@NOGDI?$AA@    00481964     rw_ddraw.obj
 0003:0001296c       ??_C@_08MGBK@NOFLIPHW?$AA@ 0048196c     rw_ddraw.obj
 0003:00012978       ??_C@_0BA@GJHD@NOEXCLUSIVEMODE?$AA@ 00481978     rw_ddraw.obj
 0003:00012988       ??_C@_0M@JDAE@NOEMULATION?$AA@ 00481988     rw_ddraw.obj
 0003:00012994       ??_C@_0P@FGNI@NODIRECTDRAWHW?$AA@ 00481994     rw_ddraw.obj
 0003:000129a4       ??_C@_0L@DBKK@NODDROPSHW?$AA@ 004819a4     rw_ddraw.obj
 0003:000129b0       ??_C@_04KAPB@NODC?$AA@     004819b0     rw_ddraw.obj
 0003:000129b8       ??_C@_0BG@GJON@NOCOOPERATIVELEVELSET?$AA@ 004819b8     rw_ddraw.obj
 0003:000129d0       ??_C@_0N@PDIL@NOCOLORKEYHW?$AA@ 004819d0     rw_ddraw.obj
 0003:000129e0       ??_C@_0L@ONFG@NOCOLORKEY?$AA@ 004819e0     rw_ddraw.obj
 0003:000129ec       ??_C@_0O@KFFI@NOCOLORCONVHW?$AA@ 004819ec     rw_ddraw.obj
 0003:000129fc       ??_C@_0BC@JBFE@NOCLIPPERATTACHED?$AA@ 004819fc     rw_ddraw.obj
 0003:00012a10       ??_C@_0L@HDBI@NOCLIPLIST?$AA@ 00481a10     rw_ddraw.obj
 0003:00012a1c       ??_C@_07BDKN@NOBLTHW?$AA@  00481a1c     rw_ddraw.obj
 0003:00012a24       ??_C@_09EDJL@NOALPHAHW?$AA@ 00481a24     rw_ddraw.obj
 0003:00012a30       ??_C@_04IBBP@NO3D?$AA@     00481a30     rw_ddraw.obj
 0003:00012a38       ??_C@_0P@GAJF@LOCKEDSURFACES?$AA@ 00481a38     rw_ddraw.obj
 0003:00012a48       ??_C@_0M@JKBE@INVALIDRECT?$AA@ 00481a48     rw_ddraw.obj
 0003:00012a54       ??_C@_0BA@MEEC@INVALIDPOSITION?$AA@ 00481a54     rw_ddraw.obj
 0003:00012a64       ??_C@_0BD@MKGD@INVALIDPIXELFORMAT?$AA@ 00481a64     rw_ddraw.obj
 0003:00012a78       ??_C@_0O@MABJ@INVALIDPARAMS?$AA@ 00481a78     rw_ddraw.obj
 0003:00012a88       ??_C@_0O@JPLA@INVALIDOBJECT?$AA@ 00481a88     rw_ddraw.obj
 0003:00012a98       ??_C@_0M@EJDB@INVALIDMODE?$AA@ 00481a98     rw_ddraw.obj
 0003:00012aa4       ??_C@_0BG@LMC@INVALIDDIRECTDRAWGUID?$AA@ 00481aa4     rw_ddraw.obj
 0003:00012abc       ??_C@_0BA@MAHP@INVALIDCLIPLIST?$AA@ 00481abc     rw_ddraw.obj
 0003:00012acc       ??_C@_0M@KGIO@INVALIDCAPS?$AA@ 00481acc     rw_ddraw.obj
 0003:00012ad8       ??_C@_0BE@DEGD@INCOMPATIBLEPRIMARY?$AA@ 00481ad8     rw_ddraw.obj
 0003:00012aec       ??_C@_0BC@GIIF@IMPLICITLYCREATED?$AA@ 00481aec     rw_ddraw.obj
 0003:00012b00       ??_C@_0P@NOGE@HWNDSUBCLASSED?$AA@ 00481b00     rw_ddraw.obj
 0003:00012b10       ??_C@_0P@CLAO@HWNDALREADYSET?$AA@ 00481b10     rw_ddraw.obj
 0003:00012b20       ??_C@_0M@HDCI@HEIGHTALIGN?$AA@ 00481b20     rw_ddraw.obj
 0003:00012b2c       ??_C@_07LIFI@GENERIC?$AA@  00481b2c     rw_ddraw.obj
 0003:00012b34       ??_C@_0BI@COMA@EXCLUSIVEMODEALREADYSET?$AA@ 00481b34     rw_ddraw.obj
 0003:00012b4c       ??_C@_09EEOO@EXCEPTION?$AA@ 00481b4c     rw_ddraw.obj
 0003:00012b58       ??_C@_0BJ@HLBN@DIRECTDRAWALREADYCREATED?$AA@ 00481b58     rw_ddraw.obj
 0003:00012b74       ??_C@_0BC@LMJO@CURRENTLYNOTAVAIL?$AA@ 00481b74     rw_ddraw.obj
 0003:00012b88       ??_C@_0P@KEEJ@COLORKEYNOTSET?$AA@ 00481b88     rw_ddraw.obj
 0003:00012b98       ??_C@_0BD@EGIP@CLIPPERISUSINGHWND?$AA@ 00481b98     rw_ddraw.obj
 0003:00012bac       ??_C@_0O@NKOE@CANTDUPLICATE?$AA@ 00481bac     rw_ddraw.obj
 0003:00012bbc       ??_C@_0N@PFKM@CANTCREATEDC?$AA@ 00481bbc     rw_ddraw.obj
 0003:00012bcc       ??_C@_0BE@LHGP@CANNOTDETACHSURFACE?$AA@ 00481bcc     rw_ddraw.obj
 0003:00012be0       ??_C@_0BE@BAPH@CANNOTATTACHSURFACE?$AA@ 00481be0     rw_ddraw.obj
 0003:00012bf4       ??_C@_0BA@MGIC@BLTFASTCANTCLIP?$AA@ 00481bf4     rw_ddraw.obj
 0003:00012c04       ??_C@_0BD@KCIJ@ALREADYINITIALIZED?$AA@ 00481c04     rw_ddraw.obj
 0003:00012c18       ??_C@_0BM@JAMP@?$CK?$CK?$CK?5DDraw?5init?5failure?5?$CK?$CK?$CK?6?$AA@ 00481c18     rw_ddraw.obj
 0003:00012c34       ??_C@_0N@GNNP@failed?5?9?5?$CFs?6?$AA@ 00481c34     rw_ddraw.obj
 0003:00012c44       ??_C@_0BI@EPPJ@?4?4?4locking?5backbuffer?3?5?$AA@ 00481c44     rw_ddraw.obj
 0003:00012c5c       ??_C@_0BF@DIGP@?4?4?4setting?5palette?3?5?$AA@ 00481c5c     rw_ddraw.obj
 0003:00012c74       ??_C@_0BG@FFAP@?4?4?4creating?5palette?3?5?$AA@ 00481c74     rw_ddraw.obj
 0003:00012c8c       ??_C@_0BP@GCNA@?4?4?4creating?5offscreen?5buffer?3?5?$AA@ 00481c8c     rw_ddraw.obj
 0003:00012cac       ??_C@_0BK@PPB@?4?4?4creating?5back?5buffer?3?5?$AA@ 00481cac     rw_ddraw.obj
 0003:00012cc8       ??_C@_0BA@NBMC@?4?4?4using?5ModeX?6?$AA@ 00481cc8     rw_ddraw.obj
 0003:00012cd8       ??_C@_0BL@GGCL@?4?4?4creating?5front?5buffer?3?5?$AA@ 00481cd8     rw_ddraw.obj
 0003:00012cf4       ??_C@_0BB@NJCC@failed?5SDM?5?9?5?$CFs?6?$AA@ 00481cf4     rw_ddraw.obj
 0003:00012d08       ??_C@_0BB@PHO@failed?5SCL?5?9?5?$CFs?6?$AA@ 00481d08     rw_ddraw.obj
 0003:00012d1c       ??_C@_0BO@GIBD@?4?4?4attempting?5ModeX?5320x240?3?5?$AA@ 00481d1c     rw_ddraw.obj
 0003:00012d3c       ??_C@_0BJ@BCKD@?4?4?4setting?5linear?5mode?3?5?$AA@ 00481d3c     rw_ddraw.obj
 0003:00012d58       ??_C@_0BJ@JNCD@?4?4?4finding?5display?5mode?6?$AA@ 00481d58     rw_ddraw.obj
 0003:00012d74       ??_C@_0BM@DIJJ@?4?4?4setting?5exclusive?5mode?3?5?$AA@ 00481d74     rw_ddraw.obj
 0003:00012d90       ??_C@_0CA@CJOD@?4?4?4creating?5DirectDraw?5object?3?5?$AA@ 00481d90     rw_ddraw.obj
 0003:00012db0       ??_C@_0CC@MPEL@?$CK?$CK?$CK?5DirectDrawCreate?5?$DN?$DN?5NULL?5?$CK?$CK?$CK@ 00481db0     rw_ddraw.obj
 0003:00012dd4       ??_C@_0BB@DLNE@DirectDrawCreate?$AA@ 00481dd4     rw_ddraw.obj
 0003:00012de8       ??_C@_09FAGE@ddraw?4dll?$AA@ 00481de8     rw_ddraw.obj
 0003:00012df4       ??_C@_0BH@DAFL@?4?4?4loading?5DDRAW?4DLL?3?5?$AA@ 00481df4     rw_ddraw.obj
 0003:00012e0c       ??_C@_0BJ@GHJP@Initializing?5DirectDraw?6?$AA@ 00481e0c     rw_ddraw.obj
 0003:00012e28       ??_C@_0CI@CJGI@DDRAW_SetPalette?$CI?$CJ?5?9?5SetEntries?5@ 00481e28     rw_ddraw.obj
 0003:00012e50       ??_C@_0BE@OCDE@?4?4?4freeing?5library?6?$AA@ 00481e50     rw_ddraw.obj
 0003:00012e64       ??_C@_0BL@EHCI@?4?4?4releasing?5lpDirectDraw?6?$AA@ 00481e64     rw_ddraw.obj
 0003:00012e80       ??_C@_0BP@CAFM@?4?4?4restoring?5normal?5coop?5mode?6?$AA@ 00481e80     rw_ddraw.obj
 0003:00012ea0       ??_C@_0BL@JDPN@?4?4?4restoring?5display?5mode?6?$AA@ 00481ea0     rw_ddraw.obj
 0003:00012ebc       ??_C@_0BG@HNDB@?4?4?4releasing?5palette?6?$AA@ 00481ebc     rw_ddraw.obj
 0003:00012ed4       ??_C@_0BL@PFHH@?4?4?4releasing?5front?5buffer?6?$AA@ 00481ed4     rw_ddraw.obj
 0003:00012ef0       ??_C@_0BK@LNCO@?4?4?4releasing?5back?5buffer?6?$AA@ 00481ef0     rw_ddraw.obj
 0003:00012f0c       ??_C@_0BP@JHKG@?4?4?4releasing?5offscreen?5buffer?6?$AA@ 00481f0c     rw_ddraw.obj
 0003:00012f2c       ??_C@_08CNOM@DDERR_?$CFs?$AA@ 00481f2c     rw_ddraw.obj
 0003:00012f38       ??_C@_0N@DILD@DDERR_UNK_?$CFd?$AA@ 00481f38     rw_ddraw.obj
 0003:00012f48       ??_C@_05LCHN@DD_OK?$AA@    00481f48     rw_ddraw.obj
 0003:00012f9c       ??_C@_0CC@OGFK@DIB_Init?$CI?$CJ?5?9?5SelectObject?5failed@ 00481f9c     rw_dib.obj
 0003:00012fc0       ??_C@_0CI@HKEP@DIB_Init?$CI?$CJ?5?9?5CreateCompatibleDC?5@ 00481fc0     rw_dib.obj
 0003:00012fe8       ??_C@_0CG@HOO@DIB_Init?$CI?$CJ?5?9?5CreateDIBSection?5fa@ 00481fe8     rw_dib.obj
 0003:00013010       ??_C@_0DC@KOKG@DIB_SetPalette?$CI?$CJ?5?9?5RealizePalett@ 00482010     rw_dib.obj
 0003:00013044       ??_C@_0CN@DKPL@DIB_SetPalette?$CI?$CJ?5?9?5SelectPalette@ 00482044     rw_dib.obj
 0003:00013074       ??_C@_0CN@BPOH@DIB_SetPalette?$CI?$CJ?5?9?5CreatePalette@ 00482074     rw_dib.obj
 0003:000130a4       ??_C@_0DB@OABP@DIB_SetPalette?$CI?$CJ?5?9?5SetSystemPale@ 004820a4     rw_dib.obj
 0003:000130d8       ??_C@_0CM@FFNI@DIB_SetPalette?$CI?$CJ?5?9?5SetDIBColorTa@ 004820d8     rw_dib.obj
 0003:00013104       ??_C@_0BB@CIOD@setting?5mode?5?$CFd?3?$AA@ 00482104     rw_imp.obj
 0003:00013118       ??_C@_0BG@NDB@Shutting?5down?5SW?5imp?6?$AA@ 00482118     rw_imp.obj
 0003:00013130       ??_C@_0BK@BNJN@invalid?5bit?5length?5repeat?$AA@ 00482130     infblock.obj
 0003:0001314c       ??_C@_0CE@LAKP@too?5many?5length?5or?5distance?5symb@ 0048214c     infblock.obj
 0003:00013170       ??_C@_0BN@DBOJ@invalid?5stored?5block?5lengths?$AA@ 00482170     infblock.obj
 0003:00013190       ??_C@_0BD@IFBC@invalid?5block?5type?$AA@ 00482190     infblock.obj
 0003:000131a4       ??_C@_0BG@EGK@invalid?5distance?5code?$AA@ 004821a4     infcodes.obj
 0003:000131bc       ??_C@_0BM@CHJP@invalid?5literal?1length?5code?$AA@ 004821bc     infcodes.obj
 0003:000131d8       ??_C@_05NLJN@1?41?43?$AA@  004821d8     inflate.obj
 0003:000131e0       ??_C@_0BA@FKCH@need?5dictionary?$AA@ 004821e0     inflate.obj
 0003:000131f0       ??_C@_0BF@OBFI@incorrect?5data?5check?$AA@ 004821f0     inflate.obj
 0003:00013208       ??_C@_0BH@NLIB@incorrect?5header?5check?$AA@ 00482208     inflate.obj
 0003:00013220       ??_C@_0BE@FAJE@invalid?5window?5size?$AA@ 00482220     inflate.obj
 0003:00013234       ??_C@_0BL@KPEJ@unknown?5compression?5method?$AA@ 00482234     inflate.obj
 0003:00014358       ??_C@_0CE@MFNM@incomplete?5dynamic?5bit?5lengths?5t@ 00483358     inftrees.obj
 0003:0001437c       ??_C@_0CI@BBGL@oversubscribed?5dynamic?5bit?5lengt@ 0048337c     inftrees.obj
 0003:000143a4       ??_C@_0BP@KPP@incomplete?5literal?1length?5tree?$AA@ 004833a4     inftrees.obj
 0003:000143c4       ??_C@_0CD@ODII@oversubscribed?5literal?1length?5tr@ 004833c4     inftrees.obj
 0003:000143e8       ??_C@_0CB@INA@empty?5distance?5tree?5with?5lengths@ 004833e8     inftrees.obj
 0003:0001440c       ??_C@_0BJ@NKOC@incomplete?5distance?5tree?$AA@ 0048340c     inftrees.obj
 0003:00014428       ??_C@_0BN@OAAG@oversubscribed?5distance?5tree?$AA@ 00483428     inftrees.obj
 0003:00014448       _inflate_mask              00483448     infutil.obj
 0003:0001448c       _z_errmsg                  0048348c     zutil.obj
 0003:000144b4       ??_C@_0BF@HPBB@incompatible?5version?$AA@ 004834b4     zutil.obj
 0003:000144cc       ??_C@_0N@EHHN@buffer?5error?$AA@ 004834cc     zutil.obj
 0003:000144dc       ??_C@_0BE@EMHE@insufficient?5memory?$AA@ 004834dc     zutil.obj
 0003:000144f0       ??_C@_0L@EBEB@data?5error?$AA@ 004834f0     zutil.obj
 0003:000144fc       ??_C@_0N@OPOA@stream?5error?$AA@ 004834fc     zutil.obj
 0003:0001450c       ??_C@_0L@DFEP@file?5error?$AA@ 0048350c     zutil.obj
 0003:00014518       ??_C@_0L@JPFB@stream?5end?$AA@ 00483518     zutil.obj
 0003:00014524       ??_C@_05HLOL@?$CFld?$CFc?$AA@ 00483524     jmemmgr.obj
 0003:0001452c       ??_C@_07CBHP@JPEGMEM?$AA@  0048352c     jmemmgr.obj
 0003:00014534       _zresource_start           00483534     resources.obj
 0003:00014e76       _zresource_end             00483e76     resources.obj
 0003:00014e80       ___defaultmatherr          00483e80     MSVCRT:merr.obj
 0003:0001723c       ??_C@_00A@?$AA@            0048623c     cl_inv.obj
 0003:0002dba4       _debugLogged               0049cba4     common.obj
 0003:000326dc       _chat_bufferlen            004a16dc     keys.obj
 0003:00064648       _pm_airaccelerate          004d3648     pmove.obj
 0003:000652dc       _vec3_origin               004d42dc     q_shared2.obj
 0003:000652f4       _snd_initialized           004d42f4     snd_dma.obj
 0003:000652f8       _sound_started             004d42f8     snd_dma.obj
 0003:00206fc4       _rand1k_index              00675fc4     r_polyse.obj
 0003:00206fc8       _iractive                  00675fc8     r_polyse.obj
 0003:0020a02c       __dowildcard               0067902c     MSVCRT:wildcard.obj
 0003:0020a030       __newmode                  00679030     MSVCRT:_newmode.obj
 0003:0020a034       __commode                  00679034     MSVCRT:xncommod.obj
 0003:0020a038       __fmode                    00679038     MSVCRT:xtxtmode.obj
 0003:0020a040       _sww_state                 00679040     <common>
 0003:0020a0d0       _r_numhblocks              006790d0     <common>
 0003:0020a0d4       _prowdestbase              006790d4     <common>
 0003:0020a0d8       _surfscale                 006790d8     <common>
 0003:0020a0dc       _lightleft                 006790dc     <common>
 0003:0020a0e0       _r_source                  006790e0     <common>
 0003:0020a0e4       _r_sourcemax               006790e4     <common>
 0003:0020a0e8       _sc_base                   006790e8     <common>
 0003:0020a0ec       _blocksize                 006790ec     <common>
 0003:0020a0f0       _lightright                006790f0     <common>
 0003:0020a0f4       _r_numvblocks              006790f4     <common>
 0003:0020a100       _r_drawsurf                00679100     <common>
 0003:0020a12c       _blockdivshift             0067912c     <common>
 0003:0020a130       _sc_size                   00679130     <common>
 0003:0020a134       _r_cache_thrash            00679134     <common>
 0003:0020a138       _lightleftstep             00679138     <common>
 0003:0020a13c       _sourcetstep               0067913c     <common>
 0003:0020a140       _lightrightstep            00679140     <common>
 0003:0020a144       _r_lightptr                00679144     <common>
 0003:0020a148       _sc_rover                  00679148     <common>
 0003:0020a14c       _r_lightwidth              0067914c     <common>
 0003:0020a150       _pbasesource               00679150     <common>
 0003:0020a154       _surfrowbytes              00679154     <common>
 0003:0020a158       _r_stepback                00679158     <common>
 0003:0020a15c       _blockdivmask              0067915c     <common>
 0003:0020a160       _r_turb_pbase              00679160     <common>
 0003:0020a164       _r_turb_turb               00679164     <common>
 0003:0020a168       _r_turb_s                  00679168     <common>
 0003:0020a16c       _r_turb_t                  0067916c     <common>
 0003:0020a170       _r_turb_tstep              00679170     <common>
 0003:0020a174       _r_turb_spancount          00679174     <common>
 0003:0020a178       _r_turb_sstep              00679178     <common>
 0003:0020a17c       _r_turb_pdest              0067917c     <common>
 0003:0020a180       _c_faceclip                00679180     <common>
 0003:0020a1a0       _r_skyplanes               006791a0     <common>
 0003:0020a220       _r_rightenter              00679220     <common>
 0003:0020a230       _r_rightexit               00679230     <common>
 0003:0020a23c       _r_leftclipped             0067923c     <common>
 0003:0020a240       _r_pedge                   00679240     <common>
 0003:0020a244       _r_ceilv1                  00679244     <common>
 0003:0020a248       _r_emitted                 00679248     <common>
 0003:0020a24c       _r_skysurfedges            0067924c     <common>
 0003:0020a250       _r_leftenter               00679250     <common>
 0003:0020a260       _sintable                  00679260     <common>
 0003:0020b660       _intsintable               0067a660     <common>
 0003:0020ca60       _view_clipplanes           0067ba60     <common>
 0003:0020cac0       _r_u1                      0067bac0     <common>
 0003:0020cac4       _r_v1                      0067bac4     <common>
 0003:0020cac8       _r_lastvertvalid           0067bac8     <common>
 0003:0020cae0       _r_skytexinfo              0067bae0     <common>
 0003:0020cc18       _r_rightclipped            0067bc18     <common>
 0003:0020cc1c       _r_skyverts                0067bc1c     <common>
 0003:0020cc20       _r_leftexit                0067bc20     <common>
 0003:0020cc2c       _r_skyfaces                0067bc2c     <common>
 0003:0020cc30       _r_skyframe                0067bc30     <common>
 0003:0020cc34       _r_nearzionly              0067bc34     <common>
 0003:0020cc38       _r_lzi1                    0067bc38     <common>
 0003:0020cc40       _blanktable                0067bc40     <common>
 0003:0020e040       _r_nearzi                  0067d040     <common>
 0003:0020e044       _cacheoffset               0067d044     <common>
 0003:0020e048       _r_skyedges                0067d048     <common>
 0003:0020e04c       _d_light                   0067d04c     <common>
 0003:0020e050       _d_xdenom                  0067d050     <common>
 0003:0020e054       _r_sstepx                  0067d054     <common>
 0003:0020e058       _r_sstepy                  0067d058     <common>
 0003:0020e05c       _pedgetable                0067d05c     <common>
 0003:0020e060       _d_zibasestep              0067d060     <common>
 0003:0020e064       _r_tstepx                  0067d064     <common>
 0003:0020e068       _r_tstepy                  0067d068     <common>
 0003:0020e06c       _d_tfracextrastep          0067d06c     <common>
 0003:0020e070       _d_tfrac                   0067d070     <common>
 0003:0020e074       _d_pedgespanpackage        0067d074     <common>
 0003:0020e080       _aliastriangleparms        0067d080     <common>
 0003:0020e08c       _skinwidth                 0067d08c     <common>
 0003:0020e090       _d_ziextrastep             0067d090     <common>
 0003:0020e094       _d_tfracbasestep           0067d094     <common>
 0003:0020e098       _d_aflatcolor              0067d098     <common>
 0003:0020e09c       _a_spans                   0067d09c     <common>
 0003:0020e0a0       _d_ptexextrastep           0067d0a0     <common>
 0003:0020e0a4       _a_tstepxfrac              0067d0a4     <common>
 0003:0020e0a8       _d_aspancount              0067d0a8     <common>
 0003:0020e0ac       _r_zistepy                 0067d0ac     <common>
 0003:0020e0b0       _r_zistepx                 0067d0b0     <common>
 0003:0020e0b4       _d_pdestextrastep          0067d0b4     <common>
 0003:0020e0b8       _d_pzbasestep              0067d0b8     <common>
 0003:0020e0c0       _r_p0                      0067d0c0     <common>
 0003:0020e0e0       _r_p1                      0067d0e0     <common>
 0003:0020e100       _r_p2                      0067d100     <common>
 0003:0020e118       _d_lightbasestep           0067d118     <common>
 0003:0020e11c       _d_pdrawspans              0067d11c     <common>
 0003:0020e120       _skintable                 0067d120     <common>
 0003:0020e8a0       _a_ststepxwhole            0067d8a0     <common>
 0003:0020e8a4       _d_pzextrastep             0067d8a4     <common>
 0003:0020e8a8       _d_pdestbasestep           0067d8a8     <common>
 0003:0020e8ac       _skinstart                 0067d8ac     <common>
 0003:0020e8b0       _r_lstepx                  0067d8b0     <common>
 0003:0020e8b4       _r_lstepy                  0067d8b4     <common>
 0003:0020e8b8       _d_pz                      0067d8b8     <common>
 0003:0020e8bc       _d_lightextrastep          0067d8bc     <common>
 0003:0020e8c0       _d_zi                      0067d8c0     <common>
 0003:0020e8c4       _d_sfracextrastep          0067d8c4     <common>
 0003:0020e8c8       _d_pdest                   0067d8c8     <common>
 0003:0020e8cc       _d_countextrastep          0067d8cc     <common>
 0003:0020e8d0       _d_sfrac                   0067d8d0     <common>
 0003:0020e8d4       _d_sfracbasestep           0067d8d4     <common>
 0003:0020e8d8       _d_ptexbasestep            0067d8d8     <common>
 0003:0020e8dc       _d_ptex                    0067d8dc     <common>
 0003:0020e8e0       _a_sstepxfrac              0067d8e0     <common>
 0003:0020e900       _r_clip_verts              0067d900     <common>
 0003:0020f400       _s_spanletvars             0067e400     <common>
 0003:0020f440       _r_polydesc                0067e440     <common>
 0003:0020f498       _r_alpha_surfaces          0067e498     <common>
 0003:0020f4a0       _r_pright                  0067e4a0     <common>
 0003:0020f4b0       _r_ppn                     0067e4b0     <common>
 0003:0020f4c0       _r_pup                     0067e4c0     <common>
 0003:0020f4e0       _mod_inline                0067e4e0     <common>
 0003:002264e0       _r_numvisleafs             006954e0     <common>
 0003:00226500       _r_leaftovis               00695500     <common>
 0003:00266500       _mod_numknown              006d5500     <common>
 0003:00266520       _r_vistoleaf               006d5520     <common>
 0003:002a6520       _loadmodel                 00715520     <common>
 0003:002a6540       _mod_known                 00715540     <common>
 0003:002bd540       _modfilelen                0072c540     <common>
 0003:002bd544       _registration_sequence     0072c544     <common>
 0003:002bd560       _mod_novis                 0072c560     <common>
 0003:002bf560       _d_scalemip                0072e560     <common>
 0003:002bf56c       _d_minmip                  0072e56c     <common>
 0003:002bf570       _r_screenshotName          0072e570     <common>
 0003:002bf580       _d_scantable               0072e580     <common>
 0003:002c0840       _sw_mipcap                 0072f840     <common>
 0003:002c0844       _d_initial_rover           0072f844     <common>
 0003:002c0860       _zspantable                0072f860     <common>
 0003:002c1b20       _d_vrectx                  00730b20     <common>
 0003:002c1b24       _d_vrecty                  00730b24     <common>
 0003:002c1b28       _r_screenshotFlags         00730b28     <common>
 0003:002c1b2c       _d_pix_min                 00730b2c     <common>
 0003:002c1b30       _d_pix_max                 00730b30     <common>
 0003:002c1b34       _alias_colormap            00730b34     <common>
 0003:002c1b38       _d_vrectbottom_particle    00730b38     <common>
 0003:002c1b3c       _d_vrectright_particle     00730b3c     <common>
 0003:002c1b40       _sw_mipscale               00730b40     <common>
 0003:002c1b44       _d_pix_shift               00730b44     <common>
 0003:002c1b48       _d_roverwrapped            00730b48     <common>
 0003:002c1b60       _screenedge                00730b60     <common>
 0003:002c1bb0       _bbextents                 00730bb0     <common>
 0003:002c1bb4       _r_outofsurfaces           00730bb4     <common>
 0003:002c1bb8       _bbextentt                 00730bb8     <common>
 0003:002c1bc0       _skyaxis                   00730bc0     <common>
 0003:002c1bcc       _d_pzbuffer                00730bcc     <common>
 0003:002c1bd0       _r_viewleaf                00730bd0     <common>
 0003:002c1bd4       _dp_time2                  00730bd4     <common>
 0003:002c1bd8       _dp_time1                  00730bd8     <common>
 0003:002c1bdc       _skyrotate                 00730bdc     <common>
 0003:002c1be0       _da_time2                  00730be0     <common>
 0003:002c1be4       _r_dspeeds                 00730be4     <common>
 0003:002c1be8       _sw_waterwarp              00730be8     <common>
 0003:002c1bec       _yOrigin                   00730bec     <common>
 0003:002c1bf0       _d_zrowbytes               00730bf0     <common>
 0003:002c1bf4       _da_time1                  00730bf4     <common>
 0003:002c1bf8       _aliasyscale               00730bf8     <common>
 0003:002c1bfc       _c_surf                    00730bfc     <common>
 0003:002c1c00       _r_worldentity             00730c00     <common>
 0003:002c1c48       _r_worldmodel              00730c48     <common>
 0003:002c1c4c       _currentmodel              00730c4c     <common>
 0003:002c1c50       _d_sdivzstepu              00730c50     <common>
 0003:002c1c54       _d_sdivzstepv              00730c54     <common>
 0003:002c1c58       _sw_draworder              00730c58     <common>
 0003:002c1c5c       _r_surfsonstack            00730c5c     <common>
 0003:002c1c60       _r_refdef                  00730c60     <common>
 0003:002c1cec       _cachewidth                00730cec     <common>
 0003:002c1cf0       _xscaleshrink              00730cf0     <common>
 0003:002c1cf4       _xscaleinv                 00730cf4     <common>
 0003:002c1cf8       _aliasxcenter              00730cf8     <common>
 0003:002c1cfc       _db_time1                  00730cfc     <common>
 0003:002c1d00       _db_time2                  00730d00     <common>
 0003:002c1d04       _de_time2                  00730d04     <common>
 0003:002c1d10       _viewlightvec              00730d10     <common>
 0003:002c1d1c       _de_time1                  00730d1c     <common>
 0003:002c1d20       _d_ziorigin                00730d20     <common>
 0003:002c1d24       _r_maxedgesseen            00730d24     <common>
 0003:002c1d28       _sw_reportsurfout          00730d28     <common>
 0003:002c1d2c       _sadjust                   00730d2c     <common>
 0003:002c1d30       _d_zwidth                  00730d30     <common>
 0003:002c1d34       _sw_reportedgeout          00730d34     <common>
 0003:002c1d40       _r_newrefdef               00730d40     <common>
 0003:002c1da4       _r_notexture_mip           00730da4     <common>
 0003:002c1da8       _sw_maxsurfs               00730da8     <common>
 0003:002c1dac       _r_oldviewcluster          00730dac     <common>
 0003:002c1db0       _r_numallocatededges       00730db0     <common>
 0003:002c1dc0       _vid                       00730dc0     <common>
 0003:002c1dd8       _sw_maxedges               00730dd8     <common>
 0003:002c1de0       _base_vright               00730de0     <common>
 0003:002c1e00       _r_notexture_buffer        00730e00     <common>
 0003:002c2200       _vpn                       00731200     <common>
 0003:002c220c       _se_time1                  0073120c     <common>
 0003:002c2210       _se_time2                  00731210     <common>
 0003:002c2214       _r_drawnpolycount          00731214     <common>
 0003:002c2218       _r_cnumsurfs               00731218     <common>
 0003:002c2220       _vup                       00731220     <common>
 0003:002c2240       _skyname                   00731240     <common>
 0003:002c2280       _xcenter                   00731280     <common>
 0003:002c2284       _r_lefthand                00731284     <common>
 0003:002c2288       _sw_stipplealpha           00731288     <common>
 0003:002c228c       _aliasxscale               0073128c     <common>
 0003:002c2290       _base_vpn                  00731290     <common>
 0003:002c229c       _r_maxsurfsseen            0073129c     <common>
 0003:002c22a0       _yscaleinv                 007312a0     <common>
 0003:002c22a4       _sw_clearcolor             007312a4     <common>
 0003:002c22a8       _sw_surfcacheoverride      007312a8     <common>
 0003:002c22ac       _d_spanpixcount            007312ac     <common>
 0003:002c22b0       _sw_lockpvs                007312b0     <common>
 0003:002c22b4       _r_viewcluster             007312b4     <common>
 0003:002c22c0       _base_vup                  007312c0     <common>
 0003:002c22cc       _tadjust                   007312cc     <common>
 0003:002c22e0       _sw_state                  007312e0     <common>
 0003:002c27e8       _r_time1                   007317e8     <common>
 0003:002c27ec       _r_polycount               007317ec     <common>
 0003:002c27f0       _con_only                  007317f0     <common>
 0003:002c27f4       _r_visframecount           007317f4     <common>
 0003:002c27f8       _verticalFieldOfView       007317f8     <common>
 0003:002c27fc       _xscale                    007317fc     <common>
 0003:002c2800       _r_warpbuffer              00731800     <common>
 0003:002d5400       _d_tdivzorigin             00744400     <common>
 0003:002d5404       _yscale                    00744404     <common>
 0003:002d5408       _sw_mode                   00744408     <common>
 0003:002d540c       _r_outofedges              0074440c     <common>
 0003:002d5420       _r_frustum_indexes         00744420     <common>
 0003:002d5480       _pfrustum_indexes          00744480     <common>
 0003:002d5490       _ycenter                   00744490     <common>
 0003:002d54a0       _r_origin                  007444a0     <common>
 0003:002d54ac       _sw_aliasstats             007444ac     <common>
 0003:002d54b0       _cacheblock                007444b0     <common>
 0003:002d54b4       _d_tdivzstepu              007444b4     <common>
 0003:002d54b8       _d_tdivzstepv              007444b8     <common>
 0003:002d54c0       _vright                    007444c0     <common>
 0003:002d54cc       _r_screenwidth             007444cc     <common>
 0003:002d54d0       _d_viewbuffer              007444d0     <common>
 0003:002d54d4       _sw_drawflat               007444d4     <common>
 0003:002d54d8       _r_lerpmodels              007444d8     <common>
 0003:002d54dc       _d_sdivzorigin             007444dc     <common>
 0003:002d54e0       _sw_lightlevel             007444e0     <common>
 0003:002d54e4       _r_dowarp                  007444e4     <common>
 0003:002d54e8       _xOrigin                   007444e8     <common>
 0003:002d54ec       _d_zistepu                 007444ec     <common>
 0003:002d54f0       _d_zistepv                 007444f0     <common>
 0003:002d54f4       _aliasycenter              007444f4     <common>
 0003:002d54f8       _r_clipflags               007444f8     <common>
 0003:002d54fc       _rw_time1                  007444fc     <common>
 0003:002d5500       _rw_time2                  00744500     <common>
 0003:002d5504       _sw_allow_modex            00744504     <common>
 0003:002d5520       _d_8to24table              00744520     <common>
 0003:002d5920       _r_pcurrentvertbase        00744920     <common>
 0003:002d5924       _r_wholepolycount          00744924     <common>
 0003:002d5928       _yscaleshrink              00744928     <common>
 0003:002d5940       _blocklights               00744940     <common>
 0003:002d6940       _r_dlightframecount        00745940     <common>
 0003:002d6960       _d_16to8table              00745960     <common>
 0003:002e6960       _sw_prefer8bittex          00755960     <common>
 0003:002e6980       _r_images                  00755980     <common>
 0003:002ff980       _numr_images               0076e980     <common>
 0003:002ff9a0       _edge_head                 0076e9a0     <common>
 0003:002ff9c0       _newedges                  0076e9c0     <common>
 0003:00300c80       _edge_head_u_shift20       0076fc80     <common>
 0003:00300c84       _scale_for_mip             0076fc84     <common>
 0003:00300c88       _errorterm                 0076fc88     <common>
 0003:00300c8c       _erroradjustdown           0076fc8c     <common>
 0003:00300c90       _r_edges                   0076fc90     <common>
 0003:00300ca0       _world_transformed_modelorg 0076fca0     <common>
 0003:00300cac       _r_currentkey              0076fcac     <common>
 0003:00300cb0       _surface_p                 0076fcb0     <common>
 0003:00300cb4       _edge_max                  0076fcb4     <common>
 0003:00300cb8       _erroradjustup             0076fcb8     <common>
 0003:00300cc0       _edge_sentinel             0076fcc0     <common>
 0003:00300ce0       _current_iv                0076fce0     <common>
 0003:00300ce4       _auxedges                  0076fce4     <common>
 0003:00300ce8       _edge_p                    0076fce8     <common>
 0003:00300cf0       _transformed_modelorg      0076fcf0     <common>
 0003:00300cfc       _pface                     0076fcfc     <common>
 0003:00300d00       _fv                        0076fd00     <common>
 0003:00300d20       _edge_aftertail            0076fd20     <common>
 0003:00300d40       _span_p                    0076fd40     <common>
 0003:00300d60       _removeedges               0076fd60     <common>
 0003:00302020       _ubasestep                 00771020     <common>
 0003:00302024       _edge_tail_u_shift20       00771024     <common>
 0003:00302028       _max_span_p                00771028     <common>
 0003:0030202c       _pcurrentcache             0077102c     <common>
 0003:00302030       _surf_max                  00771030     <common>
 0003:00302040       _local_modelorg            00771040     <common>
 0003:0030204c       _surfaces                  0077104c     <common>
 0003:00302060       _edge_tail                 00771060     <common>
 0003:00302080       _textbuf                   00771080     <common>
 0003:00312080       _draw_chars                00781080     <common>
 0003:00312084       _textbuf_pos               00781084     <common>
 0003:00312088       _last_rec                  00781088     <common>
 0003:0031208c       _textbuf_count             0078108c     <common>
 0003:00312090       _modelorg                  00781090     <common>
 0003:003120a0       _entity_rotation           007810a0     <common>
 0003:003120c4       _c_drawnode                007810c4     <common>
 0003:003120c8       _r_currentbkey             007810c8     <common>
 0003:003120cc       _insubmodel                007810cc     <common>
 0003:003120d0       _r_entorigin               007810d0     <common>
 0003:003120dc       _currententity             007810dc     <common>
 0003:003120e0       _s_pmdl                    007810e0     <common>
 0003:003120f0       _r_lerp_frontv             007810f0     <common>
 0003:003120fc       _r_aliasblendcolor         007810fc     <common>
 0003:00312100       _r_lerp_move               00781100     <common>
 0003:00312120       _r_affinetridesc           00781120     <common>
 0003:00312160       _aliasworldtransform       00781160     <common>
 0003:00312190       _aliasbatchedtransformdata 00781190     <common>
 0003:003121a0       _r_lastframe               007811a0     <common>
 0003:003121a4       _r_amodels_drawn           007811a4     <common>
 0003:003121c0       _aliasoldworldtransform    007811c0     <common>
 0003:003121f0       _r_thisframe               007811f0     <common>
 0003:003121f4       _r_ambientlight            007811f4     <common>
 0003:00312200       _aliastransform            00781200     <common>
 0003:00312230       _r_shadelight              00781230     <common>
 0003:00312240       _r_plightvec               00781240     <common>
 0003:00312250       _r_lerp_backv              00781250     <common>
 0003:0031225c       _curtime                   0078125c     <common>
 0003:00312260       _qgl                       00781260     <common>
 0003:003123c0       _glw_state                 007813c0     <common>
 0003:003123e0       _gl_dlights                007813e0     <common>
 0003:003133e0       _gl_numEntities            007823e0     <common>
 0003:003133e4       _gl_numDlights             007823e4     <common>
 0003:00313400       _gl_entities               00782400     <common>
 0003:00342344       _gl_alphaShader2           007b1344     <common>
 0003:00342348       _gl_alphaShader1           007b1348     <common>
 0003:0034234c       _gl_identityLightShader    007b134c     <common>
 0003:00342350       _gl_defaultSkyShader       007b1350     <common>
 0003:00342354       _gl_concharsShader         007b1354     <common>
 0003:00342358       _gl_identityLightShader2   007b1358     <common>
 0003:0034235c       _gl_particleShader         007b135c     <common>
 0003:00342360       _gl_defaultShader          007b1360     <common>
 0003:00342364       _gl_flareShader            007b1364     <common>
 0003:00342368       _gl_skyShader              007b1368     <common>
 0003:0034236c       _gl_colorShellShader       007b136c     <common>
 0003:00342370       _subdivNumVerts            007b1370     <common>
 0003:00342380       _gl_worldModel             007b1380     <common>
 0003:00342480       _sawtoothTable             007b1480     <common>
 0003:00343480       _squareTable               007b2480     <common>
 0003:00344480       _atanTable                 007b3480     <common>
 0003:00345480       _atanTable2                007b4480     <common>
 0003:00346480       _inverseSwatoothTable      007b5480     <common>
 0003:00347480       _noiseTablef               007b6480     <common>
 0003:00347880       _noiseTablei               007b6880     <common>
 0003:00347c80       _acosTable                 007b6c80     <common>
 0003:00349ca0       _asinTable                 007b8ca0     <common>
 0003:0034bca0       _triangleTable             007baca0     <common>
 0003:0034cca0       _sqrtTable                 007bbca0     <common>
 0003:0034d0a0       _sinTable                  007bc0a0     <common>
 0003:0034e0a0       _gl_speeds                 007bd0a0     <common>
 0003:0034e110       _gl_lightLines             007bd110     <common>
 0003:0034e120       _gl_refdef                 007bd120     <common>
 0003:0034e148       _gl_drawbuffer             007bd148     <common>
 0003:0034e14c       _r_ignorehwgamma           007bd14c     <common>
 0003:0034e150       _gl_showtris               007bd150     <common>
 0003:0034e154       _r_colorMipLevels          007bd154     <common>
 0003:0034e158       _r_speeds                  007bd158     <common>
 0003:0034e15c       _gl_clear                  007bd15c     <common>
 0003:0034e160       _gl_picmip                 007bd160     <common>
 0003:0034e164       _gl_fog                    007bd164     <common>
 0003:0034e168       _gl_allow_software         007bd168     <common>
 0003:0034e16c       _gl_bitdepth               007bd16c     <common>
 0003:0034e170       _gl_vertexLight            007bd170     <common>
 0003:0034e174       _gl_hand                   007bd174     <common>
 0003:0034e178       _r_lightmap                007bd178     <common>
 0003:0034e17c       _gl_showgrid               007bd17c     <common>
 0003:0034e180       _gl_overBrightBits         007bd180     <common>
 0003:0034e184       _gl_nobind                 007bd184     <common>
 0003:0034e188       _gl_shownormals            007bd188     <common>
 0003:0034e18c       _gl_ignoreFastPath         007bd18c     <common>
 0003:0034e190       _gl_showbboxes             007bd190     <common>
 0003:0034e194       _gl_znear                  007bd194     <common>
 0003:0034e198       _gl_sortAlpha              007bd198     <common>
 0003:0034e19c       _gl_logTexts               007bd19c     <common>
 0003:0034e1a0       _gl_logFile                007bd1a0     <common>
 0003:0034e1a4       _gl_texturemode            007bd1a4     <common>
 0003:0034e1a8       _gl_singleShader           007bd1a8     <common>
 0003:0034e1ac       _gl_dynamic                007bd1ac     <common>
 0003:0034e1c0       _vp                        007bd1c0     <common>
 0003:0034e334       _gl_showImages             007bd334     <common>
 0003:0034e338       _gl_swapinterval           007bd338     <common>
 0003:0034e33c       _gl_facePlaneCull          007bd33c     <common>
 0003:0034e340       _r_novis                   007bd340     <common>
 0003:0034e344       _gl_showsky                007bd344     <common>
 0003:0034e348       _r_nocull                  007bd348     <common>
 0003:0034e34c       _gl_dlightBacks            007bd34c     <common>
 0003:0034e350       _gl_flares                 007bd350     <common>
 0003:0034e354       _gl_nogrid                 007bd354     <common>
 0003:0034e358       _r_contrast                007bd358     <common>
 0003:0034e35c       _gl_mode                   007bd35c     <common>
 0003:0034e360       _gl_driver                 007bd360     <common>
 0003:0034e364       _r_brightness              007bd364     <common>
 0003:0034e368       _r_intensity               007bd368     <common>
 0003:0034e36c       _gl_textureBits            007bd36c     <common>
 0003:0034e370       _r_drawentities            007bd370     <common>
 0003:0034e374       _r_saturation              007bd374     <common>
 0003:0034e378       _gl_fastsky                007bd378     <common>
 0003:0034e37c       _gl_showLights             007bd37c     <common>
 0003:0034e380       _r_fullbright              007bd380     <common>
 0003:0034e384       _r_drawworld               007bd384     <common>
 0003:0034e388       _gl_roundImagesDown        007bd388     <common>
 0003:0034e38c       _gl_finish                 007bd38c     <common>
 0003:0034e390       _lmMinlight                007bd390     <common>
 0003:0034e3a0       _gl_config                 007bd3a0     <common>
 0003:0034eb00       _gl_state                  007bdb00     <common>
 0003:0034ef2c       _gl_identityLightImage     007bdf2c     <common>
 0003:0034ef30       _gl_dlightImage            007bdf30     <common>
 0003:0034ef34       _gl_reflImage              007bdf34     <common>
 0003:0034ef38       _gl_particleImage          007bdf38     <common>
 0003:0034ef3c       _gl_defaultImage           007bdf3c     <common>
 0003:0034ef40       _gl_videoImage             007bdf40     <common>
 0003:0034ef44       _gl_screenshotFlags        007bdf44     <common>
 0003:0034ef48       _gl_screenshotName         007bdf48     <common>
 0003:0034ef4c       _gl_reflImage2             007bdf4c     <common>
 0003:0034ef50       _gl_numVerts               007bdf50     <common>
 0003:0034ef54       _backendCmdSize            007bdf54     <common>
 0003:0034ef58       _gl_fogEnd                 007bdf58     <common>
 0003:0034ef60       _gl_fogColor               007bdf60     <common>
 0003:0034ef80       _backendCommands           007bdf80     <common>
 0003:0035ef80       _gl_numIndexes             007cdf80     <common>
 0003:0035ef84       _lastBackendCommand        007cdf84     <common>
 0003:0035efa0       _ap                        007cdfa0     <common>
 0003:0035f120       _gl_indexesArray           007ce120     <common>
 0003:00377120       _gl_fogStart               007e6120     <common>
 0003:00377140       _gl_extra                  007e6140     <common>
 0003:00393140       _gl_numExtra               00802140     <common>
 0003:00393144       _gl_fogMode                00802144     <common>
 0003:00393148       _gl_fogDensity             00802148     <common>
 0003:0039314c       _vid_ref                   0080214c     <common>
 0003:00393150       _win_noalttab              00802150     <common>
 0003:00393154       _cl_hwnd                   00802154     <common>
 0003:00393160       _re                        00802160     <common>
 0003:003931d8       _vid_xpos                  008021d8     <common>
 0003:003931dc       _vid_ypos                  008021dc     <common>
 0003:003931e0       _win_priorityBoost         008021e0     <common>
 0003:003931e4       _r_gamma                   008021e4     <common>
 0003:003931e8       _r_fullscreen              008021e8     <common>
 0003:003931f0       _viddef                    008021f0     <common>
 0003:003931f8       _sys_msg_time              008021f8     <common>
 0003:003931fc       _global_hInstance          008021fc     <common>
 0003:00393200       _Minimized                 00802200     <common>
 0003:00393204       _ActiveApp                 00802204     <common>
 0003:00393208       _argc                      00802208     <common>
 0003:0039320c       _sys_frame_time            0080220c     <common>
 0003:00393220       _argv                      00802220     <common>
 0003:00393420       _s_win95                   00802420     <common>
 0003:00393424       _sv_player                 00802424     <common>
 0003:00393440       _sv_outputbuf              00802440     <common>
 0003:00397430       _allow_download_sounds     00806430     <common>
 0003:00397440       _master_adr                00806440     <common>
 0003:003974e0       _allow_download_maps       008064e0     <common>
 0003:003974e4       _sv_client                 008064e4     <common>
 0003:003974e8       _allow_download            008064e8     <common>
 0003:003974ec       _sv_enforcetime            008064ec     <common>
 0003:003974f0       _sv_airaccelerate          008064f0     <common>
 0003:003974f4       _sv_noreload               008064f4     <common>
 0003:003974f8       _allow_download_players    008064f8     <common>
 0003:003974fc       _allow_download_models     008064fc     <common>
 0003:00397500       _sv_paused                 00806500     <common>
 0003:00397504       _maxclients                00806504     <common>
 0003:00397520       _svs                       00806520     <common>
 0003:003a25e0       _sv                        008115e0     <common>
 0003:003dc260       _prof_counts               0084b260     <common>
 0003:003dc660       _prof_times                0084b660     <common>
 0003:003dca60       _ge                        0084ba60     <common>
 0003:003dca80       _fatpvs                    0084ba80     <common>
 0003:003dea80       _locksize                  0084da80     <common>
 0003:003dea84       _snd_linear_count          0084da84     <common>
 0003:003deaa0       _paintbuffer               0084daa0     <common>
 0003:003e2aa0       _snd_out                   00851aa0     <common>
 0003:003e2ac0       _snd_scaletable            00851ac0     <common>
 0003:003eaac0       _snd_vol                   00859ac0     <common>
 0003:003eaac4       _snd_p                     00859ac4     <common>
 0003:003eaac8       _iff_end                   00859ac8     <common>
 0003:003eaacc       _last_chunk                00859acc     <common>
 0003:003eaad0       _data_p                    00859ad0     <common>
 0003:003eaad4       _iff_chunk_len             00859ad4     <common>
 0003:003eaad8       _iff_data                  00859ad8     <common>
 0003:003eaadc       _s_beginofs                00859adc     <common>
 0003:003eaae0       _s_freeplays               00859ae0     <common>
 0003:003eab10       _listener_forward          00859b10     <common>
 0003:003eab1c       _s_khz                     00859b1c     <common>
 0003:003eab20       _soundtime                 00859b20     <common>
 0003:003eab24       _paintedtime               00859b24     <common>
 0003:003eab40       _dma                       00859b40     <common>
 0003:003eab5c       _s_loadas8bit              00859b5c     <common>
 0003:003eab60       _s_registering             00859b60     <common>
 0003:003eab64       _s_show                    00859b64     <common>
 0003:003eab80       _s_pendingplays            00859b80     <common>
 0003:003eabb0       _s_primary                 00859bb0     <common>
 0003:003eabc0       _known_sfx                 00859bc0     <common>
 0003:003f4bc0       _s_volume                  00863bc0     <common>
 0003:003f4bd0       _listener_right            00863bd0     <common>
 0003:003f4be0       _s_rawsamples              00863be0     <common>
 0003:00404be0       _female_model_buf          00873be0     <common>
 0003:00404de0       _s_playsounds              00873de0     <common>
 0003:004065e0       _s_rawend                  008755e0     <common>
 0003:004065e4       _s_testsound               008755e4     <common>
 0003:004065e8       _s_registration_sequence   008755e8     <common>
 0003:004065ec       _s_mixahead                008755ec     <common>
 0003:004065f0       _listener_origin           008755f0     <common>
 0003:00406600       _listener_up               00875600     <common>
 0003:00406620       _female_models             00875620     <common>
 0003:004066a0       _num_sfx                   008756a0     <common>
 0003:004066c0       _channels                  008756c0     <common>
 0003:00406e40       _s_reverse_stereo          00875e40     <common>
 0003:00406e44       _paged_total               00875e44     <common>
 0003:00406e48       _net_shownet               00875e48     <common>
 0003:00406e4c       _showdrop                  00875e4c     <common>
 0003:00406e60       _net_message               00875e60     <common>
 0003:00406e80       _net_message_buffer        00875e80     <common>
 0003:0040ae80       _qport                     00879e80     <common>
 0003:0040aea0       _net_from                  00879ea0     <common>
 0003:0040aeb4       _showpackets               00879eb4     <common>
 0003:0040aeb8       _m_menudepth               00879eb8     <common>
 0003:0040aec0       _m_layers                  00879ec0     <common>
 0003:0040af00       _m_entersound              00879f00     <common>
 0003:0040af20       _keydown                   00879f20     <common>
 0003:0040b020       _chat_buffer               0087a020     <common>
 0003:0040b120       _editPos                   0087a120     <common>
 0003:0040b140       _editLine                  0087a140     <common>
 0003:0040b240       _anykeydown                0087a240     <common>
 0003:0040b260       _keybindings               0087a260     <common>
 0003:0040b660       _chat_team                 0087a660     <common>
 0003:0040b664       _in_joystick               0087a664     <common>
 0003:0040b668       _v_centermove              0087a668     <common>
 0003:0040b670       _window_rect               0087a670     <common>
 0003:0040b680       _window_center_x           0087a680     <common>
 0003:0040b684       _window_center_y           0087a684     <common>
 0003:0040b688       _v_centerspeed             0087a688     <common>
 0003:0040b68c       _fileFromPak               0087a68c     <common>
 0003:0040b690       _fs_gamedirvar             0087a690     <common>
 0003:0040b694       _userinfo_modified         0087a694     <common>
 0003:0040b698       _cvar_vars                 0087a698     <common>
 0003:0040b6a0       _con                       0087a6a0     <common>
 0003:0041b6f8       _timescale                 0088a6f8     <common>
 0003:0041b6fc       _dedicated                 0088a6fc     <common>
 0003:0041b700       _developer                 0088a700     <common>
 0003:0041b704       _time_before_ref           0088a704     <common>
 0003:0041b708       _log_stats_file            0088a708     <common>
 0003:0041b70c       _time_after_ref            0088a70c     <common>
 0003:0041b710       _fixedtime                 0088a710     <common>
 0003:0041b714       _time_before_game          0088a714     <common>
 0003:0041b718       _sv_cheats                 0088a718     <common>
 0003:0041b71c       _com_speeds                0088a71c     <common>
 0003:0041b720       _time_after_game           0088a720     <common>
 0003:0041b724       _logfile_active            0088a724     <common>
 0003:0041b728       _log_stats                 0088a728     <common>
 0003:0041b740       _map_brushsides            0088a740     <common>
 0003:0049b760       _map_brushes               0090a760     <common>
 0003:004bb760       _numbrushsides             0092a760     <common>
 0003:004bb764       _leaf_maxs                 0092a764     <common>
 0003:004bb768       _leaf_list                 0092a768     <common>
 0003:004bb780       _map_leafbrushes           0092a780     <common>
 0003:004db780       _numentitychars            0094a780     <common>
 0003:004db784       _leaf_mins                 0094a784     <common>
 0003:004db788       _leaf_count                0094a788     <common>
 0003:004db78c       _map_noareas               0094a78c     <common>
 0003:004db7a0       _map_areas                 0094a7a0     <common>
 0003:004dc7a0       _solidleaf                 0094b7a0     <common>
 0003:004dc7c0       _map_surfaces              0094b7c0     <common>
 0003:005547c0       _checkcount                009c37c0     <common>
 0003:005547e0       _map_leafs                 009c37e0     <common>
 0003:007147e0       _numvisibility             00b837e0     <common>
 0003:007147e4       _map_areaportals           00b837e4     <common>
 0003:007147e8       _leaf_topnode              00b837e8     <common>
 0003:007147ec       _map_cmodels               00b837ec     <common>
 0003:007147f0       _numareaportals            00b837f0     <common>
 0003:007147f4       _floodvalid                00b837f4     <common>
 0003:00714800       _nullsurface               00b83800     <common>
 0003:0071483c       _emptyleaf                 00b8383c     <common>
 0003:00714840       _c_pointcontents           00b83840     <common>
 0003:00714844       _map_entitystring          00b83844     <common>
 0003:00714860       _map_nodes                 00b83860     <common>
 0003:007d48a8       _map_visibility            00c438a8     <common>
 0003:007d48ac       _box_leaf                  00c438ac     <common>
 0003:007d48b0       _numnodes                  00c438b0     <common>
 0003:007d48b4       _leaf_maxcount             00c438b4     <common>
 0003:007d48b8       _numbrushes                00c438b8     <common>
 0003:007d48bc       _c_traces                  00c438bc     <common>
 0003:007d48c0       _map_planes                00c438c0     <common>
 0003:00914938       _box_brush                 00d83938     <common>
 0003:00914940       _map_name                  00d83940     <common>
 0003:00914980       _c_brush_traces            00d83980     <common>
 0003:00914984       _numleafbrushes            00d83984     <common>
 0003:00914988       _box_planes                00d83988     <common>
 0003:0091498c       _numcmodels                00d8398c     <common>
 0003:00914990       _box_headnode              00d83990     <common>
 0003:00914994       _numtexinfo                00d83994     <common>
 0003:00914998       _numplanes                 00d83998     <common>
 0003:009149a0       _r_dlights                 00d839a0     <common>
 0003:00914d20       _crosshair                 00d83d20     <common>
 0003:00914d24       _crosshaircolor            00d83d24     <common>
 0003:00914d28       _r_surfinfo                00d83d28     <common>
 0003:00914d2c       _num_cl_weaponmodels       00d83d2c     <common>
 0003:00914d30       _r_drawfps                 00d83d30     <common>
 0003:00914d34       _cl_testlights             00d83d34     <common>
 0003:00914d38       _cl_testparticles          00d83d38     <common>
 0003:00914d3c       _cl_testblend              00d83d3c     <common>
 0003:00914d40       _gun_model                 00d83d40     <common>
 0003:00914d44       _gun_frame                 00d83d44     <common>
 0003:00914d60       _cl_weaponmodels           00d83d60     <common>
 0003:00915260       _r_playerpos               00d84260     <common>
 0003:00915280       _r_entities                00d84280     <common>
 0003:00927280       _cl_stats                  00d96280     <common>
 0003:00927284       _r_numentities             00d96284     <common>
 0003:00927288       _r_numdlights              00d96288     <common>
 0003:0092728c       _cl_testentities           00d9628c     <common>
 0003:009272a0       _cl_lasers                 00d962a0     <common>
 0003:00927c20       _cl_mod_lightning          00d96c20     <common>
 0003:00927c24       _cl_mod_explo4_big         00d96c24     <common>
 0003:00927c28       _cl_mod_parasite_tip       00d96c28     <common>
 0003:00927c2c       _cl_mod_parasite_segment   00d96c2c     <common>
 0003:00927c40       _cl_sfx_fallshort2         00d96c40     <common>
 0003:00927c80       _cl_beams                  00d96c80     <common>
 0003:00928300       _cl_mod_flash              00d97300     <common>
 0003:00928304       _cl_sfx_disrexp            00d97304     <common>
 0003:00928308       _cl_mod_bfg_explo          00d97308     <common>
 0003:00928320       _cl_sustains               00d97320     <common>
 0003:00928aa0       _cl_sfx_lightning          00d97aa0     <common>
 0003:00928aa4       _cl_sfx_spark5             00d97aa4     <common>
 0003:00928aa8       _cl_sfx_spark6             00d97aa8     <common>
 0003:00928aac       _cl_sfx_spark7             00d97aac     <common>
 0003:00928ab0       _cl_mod_smoke              00d97ab0     <common>
 0003:00928ab4       _cl_mod_powerscreen        00d97ab4     <common>
 0003:00928ab8       _cl_sfx_lashit             00d97ab8     <common>
 0003:00928ac0       _cl_explosions             00d97ac0     <common>
 0003:009297c0       _cl_mod_grapple_cable      00d987c0     <common>
 0003:009297e0       _cl_playerbeams            00d987e0     <common>
 0003:00929e60       _cl_sfx_watrexp            00d98e60     <common>
 0003:00929e64       _cl_mod_monster_heatbeam   00d98e64     <common>
 0003:00929e68       _cl_mod_explode            00d98e68     <common>
 0003:00929e80       _cl_sfx_footsteps2         00d98e80     <common>
 0003:00929f40       _cl_mod_explo4             00d98f40     <common>
 0003:00929f44       _cl_sfx_rockexp            00d98f44     <common>
 0003:00929f48       _cl_sfx_fallshort          00d98f48     <common>
 0003:00929f50       _cl_sfx_footsteps          00d98f50     <common>
 0003:00929f60       _cl_sfx_camper             00d98f60     <common>
 0003:00929f84       _cl_sfx_railg              00d98f84     <common>
 0003:00929f90       _cl_sfx_ric                00d98f90     <common>
 0003:00929f9c       _cl_sfx_grenexp            00d98f9c     <common>
 0003:00929fa0       _cl_mod_heatbeam           00d98fa0     <common>
 0003:00929fa4       _crosshair_height          00d98fa4     <common>
 0003:00929fc0       _crosshair_pic             00d98fc0     <common>
 0003:0092a000       _scr_old_dirty             00d99000     <common>
 0003:0092a020       _scr_erase_center          00d99020     <common>
 0003:0092a024       _scr_graphshift            00d99024     <common>
 0003:0092a028       _scr_centertime            00d99028     <common>
 0003:0092a030       _scr_dirty                 00d99030     <common>
 0003:0092a040       _scr_printspeed            00d99040     <common>
 0003:0092a044       _scr_conspeed              00d99044     <common>
 0003:0092a048       _scr_graphheight           00d99048     <common>
 0003:0092a04c       _scr_debuggraph            00d9904c     <common>
 0003:0092a050       _scr_showturtle            00d99050     <common>
 0003:0092a060       _scr_centerstring          00d99060     <common>
 0003:0092a460       _scr_centertime_off        00d99460     <common>
 0003:0092a464       _scr_centertime_start      00d99464     <common>
 0003:0092a468       _scr_conlines              00d99468     <common>
 0003:0092a46c       _scr_viewsize              00d9946c     <common>
 0003:0092a470       _scr_con_current           00d99470     <common>
 0003:0092a474       _crosshair_width           00d99474     <common>
 0003:0092a480       _scr_vrect                 00d99480     <common>
 0003:0092a490       _scr_showpause             00d99490     <common>
 0003:0092a494       _scr_timegraph             00d99494     <common>
 0003:0092a498       _scr_map_levelshot         00d99498     <common>
 0003:0092a49c       _scr_graphscale            00d9949c     <common>
 0003:0092a4a0       _scr_netgraph              00d994a0     <common>
 0003:0092a4a4       _scr_draw_loading          00d994a4     <common>
 0003:0092a4a8       _scr_center_lines          00d994a8     <common>
 0003:0092a4ac       _scr_initialized           00d994ac     <common>
 0003:0092a4b0       _scr_drawall               00d994b0     <common>
 0003:0092a4b4       _cl_3rd_person             00d994b4     <common>
 0003:0092a4b8       _cl_gun                    00d994b8     <common>
 0003:0092a4bc       _rcon_address              00d994bc     <common>
 0003:0092a4c0       _cl_mapname                00d994c0     <common>
 0003:0092a500       _cl_entities               00d99500     <common>
 0003:009ab500       _cl_stereo                 00e1a500     <common>
 0003:009ab504       _m_pitch                   00e1a504     <common>
 0003:009ab508       _cl_noskins                00e1a508     <common>
 0003:009ab520       _cls                       00e1a520     <common>
 0003:009b3734       _freelook                  00e22734     <common>
 0003:009b3740       _cl_parse_entities         00e22740     <common>
 0003:009dc740       _cl_shownet                00e4b740     <common>
 0003:009dc744       _r_sfx_pause               00e4b744     <common>
 0003:009dc748       _fov                       00e4b748     <common>
 0003:009dc74c       _cl_timeout                00e4b74c     <common>
 0003:009dc750       _cl_draw2d                 00e4b750     <common>
 0003:009dc754       _info_password             00e4b754     <common>
 0003:009dc758       _precache_model            00e4b758     <common>
 0003:009dc75c       _cl_showmiss               00e4b75c     <common>
 0003:009dc760       _lookspring                00e4b760     <common>
 0003:009dc764       _cl_vwep                   00e4b764     <common>
 0003:009dc768       _name                      00e4b768     <common>
 0003:009dc76c       _cl_add_particles          00e4b76c     <common>
 0003:009dc770       _cl_footsteps              00e4b770     <common>
 0003:009dc774       _cl_timedemo               00e4b774     <common>
 0003:009dc778       _msg                       00e4b778     <common>
 0003:009dc77c       _cl_cameraheight           00e4b77c     <common>
 0003:009dc780       _gender                    00e4b780     <common>
 0003:009dc784       _lookstrafe                00e4b784     <common>
 0003:009dc788       _info_spectator            00e4b788     <common>
 0003:009dc78c       _adr0                      00e4b78c     <common>
 0003:009dc790       _adr1                      00e4b790     <common>
 0003:009dc794       _adr2                      00e4b794     <common>
 0003:009dc798       _adr3                      00e4b798     <common>
 0003:009dc79c       _adr4                      00e4b79c     <common>
 0003:009dc7a0       _adr5                      00e4b7a0     <common>
 0003:009dc7a4       _adr6                      00e4b7a4     <common>
 0003:009dc7a8       _adr7                      00e4b7a8     <common>
 0003:009dc7ac       _adr8                      00e4b7ac     <common>
 0003:009dc7c0       _cl                        00e4b7c0     <common>
 0003:00a11fa4       _m_side                    00e80fa4     <common>
 0003:00a11fa8       _rcon_client_password      00e80fa8     <common>
 0003:00a11fac       _cl_maxfps                 00e80fac     <common>
 0003:00a11fb0       _gender_auto               00e80fb0     <common>
 0003:00a11fb4       _cl_showclamp              00e80fb4     <common>
 0003:00a11fb8       _rate                      00e80fb8     <common>
 0003:00a11fbc       _cl_add_blend              00e80fbc     <common>
 0003:00a11fc0       _m_yaw                     00e80fc0     <common>
 0003:00a11fc4       _cl_extProtocol            00e80fc4     <common>
 0003:00a11fc8       _cl_cheats                 00e80fc8     <common>
 0003:00a11fcc       _m_forward                 00e80fcc     <common>
 0003:00a11fd0       _cl_stereo_separation      00e80fd0     <common>
 0003:00a11fd4       _cl_newfx                  00e80fd4     <common>
 0003:00a11fd8       _cl_add_entities           00e80fd8     <common>
 0003:00a11fdc       _skin                      00e80fdc     <common>
 0003:00a11fe0       _cl_cameradist             00e80fe0     <common>
 0003:00a11fe4       _cl_predict                00e80fe4     <common>
 0003:00a11fe8       _hand                      00e80fe8     <common>
 0003:00a11fec       _sensitivity               00e80fec     <common>
 0003:00a11ff0       _cl_add_lights             00e80ff0     <common>
 0003:00a11ff4       _cl_paused                 00e80ff4     <common>
 0003:00a12000       _cl_gamename               00e81000     <common>
 0003:00a12040       _cl_autoskins              00e81040     <common>
 0003:00a12060       _in_speed                  00e81060     <common>
 0003:00a12074       _cl_run                    00e81074     <common>
 0003:00a12078       _cl_forwardspeed           00e81078     <common>
 0003:00a1207c       _cl_yawspeed               00e8107c     <common>
 0003:00a12080       _in_strafe                 00e81080     <common>
 0003:00a12094       _cl_sidespeed              00e81094     <common>
 0003:00a12098       _cl_upspeed                00e81098     <common>
 0003:00a1209c       _cl_pitchspeed             00e8109c     <common>
 0003:00a120a0       _cl_anglespeedkey          00e810a0     <common>
 0003:00a120c0       _particleTraces            00e810c0     <common>
 0003:00a174c0       _particles                 00e864c0     <common>
 0003:00a5f4e0       _cl_lightstyles            00ece4e0     <common>
 0003:00a63ce0       _free_particles            00ed2ce0     <common>
 0003:00a63ce4       _active_particles          00ed2ce4     <common>
 0003:00a63ce8       _cmdFuncs                  00ed2ce8     <common>
 0003:00a63cec       _cmdAlias                  00ed2cec     <common>
 0003:00a63cf0       ___onexitend               00ed2cf0     <common>
 0003:00a63cf4       ___onexitbegin             00ed2cf4     <common>
 0003:00a63cf8       __adjust_fdiv              00ed2cf8     <common>

 entry point at        0001:00069fde

 Static symbols

 0001:00068e75       _init_error_limit          00469e75 f   jquant2.obj
 0001:00068f14       _start_pass_2_quant        00469f14 f   jquant2.obj
 0001:00069016       _prescan_quantize          0046a016 f   jquant2.obj
 0001:00069085       _pass2_no_dither           0046a085 f   jquant2.obj
 0001:00069132       _fill_inverse_cmap         0046a132 f   jquant2.obj
 0001:000691fd       _find_nearby_colors        0046a1fd f   jquant2.obj
 0001:000693a1       _find_best_colors          0046a3a1 f   jquant2.obj
 0001:000694bb       _pass2_fs_dither           0046a4bb f   jquant2.obj
 0001:0006972a       _finish_pass1              0046a72a f   jquant2.obj
 0001:0006974c       _select_colors             0046a74c f   jquant2.obj
 0001:000697d8       _update_box                0046a7d8 f   jquant2.obj
 0001:00069b72       _median_cut                0046ab72 f   jquant2.obj
 0001:00069c86       _find_biggest_color_pop    0046ac86 f   jquant2.obj
 0001:00069cb5       _find_biggest_volume       0046acb5 f   jquant2.obj
 0001:00069cde       _compute_color             0046acde f   jquant2.obj
 0001:000327da       _finish_pass2              004337da f   vid_dll.obj
 0001:00069e1a       _new_color_map_2_quant     0046ae1a f   jquant2.obj
 0001:000683cb       _create_colormap           004693cb f   jquant1.obj
 0001:000684fd       _select_ncolors            004694fd f   jquant1.obj
 0001:000685d4       _create_colorindex         004695d4 f   jquant1.obj
 0001:00068700       _alloc_fs_workspace        00469700 f   jquant1.obj
 0001:0006873c       _start_pass_1_quant        0046973c f   jquant1.obj
 0001:00068808       _create_odither_tables     00469808 f   jquant1.obj
 0001:00068867       _make_odither_array        00469867 f   jquant1.obj
 0001:000688ca       _color_quantize            004698ca f   jquant1.obj
 0001:00068955       _color_quantize3           00469955 f   jquant1.obj
 0001:000689e3       _quantize_ord_dither       004699e3 f   jquant1.obj
 0001:00068ace       _quantize3_ord_dither      00469ace f   jquant1.obj
 0001:00068bce       _quantize_fs_dither        00469bce f   jquant1.obj
 0001:000327da       _finish_pass_1_quant       004337da f   vid_dll.obj
 0001:00068d52       _new_color_map_1_quant     00469d52 f   jquant1.obj
 0001:000678c8       _alloc_small               004688c8 f   jmemmgr.obj
 0001:000679e6       _alloc_large               004689e6 f   jmemmgr.obj
 0001:00067a97       _alloc_sarray              00468a97 f   jmemmgr.obj
 0001:00067b2f       _alloc_barray              00468b2f f   jmemmgr.obj
 0001:00067bd3       _alloc_darray              00468bd3 f   jmemmgr.obj
 0001:00067c7e       _request_virt_sarray       00468c7e f   jmemmgr.obj
 0001:00067cdf       _request_virt_barray       00468cdf f   jmemmgr.obj
 0001:00067d40       _realize_virt_arrays       00468d40 f   jmemmgr.obj
 0001:00067ec3       _access_virt_sarray        00468ec3 f   jmemmgr.obj
 0001:00067fe3       _do_sarray_io              00468fe3 f   jmemmgr.obj
 0001:00068073       _access_virt_barray        00469073 f   jmemmgr.obj
 0001:00068198       _do_barray_io              00469198 f   jmemmgr.obj
 0001:00068229       _free_pool                 00469229 f   jmemmgr.obj
 0001:00068310       _self_destruct             00469310 f   jmemmgr.obj
 0001:000676e0       _read_backing_store        004686e0 f   jmemansi.obj
 0001:0006773b       _write_backing_store       0046873b f   jmemansi.obj
 0001:00067796       _close_backing_store       00468796 f   jmemansi.obj
 0001:000658d4       _start_pass_huff_decoder   004668d4 f   jdshuff.obj
 0001:00065a0c       _decode_mcu                00466a0c f   jdshuff.obj
 0001:00065dbc       _process_restart           00466dbc f   jdshuff.obj
 0001:000657b8       _scaler_start_pass         004667b8 f   jdscale.obj
 0001:00065805       _simple_upscale            00466805 f   jdscale.obj
 0001:0006583b       _simple_downscale          0046683b f   jdscale.obj
 0001:00065871       _noscale                   00466871 f   jdscale.obj
 0001:00065325       _start_pass_upsample       00466325 f   jdsample.obj
 0001:0006533f       _sep_upsample              0046633f f   jdsample.obj
 0001:0006540c       _fullsize_upsample         0046640c f   jdsample.obj
 0001:00065417       _noop_upsample             00466417 f   jdsample.obj
 0001:0006541f       _int_upsample              0046641f f   jdsample.obj
 0001:00065509       _h2v1_upsample             00466509 f   jdsample.obj
 0001:00065560       _h2v2_upsample             00466560 f   jdsample.obj
 0001:000655d2       _h2v1_fancy_upsample       004665d2 f   jdsample.obj
 0001:00065675       _h2v2_fancy_upsample       00466675 f   jdsample.obj
 0001:00064db2       _predict_start_pass        00465db2 f   jdpred.obj
 0001:00064e40       _jpeg_undifference_first_row 00465e40 f   jdpred.obj
 0001:00064f19       _jpeg_undifference1        00465f19 f   jdpred.obj
 0001:00064f5b       _jpeg_undifference2        00465f5b f   jdpred.obj
 0001:00064fa4       _jpeg_undifference3        00465fa4 f   jdpred.obj
 0001:00064ff8       _jpeg_undifference4        00465ff8 f   jdpred.obj
 0001:0006504e       _jpeg_undifference5        0046604e f   jdpred.obj
 0001:000650b3       _jpeg_undifference6        004660b3 f   jdpred.obj
 0001:0006510b       _jpeg_undifference7        0046610b f   jdpred.obj
 0001:00064b74       _start_pass_dpost          00465b74 f   jdpostct.obj
 0001:00064c1a       _post_process_1pass        00465c1a f   jdpostct.obj
 0001:00064c7f       _post_process_prepass      00465c7f f   jdpostct.obj
 0001:00064d10       _post_process_2pass        00465d10 f   jdpostct.obj
 0001:00063fb9       _start_pass_phuff_decoder  00464fb9 f   jdphuff.obj
 0001:00064202       _decode_mcu_DC_first       00465202 f   jdphuff.obj
 0001:000643fa       _process_restart           004653fa f   jdphuff.obj
 0001:00064469       _decode_mcu_AC_first       00465469 f   jdphuff.obj
 0001:00064689       _decode_mcu_DC_refine      00465689 f   jdphuff.obj
 0001:0006475e       _decode_mcu_AC_refine      0046575e f   jdphuff.obj
 0001:00063a7a       _build_ycc_rgb_table       00464a7a f   jdmerge.obj
 0001:00063b2a       _start_pass_merged_upsample 00464b2a f   jdmerge.obj
 0001:00063b3f       _merged_2v_upsample        00464b3f f   jdmerge.obj
 0001:00063be6       _merged_1v_upsample        00464be6 f   jdmerge.obj
 0001:00063c17       _h2v1_merged_upsample      00464c17 f   jdmerge.obj
 0001:00063d6d       _h2v2_merged_upsample      00464d6d f   jdmerge.obj
 0001:00063639       _use_merged_upsample       00464639 f   jdmaster.obj
 0001:000636df       _master_selection          004646df f   jdmaster.obj
 0001:0006383c       _prepare_range_limit_table 0046483c f   jdmaster.obj
 0001:000638c2       _prepare_for_output_pass   004648c2 f   jdmaster.obj
 0001:000639e3       _finish_output_pass        004649e3 f   jdmaster.obj
 0001:0006200c       _next_marker               0046300c f   jdmarker.obj
 0001:00062146       _get_interesting_appn      00463146 f   jdmarker.obj
 0001:00062271       _examine_app0              00463271 f   jdmarker.obj
 0001:0006247f       _examine_app14             0046347f f   jdmarker.obj
 0001:00062540       _skip_variable             00463540 f   jdmarker.obj
 0001:000625e3       _read_markers              004635e3 f   jdmarker.obj
 0001:000627eb       _get_soi                   004637eb f   jdmarker.obj
 0001:00062896       _get_sof                   00463896 f   jdmarker.obj
 0001:00062b9f       _get_sos                   00463b9f f   jdmarker.obj
 0001:00062e8d       _get_dht                   00463e8d f   jdmarker.obj
 0001:0006312e       _get_dqt                   0046412e f   jdmarker.obj
 0001:0006338a       _get_dri                   0046438a f   jdmarker.obj
 0001:00063469       _first_marker              00464469 f   jdmarker.obj
 0001:00063505       _read_restart_marker       00464505 f   jdmarker.obj
 0001:00063583       _reset_marker_reader       00464583 f   jdmarker.obj
 0001:000619a8       _alloc_funny_pointers      004629a8 f   jdmainct.obj
 0001:00061a55       _start_pass_main           00462a55 f   jdmainct.obj
 0001:00061abd       _make_funny_pointers       00462abd f   jdmainct.obj
 0001:00061bfd       _process_data_simple_main  00462bfd f   jdmainct.obj
 0001:00061c65       _process_data_context_main 00462c65 f   jdmainct.obj
 0001:00061d77       _set_wraparound_pointers   00462d77 f   jdmainct.obj
 0001:00061e61       _set_bottom_pointers       00462e61 f   jdmainct.obj
 0001:00061efb       _process_data_crank_post   00462efb f   jdmainct.obj
 0001:0006168f       _calc_output_dimensions    0046268f f   jdlossy.obj
 0001:00061802       _start_input_pass          00462802 f   jdlossy.obj
 0001:00061822       _latch_quant_tables        00462822 f   jdlossy.obj
 0001:000618ba       _start_output_pass         004628ba f   jdlossy.obj
 0001:000615cd       _calc_output_dimensions    004625cd f   jdlossls.obj
 0001:000615de       _start_input_pass          004625de f   jdlossls.obj
 0001:0006119b       _start_pass_lhuff_decoder  0046219b f   jdlhuff.obj
 0001:000612cc       _process_restart           004622cc f   jdlhuff.obj
 0001:00061316       _decode_mcus               00462316 f   jdlhuff.obj
 0001:00060cb9       _start_input_pass          00461cb9 f   jdinput.obj
 0001:00060ce7       _per_scan_setup            00461ce7 f   jdinput.obj
 0001:00060e6d       _finish_input_pass         00461e6d f   jdinput.obj
 0001:00060e7e       _consume_markers           00461e7e f   jdinput.obj
 0001:00060f1a       _initial_setup             00461f1a f   jdinput.obj
 0001:00061124       _reset_input_controller    00462124 f   jdinput.obj
 0001:000603f1       _start_input_pass          004613f1 f   jddiffct.obj
 0001:00060459       _start_iMCU_row            00461459 f   jddiffct.obj
 0001:0006049e       _start_output_pass         0046149e f   jddiffct.obj
 0001:000604aa       _decompress_data           004614aa f   jddiffct.obj
 0001:0006061a       _process_restart           0046161a f   jddiffct.obj
 0001:0006064f       _dummy_consume_data        0046164f f   jddiffct.obj
 0001:00060652       _consume_data              00461652 f   jddiffct.obj
 0001:000606c9       _output_data               004616c9 f   jddiffct.obj
 0001:000600f2       _start_pass                004610f2 f   jddctmgr.obj
 0001:0005fc96       _build_ycc_rgb_table       00460c96 f   jdcolor.obj
 0001:0005fd46       _ycc_rgb_convert           00460d46 f   jdcolor.obj
 0001:0005fe54       _null_convert              00460e54 f   jdcolor.obj
 0001:0005fecc       _grayscale_convert         00460ecc f   jdcolor.obj
 0001:0005feef       _gray_rgb_convert          00460eef f   jdcolor.obj
 0001:0005ff48       _ycck_cmyk_convert         00460f48 f   jdcolor.obj
 0001:000327da       _start_pass_dcolor         004337da f   vid_dll.obj
 0001:0005ef90       _start_input_pass          0045ff90 f   jdcoefct.obj
 0001:0005efa3       _start_iMCU_row            0045ffa3 f   jdcoefct.obj
 0001:0005efe8       _start_output_pass         0045ffe8 f   jdcoefct.obj
 0001:0005f025       _decompress_onepass        00460025 f   jdcoefct.obj
 0001:0006064f       _dummy_consume_data        0046164f f   jddiffct.obj
 0001:0005f1fe       _consume_data              004601fe f   jdcoefct.obj
 0001:0005f3b7       _decompress_data           004603b7 f   jdcoefct.obj
 0001:0005f523       _smoothing_ok              00460523 f   jdcoefct.obj
 0001:0005f60e       _decompress_smooth_data    0046060e f   jdcoefct.obj
 0001:0005edc9       _init_destination          0045fdc9 f   jdatadst.obj
 0001:0005edef       _empty_output_buffer       0045fdef f   jdatadst.obj
 0001:0005ee31       _term_destination          0045fe31 f   jdatadst.obj
 0001:0005ec5f       _output_pass_setup         0045fc5f f   jdapistd.obj
 0001:0005e953       _default_decompress_parms  0045f953 f   jdapimin.obj
 0001:0005df65       _start_pass_huff           0045ef65 f   jcshuff.obj
 0001:0005e0da       _encode_mcu_huff           0045f0da f   jcshuff.obj
 0001:0005e1e5       _encode_one_block          0045f1e5 f   jcshuff.obj
 0001:0005e35c       _emit_bits                 0045f35c f   jcshuff.obj
 0001:0005e3ff       _dump_buffer               0045f3ff f   jcshuff.obj
 0001:0005e423       _emit_restart              0045f423 f   jcshuff.obj
 0001:0005e490       _flush_bits                0045f490 f   jcshuff.obj
 0001:0005e4b4       _finish_pass_huff          0045f4b4 f   jcshuff.obj
 0001:0005e523       _encode_mcu_gather         0045f523 f   jcshuff.obj
 0001:0005e5d9       _htest_one_block           0045f5d9 f   jcshuff.obj
 0001:0005e6a0       _finish_pass_gather        0045f6a0 f   jcshuff.obj
 0001:0005a3b6       _need_optimization_pass    0045b3b6 f   jclhuff.obj
 0001:0005debe       _scaler_start_pass         0045eebe f   jcscale.obj
 0001:0005dee1       _simple_downscale          0045eee1 f   jcscale.obj
 0001:0005df0d       _noscale                   0045ef0d f   jcscale.obj
 0001:000327da       _start_pass_downsample     004337da f   vid_dll.obj
 0001:0005d78f       _sep_downsample            0045e78f f   jcsample.obj
 0001:0005d804       _int_downsample            0045e804 f   jcsample.obj
 0001:0005d8fc       _expand_right_edge         0045e8fc f   jcsample.obj
 0001:0005d951       _fullsize_downsample       0045e951 f   jcsample.obj
 0001:0005d995       _h2v1_downsample           0045e995 f   jcsample.obj
 0001:0005da29       _h2v2_downsample           0045ea29 f   jcsample.obj
 0001:0005dad6       _h2v2_smooth_downsample    0045ead6 f   jcsample.obj
 0001:0005dd4e       _fullsize_smooth_downsample 0045ed4e f   jcsample.obj
 0001:0005d18b       _start_pass_prep           0045e18b f   jcprepct.obj
 0001:0005d1c9       _pre_process_data          0045e1c9 f   jcprepct.obj
 0001:0005d377       _pre_process_context       0045e377 f   jcprepct.obj
 0001:0005d530       _create_context_buffer     0045e530 f   jcprepct.obj
 0001:0005cbeb       _start_pass                0045dbeb f   jcpred.obj
 0001:0005cc43       _reset_predictor           0045dc43 f   jcpred.obj
 0001:0005cc70       _jpeg_difference_first_row 0045dc70 f   jcpred.obj
 0001:0005cd5a       _jpeg_difference1          0045dd5a f   jcpred.obj
 0001:0005cdc8       _jpeg_difference2          0045ddc8 f   jcpred.obj
 0001:0005ce39       _jpeg_difference3          0045de39 f   jcpred.obj
 0001:0005ceb1       _jpeg_difference4          0045deb1 f   jcpred.obj
 0001:0005cf3c       _jpeg_difference5          0045df3c f   jcpred.obj
 0001:0005cfcf       _jpeg_difference6          0045dfcf f   jcpred.obj
 0001:0005d05e       _jpeg_difference7          0045e05e f   jcpred.obj
 0001:0005c162       _start_pass_phuff          0045d162 f   jcphuff.obj
 0001:0005c2cf       _encode_mcu_DC_first       0045d2cf f   jcphuff.obj
 0001:0005c401       _emit_bits                 0045d401 f   jcphuff.obj
 0001:0005c4ac       _dump_buffer               0045d4ac f   jcphuff.obj
 0001:0005c4e4       _emit_symbol               0045d4e4 f   jcphuff.obj
 0001:0005c524       _emit_restart              0045d524 f   jcphuff.obj
 0001:0005c5ad       _emit_eobrun               0045d5ad f   jcphuff.obj
 0001:0005c633       _encode_mcu_AC_first       0045d633 f   jcphuff.obj
 0001:0005c7c7       _encode_mcu_DC_refine      0045d7c7 f   jcphuff.obj
 0001:0005c881       _encode_mcu_AC_refine      0045d881 f   jcphuff.obj
 0001:0005ca98       _finish_pass_phuff         0045da98 f   jcphuff.obj
 0001:0005cae7       _finish_pass_gather_phuff  0045dae7 f   jcphuff.obj
 0001:0005cbaa       _need_optimization_pass    0045dbaa f   jcphuff.obj
 0001:0005bce5       _std_huff_tables           0045cce5 f   jcparam.obj
 0001:0005bd3f       _add_huff_table            0045cd3f f   jcparam.obj
 0001:0005aff6       _initial_setup             0045bff6 f   jcmaster.obj
 0001:0005b1a9       _validate_script           0045c1a9 f   jcmaster.obj
 0001:0005b581       _prepare_for_pass          0045c581 f   jcmaster.obj
 0001:0005b6f9       _select_scan_parameters    0045c6f9 f   jcmaster.obj
 0001:0005b7fa       _per_scan_setup            0045c7fa f   jcmaster.obj
 0001:0005b9a5       _pass_startup              0045c9a5 f   jcmaster.obj
 0001:0005b9cc       _finish_pass_master        0045c9cc f   jcmaster.obj
 0001:0005a6a7       _write_marker_header       0045b6a7 f   jcmarker.obj
 0001:0005a6fd       _emit_byte                 0045b6fd f   jcmarker.obj
 0001:0005a72e       _write_marker_byte         0045b72e f   jcmarker.obj
 0001:0005a73e       _write_file_header         0045b73e f   jcmarker.obj
 0001:0005a78a       _emit_jfif_app0            0045b78a f   jcmarker.obj
 0001:0005a85d       _emit_adobe_app14          0045b85d f   jcmarker.obj
 0001:0005a903       _write_frame_header        0045b903 f   jcmarker.obj
 0001:0005a9e2       _emit_dqt                  0045b9e2 f   jcmarker.obj
 0001:0005aad1       _emit_sof                  0045bad1 f   jcmarker.obj
 0001:0005abad       _write_scan_header         0045bbad f   jcmarker.obj
 0001:0005ac6d       _emit_dht                  0045bc6d f   jcmarker.obj
 0001:0005ad46       _emit_dri                  0045bd46 f   jcmarker.obj
 0001:0005ad95       _emit_sos                  0045bd95 f   jcmarker.obj
 0001:0005ae83       _write_file_trailer        0045be83 f   jcmarker.obj
 0001:0005aea3       _write_tables_only         0045bea3 f   jcmarker.obj
 0001:0005a57b       _start_pass_main           0045b57b f   jcmainct.obj
 0001:0005a5bd       _process_data_simple_main  0045b5bd f   jcmainct.obj
 0001:0005a4ce       _start_pass                0045b4ce f   jclossy.obj
 0001:0005a42f       _start_pass                0045b42f f   jclossls.obj
 0001:00059ccc       _start_pass_huff           0045accc f   jclhuff.obj
 0001:00059e69       _encode_mcus_huff          0045ae69 f   jclhuff.obj
 0001:0005a054       _emit_bits                 0045b054 f   jclhuff.obj
 0001:0005a0f7       _dump_buffer               0045b0f7 f   jclhuff.obj
 0001:0005a11b       _emit_restart              0045b11b f   jclhuff.obj
 0001:0005a166       _flush_bits                0045b166 f   jclhuff.obj
 0001:0005a18a       _finish_pass_huff          0045b18a f   jclhuff.obj
 0001:0005a1f7       _encode_mcus_gather        0045b1f7 f   jclhuff.obj
 0001:0005a320       _finish_pass_gather        0045b320 f   jclhuff.obj
 0001:0005a3b6       _need_optimization_pass    0045b3b6 f   jclhuff.obj
 0001:000594d2       _start_pass_diff           0045a4d2 f   jcdiffct.obj
 0001:000582f1       _start_iMCU_row            004592f1 f   jccoefct.obj
 0001:00059570       _compress_data             0045a570 f   jcdiffct.obj
 0001:00059706       _compress_first_pass       0045a706 f   jcdiffct.obj
 0001:000597fb       _compress_output           0045a7fb f   jcdiffct.obj
 0001:00058efd       _start_pass_fdctmgr        00459efd f   jcdctmgr.obj
 0001:0005909b       _forward_DCT               0045a09b f   jcdctmgr.obj
 0001:000591e7       _forward_DCT_float         0045a1e7 f   jcdctmgr.obj
 0001:00058a1f       _rgb_ycc_start             00459a1f f   jccolor.obj
 0001:00058ae3       _rgb_ycc_convert           00459ae3 f   jccolor.obj
 0001:00058be2       _rgb_gray_convert          00459be2 f   jccolor.obj
 0001:00058c67       _cmyk_ycck_convert         00459c67 f   jccolor.obj
 0001:00058d9f       _grayscale_convert         00459d9f f   jccolor.obj
 0001:00058df9       _null_convert              00459df9 f   jccolor.obj
 0001:000327da       _null_method               004337da f   vid_dll.obj
 0001:0005825c       _start_pass_coef           0045925c f   jccoefct.obj
 0001:000582f1       _start_iMCU_row            004592f1 f   jccoefct.obj
 0001:00058333       _compress_data             00459333 f   jccoefct.obj
 0001:0005851a       _compress_first_pass       0045951a f   jccoefct.obj
 0001:00058700       _compress_output           00459700 f   jccoefct.obj
 0001:00057393       _huft_build                00458393 f   inftrees.obj
 0001:0005590c       _SWimp_InitGraphics        0045690c f   rw_imp.obj
 0001:00055694       _DIB_RestoreSystemColors   00456694 f   rw_dib.obj
 0001:000556b5       _DIB_SaveSystemColors      004566b5 f   rw_dib.obj
 0001:000551ed       _DDrawError                004561ed f   rw_ddraw.obj
 0001:000510c2       _R_DrawPoly                004520c2 f   r_poly.obj
 0001:0004d628       _Screenshot                0044e628 f   r_main.obj
 0001:0004d64b       _GetClientLight            0044e64b f   r_main.obj
 0001:0004d652       _R_EndFrame                0044e652 f   r_main.obj
 0001:0004d665       _Draw_Fill2                0044e665 f   r_main.obj
 0001:000488c6       _R_AliasSetupSkin          004498c6 f   r_alias.obj
 0001:00046f82       _CompareAttributes         00447f82 f   q_shwin.obj
 0001:00044bdb       _logAlphaFunc@8            00445bdb f   qgl_win.obj
 0001:00044c1c       _EnumName                  00445c1c f   qgl_win.obj
 0001:00045219       _logArrayElement@4         00446219 f   qgl_win.obj
 0001:00045243       _logBegin@4                00446243 f   qgl_win.obj
 0001:00045273       _logBindTexture@8          00446273 f   qgl_win.obj
 0001:000452ac       _logBlendFunc@8            004462ac f   qgl_win.obj
 0001:000452ec       _logClear@4                004462ec f   qgl_win.obj
 0001:00045312       _logClearColor@16          00446312 f   qgl_win.obj
 0001:00045373       _logClearDepth@8           00446373 f   qgl_win.obj
 0001:000453a5       _logColor3f@12             004463a5 f   qgl_win.obj
 0001:000453f7       _logColor3fv@4             004463f7 f   qgl_win.obj
 0001:0004541d       _logColor4f@16             0044641d f   qgl_win.obj
 0001:0004547e       _logColor4fv@4             0044647e f   qgl_win.obj
 0001:000454a4       _logColor4ub@16            004464a4 f   qgl_win.obj
 0001:000454ea       _logColor4ubv@4            004464ea f   qgl_win.obj
 0001:00045510       _logColorPointer@16        00446510 f   qgl_win.obj
 0001:00045555       _logCullFace@4             00446555 f   qgl_win.obj
 0001:00045585       _logDeleteTextures@8       00446585 f   qgl_win.obj
 0001:000455b7       _logDepthFunc@4            004465b7 f   qgl_win.obj
 0001:000455e7       _logDepthMask@4            004465e7 f   qgl_win.obj
 0001:00045613       _logDepthRange@16          00446613 f   qgl_win.obj
 0001:00045657       _logDisable@4              00446657 f   qgl_win.obj
 0001:00045687       _logDisableClientState@4   00446687 f   qgl_win.obj
 0001:000456b7       _logDrawBuffer@4           004466b7 f   qgl_win.obj
 0001:000456e7       _logDrawElements@16        004466e7 f   qgl_win.obj
 0001:00045733       _logEnable@4               00446733 f   qgl_win.obj
 0001:00045763       _logEnableClientState@4    00446763 f   qgl_win.obj
 0001:00045793       _logEnd@0                  00446793 f   qgl_win.obj
 0001:000457b2       _logFinish@0               004467b2 f   qgl_win.obj
 0001:000457d1       _logFogf@8                 004467d1 f   qgl_win.obj
 0001:00045812       _logFogfv@8                00446812 f   qgl_win.obj
 0001:0004584b       _logFrustum@48             0044684b f   qgl_win.obj
 0001:000458cf       _logGetError@0             004468cf f   qgl_win.obj
 0001:000458ee       _logGetFloatv@8            004468ee f   qgl_win.obj
 0001:00045918       _logGetIntegerv@8          00446918 f   qgl_win.obj
 0001:00045942       _logGetString@4            00446942 f   qgl_win.obj
 0001:00045968       _logLoadIdentity@0         00446968 f   qgl_win.obj
 0001:00045987       _logLoadMatrixf@4          00446987 f   qgl_win.obj
 0001:000459ad       _logMatrixMode@4           004469ad f   qgl_win.obj
 0001:000459dd       _logOrtho@48               004469dd f   qgl_win.obj
 0001:00045a61       _logPolygonMode@8          00446a61 f   qgl_win.obj
 0001:00045aa1       _logPolygonOffset@8        00446aa1 f   qgl_win.obj
 0001:00045ae4       _logPopMatrix@0            00446ae4 f   qgl_win.obj
 0001:00045b03       _logPushMatrix@0           00446b03 f   qgl_win.obj
 0001:00045b22       _logReadPixels@28          00446b22 f   qgl_win.obj
 0001:00045b80       _logRotatef@16             00446b80 f   qgl_win.obj
 0001:00045be1       _logScalef@12              00446be1 f   qgl_win.obj
 0001:00045c33       _logScissor@16             00446c33 f   qgl_win.obj
 0001:00045c71       _logShadeModel@4           00446c71 f   qgl_win.obj
 0001:00045ca1       _logTexCoord2f@8           00446ca1 f   qgl_win.obj
 0001:00045ce4       _logTexCoordPointer@16     00446ce4 f   qgl_win.obj
 0001:00045d29       _logTexEnvf@12             00446d29 f   qgl_win.obj
 0001:00045d77       _logTexEnvfv@12            00446d77 f   qgl_win.obj
 0001:00045dbd       _logTexEnvi@12             00446dbd f   qgl_win.obj
 0001:00045e0a       _logTexImage2D@36          00446e0a f   qgl_win.obj
 0001:00045e7b       _logTexParameterf@12       00446e7b f   qgl_win.obj
 0001:00045ec9       _logTexSubImage2D@36       00446ec9 f   qgl_win.obj
 0001:00045f3a       _logTranslatef@12          00446f3a f   qgl_win.obj
 0001:00045f8c       _logVertex2f@8             00446f8c f   qgl_win.obj
 0001:00045fcf       _logVertex3f@12            00446fcf f   qgl_win.obj
 0001:00046021       _logVertex3fv@4            00447021 f   qgl_win.obj
 0001:00046047       _logVertexPointer@16       00447047 f   qgl_win.obj
 0001:0004608c       _logViewport@16            0044708c f   qgl_win.obj
 0001:000460ca       _logwglChoosePixelFormat@8 004470ca f   qgl_win.obj
 0001:000460f4       _logwglDescribePixelFormat@16 004470f4 f   qgl_win.obj
 0001:00046126       _logwglSetPixelFormat@12   00447126 f   qgl_win.obj
 0001:00046154       _logwglSwapBuffers@4       00447154 f   qgl_win.obj
 0001:0004617a       _logwglCreateContext@4     0044717a f   qgl_win.obj
 0001:000461a0       _logwglDeleteContext@4     004471a0 f   qgl_win.obj
 0001:000461c6       _logwglGetProcAddress@4    004471c6 f   qgl_win.obj
 0001:000461ec       _logwglMakeCurrent@8       004471ec f   qgl_win.obj
 0001:00046216       _logSelectTextureSGIS@4    00447216 f   qgl_win.obj
 0001:00046246       _logSelectTextureCoordSetSGIS@4 00447246 f   qgl_win.obj
 0001:00046276       _logMultiTexCoord2fSGIS@12 00447276 f   qgl_win.obj
 0001:000462c6       _logActiveTextureARB@4     004472c6 f   qgl_win.obj
 0001:000462f6       _logClientActiveTextureARB@4 004472f6 f   qgl_win.obj
 0001:00046326       _logMultiTexCoord2fARB@12  00447326 f   qgl_win.obj
 0001:00046376       _logLockArraysEXT@8        00447376 f   qgl_win.obj
 0001:000463a8       _logUnlockArraysEXT@0      004473a8 f   qgl_win.obj
 0001:000463c7       _logGenFencesNV@8          004473c7 f   qgl_win.obj
 0001:000463f1       _logDeleteFencesNV@8       004473f1 f   qgl_win.obj
 0001:0004641b       _logSetFenceNV@8           0044741b f   qgl_win.obj
 0001:00046445       _logFinishFenceNV@4        00447445 f   qgl_win.obj
 0001:0004646b       _logwglSwapIntervalEXT@4   0044746b f   qgl_win.obj
 0001:00046495       _logglVertexArrayRangeNV@8 00447495 f   qgl_win.obj
 0001:000464bf       _logglFlushVertexArrayRangeNV@0 004474bf f   qgl_win.obj
 0001:000464de       _logglAllocateMemoryNV@16  004474de f   qgl_win.obj
 0001:0004651b       _logglFreeMemoryNV@4       0044751b f   qgl_win.obj
 0001:000468d3       _ExtensionSupported        004478d3 f   qgl_win.obj
 0001:0004474e       _RestoreGamma              0044574e f   glw_imp.obj
 0001:000447f6       _ReadGamma                 004457f6 f   glw_imp.obj
 0001:00044838       _GLimp_InitGL              00445838 f   glw_imp.obj
 0001:000448f1       _GLimp_SetPixelFormat      004458f1 f   glw_imp.obj
 0001:00044a70       _VerifyDriver              00445a70 f   glw_imp.obj
 0001:00042496       _SetupModelMatrix          00443496 f   gl_world.obj
 0001:0004256c       _AddInlineModelSurfaces    0044356c f   gl_world.obj
 0001:00042648       _AddBspSurfaces            00443648 f   gl_world.obj
 0001:0004296e       _BoxCull                   0044396e f   gl_world.obj
 0001:000429cf       _TransformedBoxCull        004439cf f   gl_world.obj
 0001:00042adf       _AddMd3Surfaces            00443adf f   gl_world.obj
 0001:00042b53       _AddSp2Surface             00443b53 f   gl_world.obj
 0001:00042c98       _WalkBspTree               00443c98 f   gl_world.obj
 0001:00042f74       _DrawEntities              00443f74 f   gl_world.obj
 0001:000431e0       _SphereCull                004441e0 f   gl_world.obj
 0001:00043294       _SphereLeaf                00444294 f   gl_world.obj
 0001:0004335d       _AlphaSphereLeaf           0044435d f   gl_world.obj
 0001:00043453       _DrawParticles             00444453 f   gl_world.obj
 0001:00043495       _DrawFlares                00444495 f   gl_world.obj
 0001:00043a57       _PointCull                 00444a57 f   gl_world.obj
 0001:00043ab4       _ClipTraceToEntities       00444ab4 f   gl_world.obj
 0001:00043c82       _DrawBspSequence           00444c82 f   gl_world.obj
 0001:00043dc9       _AddBeamSurfaces           00444dc9 f   gl_world.obj
 0001:000440ec       _MarkLeaves                004450ec f   gl_world.obj
 0001:000416d6       _ClipSkyPolygon            004426d6 f   gl_sky.obj
 0001:00041cc2       _AddSkyVec                 00442cc2 f   gl_sky.obj
 0001:000404b1       _Shaderlist_f              004414b1 f   gl_shader.obj
 0001:000406dc       _ComputeHash               004416dc f   gl_shader.obj
 0001:000406f9       _ResortShader              004416f9 f   gl_shader.obj
 0001:000407c2       _AddPermanentShader        004417c2 f   gl_shader.obj
 0001:000408df       _ExtractShader             004418df f   gl_shader.obj
 0001:00040967       _ClearTempShader           00441967 f   gl_shader.obj
 0001:00040acb       _FinishShader              00441acb f   gl_shader.obj
 0001:00041204       _NewTcModStage             00442204 f   gl_shader.obj
 0001:0003ffe7       _NewPoly                   00440fe7 f   gl_poly.obj
 0001:0004000e       _SubdividePoly             0044100e f   gl_poly.obj
 0001:000401f7       _NewVert                   004411f7 f   gl_poly.obj
 0001:0003d38c       _LoadFlares                0043e38c f   gl_model.obj
 0001:0003d43a       _LoadSlights               0043e43a f   gl_model.obj
 0001:0003d4e9       _GetSurfLightCluster       0043e4e9 f   gl_model.obj
 0001:0003d592       _InitLightGrid             0043e592 f   gl_model.obj
 0001:0003d63f       _LoadBsp2                  0043e63f f   gl_model.obj
 0001:0003d8f9       _LoadPlanes                0043e8f9 f   gl_model.obj
 0001:0003d985       _LoadLighting2             0043e985 f   gl_model.obj
 0001:0003d9c2       _CopyLightmap              0043e9c2 f   gl_model.obj
 0001:0003dbf0       _CreateSolarColor          0043ebf0 f   gl_model.obj
 0001:0003dcbf       _LoadLeafsNodes2           0043ecbf f   gl_model.obj
 0001:0003de15       _SetNodeParent             0043ee15 f   gl_model.obj
 0001:0003de3a       _SetNodesAlpha             0043ee3a f   gl_model.obj
 0001:0003dea5       _LoadInlineModels2         0043eea5 f   gl_model.obj
 0001:0003df51       _LoadSurfaces2             0043ef51 f   gl_model.obj
 0001:0003e77a       _BuildSurfFlare            0043f77a f   gl_model.obj
 0001:0003e8cf       _BuildSurfLight            0043f8cf f   gl_model.obj
 0001:0003ea70       _BuildPlanarSurfAxis       0043fa70 f   gl_model.obj
 0001:0003eb94       _GenerateLightmaps2        0043fb94 f   gl_model.obj
 0001:0003ef1f       _LightmapCompare           0043ff1f f   gl_model.obj
 0001:0003ef6b       _ShaderCompare             0043ff6b f   gl_model.obj
 0001:0003ef82       _LoadLeafSurfaces2         0043ff82 f   gl_model.obj
 0001:0003efbe       _LoadVisinfo2              0043ffbe f   gl_model.obj
 0001:0003f0b6       _FreeMapData               004400b6 f   gl_model.obj
 0001:0003f138       _LoadMd2                   00440138 f   gl_model.obj
 0001:0003f43a       _ParseGlCmds               0044043a f   gl_model.obj
 0001:0003f5d9       _ProcessMd2Frame           004405d9 f   gl_model.obj
 0001:0003f76c       _BuildMd2Normals           0044076c f   gl_model.obj
 0001:0003face       _SetMd3Skin                00440ace f   gl_model.obj
 0001:0003fba6       _LoadSp2                   00440ba6 f   gl_model.obj
 0001:0003fd44       _FreeModels                00440d44 f   gl_model.obj
 0001:0003fd86       _FreeModel                 00440d86 f   gl_model.obj
 0001:0003fdde       _Modellist_f               00440dde f   gl_model.obj
 0001:0003b490       _DrawTextPos               0043c490 f   gl_main.obj
 0001:0003b74f       _GL_Init                   0043c74f f   gl_main.obj
 0001:0003b997       _GL_Register               0043c997 f   gl_main.obj
 0001:0003b9b6       _Gfxinfo_f                 0043c9b6 f   gl_main.obj
 0001:0003ba48       _GL_SetMode                0043ca48 f   gl_main.obj
 0001:0003bb59       _GL_Shutdown               0043cb59 f   gl_main.obj
 0001:0003bb8a       _GL_BeginFrame             0043cb8a f   gl_main.obj
 0001:0003bcb8       _GL_EndFrame               0043ccb8 f   gl_main.obj
 0001:0003bdc3       _GL_RenderFrame            0043cdc3 f   gl_main.obj
 0001:0003c424       _PrepareWorldModel         0043d424 f   gl_main.obj
 0001:0003c535       _SetFrustum                0043d535 f   gl_main.obj
 0001:0003c6b3       _SetPerspective            0043d6b3 f   gl_main.obj
 0001:0003c856       _DrawCharColor             0043d856 f   gl_main.obj
 0001:0003c947       _DrawConCharColor          0043d947 f   gl_main.obj
 0001:0003c96e       _DrawFill                  0043d96e f   gl_main.obj
 0001:0003c9af       _DrawFill2                 0043d9af f   gl_main.obj
 0001:0003ca47       _DrawTileClear             0043da47 f   gl_main.obj
 0001:0003cab3       _FindPic                   0043dab3 f   gl_main.obj
 0001:0003caec       _DrawStretchPic            0043daec f   gl_main.obj
 0001:0003cb30       _DrawPicColor              0043db30 f   gl_main.obj
 0001:0003cb84       _GetPicSize                0043db84 f   gl_main.obj
 0001:0003cbc7       _DrawTexts                 0043dbc7 f   gl_main.obj
 0001:0003ccb6       _BeginRegistration         0043dcb6 f   gl_main.obj
 0001:000327da       _EndRegistration           004337da f   vid_dll.obj
 0001:0003cce2       _RegisterPic               0043dce2 f   gl_main.obj
 0001:0003ccf0       _SetSky                    0043dcf0 f   gl_main.obj
 0001:0003cdaa       _Screenshot                0043ddaa f   gl_main.obj
 0001:0003cdcd       _GetClientLight            0043ddcd f   gl_main.obj
 0001:00039d24       _LightLine                 0043ad24 f   gl_light.obj
 0001:00039eae       _AddLight                  0043aeae f   gl_light.obj
 0001:00039f8e       _AddPointLight             0043af8e f   gl_light.obj
 0001:0003a1a1       _GetCellLight              0043b1a1 f   gl_light.obj
 0001:0003a492       _AddSurfaceLight           0043b492 f   gl_light.obj
 0001:00036860       _ComputeHash               00437860 f   gl_image.obj
 0001:00036882       _ComputeImageColor         00437882 f   gl_image.obj
 0001:000368ef       _Upload                    004378ef f   gl_image.obj
 0001:00036cc0       _ResampleTexture           00437cc0 f   gl_image.obj
 0001:00036f81       _LightScaleTexture         00437f81 f   gl_image.obj
 0001:0003713c       _LightScaleLightmap        0043813c f   gl_image.obj
 0001:00037205       _MipMap                    00438205 f   gl_image.obj
 0001:00037413       _GetImageDimensions        00438413 f   gl_image.obj
 0001:00037e2b       _GetPalette                00438e2b f   gl_image.obj
 0001:00037eb3       _Imagelist_f               00438eb3 f   gl_image.obj
 0001:00038698       _Convert8to32bit           00439698 f   gl_image.obj
 0001:00033564       _SetCurrentShader          00434564 f   gl_backend.obj
 0001:000335d3       _FlushArrays               004345d3 f   gl_backend.obj
 0001:00033616       _SwitchVertexArray         00434616 f   gl_backend.obj
 0001:0003365f       _StageIterator             0043465f f   gl_backend.obj
 0001:00033952       _ProcessShaderDeforms      00434952 f   gl_backend.obj
 0001:00033a56       _GenerateColorArray        00434a56 f   gl_backend.obj
 0001:00033e40       _GenerateTexCoordArray     00434e40 f   gl_backend.obj
 0001:0003442a       _PreprocessShader          0043542a f   gl_backend.obj
 0001:00034c58       _ReserveVerts              00435c58 f   gl_backend.obj
 0001:00034cb9       _DrawTriangles             00435cb9 f   gl_backend.obj
 0001:00034d47       _FlashColor                00435d47 f   gl_backend.obj
 0001:00034dc1       _DrawNormals               00435dc1 f   gl_backend.obj
 0001:00035040       _DrawScene                 00436040 f   gl_backend.obj
 0001:0003540b       _DrawSkyBox                0043640b f   gl_backend.obj
 0001:0003569e       _CheckDynamicLightmap      0043669e f   gl_backend.obj
 0001:0003578c       _TesselatePlanarSurf       0043678c f   gl_backend.obj
 0001:000358ad       _TesselatePolySurf         004368ad f   gl_backend.obj
 0001:000359b0       _TesselateMd3Surf          004369b0 f   gl_backend.obj
 0001:00035e60       _DrawBBoxes                00436e60 f   gl_backend.obj
 0001:00036065       _DrawFastSurfaces          00437065 f   gl_backend.obj
 0001:000361e5       _DrawParticles             004371e5 f   gl_backend.obj
 0001:0003640c       _TesselateStretchPic       0043740c f   gl_backend.obj
 0001:00032eef       _DriverCallback            00433eef f   vid_menu.obj
 0001:00032f44       _ScreenSizeCallback        00433f44 f   vid_menu.obj
 0001:00032f64       _BrightnessCallback        00433f64 f   vid_menu.obj
 0001:00032fa1       _CancelChanges             00433fa1 f   vid_menu.obj
 0001:00033130       _ApplyChanges              00434130 f   vid_menu.obj
 0001:00031c9b       _WIN_DisableAltTab         00432c9b f   vid_dll.obj
 0001:00031ce7       _WIN_EnableAltTab          00432ce7 f   vid_dll.obj
 0001:00031f1d       _MainWndProc@16            00432f1d f   vid_dll.obj
 0001:00032230       _MapKey                    00433230 f   vid_dll.obj
 0001:00032588       _Vid_LoadRefresh           00433588 f   vid_dll.obj
 0001:000327da       _D_RenderFrame             004337da f   vid_dll.obj
 0001:000327da       _D_BeginRegistration       004337da f   vid_dll.obj
 0001:0006064f       _D_RegisterModel           0046164f f   jddiffct.obj
 0001:0006064f       _D_RegisterSkin            0046164f f   jddiffct.obj
 0001:0006064f       _D_FindPic                 0046164f f   jddiffct.obj
 0001:000327da       _D_SetSky                  004337da f   vid_dll.obj
 0001:000327da       _D_EndRegistration         004337da f   vid_dll.obj
 0001:000327b7       _D_Draw_GetPicSize         004337b7 f   vid_dll.obj
 0001:000327ce       _D_Screenshot              004337ce f   vid_dll.obj
 0001:000327da       _D_Draw_PicColor           004337da f   vid_dll.obj
 0001:000327da       _D_Draw_StretchPic         004337da f   vid_dll.obj
 0001:000327da       _D_Draw_CharColor          004337da f   vid_dll.obj
 0001:000327da       _D_Draw_TileClear          004337da f   vid_dll.obj
 0001:000327da       _D_Draw_Fill               004337da f   vid_dll.obj
 0001:000327da       _D_Draw_Fill2              004337da f   vid_dll.obj
 0001:000327da       _D_DrawTextPos             004337da f   vid_dll.obj
 0001:000327da       _D_DrawTextSide            004337da f   vid_dll.obj
 0001:000327da       _D_Draw_StretchRaw         004337da f   vid_dll.obj
 0001:000327da       _D_SetPalette              004337da f   vid_dll.obj
 0001:000327db       _D_GetClientLight          004337db f   vid_dll.obj
 0001:00032829       _Vid_Restart_f             00433829 f   vid_dll.obj
 0001:00032836       _Vid_Front_f               00433836 f   vid_dll.obj
 0001:000312ea       _ExceptionFilter@4         004322ea f   sys_win.obj
 0001:0003155c       _DumpReg4                  0043255c f   sys_win.obj
 0001:000315f4       _DumpMem                   004325f4 f   sys_win.obj
 0001:00030358       _SV_CreateAreaNode         00431358 f   sv_world.obj
 0001:00030aeb       _SV_AreaEdicts_r           00431aeb f   sv_world.obj
 0001:0002ea9c       _SV_PrepWorldFrame         0042fa9c f   sv_main.obj
 0001:0002c9db       _PF_Unicast                0042d9db f   sv_game.obj
 0001:0002ca47       _PF_dprintf                0042da47 f   sv_game.obj
 0001:0002ca7a       _PF_cprintf                0042da7a f   sv_game.obj
 0001:0002cb11       _PF_centerprintf           0042db11 f   sv_game.obj
 0001:0002cb79       _PF_error                  0042db79 f   sv_game.obj
 0001:0002cbae       _PF_setmodel               0042dbae f   sv_game.obj
 0001:0002cc0e       _PF_Configstring           0042dc0e f   sv_game.obj
 0001:0002cc8e       _PF_WriteChar              0042dc8e f   sv_game.obj
 0001:0002cc8e       _PF_WriteByte              0042dc8e f   sv_game.obj
 0001:0002cc9f       _PF_WriteShort             0042dc9f f   sv_game.obj
 0001:0002ccb0       _PF_WriteLong              0042dcb0 f   sv_game.obj
 0001:0002ccc1       _PF_WriteFloat             0042dcc1 f   sv_game.obj
 0001:0002ccd6       _PF_WriteString            0042dcd6 f   sv_game.obj
 0001:0002cce7       _PF_WritePos               0042dce7 f   sv_game.obj
 0001:0002ccf8       _PF_WriteDir               0042dcf8 f   sv_game.obj
 0001:0002cd09       _PF_WriteAngle             0042dd09 f   sv_game.obj
 0001:0002cd1e       _PF_inPVS                  0042dd1e f   sv_game.obj
 0001:0002cd96       _PF_inPHS                  0042dd96 f   sv_game.obj
 0001:0002ce0e       _PF_StartSound             0042de0e f   sv_game.obj
 0001:0002ce41       _PF_Cvar_Get               0042de41 f   sv_game.obj
 0001:0002ce5c       _PSV_LinkEdict             0042de5c f   sv_game.obj
 0001:0002ce88       _PSV_UnlinkEdict           0042de88 f   sv_game.obj
 0001:0002ceb4       _PSV_AreaEdicts            0042deb4 f   sv_game.obj
 0001:0002cef2       _PSV_Trace                 0042def2 f   sv_game.obj
 0001:0002cf51       _PSV_PointContents         0042df51 f   sv_game.obj
 0001:0002cf81       _PPmove                    0042df81 f   sv_game.obj
 0001:0002cfad       _PSV_ModelIndex            0042dfad f   sv_game.obj
 0001:0002cfdd       _PSV_ImageIndex            0042dfdd f   sv_game.obj
 0001:0002d00d       _PSV_SoundIndex            0042e00d f   sv_game.obj
 0001:0002d03d       _PPF_TagMalloc             0042e03d f   sv_game.obj
 0001:0002d073       _PZ_Free                   0042e073 f   sv_game.obj
 0001:0002d09f       _PZ_FreeTags               0042e09f f   sv_game.obj
 0001:0002b3ac       _SV_Kick_f                 0042c3ac f   sv_ccmds.obj
 0001:0002b41e       _SetPlayer                 0042c41e f   sv_ccmds.obj
 0001:0002b4ef       _SV_Ban_f                  0042c4ef f   sv_ccmds.obj
 0001:0002b5a3       _AddBanString              0042c5a3 f   sv_ccmds.obj
 0001:0002b5ff       _FindBanString             0042c5ff f   sv_ccmds.obj
 0001:0002b639       _SV_BanIP_f                0042c639 f   sv_ccmds.obj
 0001:0002b6e6       _SV_BanList_f              0042c6e6 f   sv_ccmds.obj
 0001:0002b723       _SV_BanRemove_f            0042c723 f   sv_ccmds.obj
 0001:0002b7d7       _SV_DumpUser_f             0042c7d7 f   sv_ccmds.obj
 0001:0002b827       _SV_Status_f               0042c827 f   sv_ccmds.obj
 0001:0002b937       _SV_ConSay_f               0042c937 f   sv_ccmds.obj
 0001:0002b9ca       _SV_Heartbeat_f            0042c9ca f   sv_ccmds.obj
 0001:0002b9d5       _SV_Serverinfo_f           0042c9d5 f   sv_ccmds.obj
 0001:0002b9ed       _SV_ServerRecord_f         0042c9ed f   sv_ccmds.obj
 0001:0002bba4       _SV_ServerStop_f           0042cba4 f   sv_ccmds.obj
 0001:0002bbd0       _SV_KillServer_f           0042cbd0 f   sv_ccmds.obj
 0001:0002bbf0       _SV_ServerCommand_f        0042cbf0 f   sv_ccmds.obj
 0001:0002a028       _DS_DestroyBuffers         0042b028 f   snd_win.obj
 0001:0002a211       _DS_CreateBuffers          0042b211 f   snd_win.obj
 0001:00027763       _Menu_MakeVisible          00428763 f   qmenu.obj
 0001:000277ed       _Menu_CompletelyVisible    004287ed f   qmenu.obj
 0001:00027895       _strlen_color              00428895 f   qmenu.obj
 0001:00027a43       _Action_Draw               00428a43 f   qmenu.obj
 0001:00027abe       _Menu_ItemVisible          00428abe f   qmenu.obj
 0001:00027b07       _Menu_DrawStatusBar        00428b07 f   qmenu.obj
 0001:00027c5c       _MenuList_Draw             00428c5c f   qmenu.obj
 0001:00027ce4       _DrawCaption               00428ce4 f   qmenu.obj
 0001:00027d23       _Separator_Draw            00428d23 f   qmenu.obj
 0001:00027d74       _Slider_DoSlide            00428d74 f   qmenu.obj
 0001:00027dab       _Slider_Draw               00428dab f   qmenu.obj
 0001:00027e9e       _SpinControl_DoSlide       00428e9e f   qmenu.obj
 0001:00027ecd       _SpinControl_Draw          00428ecd f   qmenu.obj
 0001:00027fa8       _SpinControl2_DoSlide      00428fa8 f   qmenu.obj
 0001:00027fe9       _SpinControl2_Draw         00428fe9 f   qmenu.obj
 0001:000247ce       _StepSlideMove             004257ce f   pmove.obj
 0001:00024977       _StepSlideMove_            00425977 f   pmove.obj
 0001:00024bca       _ClipVelocity              00425bca f   pmove.obj
 0001:00024c33       _Friction                  00425c33 f   pmove.obj
 0001:00024d42       _WaterMove                 00425d42 f   pmove.obj
 0001:00024e28       _Accelerate                00425e28 f   pmove.obj
 0001:00024e94       _AddCurrents               00425e94 f   pmove.obj
 0001:00025133       _AirMove                   00426133 f   pmove.obj
 0001:0002538c       _AirAccelerate             0042638c f   pmove.obj
 0001:00025412       _CatagorizePosition        00426412 f   pmove.obj
 0001:00025668       _CheckJump                 00426668 f   pmove.obj
 0001:0002572f       _CheckSpecialMovement      0042672f f   pmove.obj
 0001:00025892       _FlyMove                   00426892 f   pmove.obj
 0001:00025ae5       _CheckDuck                 00426ae5 f   pmove.obj
 0001:00025c1a       _DeadMove                  00426c1a f   pmove.obj
 0001:00025c78       _SnapPosition              00426c78 f   pmove.obj
 0001:00025de1       _GoodPosition              00426de1 f   pmove.obj
 0001:00025e57       _InitialSnapPosition       00426e57 f   pmove.obj
 0001:00025f70       _ClampAngles               00426f70 f   pmove.obj
 0001:00023e69       _NET_ErrorString           00424e69 f   net_wins.obj
 0001:00022004       _SwapQ2BspFile             00423004 f   model.obj
 0001:0002221a       _ProcessQ2BspFile          0042321a f   model.obj
 0001:000222ed       _LoadQ2Submodels           004232ed f   model.obj
 0001:000223bf       _CheckLump                 004233bf f   model.obj
 0001:00022697       _ReadEntity                00423697 f   model.obj
 0001:0002275b       _WriteEntity               0042375b f   model.obj
 0001:000227c6       _ProcessEntityTarget       004237c6 f   model.obj
 0001:0002283f       _FindField                 0042383f f   model.obj
 0001:00022878       _GetVector                 00423878 f   model.obj
 0001:000228a9       _ProcessEntity             004238a9 f   model.obj
 0001:000232b9       _AddField                  004242b9 f   model.obj
 0001:000232f6       _FindEntityTarget          004242f6 f   model.obj
 0001:0001de05       _Multiplayer_MenuDraw      0041ee05 f   menu.obj
 0001:0001de28       _M_Banner                  0041ee28 f   menu.obj
 0001:0001de6a       _Multiplayer_MenuInit      0041ee6a f   menu.obj
 0001:0001df58       _Multiplayer_MenuKey       0041ef58 f   menu.obj
 0001:0001df8a       _Keys_MenuInit             0041ef8a f   menu.obj
 0001:0001e11d       _KeyCursorDrawFunc         0041f11d f   menu.obj
 0001:0001e15e       _DrawKeyBindingFunc        0041f15e f   menu.obj
 0001:0001e236       _M_FindKeysForCommand      0041f236 f   menu.obj
 0001:0001e286       _SeekLine                  0041f286 f   menu.obj
 0001:0001e2ad       _AppendToken               0041f2ad f   menu.obj
 0001:0001e2d7       _Keys_MenuDraw             0041f2d7 f   menu.obj
 0001:0001e2f0       _Keys_MenuKey              0041f2f0 f   menu.obj
 0001:0001e3a5       _M_UnbindCommand           0041f3a5 f   menu.obj
 0001:0001e3f1       _KeyBindingFunc            0041f3f1 f   menu.obj
 0001:0001e464       _Options_MenuInit          0041f464 f   menu.obj
 0001:0001e8ef       _CrosshairFunc             0041f8ef f   menu.obj
 0001:0001e913       _JoystickFunc              0041f913 f   menu.obj
 0001:0001e926       _CustomizeControlsFunc     0041f926 f   menu.obj
 0001:0001e92b       _AlwaysRunFunc             0041f92b f   menu.obj
 0001:0001e93e       _FreeLookFunc              0041f93e f   menu.obj
 0001:0001e951       _MouseSpeedFunc            0041f951 f   menu.obj
 0001:0001e96e       _ControlsSetMenuItemValues 0041f96e f   menu.obj
 0001:0001eb3a       _ControlsResetDefaultsFunc 0041fb3a f   menu.obj
 0001:0001eb4f       _InvertMouseFunc           0041fb4f f   menu.obj
 0001:0001eb6a       _LookspringFunc            0041fb6a f   menu.obj
 0001:0001eb86       _LookstrafeFunc            0041fb86 f   menu.obj
 0001:0001eba2       _UpdateVolumeFunc          0041fba2 f   menu.obj
 0001:0001ebbf       _UpdateCDVolumeFunc        0041fbbf f   menu.obj
 0001:0001ebd8       _ConsoleFunc               0041fbd8 f   menu.obj
 0001:0001ec07       _UpdateSoundFunc           0041fc07 f   menu.obj
 0001:0001ecaf       _Options_ScanCrosshairs    0041fcaf f   menu.obj
 0001:0001ed02       _Options_MenuDraw          0041fd02 f   menu.obj
 0001:0001ed2a       _Options_CrosshairDraw     0041fd2a f   menu.obj
 0001:0001eda1       _Options_MenuKey           0041fda1 f   menu.obj
 0001:0001ee87       _M_Credits_MenuDraw        0041fe87 f   menu.obj
 0001:0001ef6f       _M_Credits_Key             0041ff6f f   menu.obj
 0001:0001efcc       _Game_MenuInit             0041ffcc f   menu.obj
 0001:0001f179       _EasyGameFunc              00420179 f   menu.obj
 0001:0001f18f       _StartGame                 0042018f f   menu.obj
 0001:0001f1d4       _MediumGameFunc            004201d4 f   menu.obj
 0001:0001f1ea       _HardGameFunc              004201ea f   menu.obj
 0001:0001f200       _Game_MenuDraw             00420200 f   menu.obj
 0001:0001f223       _Game_MenuKey              00420223 f   menu.obj
 0001:0001f255       _LoadGame_MenuInit         00420255 f   menu.obj
 0001:0001f2eb       _Create_Savestrings        004202eb f   menu.obj
 0001:0001f36d       _LoadGameCallback          0042036d f   menu.obj
 0001:0001f397       _LoadGame_MenuDraw         00420397 f   menu.obj
 0001:0001f3af       _LoadGame_MenuKey          004203af f   menu.obj
 0001:0001f410       _SaveGame_MenuDraw         00420410 f   menu.obj
 0001:0001f433       _SaveGame_MenuInit         00420433 f   menu.obj
 0001:0001f4bb       _SaveGameCallback          004204bb f   menu.obj
 0001:0001f4da       _SaveGame_MenuKey          004204da f   menu.obj
 0001:0001f5bb       _JoinServer_MenuInit       004205bb f   menu.obj
 0001:0001f70c       _JoinServerFunc            0042070c f   menu.obj
 0001:0001f769       _SearchLocalGames          00420769 f   menu.obj
 0001:0001f7d5       _JoinServer_MenuDraw       004207d5 f   menu.obj
 0001:0001f7ed       _JoinServer_MenuKey        004207ed f   menu.obj
 0001:0001f81f       _StartServer_MenuInit      0042081f f   menu.obj
 0001:0001fccf       _DMOptionsFunc             00420ccf f   menu.obj
 0001:0001fcde       _RulesChangeFunc           00420cde f   menu.obj
 0001:0001fd47       _StartServerActionFunc     00420d47 f   menu.obj
 0001:0001fd73       _StartServerFunc           00420d73 f   menu.obj
 0001:0001ffde       _StartServer_MenuDraw      00420fde f   menu.obj
 0001:0001ffea       _StartServer_MenuKey       00420fea f   menu.obj
 0001:0002004a       _DMOptions_MenuInit        0042104a f   menu.obj
 0001:000205da       _DMFlagCallback            004215da f   menu.obj
 0001:000207c5       _DMOptions_MenuDraw        004217c5 f   menu.obj
 0001:000207d1       _DMOptions_MenuKey         004217d1 f   menu.obj
 0001:00020803       _DownloadOptions_MenuInit  00421803 f   menu.obj
 0001:000209ee       _DownloadCallback          004219ee f   menu.obj
 0001:00020a47       _DownloadOptions_MenuDraw  00421a47 f   menu.obj
 0001:00020a53       _DownloadOptions_MenuKey   00421a53 f   menu.obj
 0001:00020a85       _AddressBook_MenuInit      00421a85 f   menu.obj
 0001:00020b3b       _AddressBook_MenuKey       00421b3b f   menu.obj
 0001:00020b8c       _AddressBook_MenuDraw      00421b8c f   menu.obj
 0001:00020ba4       _M_Menu_PlayerConfig_f     00421ba4 f   menu.obj
 0001:00020bff       _PlayerConfig_MenuInit     00421bff f   menu.obj
 0001:00021028       _HandednessCallback        00422028 f   menu.obj
 0001:0002103b       _RateCallback              0042203b f   menu.obj
 0001:00021059       _ModelCallback             00422059 f   menu.obj
 0001:00021090       _PlayerConfig_ScanDirectories 00422090 f   menu.obj
 0001:00021258       _IsValidSkin               00422258 f   menu.obj
 0001:000212fa       _PlayerConfig_MenuDraw     004222fa f   menu.obj
 0001:00021563       _PlayerConfig_MenuKey      00422563 f   menu.obj
 0001:00021637       _M_Menu_DMBrowse_f         00422637 f   menu.obj
 0001:0002167b       _DMBrowse_MenuInit         0042267b f   menu.obj
 0001:00021853       _DMBrowse_MenuKey          00422853 f   menu.obj
 0001:000219f6       _DMBrowse_MenuDraw         004229f6 f   menu.obj
 0001:00021b1b       _DrawThumbnail             00422b1b f   menu.obj
 0001:00021be2       _M_Quit_Key                00422be2 f   menu.obj
 0001:00021c22       _M_Quit_Draw               00422c22 f   menu.obj
 0001:00021d6f       _M_Menu_Quit_f             00422d6f f   menu.obj
 0001:0001d3cc       _AllocChain                0041e3cc f   memory.obj
 0001:0001d6ba       _Z_Stats_f                 0041e6ba f   memory.obj
 0001:0001cbc3       _MD4Transform              0041dbc3 f   md4.obj
 0001:0001d1c5       _Encode                    0041e1c5 f   md4.obj
 0001:0001d20a       _Decode                    0041e20a f   md4.obj
 0001:0001baba       _CompleteCommand           0041caba f   keys.obj
 0001:0001bb31       _Do_CompleteCommand        0041cb31 f   keys.obj
 0001:0001bfaa       _TryComplete               0041cfaa f   keys.obj
 0001:0001c03f       _CompleteMenu              0041d03f f   keys.obj
 0001:0001c181       _CompleteMenuDraw          0041d181 f   keys.obj
 0001:0001c1e0       _CompleteMenuKey           0041d1e0 f   keys.obj
 0001:0001c212       _CompleteMenuCallback      0041d212 f   keys.obj
 0001:0001c29a       _iswordsym                 0041d29a f   keys.obj
 0001:0001c56c       _Key_Unbind_f              0041d56c f   keys.obj
 0001:0001c652       _Key_Unbindall_f           0041d652 f   keys.obj
 0001:0001c67c       _Key_Bind_f                0041d67c f   keys.obj
 0001:0001a6d5       _IN_DeactivateMouse        0041b6d5 f   in_win.obj
 0001:0001a701       _IN_FreeDirect             0041b701 f   in_win.obj
 0001:0001a762       _IN_FreeWin32              0041b762 f   in_win.obj
 0001:0001a8e3       _IN_ActivateMouse          0041b8e3 f   in_win.obj
 0001:0001a95b       _IN_InitDirect             0041b95b f   in_win.obj
 0001:0001aa9e       _IN_InitWin32              0041ba9e f   in_win.obj
 0001:0001abbe       _IN_MouseMove              0041bbbe f   in_win.obj
 0001:000327da       _J_InitSource              004337da f   vid_dll.obj
 0001:0001a1fd       _J_FillInputBuffer         0041b1fd f   images.obj
 0001:0001a225       _J_SkipInputData           0041b225 f   images.obj
 0001:000327da       _J_TermSource              004337da f   vid_dll.obj
 0001:0001a23d       _InitJpegError             0041b23d f   images.obj
 0001:0001a26e       _J_ErrorExit               0041b26e f   images.obj
 0001:0001a27d       _J_EmitMessage             0041b27d f   images.obj
 0001:0001a29a       _J_ResetErrorMgr           0041b29a f   images.obj
 0001:00017fba       _FindPakFile               00418fba f   files.obj
 0001:0001802a       _FindPakDirectory          0041902a f   files.obj
 0001:000180bb       _FileLength                004190bb f   files.obj
 0001:0001850d       _FOpenCached               0041950d f   files.obj
 0001:0001874d       _AddPakFile                0041974d f   files.obj
 0001:000187ec       _AddPakDirectory           004197ec f   files.obj
 0001:000188ca       _EnumZippedPak             004198ca f   files.obj
 0001:0001893d       _ClearFileCache            0041993d f   files.obj
 0001:00018a2e       _AddDirFilesToList         00419a2e f   files.obj
 0001:00018fde       _ListPakDirectory          00419fde f   files.obj
 0001:00019199       _InitResFiles              0041a199 f   files.obj
 0001:0001927c       _FS_LoadPak_f              0041a27c f   files.obj
 0001:0001934b       _TryLoadPak                0041a34b f   files.obj
 0001:000193b9       _FindPakStruc              0041a3b9 f   files.obj
 0001:0001940e       _FS_UnloadPak_f            0041a40e f   files.obj
 0001:000195b5       _FS_Link_f                 0041a5b5 f   files.obj
 0001:00019681       _FS_Dir_f                  0041a681 f   files.obj
 0001:00019892       _FS_Path_f                 0041a892 f   files.obj
 0001:0001992a       _FS_Cat_f                  0041a92a f   files.obj
 0001:00019a03       _FS_Type_f                 0041aa03 f   files.obj
 0001:0001694c       _Cvar_FindVar              0041794c f   cvar.obj
 0001:00016981       _ComputeHash               00417981 f   cvar.obj
 0001:00016b78       _Cvar_SetString            00417b78 f   cvar.obj
 0001:00016c0e       _Cvar_InfoValidate         00417c0e f   cvar.obj
 0001:00016d1e       _Cvar_Set2                 00417d1e f   cvar.obj
 0001:00016eb6       _Cvar_SetHardcoded         00417eb6 f   cvar.obj
 0001:000172b4       _Cvar_Set_f                004182b4 f   cvar.obj
 0001:00017331       _Cvar_SetWithFlags         00418331 f   cvar.obj
 0001:00017376       _Cvar_Seta_f               00418376 f   cvar.obj
 0001:00017398       _Cvar_Setu_f               00418398 f   cvar.obj
 0001:000173ba       _Cvar_Sets_f               004183ba f   cvar.obj
 0001:000173dc       _Cvar_Reset_f              004183dc f   cvar.obj
 0001:00017441       _Cvar_List_f               00418441 f   cvar.obj
 0001:00017551       _Cvar_Add_f                00418551 f   cvar.obj
 0001:000176c8       _Cvar_Scale_f              004186c8 f   cvar.obj
 0001:0001773b       _Cvar_Toggle_f             0041873b f   cvar.obj
 0001:0001779e       _Cvar_Cycle_f              0041879e f   cvar.obj
 0001:00015cd0       _Con_ToggleChat_f          00416cd0 f   console.obj
 0001:00015d01       _Con_Clear_f               00416d01 f   console.obj
 0001:00015d57       _Con_Dump_f                00416d57 f   console.obj
 0001:00015e6a       _Con_MessageMode_f         00416e6a f   console.obj
 0001:00015e7c       _Con_MessageMode2_f        00416e7c f   console.obj
 0001:00015f1c       _PlaceChar                 00416f1c f   console.obj
 0001:000160a6       _FindLine                  004170a6 f   console.obj
 0001:00016822       _Con_DrawInput             00417822 f   console.obj
 0001:0001411d       _GetInt                    0041511d f   common.obj
 0001:00015131       _Com_Error_f               00416131 f   common.obj
 0001:00011c9a       _CMod_LoadSurfaces         00412c9a f   cmodel.obj
 0001:00011db4       _CMod_ReadSurfMaterials    00412db4 f   cmodel.obj
 0001:00011eef       _CMod_LoadNodes            00412eef f   cmodel.obj
 0001:00011f51       _CMod_LoadBrushes          00412f51 f   cmodel.obj
 0001:00011f9d       _CMod_LoadLeafs            00412f9d f   cmodel.obj
 0001:0001206c       _CMod_LoadPlanes           0041306c f   cmodel.obj
 0001:000120ef       _CMod_LoadLeafBrushes      004130ef f   cmodel.obj
 0001:0001213a       _CMod_LoadBrushSides       0041313a f   cmodel.obj
 0001:000121b3       _CMod_LoadAreas            004131b3 f   cmodel.obj
 0001:0001258d       _CM_PointLeafnum_r         0041358d f   cmodel.obj
 0001:00012650       _CM_BoxLeafnums_r          00413650 f   cmodel.obj
 0001:00012bbb       _CM_TestInLeaf             00413bbb f   cmodel.obj
 0001:00012c43       _CM_TestBoxInBrush         00413c43 f   cmodel.obj
 0001:00012d24       _CM_RecursiveHullCheck     00413d24 f   cmodel.obj
 0001:00012ff6       _CM_TraceToLeaf            00413ff6 f   cmodel.obj
 0001:000130d3       _CM_ClipBoxToBrush         004140d3 f   cmodel.obj
 0001:0001387b       _FloodArea_r               0041487b f   cmodel.obj
 0001:00011677       _Cmd_MacroExpandString     00412677 f   cmd.obj
 0001:00011992       _Cmd_Wait_f                00412992 f   cmd.obj
 0001:000119c7       _Cmd_List_f                004129c7 f   cmd.obj
 0001:000104a2       _DrawSurfInfo              004114a2 f   cl_view.obj
 0001:000107c4       _DrawFlag                  004117c4 f   cl_view.obj
 0001:0001081f       _DecodeContents            0041181f f   cl_view.obj
 0001:000108c1       _DrawOriginInfo            004118c1 f   cl_view.obj
 0001:00010a52       _DrawFpsInfo               00411a52 f   cl_view.obj
 0001:00010b7b       _FixWaterVis               00411b7b f   cl_view.obj
 0001:00010c86       _entitycmpfnc              00411c86 f   cl_view.obj
 0001:00010d3c       _Screenshot_f              00411d3c f   cl_view.obj
 0001:0000d303       _SCR_CalcVrect             0040e303 f   cl_scrn.obj
 0001:000080f0       _TryParseStatus            004090f0 f   cl_main.obj
 0001:000063dc       _KeyDown                   004073dc f   cl_input.obj
 0001:0000645e       _KeyUp                     0040745e f   cl_input.obj
 0001:00003477       _CL_AddParticleTraces      00404477 f   cl_fx.obj
 0001:00002292       _CL_AddPacketEntities      00403292 f   cl_ents.obj
 0001:00002c73       _GetEntityInfo             00403c73 f   cl_ents.obj
 0001:00002d82       _AddEntityWithEffects      00403d82 f   cl_ents.obj
 0001:00002dae       _AddViewWeapon             00403dae f   cl_ents.obj
 0001:000009ea       _Huff1Decompress           004019ea f   cl_cin.obj
 0001:00000f72       _Huff1TableInit            00401f72 f   cl_cin.obj
 0001:0000106c       _SmallestNode1             0040206c f   cl_cin.obj
 0001:0000014c       _CDAudio_GetAudioDiskInfo  0040114c f   cd_win.obj
 0001:000004c4       _CD_f                      004014c4 f   cd_win.obj
 0001:0000077d       _CDAudio_Eject             0040177d f   cd_win.obj
 0001:000007a7       _CDAudio_CloseDoor         004017a7 f   cd_win.obj

 70 bytes saved through ICF

