 Quake2

 Timestamp is 4cda9257 (Wed Nov 10 15:38:47 2010)

 Preferred load address is 00400000

 Start         Length     Name                   Class
 0001:00000000 0006c320H .text                   CODE
 0002:00000000 00000290H .idata$5                DATA
 0002:00000290 00008a44H .rdata                  DATA
 0002:00008cd8 00000044H .rdata$r                DATA
 0002:00008d20 00000038H .xdata$x                DATA
 0002:00008d58 00000078H .idata$2                DATA
 0002:00008dd0 00000014H .idata$3                DATA
 0002:00008de4 00000290H .idata$4                DATA
 0002:00009074 00000858H .idata$6                DATA
 0002:000098cc 00000000H .edata                  DATA
 0003:00000000 00000004H .CRT$XCA                DATA
 0003:00000004 0000008cH .CRT$XCU                DATA
 0003:00000090 00000004H .CRT$XCZ                DATA
 0003:00000094 00000004H .CRT$XIA                DATA
 0003:00000098 00000004H .CRT$XIZ                DATA
 0003:000000a0 0000f06cH .data                   DATA
 0003:0000f110 00466fc4H .bss                    DATA
 0004:00000000 00000130H .rsrc$01                DATA
 0004:00000130 00003f20H .rsrc$02                DATA

  Address         Publics by Value              Rva+Base     Lib:Object

 0001:00000000       ??3@YAXPAX@Z               00401000 f i CoreMain.obj
 0001:0000000e       ?appTimestamp@@YAPBDXZ     0040100e f   CoreMain.obj
 0001:00000043       ?appInit@@YAXXZ            00401043 f   CoreMain.obj
 0001:000000c3       ?appExit@@YAXXZ            004010c3 f   CoreMain.obj
 0001:000000cd       ?appMilliseconds@@YAIXZ    004010cd f   CoreWin32.obj
 0001:000000d3       ?appPackage@@YAPBDXZ       004010d3 f   CoreWin32.obj
 0001:0000012a       ?appGetSystemErrorMessage@@YAPBDI@Z 0040112a f   CoreWin32.obj
 0001:0000018e       ?appDisplayError@@YAXXZ    0040118e f   CoreWin32.obj
 0001:000001df       ?appAllowFpuXcpt@@YAX_N@Z  004011df f   CoreWin32.obj
 0001:00000210       ?appInitPlatform@@YAXXZ    00401210 f   CoreWin32.obj
 0001:000003a3       ?appShutdownPlatform@@YAXXZ 004013a3 f   CoreWin32.obj
 0001:000003ac       ?sprintf@?$TString@$0BAA@@@QAAHPBDZZ 004013ac f i CoreWin32.obj
 0001:000003d3       ?appDetectCPU@@YAXXZ       004013d3 f   CoreCpuid.obj
 0001:000006cf       ?appLoadDebugSymbols@@YAXXZ 004016cf f   DbgSymbols.obj
 0001:0000088c       ?appSymbolName@@YA_NIPADH@Z 0040188c f   DbgSymbols.obj
 0001:00000982       ?appSymbolName@@YAPBDI@Z   00401982 f   DbgSymbols.obj
 0001:000009ba       ?osGetAddressPackage@@YA_NIPADHAAH@Z 004019ba f   DbgSymbolsWin32.obj
 0001:00000a4e       ?osGetAddressSymbol@@YA_NIPADHAAH@Z 00401a4e f   DbgSymbolsWin32.obj
 0001:00000bf4       ?appMalloc@@YAPAXIH@Z      00401bf4 f   Memory.obj
 0001:00000cf9       ?appFree@@YAXPAX@Z         00401cf9 f   Memory.obj
 0001:00000d78       ?Unlink@FMemHeader@@QAEXXZ 00401d78 f i Memory.obj
 0001:00000da3       ?Link@CMemoryChain@@AAEXXZ 00401da3 f   Memory.obj
 0001:00000dc2       ?Unlink@CMemoryChain@@AAEXXZ 00401dc2 f   Memory.obj
 0001:00000ded       ??2CMemoryChain@@SAPAXIH@Z 00401ded f   Memory.obj
 0001:00000eb6       ??3CMemoryChain@@SAXPAX@Z  00401eb6 f   Memory.obj
 0001:00000f37       ?Alloc@CMemoryChain@@QAEPAXIH@Z 00401f37 f   Memory.obj
 0001:00001003       ?GetSize@CMemoryChain@@QBEHXZ 00402003 f   Memory.obj
 0001:00001011       ?BuildAllocatorsTable@@YAHPAXH@Z 00402011 f   Memory.obj
 0001:0000117e       ?appInitMemory@@YAXXZ      0040217e f   Memory.obj
 0001:0000157d       ??_GCOutputDeviceNull@@UAEPAXI@Z 0040257d f i OutputDevice.obj
 0001:0000157d       ??_GCOutputDevice@@UAEPAXI@Z 0040257d f i OutputDevice.obj
 0001:0000157d       ??_ECOutputDeviceNull@@UAEPAXI@Z 0040257d f i OutputDevice.obj
 0001:0000157d       ??_ECOutputDevice@@UAEPAXI@Z 0040257d f i OutputDevice.obj
 0001:000015c0       ?Write@COutputDeviceLog@@UAEXPBD@Z 004025c0 f i OutputDevice.obj
 0001:0000160b       ??_GCOutputDeviceLog@@UAEPAXI@Z 0040260b f i OutputDevice.obj
 0001:0000160b       ??_ECOutputDeviceLog@@UAEPAXI@Z 0040260b f i OutputDevice.obj
 0001:0000162b       ?Printf@COutputDevice@@QAAXPBDZZ 0040262b f   OutputDevice.obj
 0001:0000169c       ?Register@COutputDevice@@QAEXXZ 0040269c f   OutputDevice.obj
 0001:000016f8       ?Unregister@COutputDevice@@QAEXXZ 004026f8 f   OutputDevice.obj
 0001:0000174b       ?appPrintf@@YAXPBDZZ       0040274b f   OutputDevice.obj
 0001:00001882       ?appWPrintf@@YAXPBDZZ      00402882 f   OutputDevice.obj
 0001:000018e5       ??0COutputDeviceMemTail@@QAE@H@Z 004028e5 f i ErrorMgr.obj
 0001:00001916       ?Write@COutputDeviceMemTail@@UAEXPBD@Z 00402916 f i ErrorMgr.obj
 0001:00001a32       ??_GCOutputDeviceMemTail@@UAEPAXI@Z 00402a32 f i ErrorMgr.obj
 0001:00001a32       ??_ECOutputDeviceMemTail@@UAEPAXI@Z 00402a32 f i ErrorMgr.obj
 0001:00001a51       ??1COutputDeviceMemTail@@UAE@XZ 00402a51 f i ErrorMgr.obj
 0001:00001a9a       ??0COutputDeviceFile@@QAE@XZ 00402a9a f i ErrorMgr.obj
 0001:00001aaf       ?Write@COutputDeviceFile@@UAEXPBD@Z 00402aaf f i ErrorMgr.obj
 0001:00001b06       ?Flush@COutputDeviceFile@@UAEXXZ 00402b06 f i ErrorMgr.obj
 0001:00001b16       ?Close@COutputDeviceFile@@UAEXXZ 00402b16 f i ErrorMgr.obj
 0001:00001b2e       ??_ECOutputDeviceFile@@UAEPAXI@Z 00402b2e f i ErrorMgr.obj
 0001:00001b2e       ??_GCOutputDeviceFile@@UAEPAXI@Z 00402b2e f i ErrorMgr.obj
 0001:00001b4d       ??1COutputDeviceFile@@UAE@XZ 00402b4d f i ErrorMgr.obj
 0001:00001b8c       ?appBeginError@@YAPAVCOutputDevice@@PBD@Z 00402b8c f   ErrorMgr.obj
 0001:00001c56       ?appGetErrorLog@@YAPAVCOutputDevice@@XZ 00402c56 f   ErrorMgr.obj
 0001:00001cc1       ?Open@COutputDeviceFile@@QAEXPBD_N@Z 00402cc1 f i ErrorMgr.obj
 0001:00001d07       ?appFatalError@@YAXPBDZZ   00402d07 f   ErrorMgr.obj
 0001:00001d5d       ?appNonFatalError@@YAXPBDZZ 00402d5d f   ErrorMgr.obj
 0001:00001dbf       ?appUnwindPrefix@@YAXPBD@Z 00402dbf f   ErrorMgr.obj
 0001:00001e71       ?appUnwindThrow@@YAXPBDZZ  00402e71 f   ErrorMgr.obj
 0001:00001ee7       ?Reset@CErrorHandler@@QAEXXZ 00402ee7 f   ErrorMgr.obj
 0001:00001f17       ?appInitError@@YAXXZ       00402f17 f   ErrorMgr.obj
 0001:0000200c       ?appShutdownError@@YAXXZ   0040300c f   ErrorMgr.obj
 0001:00002096       ?GetTail@COutputDeviceMemTail@@QAEPBDH@Z 00403096 f i ErrorMgr.obj
 0001:000020bc       ?sprintf@?$TString@$0CAA@@@QAAHPBDZZ 004030bc f i ErrorMgr.obj
 0001:000020e3       ?win32ExceptFilter@@YGJPAU_EXCEPTION_POINTERS@@@Z 004030e3 f   ExceptHandlerWin32.obj
 0001:000022ac       ?win32ExceptFilter2@@YAIXZ 004032ac f   ExceptHandlerWin32.obj
 0001:000022b5       ?sprintf@?$TString@$0EAA@@@QAAHPBDZZ 004032b5 f i ExceptHandlerWin32.obj
 0001:000022dc       ?DumpRegs@@YAXPAVCOutputDevice@@PAU_CONTEXT@@@Z 004032dc f   ExceptDumpers.obj
 0001:000023ed       ?DumpMem@@YAXPAVCOutputDevice@@PBIPAU_CONTEXT@@@Z 004033ed f   ExceptDumpers.obj
 0001:0000262c       ?UnwindEbpFrame@@YAXPAVCOutputDevice@@PBI@Z 0040362c f   ExceptDumpers.obj
 0001:000026bd       ?GetLine@CSimpleParser@@QAEPBDXZ 004036bd f   ScriptParser.obj
 0001:000027d4       ?SkipBraces@CSimpleParser@@QAEPBDXZ 004037d4 f   ScriptParser.obj
 0001:0000280a       ?appStricmp@@YAHPBD0@Z     0040380a f   Strings.obj
 0001:00002841       ?toLower@@YADD@Z           00403841 f i Strings.obj
 0001:0000285c       ?appStrncpylwr@@YAXPADPBDH@Z 0040385c f   Strings.obj
 0001:00002894       ?appStrncpyz@@YAXPADPBDH@Z 00403894 f   Strings.obj
 0001:000028c1       ?appStrcatn@@YAXPADHPBD@Z  004038c1 f   Strings.obj
 0001:000028ed       ?appCopyFilename@@YAXPADPBDH@Z 004038ed f   Strings.obj
 0001:00002a15       ?appCStrlen@@YAHPBD@Z      00403a15 f   Strings.obj
 0001:00002a3d       ?appUncolorizeString@@YAXPADPBD@Z 00403a3d f   Strings.obj
 0001:00002a6f       ?va@@YAPBDPBDZZ            00403a6f f   Strings.obj
 0001:00002b63       ?appSprintf@@YAHPADHPBDZZ  00403b63 f   Strings.obj
 0001:00002c02       ?appMatchWildcard@@YA_NPBD0_N@Z 00403c02 f   Strings.obj
 0001:00002e46       ?appIsWildcard@@YA_NPBD@Z  00403e46 f   Strings.obj
 0001:00002e72       ?appStrdup@@YAPADPBD@Z     00403e72 f   Strings.obj
 0001:00002eb3       ?appStrdup@@YAPADPBDPAVCMemoryChain@@@Z 00403eb3 f   Strings.obj
 0001:00002ee8       ??0CStringItem@@QAE@XZ     00403ee8 f   Strings.obj
 0001:00002ef3       ??2CStringItem@@SAPAXIPBD@Z 00403ef3 f   Strings.obj
 0001:00002f8d       ??2CStringItem@@SAPAXIPBDPAVCMemoryChain@@@Z 00403f8d f   Strings.obj
 0001:00003002       ?Find@CStringList@@IAEPAVCStringItem@@PBDPAPAV2@@Z 00404002 f   Strings.obj
 0001:0000308d       ?Find@CStringList@@IAEPAVCStringItem@@H@Z 0040408d f   Strings.obj
 0001:000030f9       ?IndexOf@CStringList@@QAEHPBD@Z 004040f9 f   Strings.obj
 0001:0000317b       ?Remove@CStringList@@QAE_NPAVCStringItem@@@Z 0040417b f   Strings.obj
 0001:000031ff       ?Add@CTextContainer@@QAEPAUCTextRec@@PBD@Z 004041ff f   TextContainer.obj
 0001:000032ab       ?Enumerate@CTextContainer@@QAEXP6AXPBUCTextRec@@@Z@Z 004042ab f   TextContainer.obj
 0001:00003317       ?SubtractPath@@YAPBDPBD0@Z 00404317 f   FileSystem.obj
 0001:000033af       ?appMakeDirectoryForFile@@YAXPBD@Z 004043af f   FileSystem.obj
 0001:000033e5       ?appOpenFile@@YAPAVCFile@@PBD@Z 004043e5 f   FileSystem.obj
 0001:00003422       ?Read@CFileOS@@UAEHPAXH@Z  00404422 f i FileSystem.obj
 0001:00003449       ?GetSize@CFileOS@@UAEHXZ   00404449 f i FileSystem.obj
 0001:00003494       ?Eof@CFileOS@@UAE_NXZ      00404494 f i FileSystem.obj
 0001:000034a8       ??_GCFileOS@@UAEPAXI@Z     004044a8 f i FileSystem.obj
 0001:000034a8       ??_ECFileOS@@UAEPAXI@Z     004044a8 f i FileSystem.obj
 0001:000034dd       ??_GCFile@@UAEPAXI@Z       004044dd f i FileSystem.obj
 0001:000034dd       ??_ECFile@@UAEPAXI@Z       004044dd f i FileSystem.obj
 0001:000034fd       ?ReadByte@CFile@@QAEEXZ    004044fd f   FileSystem.obj
 0001:00003515       ?ReadInt@CFile@@QAEHXZ     00404515 f   FileSystem.obj
 0001:0000352d       ?ReadString@CFile@@QAEXPADH@Z 0040452d f   FileSystem.obj
 0001:0000356a       ?GetType@CFileContainer@@MAEPBDXZ 0040456a f   FileSystem.obj
 0001:00003570       ?Mount@CFileSystem@@QAEXAAVCFileContainer@@PBD@Z 00404570 f   FileSystem.obj
 0001:000035c6       ?Umount@CFileSystem@@QAEXAAVCFileContainer@@@Z 004045c6 f   FileSystem.obj
 0001:00003600       ?MountDirectory@CFileSystem@@QAEPAVCFileContainer@@PBD0@Z 00404600 f   FileSystem.obj
 0001:00003645       ?GetType@CFileContainerOS@@MAEPBDXZ 00404645 f i FileSystem.obj
 0001:0000364b       ?FileExists@CFileContainerOS@@UAE_NPBD@Z 0040464b f i FileSystem.obj
 0001:00003675       ?OpenFile@CFileContainerOS@@UAEPAVCFile@@PBD@Z 00404675 f i FileSystem.obj
 0001:00003695       ?List@CFileContainerOS@@UAEXAAVCFileList@@PBDI@Z 00404695 f i FileSystem.obj
 0001:000036be       ??_GCFileContainerOS@@UAEPAXI@Z 004046be f i FileSystem.obj
 0001:000036be       ??_ECFileContainerOS@@UAEPAXI@Z 004046be f i FileSystem.obj
 0001:000036de       ??_GCFileContainer@@UAEPAXI@Z 004046de f i FileSystem.obj
 0001:000036de       ??_ECFileContainer@@UAEPAXI@Z 004046de f i FileSystem.obj
 0001:000036fe       ?MountArchive@CFileSystem@@QAEPAVCFileContainer@@PBD0@Z 004046fe f   FileSystem.obj
 0001:00003815       ?Mount@CFileSystem@@QAEXPBD0@Z 00404815 f   FileSystem.obj
 0001:00003a46       ?Umount@CFileSystem@@QAEXPBD@Z 00404a46 f   FileSystem.obj
 0001:00003ae2       ?List@CFileSystem@@UAEPAVCFileList@@PBDIPAV2@@Z 00404ae2 f   FileSystem.obj
 0001:00003c9c       ?RegisterFormat@CFileSystem@@SAXP6APAVCFileContainer@@PBDPAU_iobuf@@@Z@Z 00404c9c f   FileSystem.obj
 0001:00003ce0       ?FileExists@CFileSystem@@UAE_NPBDI@Z 00404ce0 f   FileSystem.obj
 0001:00003d5f       ?OpenFile@CFileSystem@@UAEPAVCFile@@PBDI@Z 00404d5f f   FileSystem.obj
 0001:00003e03       ?LoadFile@CFileSystem@@QAEPAXPBDPAI@Z 00404e03 f   FileSystem.obj
 0001:00003ed3       ?cMount@@YAX_NHPAPAD@Z     00404ed3 f   FileSystem.obj
 0001:00004011       ?cUmount@@YAX_NHPAPAD@Z    00405011 f   FileSystem.obj
 0001:00004040       ?appInitFileSystem@@YAXAAVCFileSystem@@@Z 00405040 f   FileSystem.obj
 0001:00004434       ?appListDirectory@@YAXPBDAAVCFileList@@I@Z 00405434 f   FileSystemWin32.obj
 0001:0000467a       ?appMakeDirectory@@YAXPBD@Z 0040567a f   FileSystemWin32.obj
 0001:000046e4       ?appFileType@@YAIPBD@Z     004056e4 f   FileSystemWin32.obj
 0001:00004724       ?FindDir@CFileContainerArc@@IAEPAVFDirInfo@1@PBD_N@Z 00405724 f   FileContainerArc.obj
 0001:000047dd       ?FindFile@CFileContainerArc@@IAEPAVCStringItem@@PBD@Z 004057dd f   FileContainerArc.obj
 0001:00004847       ?FileExists@CFileContainerArc@@UAE_NPBD@Z 00405847 f   FileContainerArc.obj
 0001:0000485c       ?OpenFile@CFileContainerArc@@UAEPAVCFile@@PBD@Z 0040585c f   FileContainerArc.obj
 0001:0000487b       ?List@CFileContainerArc@@UAEXAAVCFileList@@PBDI@Z 0040587b f   FileContainerArc.obj
 0001:000049e6       ??E?$TStringSplitter@$0BAA@$0CP@@@QAEXXZ 004059e6 f i FileContainerArc.obj
 0001:00004a68       ?GetLength@CVec3@@QBEMXZ   00405a68 f   Math3D.obj
 0001:00004a93       ?Normalize@CVec3@@QAEMXZ   00405a93 f   Math3D.obj
 0001:00004ae5       ?VectorNormalize@@YAMABUCVec3@@AAU1@@Z 00405ae5 f   Math3D.obj
 0001:00004b4f       ?NormalizeFast@CVec3@@QAEMXZ 00405b4f f   Math3D.obj
 0001:00004ba0       ?FindAxisVectors@CVec3@@QBEXAAU1@0@Z 00405ba0 f   Math3D.obj
 0001:00004c10       ?cross@@YAXABUCVec3@@0AAU1@@Z 00405c10 f   Math3D.obj
 0001:00004c4c       ?VectorDistance@@YAMABUCVec3@@0@Z 00405c4c f   Math3D.obj
 0001:00004c7b       ?Setup@CPlane@@QAEXXZ      00405c7b f   Math3D.obj
 0001:00004d29       ?Clear@CBox@@QAEXXZ        00405d29 f   Math3D.obj
 0001:00004d47       ?Expand@CBox@@QAEXABUCVec3@@@Z 00405d47 f   Math3D.obj
 0001:00004d79       ?Expand@CBox@@QAEXABU1@@Z  00405d79 f   Math3D.obj
 0001:00004db8       ?GetCenter@CBox@@QBEXAAUCVec3@@@Z 00405db8 f   Math3D.obj
 0001:00004ddb       ?Contains@CBox@@QBE_NABUCVec3@@@Z 00405ddb f   Math3D.obj
 0001:00004e0f       ?Intersects@CBox@@QBE_NABU1@@Z 00405e0f f   Math3D.obj
 0001:00004e4e       ?OnPlaneSide@CBox@@QBEHABUCPlane@@@Z 00405e4e f   Math3D.obj
 0001:00004f7d       ?FromEuler@CAxis@@QAEXABUCVec3@@@Z 00405f7d f   Math3D.obj
 0001:00004fbc       ?TransformVector@CAxis@@QBEXABUCVec3@@AAU2@@Z 00405fbc f   Math3D.obj
 0001:0000500f       ?UnTransformVector@CAxis@@QBEXABUCVec3@@AAU2@@Z 0040600f f   Math3D.obj
 0001:00005073       ?UnTransformAxis@CAxis@@QBEXABU1@AAU1@@Z 00406073 f   Math3D.obj
 0001:000050b9       ?TransformPoint@CCoords@@QBEXABUCVec3@@AAU2@@Z 004060b9 f   Math3D.obj
 0001:00005119       ?UnTransformPoint@CCoords@@QBEXABUCVec3@@AAU2@@Z 00406119 f   Math3D.obj
 0001:00005186       ?UnTransformCoords@CCoords@@QBEXABU1@AAU1@@Z 00406186 f   Math3D.obj
 0001:000051b2       ?TransformPlane@CCoords@@QBEXABUCPlane@@AAU2@@Z 004061b2 f   Math3D.obj
 0001:000051ec       ?TransformPoint@@YAXABUCVec3@@ABUCAxis@@0AAU1@@Z 004061ec f   Math3D.obj
 0001:0000524f       ?UnTransformPoint@@YAXABUCVec3@@ABUCAxis@@0AAU1@@Z 0040624f f   Math3D.obj
 0001:000052bf       ?Euler2Vecs@@YAXABUCVec3@@PAU1@11@Z 004062bf f   Math3D.obj
 0001:0000541f       ?Vec2Euler@@YAXABUCVec3@@AAU1@@Z 0040641f f   Math3D.obj
 0001:00005521       ?Vec2Yaw@@YAMABUCVec3@@@Z  00406521 f   Math3D.obj
 0001:00005594       ?appRsqrt@@YAMM@Z          00406594 f   MathMisc.obj
 0001:000055c0       ?NormalizeColor@@YAMABUCVec3@@AAU1@@Z 004065c0 f   MathMisc.obj
 0001:0000561e       ?NormalizeColor255@@YAMABUCVec3@@AAU1@@Z 0040661e f   MathMisc.obj
 0001:00005680       ?SCR_StopCinematic@@YAXXZ  00406680 f   cl_cin.obj
 0001:00005714       ?SCR_DrawCinematic@@YA_NXZ 00406714 f   cl_cin.obj
 0001:00005b0b       ?SCR_PlayCinematic@@YAXPBD@Z 00406b0b f   cl_cin.obj
 0001:00005e62       ?sprintf@?$TString@$0EA@@@QAAHPBDZZ 00406e62 f i cl_cin.obj
 0001:00005e83       ?CL_Download_f@@YAX_NHPAPAD@Z 00406e83 f   cl_download.obj
 0001:00006230       ?CL_ParseDownload@@YAXXZ   00407230 f   cl_download.obj
 0001:00006a5f       ?CL_Precache_f@@YAXHPAPAD@Z 00407a5f f   cl_download.obj
 0001:00006aba       ?sprintf@?$TString@$0IA@@@QAAHPBDZZ 00407aba f i cl_download.obj
 0001:00006ade       ?CL_ParseDelta@@YAXPAUclEntityState_t@@0HI_N@Z 00407ade f   cl_ents.obj
 0001:00006c5e       ?CL_ParseFrame@@YAXXZ      00407c5e f   cl_ents.obj
 0001:00007313       ?CL_AddEntityBox@@YAXPAUclEntityState_t@@I@Z 00408313 f   cl_ents.obj
 0001:00007417       ?Lerp@@YAXABUCVec3@@0MAAU1@@Z 00408417 f i cl_ents.obj
 0001:0000744e       ?OffsetThirdPersonView@@YAXXZ 0040844e f   cl_ents.obj
 0001:00007536       ?CL_AddEntities@@YAXXZ     00408536 f   cl_ents.obj
 0001:00008477       ?CL_ClearLightStyles@@YAXXZ 00409477 f   cl_fx.obj
 0001:000084f9       ?CL_SetLightstyle@@YAXHPBD@Z 004094f9 f   cl_fx.obj
 0001:0000855a       ?CL_AllocDlight@@YAPAUcdlight_t@@HABUCVec3@@@Z 0040955a f   cl_fx.obj
 0001:000085c5       ?CL_AllocParticleTrace@@YAPAUparticleTrace_t@@ABUCVec3@@0MM@Z 004095c5 f   cl_fx.obj
 0001:00008654       ?CL_AllocParticleBeam@@YAPAUbeam_t@@ABUCVec3@@0MM@Z 00409654 f   cl_fx.obj
 0001:000086c9       ?CL_AllocParticle@@YAPAUparticle_t@@XZ 004096c9 f   cl_fx.obj
 0001:0000871c       ?CL_MetalSparks@@YAXABUCVec3@@0H@Z 0040971c f   cl_fx.obj
 0001:0000881a       ?CL_AddEffects@@YAXXZ      0040981a f   cl_fx.obj
 0001:00008f0e       ?CL_ClearEffects@@YAXXZ    00409f0e f   cl_fx.obj
 0001:00008f90       ?CL_EntityEvent@@YAXPAUclEntityState_t@@@Z 00409f90 f   cl_fx.obj
 0001:00009147       ?CL_ParseMuzzleFlash@@YAXXZ 0040a147 f   cl_fx.obj
 0001:000094b7       ?CL_ParseMuzzleFlash2@@YAXXZ 0040a4b7 f   cl_fx.obj
 0001:0000992d       ?CL_ParticleEffect@@YAXABUCVec3@@0HH@Z 0040a92d f   cl_fx.obj
 0001:00009b16       ?CL_ParticleEffect2@@YAXABUCVec3@@0HH@Z 0040ab16 f   cl_fx.obj
 0001:00009b3e       ?CL_ParticleEffect3@@YAXABUCVec3@@0HH@Z 0040ab3e f   cl_fx.obj
 0001:00009b66       ?CL_TeleporterParticles@@YAXPAUclEntityState_t@@@Z 0040ab66 f   cl_fx.obj
 0001:00009b88       ?CL_LogoutEffect@@YAXABUCVec3@@H@Z 0040ab88 f   cl_fx.obj
 0001:00009bc0       ?CL_ItemRespawnParticles@@YAXABUCVec3@@@Z 0040abc0 f   cl_fx.obj
 0001:00009bde       ?CL_ExplosionParticles@@YAXABUCVec3@@@Z 0040abde f   cl_fx.obj
 0001:00009bff       ?CL_BFGExplosionParticles@@YAXABUCVec3@@@Z 0040abff f   cl_fx.obj
 0001:00009c20       ?CL_TrackerExplosionParticles@@YAXABUCVec3@@@Z 0040ac20 f   cl_fx.obj
 0001:00009c41       ?CL_BlasterParticles@@YAXABUCVec3@@0I@Z 0040ac41 f   cl_fx.obj
 0001:00009c68       ?CL_BlasterTrail@@YAXAAUcentity_t@@@Z 0040ac68 f   cl_fx.obj
 0001:00009d6f       ?CL_BlasterTrail2@@YAXAAUcentity_t@@@Z 0040ad6f f   cl_fx.obj
 0001:00009d86       ?CL_FlagTrail@@YAXAAUcentity_t@@H@Z 0040ad86 f   cl_fx.obj
 0001:00009da5       ?CL_RocketTrail@@YAXAAUcentity_t@@@Z 0040ada5 f   cl_fx.obj
 0001:00009de4       ?CL_BubbleTrail@@YAXABUCVec3@@0@Z 0040ade4 f   cl_fx.obj
 0001:00009e80       ?CL_BubbleTrail2@@YAXABUCVec3@@0@Z 0040ae80 f   cl_fx.obj
 0001:00009e9a       ?CL_TagTrail@@YAXAAUcentity_t@@@Z 0040ae9a f   cl_fx.obj
 0001:00009eb1       ?CL_DebugTrail@@YAXABUCVec3@@0@Z 0040aeb1 f   cl_fx.obj
 0001:00009ecb       ?CL_ForceWall@@YAXABUCVec3@@0H@Z 0040aecb f   cl_fx.obj
 0001:00009eed       ?CL_BigTeleportParticles@@YAXABUCVec3@@@Z 0040aeed f   cl_fx.obj
 0001:0000a028       ?CL_BfgParticles@@YAXABUCVec3@@@Z 0040b028 f   cl_fx.obj
 0001:0000a1a2       ?CL_FlyEffect@@YAXAAUcentity_t@@@Z 0040b1a2 f   cl_fx.obj
 0001:0000a32e       ?CL_DiminishingTrail@@YAXAAUcentity_t@@H@Z 0040b32e f   cl_fx.obj
 0001:0000a488       ?CL_RailTrail@@YAXABUCVec3@@0@Z 0040b488 f   cl_fx.obj
 0001:0000a5fa       ?CL_RailTrailExt@@YAXABUCVec3@@0EE@Z 0040b5fa f   cl_fx.obj
 0001:0000a73f       ?CL_IonripperTrail@@YAXAAUcentity_t@@@Z 0040b73f f   cl_fx.obj
 0001:0000a899       ?CL_TrapParticles@@YAXABUCVec3@@@Z 0040b899 f   cl_fx.obj
 0001:0000aa0c       ?CL_TeleportParticles@@YAXABUCVec3@@@Z 0040ba0c f   cl_fx.obj
 0001:0000ab42       ?CL_Heatbeam@@YAXABUCVec3@@0@Z 0040bb42 f   cl_fx.obj
 0001:0000ade8       ?CL_ParticleSteamEffect@@YAXABUCVec3@@0HHH@Z 0040bde8 f   cl_fx.obj
 0001:0000af1e       ?CL_ParticleSmokeEffect@@YAXABUCVec3@@0@Z 0040bf1e f   cl_fx.obj
 0001:0000b037       ?CL_TrackerTrail@@YAXAAUcentity_t@@@Z 0040c037 f   cl_fx.obj
 0001:0000b1b1       ?CL_TrackerShell@@YAXABUCVec3@@@Z 0040c1b1 f   cl_fx.obj
 0001:0000b23d       ?CL_MonsterPlasmaShell@@YAXABUCVec3@@@Z 0040c23d f   cl_fx.obj
 0001:0000b2c6       ?CL_WidowSplash@@YAXABUCVec3@@@Z 0040c2c6 f   cl_fx.obj
 0001:0000b3a7       ?CL_InitInput@@YAXXZ       0040c3a7 f   cl_input.obj
 0001:0000b955       ?CL_SendCmd@@YAXXZ         0040c955 f   cl_input.obj
 0001:0000bf66       ?CL_WriteDemoMessage@@YAXXZ 0040cf66 f   cl_main.obj
 0001:0000bfa8       ?Cmd_ForwardToServer@@YAXHPAPAD@Z 0040cfa8 f   cl_main.obj
 0001:0000c06d       ?CL_ForwardToServer_f@@YAXHPAPAD@Z 0040d06d f   cl_main.obj
 0001:0000c0b6       ?CL_Pause@@YAX_N@Z         0040d0b6 f   cl_main.obj
 0001:0000c0fb       ?CL_Drop@@YAX_N@Z          0040d0fb f   cl_main.obj
 0001:0000c126       ?CL_SendConnectPacket@@YAXXZ 0040d126 f   cl_main.obj
 0001:0000c18c       ?CL_Connect_f@@YAX_NHPAPAD@Z 0040d18c f   cl_main.obj
 0001:0000c1f9       ?CL_Rcon_f@@YAXHPAPAD@Z    0040d1f9 f   cl_main.obj
 0001:0000c2e5       ?CL_Disconnect@@YAXXZ      0040d2e5 f   cl_main.obj
 0001:0000c490       ?CL_Disconnect_f@@YAXXZ    0040d490 f   cl_main.obj
 0001:0000c49a       ?CL_Changing_f@@YAXXZ      0040d49a f   cl_main.obj
 0001:0000c4c2       ?CL_Reconnect_f@@YAXXZ     0040d4c2 f   cl_main.obj
 0001:0000c55e       ?CL_PingServers_f@@YAXXZ   0040d55e f   cl_main.obj
 0001:0000c919       ?CL_ConnectionlessPacket@@YAXXZ 0040d919 f   cl_main.obj
 0001:0000ca16       ?CL_Userinfo_f@@YAXXZ      0040da16 f   cl_main.obj
 0001:0000ca31       ?CL_RegisterSounds@@YAXXZ  0040da31 f   cl_main.obj
 0001:0000ca70       ?CL_Snd_Restart_f@@YAXXZ   0040da70 f   cl_main.obj
 0001:0000ca7f       ?CL_WriteConfiguration@@YAXPBD@Z 0040da7f f   cl_main.obj
 0001:0000cb66       ?CL_WriteConfig_f@@YAX_NHPAPAD@Z 0040db66 f   cl_main.obj
 0001:0000cbd0       ?CL_FixCvarCheats@@YAXXZ   0040dbd0 f   cl_main.obj
 0001:0000cc21       ?CL_Frame@@YAXMM@Z         0040dc21 f   cl_main.obj
 0001:0000d089       ?CL_ClearState@@YAXXZ      0040e089 f   cl_main.obj
 0001:0000d0c7       ?CL_Init@@YAXXZ            0040e0c7 f   cl_main.obj
 0001:0000d576       ?CL_Shutdown@@YAXXZ        0040e576 f   cl_main.obj
 0001:0000d5d2       ?CL_ParseClientinfo@@YAXH@Z 0040e5d2 f   cl_parse.obj
 0001:0000d68a       ?CL_UpdatePlayerClientInfo@@YAXXZ 0040e68a f   cl_parse.obj
 0001:0000d6cb       ?CL_ParseServerMessage@@YAXXZ 0040e6cb f   cl_parse.obj
 0001:0000deb1       ?FreePlayerModelsInfo@@YAXXZ 0040eeb1 f   cl_playermodel.obj
 0001:0000ded7       ?ScanPlayerModels@@YA_NXZ  0040eed7 f   cl_playermodel.obj
 0001:0000e2d1       ?RunAnimation@@YAXAAUclientInfo_t@@AAUanimState_t@@H@Z 0040f2d1 f   cl_playermodel.obj
 0001:0000e4bf       ?CL_LoadClientinfo@@YAXAAUclientInfo_t@@PBD_N@Z 0040f4bf f   cl_playermodel.obj
 0001:0000f14b       ?ParsePlayerEntity@@YAHAAUcentity_t@@AAUclientInfo_t@@PAUclEntityState_t@@ABUentity_t@@PAU4@HH@Z 0041014b f   cl_playermodel.obj
 0001:0000fcba       ?CreateAndInsert@?$TList@VCStringItem@@@@QAEPAVCStringItem@@PBDPAVCMemoryChain@@@Z 00410cba f i cl_playermodel.obj
 0001:0000fcf2       ?CL_CheckPredictionError@@YAXXZ 00410cf2 f   cl_pred.obj
 0001:0000fe94       ?CL_EntityTrace@@YAXAAUtrace_t@@ABUCVec3@@1ABUCBox@@H@Z 00410e94 f   cl_pred.obj
 0001:000101ee       ?CL_Trace@@YAXAAUtrace_t@@ABUCVec3@@1ABUCBox@@H@Z 004111ee f   cl_pred.obj
 0001:0001029f       ?CL_PMpointcontents@@YAHABUCVec3@@@Z 0041129f f   cl_pred.obj
 0001:00010435       ?CL_PredictMovement@@YAXXZ 00411435 f   cl_pred.obj
 0001:000107fc       ?DrawString@@YAXHHPBD@Z    004117fc f   cl_scrn.obj
 0001:00010841       ?SCR_DebugGraph@@YAXMH@Z   00411841 f   cl_scrn.obj
 0001:0001086b       ?SCR_CenterPrint@@YAXPBD@Z 0041186b f   cl_scrn.obj
 0001:00010971       ?Key_Message@@YAXH@Z       00411971 f   cl_scrn.obj
 0001:00010a11       ?SCR_SetLevelshot@@YAXPBD@Z 00411a11 f   cl_scrn.obj
 0001:00010b0c       ?SCR_BeginLoadingPlaque@@YAX_N@Z 00411b0c f   cl_scrn.obj
 0001:00010ba2       ?SCR_EndLoadingPlaque@@YAX_N@Z 00411ba2 f   cl_scrn.obj
 0001:00010c27       ?SCR_LoadingNotify@@YAXPBDM@Z 00411c27 f   cl_scrn.obj
 0001:00010c50       ?SCR_ShowConsole@@YAX_N0@Z 00411c50 f   cl_scrn.obj
 0001:00010d15       ?SCR_ToggleConsole@@YAXXZ  00411d15 f   cl_scrn.obj
 0001:00010d3d       ?SCR_TouchPics@@YAXXZ      00411d3d f   cl_scrn.obj
 0001:00010d91       ?SCR_UpdateScreen@@YAXXZ   00411d91 f   cl_scrn.obj
 0001:00012119       ?SCR_Init@@YAXXZ           00413119 f   cl_scrn.obj
 0001:0001244a       ?sprintf@?$TString@$0BA@@@QAAHPBDZZ 0041344a f i cl_scrn.obj
 0001:0001246b       ?CL_RegisterTEntSounds@@YAXXZ 0041346b f   cl_tent.obj
 0001:000126c0       ?CL_RegisterTEntModels@@YAXXZ 004136c0 f   cl_tent.obj
 0001:00012811       ?CL_ClearTEnts@@YAXXZ      00413811 f   cl_tent.obj
 0001:00012842       ?CL_SmokeAndFlash@@YAXABUCVec3@@@Z 00413842 f   cl_tent.obj
 0001:000129da       ?CL_ParseTEnt@@YAXXZ       004139da f   cl_tent.obj
 0001:00013d00       ?CL_AddTEnts@@YAXXZ        00414d00 f   cl_tent.obj
 0001:00014705       ?V_AddEntity@@YAXPAUentity_t@@@Z 00415705 f   cl_view.obj
 0001:00014743       ?V_AddEntity2@@YAXPAUentity_t@@@Z 00415743 f   cl_view.obj
 0001:00014775       ?AddEntityWithEffects2@@YAXPAUentity_t@@I@Z 00415775 f   cl_view.obj
 0001:00014816       ?AddEntityWithEffects@@YAXPAUentity_t@@I@Z 00415816 f   cl_view.obj
 0001:00014837       ?V_AddLight@@YAXABUCVec3@@MMMM@Z 00415837 f   cl_view.obj
 0001:0001487c       ?V_InitRenderer@@YAXXZ     0041587c f   cl_view.obj
 0001:00014c9d       ?CalcFov@@YAMMMM@Z         00415c9d f   cl_view.obj
 0001:00014d0b       ?V_RenderView@@YA_NXZ      00415d0b f   cl_view.obj
 0001:00015cb5       ?V_Init@@YAXXZ             00416cb5 f   cl_view.obj
 0001:00015dfa       ?Con_ClearNotify@@YAXXZ    00416dfa f   console.obj
 0001:00015e09       ?Con_CheckResize@@YAXXZ    00416e09 f   console.obj
 0001:00015f3b       ?Write@COutputDeviceCon@@UAEXPBD@Z 00416f3b f   console.obj
 0001:00016141       ?Con_DrawNotify@@YAX_N@Z   00417141 f   console.obj
 0001:0001633a       ?Con_DrawConsole@@YAXM@Z   0041733a f   console.obj
 0001:00016695       ?Con_ClearTyping@@YAXXZ    00417695 f   console.obj
 0001:000166ae       ?Key_Console@@YAXHH@Z      004176ae f   console.obj
 0001:00016afb       ?Con_Init@@YAXXZ           00417afb f   console.obj
 0001:00016c69       ?Key_KeynumToString@@YAPBDH@Z 00417c69 f   keys.obj
 0001:00016d2f       ?Draw@completeMenu_t@@UAEXXZ 00417d2f f i keys.obj
 0001:00016d60       ?KeyDown@completeMenu_t@@UAEPBDH@Z 00417d60 f i keys.obj
 0001:00016d8c       ?Init@completeMenu_t@@UAE_NXZ 00417d8c f i keys.obj
 0001:00016eb3       ?CompleteMenuCallback@completeMenu_t@@SAXPAX@Z 00417eb3 f i keys.obj
 0001:00016f44       ?CompleteCommand@@YAXXZ    00417f44 f   keys.obj
 0001:00017655       ?Key_SetBinding@@YAXHPBD@Z 00418655 f   keys.obj
 0001:00017695       ?Key_FindBinding@@YAHPBDPAHH@Z 00418695 f   keys.obj
 0001:000176e3       ?Key_WriteBindings@@YAXPAVCOutputDevice@@@Z 004186e3 f   keys.obj
 0001:0001772d       ?Key_Init@@YAXXZ           0041872d f   keys.obj
 0001:00017a11       ?Key_Event@@YAXH_N@Z       00418a11 f   keys.obj
 0001:00017d70       ?Key_ClearStates@@YAXXZ    00418d70 f   keys.obj
 0001:00017da5       ?M_ForceMenuOn@@YAXXZ      00418da5 f   menu.obj
 0001:00017dc4       ?Draw@menuMain_t@@UAEXXZ   00418dc4 f i menu.obj
 0001:00017f00       ?KeyDown@menuMain_t@@UAEPBDH@Z 00418f00 f i menu.obj
 0001:00017fc1       ?Init@menuMain_t@@UAE_NXZ  00418fc1 f i menu.obj
 0001:00017fc9       ?M_Menu_Main_f@@YAXXZ      00418fc9 f   menu.obj
 0001:00017fe3       ?Init@multiplayerMenu_t@@UAE_NXZ 00418fe3 f i menu.obj
 0001:00018107       ?Init@keysMenu_t@@UAE_NXZ  00419107 f i menu.obj
 0001:000182f5       ?KeyCursorDrawFunc@keysMenu_t@@SAXPAUmenuFramework_t@@@Z 004192f5 f i menu.obj
 0001:00018338       ?DrawKeyBindingFunc@keysMenu_t@@SAXPAX@Z 00419338 f i menu.obj
 0001:000183f8       ?KeyDown@keysMenu_t@@UAEPBDH@Z 004193f8 f i menu.obj
 0001:000184a5       ?UnbindCommand@keysMenu_t@@QAEXPAD@Z 004194a5 f i menu.obj
 0001:000184ea       ?KeyBindingFunc@keysMenu_t@@QAEXPAX@Z 004194ea f i menu.obj
 0001:0001854c       ?Init@optionsMenu_t@@UAE_NXZ 0041954c f i menu.obj
 0001:000188ff       ?CrosshairFunc@optionsMenu_t@@SAXPAX@Z 004198ff f i menu.obj
 0001:00018927       ?JoystickFunc@optionsMenu_t@@SAXPAX@Z 00419927 f i menu.obj
 0001:0001893c       ?AlwaysRunFunc@optionsMenu_t@@SAXPAX@Z 0041993c f i menu.obj
 0001:00018951       ?MouseSpeedFunc@optionsMenu_t@@SAXPAX@Z 00419951 f i menu.obj
 0001:0001896e       ?InvertMouseFunc@optionsMenu_t@@SAXPAX@Z 0041996e f i menu.obj
 0001:000189a7       ?UpdateVolumeFunc@optionsMenu_t@@SAXPAX@Z 004199a7 f i menu.obj
 0001:000189c4       ?UpdateCDVolumeFunc@optionsMenu_t@@SAXPAX@Z 004199c4 f i menu.obj
 0001:000189de       ?SetMenuItemValues@optionsMenu_t@@SAXXZ 004199de f i menu.obj
 0001:00018b26       ?ResetDefaultsFunc@optionsMenu_t@@SAXPAX@Z 00419b26 f i menu.obj
 0001:00018b3b       ?UpdateSoundFunc@optionsMenu_t@@SAXPAX@Z 00419b3b f i menu.obj
 0001:00018d3f       ?ScanCrosshairs@optionsMenu_t@@SAXXZ 00419d3f f i menu.obj
 0001:00018d9c       ?Draw@optionsMenu_t@@UAEXXZ 00419d9c f i menu.obj
 0001:00018e01       ?Draw@creditsMenu_t@@UAEXXZ 00419e01 f i menu.obj
 0001:00018ea8       ?KeyDown@creditsMenu_t@@UAEPBDH@Z 00419ea8 f i menu.obj
 0001:00018ee8       ?Init@creditsMenu_t@@UAE_NXZ 00419ee8 f i menu.obj
 0001:00018f69       ?Init@gameMenu_t@@UAE_NXZ  00419f69 f i menu.obj
 0001:000190f4       ?EasyGameFunc@gameMenu_t@@SAXPAX@Z 0041a0f4 f i menu.obj
 0001:00019100       ?StartGame@gameMenu_t@@SAXPBD@Z 0041a100 f i menu.obj
 0001:0001915b       ?MediumGameFunc@gameMenu_t@@SAXPAX@Z 0041a15b f i menu.obj
 0001:00019167       ?HardGameFunc@gameMenu_t@@SAXPAX@Z 0041a167 f i menu.obj
 0001:00019183       ?Init@savegameMenu_t@@UAE_NXZ 0041a183 f i menu.obj
 0001:00019293       ?Create_Savestrings@savegameMenu_t@@QAEXXZ 0041a293 f i menu.obj
 0001:00019353       ?LoadGameCallback@savegameMenu_t@@SAXPAX@Z 0041a353 f i menu.obj
 0001:00019380       ?SaveGameCallback@savegameMenu_t@@SAXPAX@Z 0041a380 f i menu.obj
 0001:000193a3       ?Draw@savegameMenu_t@@UAEXXZ 0041a3a3 f i menu.obj
 0001:000193be       ?DrawSavegameShot@savegameMenu_t@@QAEXHH@Z 0041a3be f i menu.obj
 0001:00019499       ?Init@joinserverMenu_t@@UAE_NXZ 0041a499 f i menu.obj
 0001:000195d0       ?JoinServerFunc@joinserverMenu_t@@SAXPAX@Z 0041a5d0 f i menu.obj
 0001:00019635       ?SearchLocalGames@joinserverMenu_t@@SAXXZ 0041a635 f i menu.obj
 0001:000196a0       ?M_AddToServerList@@YAXUnetadr_t@@PBD@Z 0041a6a0 f   menu.obj
 0001:0001972b       ?Init@startserverMenu_t@@UAE_NXZ 0041a72b f i menu.obj
 0001:00019bb9       ?DMOptionsFunc@startserverMenu_t@@SAXPAX@Z 0041abb9 f i menu.obj
 0001:00019bc9       ?RulesChangeFunc@startserverMenu_t@@SAXPAX@Z 0041abc9 f i menu.obj
 0001:00019c41       ?StartServerActionFunc@startserverMenu_t@@SAXPAX@Z 0041ac41 f i menu.obj
 0001:00019c6c       ?StartServerFunc@startserverMenu_t@@SAXPBD@Z 0041ac6c f i menu.obj
 0001:00019e48       ?KeyDown@startserverMenu_t@@UAEPBDH@Z 0041ae48 f i menu.obj
 0001:00019ea7       ?Init@dmoptionsMenu_t@@UAE_NXZ 0041aea7 f i menu.obj
 0001:0001a484       ?DMFlagCallback@dmoptionsMenu_t@@SAXPAX@Z 0041b484 f i menu.obj
 0001:0001a65d       ?Init@downloadOptionsMenu_t@@UAE_NXZ 0041b65d f i menu.obj
 0001:0001a837       ?DownloadCallback@downloadOptionsMenu_t@@SAXPAX@Z 0041b837 f i menu.obj
 0001:0001a8a5       ?Init@addressBookMenu_t@@UAE_NXZ 0041b8a5 f i menu.obj
 0001:0001a94b       ?KeyDown@addressBookMenu_t@@UAEPBDH@Z 0041b94b f i menu.obj
 0001:0001a9aa       ?Init@playerConfigMenu_t@@UAE_NXZ 0041b9aa f i menu.obj
 0001:0001aef1       ?HandednessCallback@playerConfigMenu_t@@SAXPAX@Z 0041bef1 f i menu.obj
 0001:0001af06       ?RTypeCallback@playerConfigMenu_t@@SAXPAX@Z 0041bf06 f i menu.obj
 0001:0001af1b       ?RColorCallback@playerConfigMenu_t@@SAXPAX@Z 0041bf1b f i menu.obj
 0001:0001af30       ?RateCallback@playerConfigMenu_t@@SAXPAX@Z 0041bf30 f i menu.obj
 0001:0001af53       ?ModelCallback@playerConfigMenu_t@@SAXPAX@Z 0041bf53 f i menu.obj
 0001:0001af87       ?SkinCallback@playerConfigMenu_t@@SAXPAX@Z 0041bf87 f i menu.obj
 0001:0001af8f       ?Draw@playerConfigMenu_t@@UAEXXZ 0041bf8f f i menu.obj
 0001:0001b267       ?KeyDown@playerConfigMenu_t@@UAEPBDH@Z 0041c267 f i menu.obj
 0001:0001b347       ?Init@dmbrowseMenu_t@@UAE_NXZ 0041c347 f i menu.obj
 0001:0001b56a       ?KeyDown@dmbrowseMenu_t@@UAEPBDH@Z 0041c56a f i menu.obj
 0001:0001b742       ?Draw@dmbrowseMenu_t@@UAEXXZ 0041c742 f i menu.obj
 0001:0001b88f       ?DrawThumbnail@dmbrowseMenu_t@@SAXHHHHPBD_N@Z 0041c88f f i menu.obj
 0001:0001b969       ?Init@videoMenu_t@@UAE_NXZ 0041c969 f i menu.obj
 0001:0001bf65       ?ScreenSizeCallback@videoMenu_t@@SAXPAX@Z 0041cf65 f i menu.obj
 0001:0001bf86       ?BrightnessCallback@videoMenu_t@@SAXPAX@Z 0041cf86 f i menu.obj
 0001:0001bfa7       ?ContrastCallback@videoMenu_t@@SAXPAX@Z 0041cfa7 f i menu.obj
 0001:0001bfe3       ?CancelChanges@videoMenu_t@@SAXPAX@Z 0041cfe3 f i menu.obj
 0001:0001c030       ?KeyDown@videoMenu_t@@UAEPBDH@Z 0041d030 f i menu.obj
 0001:0001c079       ?ApplyChanges@videoMenu_t@@SAXPAX@Z 0041d079 f i menu.obj
 0001:0001c254       ?KeyDown@quitMenu_t@@UAEPBDH@Z 0041d254 f i menu.obj
 0001:0001c291       ?Draw@quitMenu_t@@UAEXXZ   0041d291 f i menu.obj
 0001:0001c301       ?M_Init@@YAXXZ             0041d301 f   menu.obj
 0001:0001c4e3       ?ItemAtCursor@menuFramework_t@@QAEPAUmenuCommon_t@@XZ 0041d4e3 f   qmenu.obj
 0001:0001c537       ?AddItem@menuFramework_t@@QAEXPAUmenuCommon_t@@@Z 0041d537 f   qmenu.obj
 0001:0001c5f3       ?AdjustCursor@menuFramework_t@@QAEXH@Z 0041d5f3 f   qmenu.obj
 0001:0001c76b       ?Center@menuFramework_t@@QAEXXZ 0041d76b f   qmenu.obj
 0001:0001c7ac       ?Draw@menuFramework_t@@UAEXXZ 0041d7ac f   qmenu.obj
 0001:0001cd65       ?SelectItem@menuFramework_t@@QAE_NXZ 0041dd65 f   qmenu.obj
 0001:0001cdca       ?SetStatusBar@menuFramework_t@@QAEXPBD@Z 0041ddca f   qmenu.obj
 0001:0001cdd7       ?SlideItem@menuFramework_t@@QAEXH@Z 0041ddd7 f   qmenu.obj
 0001:0001d375       ?Push@menuFramework_t@@QAEXXZ 0041e375 f   qmenu.obj
 0001:0001d3f4       ?M_ForceMenuOff@@YAXXZ     0041e3f4 f   qmenu.obj
 0001:0001d421       ?Pop@menuFramework_t@@QAEXXZ 0041e421 f   qmenu.obj
 0001:0001d45b       ?KeyDown@menuFramework_t@@UAEPBDH@Z 0041e45b f   qmenu.obj
 0001:0001d6d3       ?Init@menuFramework_t@@UAE_NXZ 0041e6d3 f   qmenu.obj
 0001:0001d6d6       ?M_Draw@@YAXXZ             0041e6d6 f   qmenu.obj
 0001:0001d711       ?M_Keydown@@YAXH@Z         0041e711 f   qmenu.obj
 0001:0001d733       ?InitRendererVars@@YAXXZ   0041e733 f   ref_vars.obj
 0001:0001d752       ?S_SoundInfo_f@@YAXXZ      0041e752 f   snd_dma.obj
 0001:0001d7cc       ?S_Init@@YAXXZ             0041e7cc f   snd_dma.obj
 0001:0001d89e       ?S_Shutdown@@YAXXZ         0041e89e f   snd_dma.obj
 0001:0001d931       ?S_BeginRegistration@@YAXXZ 0041e931 f   snd_dma.obj
 0001:0001d93f       ?S_RegisterSound@@YAPAUsfx_t@@PBD@Z 0041e93f f   snd_dma.obj
 0001:0001daea       ?S_EndRegistration@@YAXXZ  0041eaea f   snd_dma.obj
 0001:0001db73       ?S_PickChannel@@YAPAUchannel_t@@HH@Z 0041eb73 f   snd_dma.obj
 0001:0001dc01       ?S_Spatialize@@YAXPAUchannel_t@@@Z 0041ec01 f   snd_dma.obj
 0001:0001dde3       ?S_AllocPlaysound@@YAPAUplaysound_t@@XZ 0041ede3 f   snd_dma.obj
 0001:0001de05       ?S_FreePlaysound@@YAXPAUplaysound_t@@@Z 0041ee05 f   snd_dma.obj
 0001:0001de38       ?S_IssuePlaysound@@YAXPAUplaysound_t@@@Z 0041ee38 f   snd_dma.obj
 0001:0001df09       ?S_StartSound@@YAXPBUCVec3@@HHPAUsfx_t@@MMM@Z 0041ef09 f   snd_dma.obj
 0001:0001e2c9       ?S_StartLocalSound@@YAXPBD@Z 0041f2c9 f   snd_dma.obj
 0001:0001e31b       ?S_ClearBuffer@@YAXXZ      0041f31b f   snd_dma.obj
 0001:0001e384       ?S_StopAllSounds_f@@YAXXZ  0041f384 f   snd_dma.obj
 0001:0001e3f4       ?S_RawSamples@@YAXHHHHPAE@Z 0041f3f4 f   snd_dma.obj
 0001:0001e5f8       ?S_Update@@YAXABUCVec3@@0@Z 0041f5f8 f   snd_dma.obj
 0001:0001e8b5       ?GetSoundtime@@YAXXZ       0041f8b5 f   snd_dma.obj
 0001:0001e91c       ?S_Update_@@YAXXZ          0041f91c f   snd_dma.obj
 0001:0001ebcf       ?S_LoadSound@@YAPAUsfxcache_t@@PAUsfx_t@@@Z 0041fbcf f   snd_mem.obj
 0001:0001f15e       ?S_WriteLinearBlastStereo16@@YAXXZ 0042015e f   snd_mix.obj
 0001:0001f1c8       ?S_TransferStereo16@@YAXPAKH@Z 004201c8 f   snd_mix.obj
 0001:0001f233       ?S_TransferPaintBuffer@@YAXH@Z 00420233 f   snd_mix.obj
 0001:0001f397       ?S_PaintChannels@@YAXH@Z   00420397 f   snd_mix.obj
 0001:0001f613       ?S_InitScaletable@@YAXXZ   00420613 f   snd_mix.obj
 0001:0001f758       ?SV_ComputeAnimation@@YAXPAUplayer_state_t@@AAUentityStateEx_t@@PAU2@PAUedict_s@@@Z 00420758 f   sv_anim.obj
 0001:0001fc11       ?SV_ReadLevelFile@@YAXXZ   00420c11 f   sv_ccmds.obj
 0001:0001fd23       ?SV_AddressBanned@@YA_NPAUnetadr_t@@@Z 00420d23 f   sv_ccmds.obj
 0001:0001fd67       ?SV_InitCommands@@YAXXZ    00420d67 f   sv_ccmds.obj
 0001:00021365       ?sprintf@?$TString@$0CI@@@QAAHPBDZZ 00422365 f i sv_ccmds.obj
 0001:00021386       ?SV_WriteFrameToClient@@YAXPAUclient_t@@PAVsizebuf_t@@@Z 00422386 f   sv_ents.obj
 0001:00021ab5       ?SV_RecordDemoMessage@@YAXXZ 00422ab5 f   sv_ents.obj
 0001:00021c83       ?SV_MulticastOld@@YAXABUCVec3@@W4multicast_t@@@Z 00422c83 f i sv_game.obj
 0001:00021c98       ?SV_StartSoundOld@@YAXPBUCVec3@@PAUedict_s@@HHMMM@Z 00422c98 f i sv_game.obj
 0001:000226f0       ?SV_InitGameLibrary@@YAX_N@Z 004236f0 f   sv_game.obj
 0001:00022a01       ?SV_ShutdownGameLibrary@@YAXXZ 00423a01 f   sv_game.obj
 0001:00022b7b       ?SV_ModelIndex@@YAHPBD@Z   00423b7b f   sv_init.obj
 0001:00022cab       ?SV_SoundIndex@@YAHPBD@Z   00423cab f   sv_init.obj
 0001:00022cc7       ?SV_ImageIndex@@YAHPBD@Z   00423cc7 f   sv_init.obj
 0001:00022ce3       ?SV_CreateBaseline@@YAXXZ  00423ce3 f   sv_init.obj
 0001:00022d60       ?SV_SpawnServer@@YAXPAD0W4server_state_t@@_N2@Z 00423d60 f   sv_init.obj
 0001:00023187       ?SV_InitGame@@YAXXZ        00424187 f   sv_init.obj
 0001:000233b0       ?SV_Map@@YAX_NPBD0@Z       004243b0 f   sv_init.obj
 0001:00023575       ?SV_DropClient@@YAXPAUclient_t@@PAD@Z 00424575 f   sv_main.obj
 0001:000240d0       ??0COutputDeviceMem@@QAE@H@Z 004250d0 f i sv_main.obj
 0001:00024101       ?Write@COutputDeviceMem@@UAEXPBD@Z 00425101 f i sv_main.obj
 0001:00024188       ??_GCOutputDeviceMem@@UAEPAXI@Z 00425188 f i sv_main.obj
 0001:00024188       ??_ECOutputDeviceMem@@UAEPAXI@Z 00425188 f i sv_main.obj
 0001:000241a7       ??1COutputDeviceMem@@UAE@XZ 004251a7 f i sv_main.obj
 0001:000241c6       ?SV_CalcPings@@YAXXZ       004251c6 f   sv_main.obj
 0001:0002424d       ?SV_GiveMsec@@YAXXZ        0042524d f   sv_main.obj
 0001:0002428c       ?SV_ReadPackets@@YAXXZ     0042528c f   sv_main.obj
 0001:000244b1       ?SV_CheckTimeouts@@YAXXZ   004254b1 f   sv_main.obj
 0001:000245c2       ?SV_PostprocessFrame@@YAXXZ 004255c2 f   sv_main.obj
 0001:00024a87       ?SV_MulticastHook@@YAPAVsizebuf_t@@PAV1@0@Z 00425a87 f   sv_main.obj
 0001:00024e63       ?SV_TraceHook@@YAXAAUtrace0_t@@ABUCVec3@@PBU2@21PAUedict_s@@H@Z 00425e63 f   sv_main.obj
 0001:000250e2       ?SV_Frame@@YAXM@Z          004260e2 f   sv_main.obj
 0001:000253a3       ?SV_UserinfoChanged@@YAXPAUclient_t@@@Z 004263a3 f   sv_main.obj
 0001:000254c0       ?SV_InitVars@@YAXXZ        004264c0 f   sv_main.obj
 0001:000254cf       ?SV_Init@@YAXXZ            004264cf f   sv_main.obj
 0001:00025528       ?SV_Shutdown@@YAXPBD_N@Z   00426528 f   sv_main.obj
 0001:00025735       ?SV_ClientPrintf@@YAXPAUclient_t@@HPBDZZ 00426735 f   sv_send.obj
 0001:00025790       ?SV_BroadcastPrintf@@YAXHPBDZZ 00426790 f   sv_send.obj
 0001:00025866       ?SV_BroadcastCommand@@YAXPBDZZ 00426866 f   sv_send.obj
 0001:000258c0       ?SV_Multicast@@YAXABUCVec3@@W4multicast_t@@_N@Z 004268c0 f   sv_send.obj
 0001:00025ac1       ?SV_StartSound@@YAXPBUCVec3@@PAUedict_s@@HHMMM_N@Z 00426ac1 f   sv_send.obj
 0001:00025d5a       ?SV_SendClientDatagram@@YA_NPAUclient_t@@@Z 00426d5a f   sv_send.obj
 0001:00025e1c       ?SV_DemoCompleted@@YAXXZ   00426e1c f   sv_send.obj
 0001:00025e38       ?SV_SendClientMessages@@YAXXZ 00426e38 f   sv_send.obj
 0001:00026020       ?SV_DrawText3D@@YAXABUCVec3@@PBDI@Z 00427020 f   sv_text.obj
 0001:00026058       ?SV_ClearTexts@@YAXXZ      00427058 f   sv_text.obj
 0001:00026060       ?SV_DrawTexts@@YAXXZ       00427060 f   sv_text.obj
 0001:000260b5       ??0?$TTextContainer@UCSVText@@$0BAAAA@@@QAE@XZ 004270b5 f i sv_text.obj
 0001:000260da       ?SV_TokenizeString@@YAXPBD@Z 004270da f   sv_tokenize.obj
 0001:000261b1       ?SV_Argc@@YAHXZ            004271b1 f   sv_tokenize.obj
 0001:000261b7       ?SV_Argv@@YAPADH@Z         004271b7 f   sv_tokenize.obj
 0001:000261d5       ?SV_Args@@YAPADXZ          004271d5 f   sv_tokenize.obj
 0001:00026aa9       ?SV_Nextserver@@YAXXZ      00427aa9 f   sv_user.obj
 0001:00026b3d       ?SV_ClientThink@@YAXPAUclient_t@@PAUusercmd_t@@@Z 00427b3d f   sv_user.obj
 0001:00026be8       ?SV_ExecuteClientMessage@@YAXPAUclient_t@@@Z 00427be8 f   sv_user.obj
 0001:00026fd6       ?SV_ClearWorld@@YAXXZ      00427fd6 f   sv_world.obj
 0001:00027114       ?SV_UnlinkEdict@@YAXPAUedict_s@@@Z 00428114 f   sv_world.obj
 0001:000271da       ?SV_LinkEdict@@YAXPAUedict_s@@@Z 004281da f   sv_world.obj
 0001:000278ef       ?SV_AreaEdicts@@YAHABUCVec3@@0PAPAUedict_s@@HH@Z 004288ef f   sv_world.obj
 0001:00027a8d       ?SV_PointContents@@YAHABUCVec3@@@Z 00428a8d f   sv_world.obj
 0001:00027bb3       ?SV_Trace@@YAXAAUtrace_t@@ABUCVec3@@1ABUCBox@@PAUedict_s@@H@Z 00428bb3 f   sv_world.obj
 0001:00028030       ?InitByteDirs@@YAXXZ       00429030 f   anorms.obj
 0001:0002806f       ?Cbuf_AddText@@YAXPBD@Z    0042906f f   cmd.obj
 0001:000280d5       ?Cbuf_CopyToDefer@@YAXXZ   004290d5 f   cmd.obj
 0001:0002811d       ?Cbuf_InsertFromDefer@@YAXXZ 0042911d f   cmd.obj
 0001:000281d9       ?Cbuf_Execute@@YAXXZ       004291d9 f   cmd.obj
 0001:000282e9       ?Cmd_Unalias_f@@YAX_NHPAPAD@Z 004292e9 f   cmd.obj
 0001:00028361       ?Cmd_WriteAliases@@YAXPAVCOutputDevice@@@Z 00429361 f   cmd.obj
 0001:00028394       ?RegisterCommand@@YA_NPBDP6AXXZI@Z 00429394 f   cmd.obj
 0001:00028475       ?UnregisterCommand@@YA_NPBD@Z 00429475 f   cmd.obj
 0001:00028506       ?ExecuteCommand@@YA_NPBD@Z 00429506 f   cmd.obj
 0001:00028949       ?ExecuteCommand@@YA_NPBDPBUCSimpleCommand@@H@Z 00429949 f   cmd.obj
 0001:00028d8b       ?CM_LoadMap@@YAPAUCBspModel@@PBD_NPAI@Z 00429d8b f   cmodel.obj
 0001:0002a71a       ?CM_BuildBrush@@YAPAUCBrush@@HPAVCMemoryChain@@@Z 0042b71a f   cmodel.obj
 0001:0002a7e3       ?CM_InlineModel@@YAPAUCBspModel@@PBD@Z 0042b7e3 f   cmodel.obj
 0001:0002a80e       ?CM_InlineModel@@YAPAUCBspModel@@H@Z 0042b80e f   cmodel.obj
 0001:0002a8e9       ?CM_HeadnodeForBox@@YAHABUCBox@@@Z 0042b8e9 f   cmodel.obj
 0001:0002a931       ?CM_FindLeaf@@YAPBUCBspLeaf@@ABUCVec3@@H@Z 0042b931 f   cmodel.obj
 0001:0002a9e0       ?DistanceTo@CPlane@@QBEMABUCVec3@@@Z 0042b9e0 f i cmodel.obj
 0001:0002aa25       ?GetContents@CBspLeaf@@QBEIABUCVec3@@@Z 0042ba25 f   cmodel.obj
 0001:0002aaa6       ?CM_PointContents@@YAHABUCVec3@@H@Z 0042baa6 f   cmodel.obj
 0001:0002ab10       ?CM_TransformedPointContents@@YAHABUCVec3@@H00@Z 0042bb10 f   cmodel.obj
 0001:0002abe5       ?CM_TransformedPointContents@@YAHABUCVec3@@H0ABUCAxis@@@Z 0042bbe5 f   cmodel.obj
 0001:0002ac84       ?CM_BoxLeafs@@YAHABUCBox@@PAPAUCBspLeaf@@HPAHH@Z 0042bc84 f   cmodel.obj
 0001:0002ad96       ?BOX_ON_PLANE_SIDE@@YAHABUCBox@@ABUCPlane@@@Z 0042bd96 f i cmodel.obj
 0001:0002ae01       ?CM_BoxTrace@@YAXAAUtrace_t@@ABUCVec3@@1ABUCBox@@HI@Z 0042be01 f   cmodel.obj
 0001:0002b0dd       ?GetVertex@CBox@@QBEXHAAUCVec3@@@Z 0042c0dd f i cmodel.obj
 0001:0002b557       ?SplitTrace@@YAMABUCVec3@@0ABUCPlane@@AAM2_N@Z 0042c557 f i cmodel.obj
 0001:0002ba13       ?CM_TransformedBoxTrace@@YAXAAUtrace_t@@ABUCVec3@@1ABUCBox@@HI11@Z 0042ca13 f   cmodel.obj
 0001:0002bb86       ?CM_TransformedBoxTrace@@YAXAAUtrace_t@@ABUCVec3@@1ABUCBox@@HI1ABUCAxis@@@Z 0042cb86 f   cmodel.obj
 0001:0002bc43       ?CM_CombineTrace@@YA_NAAUtrace_t@@ABU1@@Z 0042cc43 f   cmodel.obj
 0001:0002bc90       ?CM_ClipTraceToModels@@YAXAAUtrace_t@@ABUCVec3@@1ABUCBox@@I@Z 0042cc90 f   cmodel.obj
 0001:0002bd92       ?CM_PointModelContents@@YAHABUCVec3@@@Z 0042cd92 f   cmodel.obj
 0001:0002bdea       ?CM_BrushTrace@@YAHABUCVec3@@0PAHH@Z 0042cdea f   cmodel.obj
 0001:0002c102       ?CM_RefineBrushTrace@@YAHABUCVec3@@0PAHH@Z 0042d102 f   cmodel.obj
 0001:0002c1a8       ?CM_ClusterPVS@@YAPBEH@Z   0042d1a8 f   cmodel.obj
 0001:0002c2e0       ?CM_SetZonePortalState@@YAXH_N@Z 0042d2e0 f   cmodel.obj
 0001:0002c308       ?CM_ZonesConnected@@YA_NHH@Z 0042d308 f   cmodel.obj
 0001:0002c34f       ?CM_WriteZoneBits@@YAHPAEH@Z 0042d34f f   cmodel.obj
 0001:0002c3f1       ?CM_WritePortalState@@YAXPAU_iobuf@@@Z 0042d3f1 f   cmodel.obj
 0001:0002c40e       ?CM_ReadPortalState@@YAXPAU_iobuf@@@Z 0042d40e f   cmodel.obj
 0001:0002c430       ?CM_HeadnodeVisible@@YA_NHPBE@Z 0042d430 f   cmodel.obj
 0001:0002c50d       ??E?$TStringSplitter@$0EA@$0DL@@@QAEXXZ 0042d50d f i cmodel.obj
 0001:0002c56f       ?LoadNodes@@YAXPAUdBsp2Node_t@@H@Z 0042d56f f i cmodel.obj
 0001:0002c686       ?LoadLeafBrushes@@YAXPAGHPAUdBsp2Leaf_t@@@Z 0042d686 f i cmodel.obj
 0001:0002c71a       ?LoadSubmodels@@YAXPAUdBsp2Model_t@@H@Z 0042d71a f i cmodel.obj
 0001:0002c7a2       ?LoadNodes@@YAXPAUdBsp1Node_t@@H@Z 0042d7a2 f i cmodel.obj
 0001:0002c865       ?LoadSubmodels@@YAXPAUdBsp1Model_t@@H@Z 0042d865 f i cmodel.obj
 0001:0002c8ed       ?LoadNodes@@YAXPAUdBsp3Node_t@@H@Z 0042d8ed f i cmodel.obj
 0001:0002c9a2       ?LoadLeafBrushes@@YAXPAIHPAUdBsp3Leaf_t@@@Z 0042d9a2 f i cmodel.obj
 0001:0002ca33       ?Com_DPrintf@@YAXPBDZZ     0042da33 f   common.obj
 0001:0002caac       ?DebugPrintf@@YAXPBDZZ     0042daac f   common.obj
 0001:0002cb5b       ?IPWildcard@@YA_NPAUnetadr_t@@PBD@Z 0042db5b f   common.obj
 0001:0002cc35       ?Com_ServerState@@YA?AW4server_state_t@@XZ 0042dc35 f   common.obj
 0001:0002cc3b       ?Com_SetServerState@@YAXW4server_state_t@@@Z 0042dc3b f   common.obj
 0001:0002cc48       ?crand@@YAMXZ              0042dc48 f   common.obj
 0001:0002cc66       ?Info_ValueForKey@@YAPBDPBD0@Z 0042dc66 f   common.obj
 0001:0002cce5       ?Info_SetValueForKey@@YAXPADPBD1@Z 0042dce5 f   common.obj
 0001:0002ce1c       ?Info_Print@@YAXPBD@Z      0042de1c f   common.obj
 0001:0002cea2       ?LerpAngle@@YAMMMM@Z       0042dea2 f   common.obj
 0001:0002cee6       ?ReduceAngle@@YAMM@Z       0042dee6 f   common.obj
 0001:0002cf12       ?AngleSubtract@@YAMMM@Z    0042df12 f   common.obj
 0001:0002cf4b       ?AnglesSubtract@@YAXABUCVec3@@0AAU1@@Z 0042df4b f   common.obj
 0001:0002cfa4       ?COM_Parse@@YAPADAAPBD_N@Z 0042dfa4 f   common.obj
 0001:0002d0c6       ?COM_QuoteString@@YAPBDPBD_N@Z 0042e0c6 f   common.obj
 0001:0002d123       ?Com_CheckCmdlineVar@@YA_NPBD@Z 0042e123 f   common.obj
 0001:0002d17c       ?Com_Init@@YAXPBD@Z        0042e17c f   common.obj
 0001:0002d554       ?Com_Frame@@YAXM@Z         0042e554 f   common.obj
 0001:0002d954       ?Com_BlockSequenceCRCByte@@YAEPAEHH@Z 0042e954 f   crc.obj
 0001:0002da0c       ?Cvar_VariableValue@@YAMPBD@Z 0042ea0c f   cvar.obj
 0001:0002da83       ?Cvar_VariableInt@@YAHPBD@Z 0042ea83 f   cvar.obj
 0001:0002da9a       ?Cvar_VariableString@@YAPBDPBD@Z 0042ea9a f   cvar.obj
 0001:0002dab6       ?Cvar_Get@@YAPAUcvar_t@@PBD0H@Z 0042eab6 f   cvar.obj
 0001:0002dd83       ?Cvar_GetVars@@YAXPBUcvarInfo_t@@H@Z 0042ed83 f   cvar.obj
 0001:0002de2d       ?Cvar_FullSet@@YAXPAUcvar_t@@PBDI@Z 0042ee2d f   cvar.obj
 0001:0002de4d       ?Cvar_FullSet@@YAPAUcvar_t@@PBD0I@Z 0042ee4d f   cvar.obj
 0001:0002de8d       ?Cvar_SetValue@@YAPAUcvar_t@@PBDM@Z 0042ee8d f   cvar.obj
 0001:0002e026       ?Cvar_SetInteger@@YAPAUcvar_t@@PBDH@Z 0042f026 f   cvar.obj
 0001:0002e04a       ?Cvar_Set@@YAPAUcvar_t@@PBD0@Z 0042f04a f   cvar.obj
 0001:0002e061       ?Cvar_ForceSet@@YAPAUcvar_t@@PBD0@Z 0042f061 f   cvar.obj
 0001:0002e078       ?Cvar_Clamp@@YAMPAUcvar_t@@MM@Z 0042f078 f   cvar.obj
 0001:0002e0d6       ?Cvar_Command@@YA_NHPAPAD@Z 0042f0d6 f   cvar.obj
 0001:0002e171       ?IsDefault@cvar_t@@QAE_NXZ 0042f171 f i cvar.obj
 0001:0002e18e       ?Cvar_WriteVariables@@YAXPAVCOutputDevice@@HHPBD@Z 0042f18e f   cvar.obj
 0001:0002e214       ?Cvar_BitInfo@@YAPBDI@Z    0042f214 f   cvar.obj
 0001:0002e266       ?Cvar_Cheats@@YAX_N@Z      0042f266 f   cvar.obj
 0001:0002eadd       ?MSG_WriteDeltaEntity@@YAXPAVsizebuf_t@@PBUentityStateEx_t@@PAU2@_N33@Z 0042fadd f   entdelta.obj
 0001:0002f099       ?MSG_WriteRemoveEntity@@YAXPAVsizebuf_t@@H@Z 00430099 f   entdelta.obj
 0001:0002f0d9       ?MSG_ReadEntityBits@@YAHPAVsizebuf_t@@PAIPA_N@Z 004300d9 f   entdelta.obj
 0001:0002f14b       ?MSG_ReadDeltaEntity@@YAXPAVsizebuf_t@@PBUentityStateEx_t@@PAU2@I@Z 0043014b f   entdelta.obj
 0001:0002f1ce       ?MSG_WriteDeltaUsercmd@@YAXPAVsizebuf_t@@PBUusercmd_t@@PAU2@@Z 004301ce f   entdelta.obj
 0001:0002f25d       ?MSG_ReadDeltaUsercmd@@YAXPAVsizebuf_t@@PBUusercmd_t@@PAU2@@Z 0043025d f   entdelta.obj
 0001:0002f560       ?MSG_WriteDeltaPlayerstate@@YAXPAVsizebuf_t@@PBUplayer_state_t@@PAU2@@Z 00430560 f   entdelta.obj
 0001:0002f669       ?MSG_ReadDeltaPlayerstate@@YAXPAVsizebuf_t@@PBUplayer_state_t@@PAU2@@Z 00430669 f   entdelta.obj
 0001:0002f723       ?ProcessEntstring@@YAPBDPBD@Z 00430723 f   EntityParser.obj
 0001:00030e48       ?Inflate@CBox@@QAEXM@Z     00431e48 f i EntityParser.obj
 0001:000322dc       ?LoadPCX@@YAPAEPBDAAH1AAPAE@Z 004332dc f   images.obj
 0001:00032417       ?LoadTGA@@YAPAEPBDAAH1@Z   00433417 f   images.obj
 0001:000326ab       ?LoadJPG@@YAPAEPBDAAH1@Z   004336ab f   images.obj
 0001:0003295f       ?ImageExists@@YAHPBDH@Z    0043395f f   images.obj
 0001:00032a83       ?WriteTGA@@YA_NPBDPAEHH@Z  00433a83 f   images.obj
 0001:00032c77       ?WriteJPG@@YA_NPBDPAEHH_N@Z 00433c77 f   images.obj
 0001:00032da8       ??0CBrush@@QAE@ABUCBox@@@Z 00433da8 f   MapBrush.obj
 0001:00032ef9       ?Split@CBrush@@QAEPAU1@PAUCPlane@@@Z 00433ef9 f   MapBrush.obj
 0001:0003394b       ?GetVec@CAllocVertexPool@@QAEPAUCVec3@@ABU2@@Z 0043494b f i MapBrush.obj
 0001:000339df       ?GetBounds@CBrush@@QAEXAAUCBox@@@Z 004349df f   MapBrush.obj
 0001:00033a61       ?AddBevels@CBrush@@QAEXP6APAUCPlane@@ABUCVec3@@M@Z@Z 00434a61 f   MapBrush.obj
 0001:00033d55       ?Negate@CVec3@@QAEXXZ      00434d55 f i MapBrush.obj
 0001:00033d63       ?MD4Init@@YAXPAUMD4_CTX@@@Z 00434d63 f   md4.obj
 0001:00033d8b       ?MD4Update@@YAXPAUMD4_CTX@@PAEI@Z 00434d8b f   md4.obj
 0001:00033e29       ?MD4Final@@YAXQAEPAUMD4_CTX@@@Z 00434e29 f   md4.obj
 0001:0003451a       ?Com_BlockChecksum@@YAIPAXH@Z 0043551a f   md4.obj
 0001:00034556       ?LoadQ2BspFile@@YAXXZ      00435556 f   model.obj
 0001:00034a2f       ?LoadQ1BspFile@@YAXXZ      00435a2f f   model.obj
 0001:00034d4f       ?LoadQ3BspFile@@YAXXZ      00435d4f f   model.obj
 0001:00034fcf       ?LoadBspFile@@YAPAUbspfile_t@@PBD_NPAI@Z 00435fcf f   model.obj
 0001:000351d6       ?Init@sizebuf_t@@QAEXPAXH@Z 004361d6 f   msg.obj
 0001:000351f3       ?Write@sizebuf_t@@QAEXPBXH@Z 004361f3 f   msg.obj
 0001:00035265       ?MSG_WriteChar@@YAXPAVsizebuf_t@@H@Z 00436265 f   msg.obj
 0001:00035265       ?MSG_WriteByte@@YAXPAVsizebuf_t@@H@Z 00436265 f   msg.obj
 0001:00035278       ?MSG_WriteShort@@YAXPAVsizebuf_t@@H@Z 00436278 f   msg.obj
 0001:0003528b       ?MSG_WriteLong@@YAXPAVsizebuf_t@@H@Z 0043628b f   msg.obj
 0001:0003529e       ?MSG_WriteFloat@@YAXPAVsizebuf_t@@M@Z 0043629e f   msg.obj
 0001:000352b1       ?MSG_WriteString@@YAXPAVsizebuf_t@@PBD@Z 004362b1 f   msg.obj
 0001:000352db       ?MSG_WritePos@@YAXPAVsizebuf_t@@ABUCVec3@@@Z 004362db f   msg.obj
 0001:0003533f       ?MSG_WriteAngle@@YAXPAVsizebuf_t@@M@Z 0043633f f   msg.obj
 0001:0003536a       ?MSG_WriteAngle16@@YAXPAVsizebuf_t@@M@Z 0043636a f   msg.obj
 0001:00035395       ?MSG_WriteDir@@YAXPAVsizebuf_t@@ABUCVec3@@@Z 00436395 f   msg.obj
 0001:000353fd       ?MSG_ReadDir@@YAXPAVsizebuf_t@@AAUCVec3@@@Z 004363fd f   msg.obj
 0001:00035430       ?MSG_ReadChar@@YAHPAVsizebuf_t@@@Z 00436430 f   msg.obj
 0001:00035453       ?MSG_ReadByte@@YAHPAVsizebuf_t@@@Z 00436453 f   msg.obj
 0001:0003547b       ?MSG_ReadShort@@YAHPAVsizebuf_t@@@Z 0043647b f   msg.obj
 0001:000354a4       ?MSG_ReadLong@@YAHPAVsizebuf_t@@@Z 004364a4 f   msg.obj
 0001:000354c6       ?MSG_ReadString@@YAPADPAVsizebuf_t@@@Z 004364c6 f   msg.obj
 0001:000354fc       ?MSG_ReadPos@@YAXPAVsizebuf_t@@AAUCVec3@@@Z 004364fc f   msg.obj
 0001:0003554e       ?MSG_ReadAngle@@YAMPAVsizebuf_t@@@Z 0043654e f   msg.obj
 0001:00035568       ?MSG_ReadAngle16@@YAMPAVsizebuf_t@@@Z 00436568 f   msg.obj
 0001:00035582       ?MSG_ReadData@@YAXPAVsizebuf_t@@PAXH@Z 00436582 f   msg.obj
 0001:000355a5       ?Netchan_Init@@YAXXZ       004365a5 f   net_chan.obj
 0001:00035614       ?Netchan_OutOfBandPrint@@YAXW4netsrc_t@@Unetadr_t@@PBDZZ 00436614 f   net_chan.obj
 0001:00035699       ?Setup@netchan_t@@QAEXW4netsrc_t@@Unetadr_t@@H@Z 00436699 f   net_chan.obj
 0001:000356ef       ?NeedReliable@netchan_t@@QAE_NXZ 004366ef f   net_chan.obj
 0001:00035714       ?Transmit@netchan_t@@QAEXPAXH@Z 00436714 f   net_chan.obj
 0001:000358aa       ?Process@netchan_t@@QAE_NPAVsizebuf_t@@@Z 004368aa f   net_chan.obj
 0001:000359d7       ?Pmove@@YAXPAUpmove_t@@@Z  004369d7 f   pmove.obj
 0001:0003764d       ?FileExists@CQuakeFileSystem@@UAE_NPBDI@Z 0043864d f i QuakeFileSystem.obj
 0001:000376b4       ?CheckFilename@CQuakeFileSystem@@AAEXPBD@Z 004386b4 f i QuakeFileSystem.obj
 0001:00037753       ?OpenFile@CQuakeFileSystem@@UAEPAVCFile@@PBDI@Z 00438753 f i QuakeFileSystem.obj
 0001:000377e3       ?List@CQuakeFileSystem@@UAEPAVCFileList@@PBDIPAV2@@Z 004387e3 f i QuakeFileSystem.obj
 0001:00037875       ??_ECFileSystem@@UAEPAXI@Z 00438875 f i QuakeFileSystem.obj
 0001:00037875       ??_GCQuakeFileSystem@@UAEPAXI@Z 00438875 f i QuakeFileSystem.obj
 0001:00037875       ??_ECQuakeFileSystem@@UAEPAXI@Z 00438875 f i QuakeFileSystem.obj
 0001:00037875       ??_GCFileSystem@@UAEPAXI@Z 00438875 f i QuakeFileSystem.obj
 0001:00037895       ?FS_Gamedir@@YAPBDXZ       00438895 f   QuakeFileSystem.obj
 0001:0003789b       ?FS_NextPath@@YAPBDPBD@Z   0043889b f   QuakeFileSystem.obj
 0001:000378df       ?FS_CopyFile@@YAXPBD0@Z    004388df f   QuakeFileSystem.obj
 0001:000379b5       ?FS_CopyFiles@@YAXPBD0@Z   004389b5 f   QuakeFileSystem.obj
 0001:00037acf       ?FS_RemoveFiles@@YAXPBD@Z  00438acf f   QuakeFileSystem.obj
 0001:00037b8a       ?InitFileSystem@@YAXXZ     00438b8a f   QuakeFileSystem.obj
 0001:00037cbe       ?Create@CFileContainerPak@@SAPAVCFileContainer@@PBDPAU_iobuf@@@Z 00438cbe f i QuakeFileSystem.obj
 0001:00037e27       ??0CFileContainerArc@@QAE@XZ 00438e27 f i QuakeFileSystem.obj
 0001:00037e6e       ??_GCFileContainerArc@@UAEPAXI@Z 00438e6e f i QuakeFileSystem.obj
 0001:00037e6e       ??_ECFileContainerArc@@UAEPAXI@Z 00438e6e f i QuakeFileSystem.obj
 0001:00037e9d       ?GetType@CFileContainerPak@@MAEPBDXZ 00438e9d f i QuakeFileSystem.obj
 0001:00037ea3       ?OpenLocalFile@CFileContainerPak@@MAEPAVCFile@@ABVCStringItem@@@Z 00438ea3 f i QuakeFileSystem.obj
 0001:00037ef3       ?Read@CFilePak@CFileContainerPak@@UAEHPAXH@Z 00438ef3 f i QuakeFileSystem.obj
 0001:00037f2d       ?GetSize@CFilePak@CFileContainerPak@@UAEHXZ 00438f2d f i QuakeFileSystem.obj
 0001:00037f34       ?Eof@CFilePak@CFileContainerPak@@UAE_NXZ 00438f34 f i QuakeFileSystem.obj
 0001:00037f41       ??_GCFilePak@CFileContainerPak@@UAEPAXI@Z 00438f41 f i QuakeFileSystem.obj
 0001:00037f41       ??_ECFilePak@CFileContainerPak@@UAEPAXI@Z 00438f41 f i QuakeFileSystem.obj
 0001:00037f76       ??_ECFileContainerPak@@UAEPAXI@Z 00438f76 f i QuakeFileSystem.obj
 0001:00037f76       ??_GCFileContainerPak@@UAEPAXI@Z 00438f76 f i QuakeFileSystem.obj
 0001:00037fa5       ?Create@CFileContainerZip@@SAPAVCFileContainer@@PBDPAU_iobuf@@@Z 00438fa5 f i QuakeFileSystem.obj
 0001:000382a4       ?GetType@CFileContainerZip@@MAEPBDXZ 004392a4 f i QuakeFileSystem.obj
 0001:000382aa       ?OpenLocalFile@CFileContainerZip@@MAEPAVCFile@@ABVCStringItem@@@Z 004392aa f i QuakeFileSystem.obj
 0001:00038346       ??0CFilePak@CFileContainerZip@@QAE@ABVCFileInfo@1@PAU_iobuf@@@Z 00439346 f i QuakeFileSystem.obj
 0001:00038398       ?Read@CFilePak@CFileContainerZip@@UAEHPAXH@Z 00439398 f i QuakeFileSystem.obj
 0001:000384e1       ?GetSize@CFilePak@CFileContainerZip@@UAEHXZ 004394e1 f i QuakeFileSystem.obj
 0001:000384eb       ?Eof@CFilePak@CFileContainerZip@@UAE_NXZ 004394eb f i QuakeFileSystem.obj
 0001:000384fe       ??_ECFilePak@CFileContainerZip@@UAEPAXI@Z 004394fe f i QuakeFileSystem.obj
 0001:000384fe       ??_GCFilePak@CFileContainerZip@@UAEPAXI@Z 004394fe f i QuakeFileSystem.obj
 0001:0003851d       ??1CFilePak@CFileContainerZip@@UAE@XZ 0043951d f i QuakeFileSystem.obj
 0001:0003858c       ??_ECFileContainerZip@@UAEPAXI@Z 0043958c f i QuakeFileSystem.obj
 0001:0003858c       ??_GCFileContainerZip@@UAEPAXI@Z 0043958c f i QuakeFileSystem.obj
 0001:000385bb       ?Mount@CZResource@@SAPAVCFileContainer@@PBDPBE0PAVCFileSystem@@@Z 004395bb f i QuakeFileSystem.obj
 0001:00038767       ?GetType@CZResource@@MAEPBDXZ 00439767 f i QuakeFileSystem.obj
 0001:0003876d       ?OpenLocalFile@CZResource@@MAEPAVCFile@@ABVCStringItem@@@Z 0043976d f i QuakeFileSystem.obj
 0001:0003879e       ??0CFileRes@CZResource@@QAE@ABVCFileInfo@1@PBXH@Z 0043979e f i QuakeFileSystem.obj
 0001:00038851       ?Read@CFileRes@CZResource@@UAEHPAXH@Z 00439851 f i QuakeFileSystem.obj
 0001:000388a4       ?GetSize@CFileRes@CZResource@@UAEHXZ 004398a4 f i QuakeFileSystem.obj
 0001:000388ab       ?Eof@CFileRes@CZResource@@UAE_NXZ 004398ab f i QuakeFileSystem.obj
 0001:000388b8       ??_GCFileRes@CZResource@@UAEPAXI@Z 004398b8 f i QuakeFileSystem.obj
 0001:000388b8       ??_ECFileRes@CZResource@@UAEPAXI@Z 004398b8 f i QuakeFileSystem.obj
 0001:000388ea       ??_ECZResource@@UAEPAXI@Z  004398ea f i QuakeFileSystem.obj
 0001:000388ea       ??_GCZResource@@UAEPAXI@Z  004398ea f i QuakeFileSystem.obj
 0001:00038919       ?MountGame@CQuakeFileSystem@@QAEXPBD@Z 00439919 f i QuakeFileSystem.obj
 0001:00038964       ?SetGameDir@CQuakeFileSystem@@QAE_NPBD@Z 00439964 f i QuakeFileSystem.obj
 0001:00038b66       ?FS_Tick@@YAXXZ            00439b66 f   QuakeFileSystem.obj
 0001:00038cb3       ?CDAudio_Play@@YAXH_N@Z    00439cb3 f   cd_win.obj
 0001:00038ea6       ?CDAudio_Stop@@YAXXZ       00439ea6 f   cd_win.obj
 0001:00038f67       ?CDAudio_Update@@YAXXZ     00439f67 f   cd_win.obj
 0001:0003900a       ?CDAudio_Init@@YA_NXZ      0043a00a f   cd_win.obj
 0001:0003942b       ?CDAudio_Shutdown@@YAXXZ   0043a42b f   cd_win.obj
 0001:0003944e       ?CDAudio_Activate@@YAX_N@Z 0043a44e f   cd_win.obj
 0001:00039465       ?IN_Init@@YAXXZ            0043a465 f   in_win.obj
 0001:000396f2       ?IN_Shutdown@@YAXXZ        0043a6f2 f   in_win.obj
 0001:00039953       ?IN_Activate@@YAX_N@Z      0043a953 f   in_win.obj
 0001:00039960       ?IN_Frame@@YAXXZ           0043a960 f   in_win.obj
 0001:00039cc2       ?IN_Move@@YAXPAUusercmd_t@@@Z 0043acc2 f   in_win.obj
 0001:0003a178       ?NET_CompareAdr@@YA_NPAUnetadr_t@@0@Z 0043b178 f   net_wins.obj
 0001:0003a1b3       ?NET_CompareBaseAdr@@YA_NPAUnetadr_t@@0@Z 0043b1b3 f   net_wins.obj
 0001:0003a1e0       ?NET_AdrToString@@YAPBDPAUnetadr_t@@@Z 0043b1e0 f   net_wins.obj
 0001:0003a226       ?NET_StringToAdr@@YA_NPBDPAUnetadr_t@@F@Z 0043b226 f   net_wins.obj
 0001:0003a33b       ?NET_IsLocalAddress@@YA_NPAUnetadr_t@@@Z 0043b33b f   net_wins.obj
 0001:0003a34a       ?NET_GetPacket@@YA_NW4netsrc_t@@PAUnetadr_t@@PAVsizebuf_t@@@Z 0043b34a f   net_wins.obj
 0001:0003a4c9       ?NET_SendPacket@@YAXW4netsrc_t@@HPAXUnetadr_t@@@Z 0043b4c9 f   net_wins.obj
 0001:0003a5e7       ?NET_Config@@YAX_N@Z       0043b5e7 f   net_wins.obj
 0001:0003a7c2       ?NET_Init@@YAXXZ           0043b7c2 f   net_wins.obj
 0001:0003a875       ?SNDDMA_Init@@YA_NXZ       0043b875 f   snd_win.obj
 0001:0003aec0       ?SNDDMA_GetDMAPos@@YAHXZ   0043bec0 f   snd_win.obj
 0001:0003af0a       ?SNDDMA_BeginPainting@@YAXXZ 0043bf0a f   snd_win.obj
 0001:0003b029       ?SNDDMA_Submit@@YAXXZ      0043c029 f   snd_win.obj
 0001:0003b04e       ?SNDDMA_Shutdown@@YAXXZ    0043c04e f   snd_win.obj
 0001:0003b053       ?S_Activate@@YAX_N@Z       0043c053 f   snd_win.obj
 0001:0003b0a6       ?Write@COutputDeviceWin32Console@@UAEXPBD@Z 0043c0a6 f i sys_win.obj
 0001:0003b11e       ?EraseInput@COutputDeviceWin32Console@@QAEXXZ 0043c11e f i sys_win.obj
 0001:0003b1a4       ??_GCOutputDeviceWin32Console@@UAEPAXI@Z 0043c1a4 f i sys_win.obj
 0001:0003b1a4       ??_ECOutputDeviceWin32Console@@UAEPAXI@Z 0043c1a4 f i sys_win.obj
 0001:0003b1c4       ?Sys_ConsoleInput@@YAPADXZ 0043c1c4 f   sys_win.obj
 0001:0003b44d       ?Sys_ProcessMessages@@YAXXZ 0043c44d f   sys_win.obj
 0001:0003b506       _WinMain@16                0043c506 f   sys_win.obj
 0001:0003b81a       ??_GCOutputDeviceCon@@UAEPAXI@Z 0043c81a f i sys_win.obj
 0001:0003b81a       ??_ECOutputDeviceCon@@UAEPAXI@Z 0043c81a f i sys_win.obj
 0001:0003b8c2       ?Init@COutputDeviceWin32Console@@QAEXXZ 0043c8c2 f i sys_win.obj
 0001:0003b8ec       ?AddMsgHook@@YAXP6A_NIIJ@Z@Z 0043c8ec f   vid_dll.obj
 0001:0003b933       ?RemoveMsgHook@@YAXP6A_NIIJ@Z@Z 0043c933 f   vid_dll.obj
 0001:0003b966       ?Vid_CreateWindow@@YAPAXHH_N@Z 0043c966 f   vid_dll.obj
 0001:0003c05f       ?Vid_DestroyWindow@@YAX_N@Z 0043d05f f   vid_dll.obj
 0001:0003c09e       ?Vid_Restart@@YAXXZ        0043d09e f   vid_dll.obj
 0001:0003c0aa       ?Vid_GetModeInfo@@YA_NPAH0H@Z 0043d0aa f   vid_dll.obj
 0001:0003c0dc       ?Vid_Tick@@YAXXZ           0043d0dc f   vid_dll.obj
 0001:0003c294       ?Vid_Init@@YAXXZ           0043d294 f   vid_dll.obj
 0001:0003c337       ?Vid_Shutdown@@YAXXZ       0043d337 f   vid_dll.obj
 0001:0003c356       ?PreLight@Comb@OpenGLDrv@@YA_NPBVshader_t@2@AAH@Z 0043d356 f   gl_backend.obj
 0001:0003c5b0       ?PostLight@Comb@OpenGLDrv@@YAXPBVshader_t@2@@Z 0043d5b0 f   gl_backend.obj
 0001:0003c836       ?AddFogPass@Comb@OpenGLDrv@@YAXPBVshader_t@2@@Z 0043d836 f   gl_backend.obj
 0001:0003c974       ?AddStaticStages@Comb@OpenGLDrv@@YAXPBVshader_t@2@H@Z 0043d974 f   gl_backend.obj
 0001:0003cab0       ?ComputeConstColor@Comb@OpenGLDrv@@YAXXZ 0043dab0 f   gl_backend.obj
 0001:0003cdd5       ?NoMultitexture@Comb@OpenGLDrv@@YAXXZ 0043ddd5 f   gl_backend.obj
 0001:0003ce2c       ?UseMultitexture@Comb@OpenGLDrv@@YAXXZ 0043de2c f   gl_backend.obj
 0001:0003d443       ?ShowFillrate@Comb@OpenGLDrv@@YAXPBVshader_t@2@@Z 0043e443 f   gl_backend.obj
 0001:0003d4e2       ?DebugLight@Comb@OpenGLDrv@@YAXPBVshader_t@2@@Z 0043e4e2 f   gl_backend.obj
 0001:0003d677       ?ComputeCombiners@Comb@OpenGLDrv@@YAXPBVshader_t@2@@Z 0043e677 f   gl_backend.obj
 0001:0003d7d6       ?BK_FlushShader@OpenGLDrv@@YAXXZ 0043e7d6 f   gl_backend.obj
 0001:0003f984       ?Tesselate@surfacePlanar_t@OpenGLDrv@@UAEXAAUrefEntity_t@2@@Z 00440984 f   gl_backend.obj
 0001:0003faf1       ?Tesselate@surfaceTrisurf_t@OpenGLDrv@@UAEXAAUrefEntity_t@2@@Z 00440af1 f   gl_backend.obj
 0001:0003fbff       ?Tesselate@surfacePoly_t@OpenGLDrv@@UAEXAAUrefEntity_t@2@@Z 00440bff f   gl_backend.obj
 0001:0003fd09       ?Tesselate@surfaceMd3_t@OpenGLDrv@@UAEXAAUrefEntity_t@2@@Z 00440d09 f   gl_backend.obj
 0001:000402d9       ?DrawBrush@OpenGLDrv@@YAXPBUCBrush@@PBDH@Z 004412d9 f   gl_backend.obj
 0001:0004033c       ?Tesselate@surfaceEntity_t@OpenGLDrv@@UAEXAAUrefEntity_t@2@@Z 0044133c f   gl_backend.obj
 0001:00040437       ?Tesselate@surfaceParticle_t@OpenGLDrv@@UAEXAAUrefEntity_t@2@@Z 00441437 f   gl_backend.obj
 0001:00040687       ?BK_DrawScene@OpenGLDrv@@YAXXZ 00441687 f   gl_backend.obj
 0001:00040f44       ?BK_DrawPic@OpenGLDrv@@YAXPAVshader_t@1@HHHHMMMMIE@Z 00441f44 f   gl_backend.obj
 0001:00041120       ?BK_DrawText@OpenGLDrv@@YAXPBVCFont@1@PBDHHHI@Z 00442120 f   gl_backend.obj
 0001:00041370       ?BK_BeginFrame@OpenGLDrv@@YAXXZ 00442370 f   gl_backend.obj
 0001:000413d4       ?BK_EndFrame@OpenGLDrv@@YAXXZ 004423d4 f   gl_backend.obj
 0001:00041429       ?BK_Init@OpenGLDrv@@YAXXZ  00442429 f   gl_backend.obj
 0001:00041458       ?BK_Shutdown@OpenGLDrv@@YAXXZ 00442458 f   gl_backend.obj
 0001:00041470       ?AllocDynamicMemory@OpenGLDrv@@YAPAXH@Z 00442470 f   gl_buffers.obj
 0001:000414e9       ?ResizeDynamicMemory@OpenGLDrv@@YAXPAXH@Z 004424e9 f   gl_buffers.obj
 0001:0004152e       ?AddSurfaceToPortal@OpenGLDrv@@YAXPAVsurfaceBase_t@1@PAVshader_t@1@HH@Z 0044252e f   gl_buffers.obj
 0001:000415ac       ?InsertShaderIndex@OpenGLDrv@@YAXH@Z 004425ac f   gl_buffers.obj
 0001:000415e2       ?ClearPortal@OpenGLDrv@@YAXXZ 004425e2 f   gl_buffers.obj
 0001:00041600       ?SortSurfaces@OpenGLDrv@@YAXPAUviewPortal_t@1@PAPAUsurfaceInfo_t@1@@Z 00442600 f   gl_buffers.obj
 0001:00041792       ?ClearBuffers@OpenGLDrv@@YAXXZ 00442792 f   gl_buffers.obj
 0001:000417a9       ?CreateBuffers@OpenGLDrv@@YAXXZ 004427a9 f   gl_buffers.obj
 0001:000417cf       ?FreeBuffers@OpenGLDrv@@YAXXZ 004427cf f   gl_buffers.obj
 0001:000417f3       ?FindFont@OpenGLDrv@@YAPAVCFont@1@PBD@Z 004427f3 f   gl_font.obj
 0001:00041873       ?InitFonts@OpenGLDrv@@YAXXZ 00442873 f   gl_font.obj
 0001:000418cd       ?ShutdownFonts@OpenGLDrv@@YAXXZ 004428cd f   gl_font.obj
 0001:000418d9       ?ResetFonts@OpenGLDrv@@YAXXZ 004428d9 f   gl_font.obj
 0001:000419e2       ?Load@CFont@OpenGLDrv@@QAE_NPBD@Z 004429e2 f   gl_font.obj
 0001:00041a99       ?GetTextExtents@CFont@OpenGLDrv@@QAEXPBDAAH1@Z 00442a99 f   gl_font.obj
 0001:00041ae9       ?InitEntity@model_t@OpenGLDrv@@UAE_NPAUentity_t@@PAUrefEntity_t@2@@Z 00442ae9 f   gl_frontend.obj
 0001:00041aee       ?AddSurfaces@model_t@OpenGLDrv@@UAEXPAUrefEntity_t@2@@Z 00442aee f   gl_frontend.obj
 0001:00041b2a       ?GetLeaf@model_t@OpenGLDrv@@UAEPBUCBspLeaf@@PAUrefEntity_t@2@@Z 00442b2a f   gl_frontend.obj
 0001:00041b41       ?DrawLabel@model_t@OpenGLDrv@@UAEXPAUrefEntity_t@2@@Z 00442b41 f   gl_frontend.obj
 0001:00041b44       ?InitEntity@inlineModel_t@OpenGLDrv@@UAE_NPAUentity_t@@PAUrefEntity_t@2@@Z 00442b44 f   gl_frontend.obj
 0001:00041bb1       ?AddSurfaces@inlineModel_t@OpenGLDrv@@UAEXPAUrefEntity_t@2@@Z 00442bb1 f   gl_frontend.obj
 0001:00042247       ?GetLeaf@inlineModel_t@OpenGLDrv@@UAEPBUCBspLeaf@@PAUrefEntity_t@2@@Z 00443247 f   gl_frontend.obj
 0001:000423f2       ?DrawLabel@inlineModel_t@OpenGLDrv@@UAEXPAUrefEntity_t@2@@Z 004433f2 f   gl_frontend.obj
 0001:0004243b       ?InitEntity@md3Model_t@OpenGLDrv@@UAE_NPAUentity_t@@PAUrefEntity_t@2@@Z 0044343b f   gl_frontend.obj
 0001:00042630       ?AddSurfaces@md3Model_t@OpenGLDrv@@UAEXPAUrefEntity_t@2@@Z 00443630 f   gl_frontend.obj
 0001:0004276a       ?GetLeaf@md3Model_t@OpenGLDrv@@UAEPBUCBspLeaf@@PAUrefEntity_t@2@@Z 0044376a f   gl_frontend.obj
 0001:000427a5       ?DrawLabel@md3Model_t@OpenGLDrv@@UAEXPAUrefEntity_t@2@@Z 004437a5 f   gl_frontend.obj
 0001:0004280e       ?InitEntity@sprModel_t@OpenGLDrv@@UAE_NPAUentity_t@@PAUrefEntity_t@2@@Z 0044380e f   gl_frontend.obj
 0001:00042831       ?AddSurfaces@sprModel_t@OpenGLDrv@@UAEXPAUrefEntity_t@2@@Z 00443831 f   gl_frontend.obj
 0001:000429b2       ?GetLeaf@sprModel_t@OpenGLDrv@@UAEPBUCBspLeaf@@PAUrefEntity_t@2@@Z 004439b2 f   gl_frontend.obj
 0001:00042a9a       ?AddEntity@OpenGLDrv@@YAXPAUentity_t@@@Z 00443a9a f   gl_frontend.obj
 0001:00042c53       ?AddDlight@OpenGLDrv@@YAXPAUdlight_t@@@Z 00443c53 f   gl_frontend.obj
 0001:00042e1d       ?DrawPortal@OpenGLDrv@@YAXXZ 00443e1d f   gl_frontend.obj
 0001:0004505e       ?GL_TextureMode@OpenGLDrv@@YAXPBD@Z 0044605e f   gl_image.obj
 0001:00045109       ?CreateImage@OpenGLDrv@@YAPAVimage_t@1@PBDPAXHHI@Z 00446109 f   gl_image.obj
 0001:00045f25       ?CreateImage8@OpenGLDrv@@YAPAVimage_t@1@PBDPAXHHIPAI@Z 00446f25 f   gl_image.obj
 0001:00046004       ?LoadDelayedImages@OpenGLDrv@@YAXXZ 00447004 f   gl_image.obj
 0001:00046097       ?DrawStretchRaw8@OpenGLDrv@@YAXHHHHHHPAEPAI@Z 00447097 f   gl_image.obj
 0001:000463ca       ?SetupGamma@OpenGLDrv@@YAXXZ 004473ca f   gl_image.obj
 0001:00046510       ?PerformScreenshot@OpenGLDrv@@YAXXZ 00447510 f   gl_image.obj
 0001:00046781       ?InitImages@OpenGLDrv@@YAXXZ 00447781 f   gl_image.obj
 0001:000470bd       ?ShutdownImages@OpenGLDrv@@YAXXZ 004480bd f   gl_image.obj
 0001:00047124       ?ShowImages@OpenGLDrv@@YAXXZ 00448124 f   gl_image.obj
 0001:000473b0       ?FindImage@OpenGLDrv@@YAPAVimage_t@1@PBDI@Z 004483b0 f   gl_image.obj
 0001:000477c2       ?GetImageColor@OpenGLDrv@@YA_NPBDPATcolor_t@@@Z 004487c2 f   gl_image.obj
 0001:0004782f       ?GL_Lock@OpenGLDrv@@YAXXZ  0044882f f   gl_interface.obj
 0001:000478a7       ?GL_Unlock@OpenGLDrv@@YAXXZ 004488a7 f   gl_interface.obj
 0001:00047a69       ?GL_Bind@OpenGLDrv@@YAXPBVimage_t@1@@Z 00448a69 f   gl_interface.obj
 0001:00047bfe       ?GL_BindForce@OpenGLDrv@@YAXPBVimage_t@1@@Z 00448bfe f   gl_interface.obj
 0001:00047c96       ?GL_TexEnv@OpenGLDrv@@YAXI@Z 00448c96 f   gl_interface.obj
 0001:00047e15       ?GL_TexMipBias@OpenGLDrv@@YAXM@Z 00448e15 f   gl_interface.obj
 0001:00047e71       ?GL_TexEnvColor@OpenGLDrv@@YAXPBTcolor_t@@@Z 00448e71 f   gl_interface.obj
 0001:00047f21       ?GL_SelectTexture@OpenGLDrv@@YAXH@Z 00448f21 f   gl_interface.obj
 0001:00047f84       ?GL_TexCoordPointer@OpenGLDrv@@YAXPAX@Z 00448f84 f   gl_interface.obj
 0001:00047fb7       ?GL_SetMultitexture@OpenGLDrv@@YAXH@Z 00448fb7 f   gl_interface.obj
 0001:000480a8       ?GL_DisableTexCoordArrays@OpenGLDrv@@YAXXZ 004490a8 f   gl_interface.obj
 0001:000480fc       ?GL_CullFace@OpenGLDrv@@YAXW4gl_cullMode_t@1@@Z 004490fc f   gl_interface.obj
 0001:00048150       ?GL_DepthRange@OpenGLDrv@@YAXW4gl_depthMode_t@1@@Z 00449150 f   gl_interface.obj
 0001:00048186       ?GL_State@OpenGLDrv@@YAXI@Z 00449186 f   gl_interface.obj
 0001:000482d6       ?GL_EnableFog@OpenGLDrv@@YAX_N@Z 004492d6 f   gl_interface.obj
 0001:000483b0       ?GL_SetDefaultState@OpenGLDrv@@YAXXZ 004493b0 f   gl_interface.obj
 0001:00048507       ?GL_Set2DMode@OpenGLDrv@@YAXXZ 00449507 f   gl_interface.obj
 0001:000485fb       ?GL_Set3DMode@OpenGLDrv@@YAXPAUviewPortal_t@1@@Z 004495fb f   gl_interface.obj
 0001:000486e6       ?Show@CPointLight@OpenGLDrv@@UBEXXZ 004496e6 f   gl_light.obj
 0001:00048903       ?Show@CSurfLight@OpenGLDrv@@UBEXXZ 00449903 f   gl_light.obj
 0001:00048a7a       ?ShowLights@OpenGLDrv@@YAXXZ 00449a7a f   gl_light.obj
 0001:00048aff       ?Init@CPointLight@OpenGLDrv@@UAEXXZ 00449aff f   gl_light.obj
 0001:00048b17       ?Init@CLightLinear@OpenGLDrv@@EAEXXZ 00449b17 f   gl_light.obj
 0001:00048b4b       ?GetScale@CLightLinear@OpenGLDrv@@EBEMM@Z 00449b4b f   gl_light.obj
 0001:00048b5b       ?Init@CLightInv@OpenGLDrv@@EAEXXZ 00449b5b f   gl_light.obj
 0001:00048b77       ?GetScale@CLightInv@OpenGLDrv@@EBEMM@Z 00449b77 f   gl_light.obj
 0001:00048b93       ?Init@CLightInv2@OpenGLDrv@@EAEXXZ 00449b93 f   gl_light.obj
 0001:00048bfc       ?GetScale@CLightInv2@OpenGLDrv@@EBEMM@Z 00449bfc f   gl_light.obj
 0001:00048c1e       ?Init@CLightNofade@OpenGLDrv@@EAEXXZ 00449c1e f   gl_light.obj
 0001:00048c2f       ?GetScale@CLightNofade@OpenGLDrv@@EBEMM@Z 00449c2f f   gl_light.obj
 0001:00048c35       ?Add@CPointLight@OpenGLDrv@@UBEXABUCVec3@@ABUCAxis@@@Z 00449c35 f   gl_light.obj
 0001:00049081       ?Init@CSurfLight@OpenGLDrv@@UAEXXZ 0044a081 f   gl_light.obj
 0001:0004915c       ?Add@CSurfLight@OpenGLDrv@@UBEXABUCVec3@@ABUCAxis@@@Z 0044a15c f   gl_light.obj
 0001:0004957d       ?Init@CSunLight@OpenGLDrv@@UAEXXZ 0044a57d f   gl_light.obj
 0001:0004962a       ?Add@CSunLight@OpenGLDrv@@UBEXABUCVec3@@ABUCAxis@@@Z 0044a62a f   gl_light.obj
 0001:000496f0       ?LightForEntity@OpenGLDrv@@YAXPAUrefEntity_t@1@@Z 0044a6f0 f   gl_light.obj
 0001:00049fcb       ?DiffuseLight@OpenGLDrv@@YAXPATcolor_t@@M@Z 0044afcb f   gl_light.obj
 0001:0004a217       ?InitLightGrid@OpenGLDrv@@YAXXZ 0044b217 f   gl_light.obj
 0001:0004a2bd       ?PostLoadLights@OpenGLDrv@@YAXXZ 0044b2bd f   gl_light.obj
 0001:0004a3a6       ?LM_Init@OpenGLDrv@@YAXXZ  0044b3a6 f   gl_lightmap.obj
 0001:0004a3bc       ?LM_Flush@OpenGLDrv@@YAXPAUlightmapBlock_t@1@@Z 0044b3bc f   gl_lightmap.obj
 0001:0004a41c       ?LM_Done@OpenGLDrv@@YAXXZ  0044b41c f   gl_lightmap.obj
 0001:0004a443       ?LM_Save@OpenGLDrv@@YAXPAUlightmapBlock_t@1@@Z 0044b443 f   gl_lightmap.obj
 0001:0004a45e       ?LM_Restore@OpenGLDrv@@YAXPAUlightmapBlock_t@1@@Z 0044b45e f   gl_lightmap.obj
 0001:0004a479       ?LM_NewBlock@OpenGLDrv@@YAPAUlightmapBlock_t@1@XZ 0044b479 f   gl_lightmap.obj
 0001:0004a4d8       ?LM_Rewind@OpenGLDrv@@YAXXZ 0044b4d8 f   gl_lightmap.obj
 0001:0004a4e0       ?LM_NextBlock@OpenGLDrv@@YAPAUlightmapBlock_t@1@XZ 0044b4e0 f   gl_lightmap.obj
 0001:0004a50d       ?LM_CheckMinlight@OpenGLDrv@@YAXPAUdynamicLightmap_t@1@@Z 0044b50d f   gl_lightmap.obj
 0001:0004a5a3       ?LM_AllocBlock@OpenGLDrv@@YA_NPAUlightmapBlock_t@1@PAUdynamicLightmap_t@1@@Z 0044b5a3 f   gl_lightmap.obj
 0001:0004a6c9       ?LM_Copy@OpenGLDrv@@YAXPAE0HH@Z 0044b6c9 f   gl_lightmap.obj
 0001:0004aa43       ?LM_PutBlock@OpenGLDrv@@YAXPAUdynamicLightmap_t@1@@Z 0044ba43 f   gl_lightmap.obj
 0001:0004ab5a       ?LM_PutBlock1@OpenGLDrv@@YAXPAUdynamicLightmap_t@1@@Z 0044bb5a f   gl_lightmap.obj
 0001:0004acab       ?LM_SortLightStyles@OpenGLDrv@@YAXPAUdynamicLightmap_t@1@@Z 0044bcab f   gl_lightmap.obj
 0001:0004ad3d       ?UpdateDynamicLightmap@OpenGLDrv@@YAXPAVsurfacePlanar_t@1@_NI@Z 0044bd3d f   gl_lightmap.obj
 0001:0004b5b1       ?LM_IsMonotone@OpenGLDrv@@YA_NPAUdynamicLightmap_t@1@PATcolor_t@@@Z 0044c5b1 f   gl_lightmap.obj
 0001:0004b6b8       ?Init@OpenGLDrv@@YA_NXZ    0044c6b8 f   gl_main.obj
 0001:0004bdd1       ?Shutdown@OpenGLDrv@@YAX_N@Z 0044cdd1 f   gl_main.obj
 0001:0004be5f       ?GL_EnableRendering@OpenGLDrv@@YAX_N@Z 0044ce5f f   gl_main.obj
 0001:0004be7d       ?BeginFrame@OpenGLDrv@@YAXN@Z 0044ce7d f   gl_main.obj
 0001:0004bfaf       ?EndFrame@OpenGLDrv@@YAXXZ 0044cfaf f   gl_main.obj
 0001:0004bfc7       ?RenderFrame@OpenGLDrv@@YAXPAUrefdef_t@@@Z 0044cfc7 f   gl_main.obj
 0001:0004c54d       ?Zero@FDrawStats@OpenGLDrv@@QAEXXZ 0044d54d f i gl_main.obj
 0001:0004c971       ?Fill8@OpenGLDrv@@YAXHHHHH@Z 0044d971 f   gl_main.obj
 0001:0004c9b4       ?Fill@OpenGLDrv@@YAXHHHHI@Z 0044d9b4 f   gl_main.obj
 0001:0004c9f0       ?TileClear@OpenGLDrv@@YAXHHHHPBD@Z 0044d9f0 f   gl_main.obj
 0001:0004ca91       ?DrawStretchPic@OpenGLDrv@@YAXHHHHPBD@Z 0044da91 f   gl_main.obj
 0001:0004cad6       ?DrawDetailedPic@OpenGLDrv@@YAXHHHHPBD@Z 0044dad6 f   gl_main.obj
 0001:0004cb80       ?DrawPic@OpenGLDrv@@YAXHHPBDHH@Z 0044db80 f   gl_main.obj
 0001:0004cc08       ?LoadNewWorld@OpenGLDrv@@YAXXZ 0044dc08 f   gl_main.obj
 0001:0004cc2d       ?DumpLoadStats@OpenGLDrv@@YAXXZ 0044dc2d f   gl_main.obj
 0001:0004ccb3       ?FinishLoadingWorld@OpenGLDrv@@YAXXZ 0044dcb3 f   gl_main.obj
 0001:0004ccb8       ?RegisterPic@OpenGLDrv@@YAPAVCBasicImage@@PBD@Z 0044dcb8 f   gl_main.obj
 0001:0004cccc       ?RegisterSkin@OpenGLDrv@@YAPAVCBasicImage@@PBD_N@Z 0044dccc f   gl_main.obj
 0001:0004ccec       ?RegisterFont@OpenGLDrv@@YAPAVCBasicFont@@PBD@Z 0044dcec f   gl_main.obj
 0001:0004ccfa       ?RegisterModel@OpenGLDrv@@YAPAVCRenderModel@@PBD@Z 0044dcfa f   gl_main.obj
 0001:0004cd08       ?SetSky@OpenGLDrv@@YAXPBDMABUCVec3@@@Z 0044dd08 f   gl_main.obj
 0001:0004ce10       ?Screenshot@OpenGLDrv@@YAXHPBD@Z 0044de10 f   gl_main.obj
 0001:0004ce38       ?GetClientLight@OpenGLDrv@@YAMXZ 0044de38 f   gl_main.obj
 0001:0004ce3f       ?InitFuncTables@OpenGLDrv@@YAXXZ 0044de3f f   gl_math.obj
 0001:0004cf43       ?BuildRotationAxis@OpenGLDrv@@YAXAAUCAxis@@ABUCVec3@@M@Z 0044df43 f   gl_math.obj
 0001:0004d03a       ?GetBoxRect@OpenGLDrv@@YA_NPBUrefEntity_t@1@ABUCVec3@@QAM2_N@Z 0044e03a f   gl_math.obj
 0001:0004d344       ?ProjectToScreen@OpenGLDrv@@YA_NABUCVec3@@QAH@Z 0044e344 f   gl_math.obj
 0001:0004d487       ?SaturateColor3f@OpenGLDrv@@YAXAAUCVec3@@@Z 0044e487 f   gl_math.obj
 0001:0004d577       ?SaturateColor4b@OpenGLDrv@@YAXPATcolor_t@@@Z 0044e577 f   gl_math.obj
 0001:0004d685       ?SubdividePlane@OpenGLDrv@@YAHPAPAUCVec3@@HM@Z 0044e685 f   gl_poly.obj
 0001:0004db64       ?FreeSubdividedPlane@OpenGLDrv@@YAXXZ 0044eb64 f   gl_poly.obj
 0001:0004db7c       ?GetSubdivideIndexes@OpenGLDrv@@YAXPAH@Z 0044eb7c f   gl_poly.obj
 0001:0004dbd2       ?RemoveCollinearPoints@OpenGLDrv@@YAHPAPAUCVec3@@H@Z 0044ebd2 f   gl_poly.obj
 0001:0004dcc8       ?InitShaders@OpenGLDrv@@YAXXZ 0044ecc8 f   gl_shader.obj
 0001:0004de66       ?ShutdownShaders@OpenGLDrv@@YAXXZ 0044ee66 f   gl_shader.obj
 0001:0004dea4       ?GetLightmapImage@OpenGLDrv@@YAPAVimage_t@1@H@Z 0044eea4 f   gl_shader.obj
 0001:0004decf       ?SetShaderLightmap@OpenGLDrv@@YAPAVshader_t@1@PAV21@H@Z 0044eecf f   gl_shader.obj
 0001:0004e291       ??4shader_t@OpenGLDrv@@QAEAAV01@ABV01@@Z 0044f291 f i gl_shader.obj
 0001:0004e577       ?SetShaderLightstyles@OpenGLDrv@@YAPAVshader_t@1@PAV21@I_N@Z 0044f577 f   gl_shader.obj
 0001:0004e629       ?GetAlphaShader@OpenGLDrv@@YAPAVshader_t@1@PAV21@@Z 0044f629 f   gl_shader.obj
 0001:0004ec09       ?SetShaderAnimFreq@OpenGLDrv@@YAXPAVshader_t@1@H@Z 0044fc09 f   gl_shader.obj
 0001:0004ec5f       ?FindShader@OpenGLDrv@@YAPAVshader_t@1@PBDI@Z 0044fc5f f   gl_shader.obj
 0001:000509bd       ?GetShaderByNum@OpenGLDrv@@YAPAVshader_t@1@H@Z 004519bd f   gl_shader.obj
 0001:000509df       ?ResetShaders@OpenGLDrv@@YAXXZ 004519df f   gl_shader.obj
 0001:00050c03       ?Reload@shader_t@OpenGLDrv@@UAEXXZ 00451c03 f   gl_shader.obj
 0001:00050c32       ?Insert@?$TList@VCStringItem@@@@QAE_NPAVCStringItem@@@Z 00451c32 f i gl_shader.obj
 0001:00050c32       ?Insert@?$TList@VplayerModelInfo_t@@@@QAE_NPAVplayerModelInfo_t@@@Z 00451c32 f i gl_shader.obj
 0001:00050c32       ?Insert@?$TList@VshaderScript_t@OpenGLDrv@@@@QAE_NPAVshaderScript_t@OpenGLDrv@@@Z 00451c32 f i gl_shader.obj
 0001:00050c68       ?ClearSky@OpenGLDrv@@YAXXZ 00451c68 f   gl_sky.obj
 0001:00050cc5       ?AddToSky@surfaceBase_t@OpenGLDrv@@UAEX_N@Z 00451cc5 f   gl_sky.obj
 0001:00050cd9       ?AddToSky@surfacePlanar_t@OpenGLDrv@@UAEX_N@Z 00451cd9 f   gl_sky.obj
 0001:00051512       ?AddToSky@surfaceTrisurf_t@OpenGLDrv@@UAEX_N@Z 00452512 f   gl_sky.obj
 0001:00051557       ?DrawSky@OpenGLDrv@@YAXXZ  00452557 f   gl_sky.obj
 0001:00051d59       ?DrawChar@OpenGLDrv@@YAXHHHH@Z 00452d59 f   gl_text.obj
 0001:00051d88       ?DrawChar@OpenGLDrv@@YAXPAVCBasicFont@@HHHH@Z 00452d88 f   gl_text.obj
 0001:00051ddb       ?ClearTexts@OpenGLDrv@@YAXXZ 00452ddb f   gl_text.obj
 0001:00051df0       ?FlushTexts@OpenGLDrv@@YAXXZ 00452df0 f   gl_text.obj
 0001:00051ea5       ?DrawTextPos@OpenGLDrv@@YAXHHPBDI@Z 00452ea5 f   gl_text.obj
 0001:00051ed1       ?DrawTextLeft@OpenGLDrv@@YAXPBDI@Z 00452ed1 f   gl_text.obj
 0001:00051f1a       ?DrawTextRight@OpenGLDrv@@YAXPBDI@Z 00452f1a f   gl_text.obj
 0001:00051f6a       ?DrawText3D@OpenGLDrv@@YAXABUCVec3@@PBDI@Z 00452f6a f   gl_text.obj
 0001:00051f97       ?InitTexts@OpenGLDrv@@YAXXZ 00452f97 f   gl_text.obj
 0001:00051fb1       ??0?$TTextContainer@UCRText@OpenGLDrv@@$0BAAAA@@@QAE@XZ 00452fb1 f i gl_text.obj
 0001:00051fd6       ?FindModel@OpenGLDrv@@YAPAVmodel_t@1@PBD@Z 00452fd6 f   gl_model.obj
 0001:000521c6       ?FreeModels@OpenGLDrv@@YAXXZ 004531c6 f   gl_model.obj
 0001:00052238       ?InitModels@OpenGLDrv@@YAXXZ 00453238 f   gl_model.obj
 0001:0005232e       ?ShutdownModels@OpenGLDrv@@YAXXZ 0045332e f   gl_model.obj
 0001:00052356       ?Tesselate@surfaceNull_t@OpenGLDrv@@UAEXAAUrefEntity_t@2@@Z 00453356 f i gl_bspmodel.obj
 0001:00052356       ?Write@COutputDeviceNull@@UAEXPBD@Z 00453356 f i gl_bspmodel.obj
 0001:00052359       ?LoadWorldMap@OpenGLDrv@@YAXXZ 00453359 f   gl_bspmodel.obj
 0001:000527e5       ?GetName@CLightLinear@OpenGLDrv@@EBEPBDXZ 004537e5 f i gl_bspmodel.obj
 0001:000527eb       ?GetName@CLightInv@OpenGLDrv@@EBEPBDXZ 004537eb f i gl_bspmodel.obj
 0001:000527f1       ?GetName@CLightInv2@OpenGLDrv@@EBEPBDXZ 004537f1 f i gl_bspmodel.obj
 0001:000527f7       ?GetName@CLightNofade@OpenGLDrv@@EBEPBDXZ 004537f7 f i gl_bspmodel.obj
 0001:000527fd       ?Show@CSunLight@OpenGLDrv@@UBEXXZ 004537fd f i gl_bspmodel.obj
 0001:000527fd       ?Close@COutputDevice@@UAEXXZ 004537fd f i gl_bspmodel.obj
 0001:000527fd       ?Flush@COutputDevice@@UAEXXZ 004537fd f i gl_bspmodel.obj
 0001:00055315       ?LoadLeafSurfaces@OpenGLDrv@@YAXPBGH@Z 00456315 f i gl_bspmodel.obj
 0001:0005535c       ?LoadLeafSurfaces@OpenGLDrv@@YAXPBIH@Z 0045635c f i gl_bspmodel.obj
 0001:000553a3       ?LerpTag@model_t@OpenGLDrv@@UBE_NHHMPBDAAUCCoords@@@Z 004563a3 f   gl_trimodel.obj
 0001:000553b1       ?LerpTag@md3Model_t@OpenGLDrv@@UBE_NHHMPBDAAUCCoords@@@Z 004563b1 f   gl_trimodel.obj
 0001:000554eb       ?LoadMd2@OpenGLDrv@@YAPAVmd3Model_t@1@PBDPAEI@Z 004564eb f   gl_trimodel.obj
 0001:00056087       ?ATAN2_FUNC@OpenGLDrv@@YAMMM@Z 00457087 f i gl_trimodel.obj
 0001:00056220       ?LoadMd3@OpenGLDrv@@YAPAVmd3Model_t@1@PBDPAEI@Z 00457220 f   gl_trimodel.obj
 0001:00056703       ?LoadSp2@OpenGLDrv@@YAPAVsprModel_t@1@PBDPAEI@Z 00457703 f   gl_trimodel.obj
 0001:0005692d       ?LoadSpr@OpenGLDrv@@YAPAVsprModel_t@1@PBDPAEI@Z 0045792d f   gl_trimodel.obj
 0001:0005810f       ?QGL_Init@OpenGLDrv@@YA_NPBD@Z 0045910f f   GLBind.obj
 0001:000581fb       ?QGL_Shutdown@OpenGLDrv@@YAXXZ 004591fb f   GLBind.obj
 0001:00058238       ?QGL_InitExtensions@OpenGLDrv@@YAXXZ 00459238 f   GLBind.obj
 0001:0005872e       ?QGL_PrintExtensionsString@OpenGLDrv@@YAXPBD00@Z 0045972e f   GLBind.obj
 0001:0005887b       ?QGL_EnableLogging@OpenGLDrv@@YAX_N@Z 0045987b f   GLBind.obj
 0001:00058924       ?QGL_LogMessage@OpenGLDrv@@YAXPBD@Z 00459924 f   GLBind.obj
 0001:00058943       ?QGL_SwapBuffers@OpenGLDrv@@YAXXZ 00459943 f   GLBind.obj
 0001:000589c5       ?GLimp_HasGamma@OpenGLDrv@@YA_NXZ 004599c5 f   gl_win.obj
 0001:000589d9       ?GLimp_SetGamma@OpenGLDrv@@YAXM@Z 004599d9 f   gl_win.obj
 0001:00058b7f       ?GLimp_SetMode@OpenGLDrv@@YA_NPAI0H_N@Z 00459b7f f   gl_win.obj
 0001:00058f56       ?GLimp_Shutdown@OpenGLDrv@@YAX_N@Z 00459f56 f   gl_win.obj
 0001:00059006       ?AppActivate@OpenGLDrv@@YAX_N@Z 0045a006 f   gl_win.obj
 0001:00059079       _jpeg_CreateDecompress     0045a079 f   libs-vc-win32:jdapimin.obj
 0001:00059139       _jpeg_destroy_decompress   0045a139 f   libs-vc-win32:jdapimin.obj
 0001:00059139       _jpeg_destroy_compress     0045a139 f   libs-vc-win32:jdapimin.obj
 0001:00059144       _jpeg_read_header          0045a144 f   libs-vc-win32:jdapimin.obj
 0001:000591a6       _jpeg_consume_input        0045a1a6 f   libs-vc-win32:jdapimin.obj
 0001:000593f5       _jpeg_finish_decompress    0045a3f5 f   libs-vc-win32:jdapimin.obj
 0001:0005948c       _jpeg_start_decompress     0045a48c f   libs-vc-win32:jdapistd.obj
 0001:000595f9       _jpeg_read_scanlines       0045a5f9 f   libs-vc-win32:jdapistd.obj
 0001:0005967d       _jpeg_resync_to_restart    0045a67d f   libs-vc-win32:jdmarker.obj
 0001:00059842       _jinit_marker_reader       0045a842 f   libs-vc-win32:jdmarker.obj
 0001:0005ad0d       _jpeg_CreateCompress       0045bd0d f   libs-vc-win32:jcapimin.obj
 0001:0005adc1       _jpeg_suppress_tables      0045bdc1 f   libs-vc-win32:jcapimin.obj
 0001:0005ae0b       _jpeg_finish_compress      0045be0b f   libs-vc-win32:jcapimin.obj
 0001:0005aef5       _jpeg_start_compress       0045bef5 f   libs-vc-win32:jcapistd.obj
 0001:0005af61       _jpeg_write_scanlines      0045bf61 f   libs-vc-win32:jcapistd.obj
 0001:0005b00c       _jpeg_add_quant_table      0045c00c f   libs-vc-win32:jcparam.obj
 0001:0005b0be       _jpeg_quality_scaling      0045c0be f   libs-vc-win32:jcparam.obj
 0001:0005b0e5       _jpeg_set_quality          0045c0e5 f   libs-vc-win32:jcparam.obj
 0001:0005b11f       _jpeg_set_defaults         0045c11f f   libs-vc-win32:jcparam.obj
 0001:0005b2e5       _jpeg_default_colorspace   0045c2e5 f   libs-vc-win32:jcparam.obj
 0001:0005b335       _jpeg_set_colorspace       0045c335 f   libs-vc-win32:jcparam.obj
 0001:0005b650       _jpeg_stdio_dest           0045c650 f   libs-vc-win32:jdatadst.obj
 0001:0005b750       _inflateReset              0045c750 f   libs-vc-win32:inflate.obj
 0001:0005b79e       _inflateInit2_             0045c79e f   libs-vc-win32:inflate.obj
 0001:0005b857       _inflate                   0045c857 f   libs-vc-win32:inflate.obj
 0001:0005cb2c       _inflateEnd                0045db2c f   libs-vc-win32:inflate.obj
 0001:0005cc8a       _crc32                     0045dc8a f   libs-vc-win32:crc32.obj
 0001:0005cf24       _jinit_input_controller    0045df24 f   libs-vc-win32:jdinput.obj
 0001:0005d407       _jinit_memory_mgr          0045e407 f   libs-vc-win32:jmemmgr.obj
 0001:0005df43       _jpeg_abort                0045ef43 f   libs-vc-win32:jcomapi.obj
 0001:0005df76       _jpeg_destroy              0045ef76 f   libs-vc-win32:jcomapi.obj
 0001:0005df91       _jpeg_alloc_quant_table    0045ef91 f   libs-vc-win32:jcomapi.obj
 0001:0005dfad       _jpeg_alloc_huff_table     0045efad f   libs-vc-win32:jcomapi.obj
 0001:0005dfc9       _jpeg_calc_output_dimensions 0045efc9 f   libs-vc-win32:jdmaster.obj
 0001:0005e0c9       _jinit_master_decompress   0045f0c9 f   libs-vc-win32:jdmaster.obj
 0001:0005e41f       _jdiv_round_up             0045f41f f   libs-vc-win32:jutils.obj
 0001:0005e42f       _jround_up                 0045f42f f   libs-vc-win32:jutils.obj
 0001:0005e447       _jcopy_sample_rows         0045f447 f   libs-vc-win32:jutils.obj
 0001:0005e485       _jcopy_block_row           0045f485 f   libs-vc-win32:jutils.obj
 0001:0005e49e       _jzero_far                 0045f49e f   libs-vc-win32:jutils.obj
 0001:0005e4b1       _jinit_marker_writer       0045f4b1 f   libs-vc-win32:jcmarker.obj
 0001:0005ed8d       _jinit_compress_master     0045fd8d f   libs-vc-win32:jcinit.obj
 0001:0005ede6       _zcalloc                   0045fde6 f   libs-vc-win32:zlib.obj
 0001:0005ee08       _zcfree                    0045fe08 f   libs-vc-win32:zlib.obj
 0001:0005ee13       _inflate_fast              0045fe13 f   libs-vc-win32:inffast.obj
 0001:0005f1c8       _inflate_table             004601c8 f   libs-vc-win32:inftrees.obj
 0001:0005f57c       _adler32                   0046057c f   libs-vc-win32:adler32.obj
 0001:0005f695       _jinit_c_codec             00460695 f   libs-vc-win32:jcodec.obj
 0001:0005f6b1       _jinit_d_codec             004606b1 f   libs-vc-win32:jcodec.obj
 0001:0005f6cd       _jpeg_get_small            004606cd f   libs-vc-win32:jmemnobs.obj
 0001:0005f6cd       _jpeg_get_large            004606cd f   libs-vc-win32:jmemnobs.obj
 0001:0005f6d9       _jpeg_free_large           004606d9 f   libs-vc-win32:jmemnobs.obj
 0001:0005f6d9       _jpeg_free_small           004606d9 f   libs-vc-win32:jmemnobs.obj
 0001:0005f6e5       _jpeg_mem_available        004606e5 f   libs-vc-win32:jmemnobs.obj
 0001:0005f6ea       _jpeg_open_backing_store   004606ea f   libs-vc-win32:jmemnobs.obj
 0001:0005f6fe       __matherr                  004606fe f   libs-vc-win32:jmemnobs.obj
 0001:0005f6fe       _jpeg_mem_init             004606fe f   libs-vc-win32:jmemnobs.obj
 0001:0005f701       _jinit_d_main_controller   00460701 f   libs-vc-win32:jdmainct.obj
 0001:0005fd4c       _jinit_d_post_controller   00460d4c f   libs-vc-win32:jdpostct.obj
 0001:0005fff7       _jinit_upsampler           00460ff7 f   libs-vc-win32:jdsample.obj
 0001:00060635       _jinit_color_deconverter   00461635 f   libs-vc-win32:jdcolor.obj
 0001:00060b4b       _jinit_merged_upsampler    00461b4b f   libs-vc-win32:jdmerge.obj
 0001:0006109b       _jinit_2pass_quantizer     0046209b f   libs-vc-win32:jquant2.obj
 0001:0006215e       _jinit_1pass_quantizer     0046315e f   libs-vc-win32:jquant1.obj
 0001:00062b84       _jinit_c_main_controller   00463b84 f   libs-vc-win32:jcmainct.obj
 0001:00062cf1       _jinit_c_prep_controller   00463cf1 f   libs-vc-win32:jcprepct.obj
 0001:0006323c       _jinit_downsampler         0046423c f   libs-vc-win32:jcsample.obj
 0001:00063abc       _jinit_color_converter     00464abc f   libs-vc-win32:jccolor.obj
 0001:000640a6       _jinit_c_master_control    004650a6 f   libs-vc-win32:jcmaster.obj
 0001:00064b95       _jinit_lossy_c_codec       00465b95 f   libs-vc-win32:jclossy.obj
 0001:00064c30       _jinit_lossless_c_codec    00465c30 f   libs-vc-win32:jclossls.obj
 0001:00064cc8       _jinit_lossy_d_codec       00465cc8 f   libs-vc-win32:jdlossy.obj
 0001:00064f9b       _jinit_lossless_d_codec    00465f9b f   libs-vc-win32:jdlossls.obj
 0001:0006504b       _jinit_c_coef_controller   0046604b f   libs-vc-win32:jccoefct.obj
 0001:0006572c       _jinit_shuff_encoder       0046672c f   libs-vc-win32:jcshuff.obj
 0001:00065f97       _jinit_phuff_encoder       00466f97 f   libs-vc-win32:jcphuff.obj
 0001:00066a3c       _jinit_forward_dct         00467a3c f   libs-vc-win32:jcdctmgr.obj
 0001:00066d0b       _jinit_c_diff_controller   00467d0b f   libs-vc-win32:jcdiffct.obj
 0001:0006722f       _jinit_lhuff_encoder       0046822f f   libs-vc-win32:jclhuff.obj
 0001:00067959       _jinit_differencer         00468959 f   libs-vc-win32:jcpred.obj
 0001:00067e73       _jinit_c_scaler            00468e73 f   libs-vc-win32:jcscale.obj
 0001:00067ee9       _jinit_d_coef_controller   00468ee9 f   libs-vc-win32:jdcoefct.obj
 0001:00068bc5       _jinit_shuff_decoder       00469bc5 f   libs-vc-win32:jdshuff.obj
 0001:0006915a       _jinit_phuff_decoder       0046a15a f   libs-vc-win32:jdphuff.obj
 0001:00069cf7       _jinit_inverse_dct         0046acf7 f   libs-vc-win32:jddctmgr.obj
 0001:00069edb       _jinit_d_diff_controller   0046aedb f   libs-vc-win32:jddiffct.obj
 0001:0006a409       _jinit_d_scaler            0046b409 f   libs-vc-win32:jdscale.obj
 0001:0006a508       _jinit_undifferencer       0046b508 f   libs-vc-win32:jdpred.obj
 0001:0006a8c2       _jinit_lhuff_decoder       0046b8c2 f   libs-vc-win32:jdlhuff.obj
 0001:0006acb7       _jpeg_make_c_derived_tbl   0046bcb7 f   libs-vc-win32:jchuff.obj
 0001:0006aeb9       _jpeg_gen_optimal_table    0046beb9 f   libs-vc-win32:jchuff.obj
 0001:0006b078       _jpeg_fdct_float           0046c078 f   libs-vc-win32:jfdctflt.obj
 0001:0006b27d       _jpeg_make_d_derived_tbl   0046c27d f   libs-vc-win32:jdhuff.obj
 0001:0006b51a       _jpeg_fill_bit_buffer      0046c51a f   libs-vc-win32:jdhuff.obj
 0001:0006b629       _jpeg_huff_decode          0046c629 f   libs-vc-win32:jdhuff.obj
 0001:0006b709       _jpeg_idct_4x4             0046c709 f   libs-vc-win32:jidctred.obj
 0001:0006b9f7       _jpeg_idct_2x2             0046c9f7 f   libs-vc-win32:jidctred.obj
 0001:0006bbb9       _jpeg_idct_1x1             0046cbb9 f   libs-vc-win32:jidctred.obj
 0001:0006bbf5       _jpeg_idct_float           0046cbf5 f   libs-vc-win32:jidctflt.obj
 0001:0006bfd0       __except_handler3          0046cfd0 f   MSVCRT:MSVCRT.dll
 0001:0006bfd6       __controlfp                0046cfd6 f   MSVCRT:MSVCRT.dll
 0001:0006bfdc       _strcpy                    0046cfdc f   MSVCRT:MSVCRT.dll
 0001:0006bfe2       __onexit                   0046cfe2 f   MSVCRT:atonexit.obj
 0001:0006c00e       _atexit                    0046d00e f   MSVCRT:atonexit.obj
 0001:0006c020       __purecall                 0046d020 f   MSVCRT:MSVCRT.dll
 0001:0006c030       __alloca_probe             0046d030 f   MSVCRT:chkstk.obj
 0001:0006c030       __chkstk                   0046d030 f   MSVCRT:chkstk.obj
 0001:0006c060       _strlen                    0046d060 f   MSVCRT:MSVCRT.dll
 0001:0006c066       ??_Gtype_info@@UAEPAXI@Z   0046d066 f i MSVCRT:ti_inst.obj
 0001:0006c066       ??_Etype_info@@UAEPAXI@Z   0046d066 f i MSVCRT:ti_inst.obj
 0001:0006c082       __CxxThrowException@8      0046d082 f   MSVCRT:MSVCRT.dll
 0001:0006c088       _sqrt                      0046d088 f   MSVCRT:MSVCRT.dll
 0001:0006c08e       _cos                       0046d08e f   MSVCRT:MSVCRT.dll
 0001:0006c094       _sin                       0046d094 f   MSVCRT:MSVCRT.dll
 0001:0006c09a       _atan2                     0046d09a f   MSVCRT:MSVCRT.dll
 0001:0006c0a0       _strcmp                    0046d0a0 f   MSVCRT:MSVCRT.dll
 0001:0006c0a6       _tan                       0046d0a6 f   MSVCRT:MSVCRT.dll
 0001:0006c0ac       _fmod                      0046d0ac f   MSVCRT:MSVCRT.dll
 0001:0006c0b2       _acos                      0046d0b2 f   MSVCRT:MSVCRT.dll
 0001:0006c0b8       _atan                      0046d0b8 f   MSVCRT:MSVCRT.dll
 0001:0006c0be       _strcat                    0046d0be f   MSVCRT:MSVCRT.dll
 0001:0006c0c4       _memcpy                    0046d0c4 f   MSVCRT:MSVCRT.dll
 0001:0006c0ca       _memset                    0046d0ca f   MSVCRT:MSVCRT.dll
 0001:0006c0d0       _pow                       0046d0d0 f   MSVCRT:MSVCRT.dll
 0001:0006c0d6       _asin                      0046d0d6 f   MSVCRT:MSVCRT.dll
 0001:0006c0dc       _WinMainCRTStartup         0046d0dc f   MSVCRT:crtexew.obj
 0001:0006c23a       __ftol                     0046d23a f   MSVCRT:MSVCRT.dll
 0001:0006c240       ___dllonexit               0046d240 f   MSVCRT:MSVCRT.dll
 0001:0006c246       ??1type_info@@UAE@XZ       0046d246 f   MSVCRT:MSVCRT.dll
 0001:0006c24c       __XcptFilter               0046d24c f   MSVCRT:MSVCRT.dll
 0001:0006c252       __initterm                 0046d252 f   MSVCRT:MSVCRT.dll
 0001:0006c258       __setdefaultprecision      0046d258 f   MSVCRT:fp8.obj
 0001:0006c26a       __setargv                  0046d26a f   MSVCRT:dllargv.obj
 0001:0006c26a       _jpeg_mem_term             0046d26a f   MSVCRT:dllargv.obj
 0002:00000000       __imp__SwapBuffers@4       0046e000     gdi32:GDI32.dll
 0002:00000004       __imp__SetPixelFormat@12   0046e004     gdi32:GDI32.dll
 0002:00000008       __imp__DescribePixelFormat@16 0046e008     gdi32:GDI32.dll
 0002:0000000c       __imp__ChoosePixelFormat@8 0046e00c     gdi32:GDI32.dll
 0002:00000010       __imp__SetDeviceGammaRamp@8 0046e010     gdi32:GDI32.dll
 0002:00000014       __imp__GetDeviceGammaRamp@8 0046e014     gdi32:GDI32.dll
 0002:00000018       __imp__GetDeviceCaps@8     0046e018     gdi32:GDI32.dll
 0002:0000001c       \177GDI32_NULL_THUNK_DATA  0046e01c     gdi32:GDI32.dll
 0002:00000020       __imp__IsBadReadPtr@8      0046e020     kernel32:KERNEL32.dll
 0002:00000024       __imp__GetProcAddress@8    0046e024     kernel32:KERNEL32.dll
 0002:00000028       __imp__LoadLibraryA@4      0046e028     kernel32:KERNEL32.dll
 0002:0000002c       __imp__FreeLibrary@4       0046e02c     kernel32:KERNEL32.dll
 0002:00000030       __imp__WriteFile@20        0046e030     kernel32:KERNEL32.dll
 0002:00000034       __imp__SetConsoleTextAttribute@8 0046e034     kernel32:KERNEL32.dll
 0002:00000038       __imp__ReadConsoleInputA@16 0046e038     kernel32:KERNEL32.dll
 0002:0000003c       __imp__GetNumberOfConsoleInputEvents@8 0046e03c     kernel32:KERNEL32.dll
 0002:00000040       __imp__VirtualQuery@12     0046e040     kernel32:KERNEL32.dll
 0002:00000044       __imp__GetCommandLineA@0   0046e044     kernel32:KERNEL32.dll
 0002:00000048       __imp__GetDriveTypeA@4     0046e048     kernel32:KERNEL32.dll
 0002:0000004c       __imp__SetErrorMode@4      0046e04c     kernel32:KERNEL32.dll
 0002:00000050       __imp__GetStdHandle@4      0046e050     kernel32:KERNEL32.dll
 0002:00000054       __imp__AllocConsole@0      0046e054     kernel32:KERNEL32.dll
 0002:00000058       __imp__SetPriorityClass@8  0046e058     kernel32:KERNEL32.dll
 0002:0000005c       __imp__GetCurrentProcess@0 0046e05c     kernel32:KERNEL32.dll
 0002:00000060       __imp__GetStartupInfoA@4   0046e060     kernel32:KERNEL32.dll
 0002:00000064       __imp__SetCurrentDirectoryA@4 0046e064     kernel32:KERNEL32.dll
 0002:00000068       __imp__GetVersionExA@4     0046e068     kernel32:KERNEL32.dll
 0002:0000006c       __imp__GetLastError@0      0046e06c     kernel32:KERNEL32.dll
 0002:00000070       __imp__GetModuleHandleA@4  0046e070     kernel32:KERNEL32.dll
 0002:00000074       __imp__FormatMessageA@28   0046e074     kernel32:KERNEL32.dll
 0002:00000078       __imp__GetModuleFileNameA@12 0046e078     kernel32:KERNEL32.dll
 0002:0000007c       __imp__FreeConsole@0       0046e07c     kernel32:KERNEL32.dll
 0002:00000080       __imp__Sleep@4             0046e080     kernel32:KERNEL32.dll
 0002:00000084       \177KERNEL32_NULL_THUNK_DATA 0046e084     kernel32:KERNEL32.dll
 0002:00000088       __imp___acmdln             0046e088     MSVCRT:MSVCRT.dll
 0002:0000008c       __imp____getmainargs       0046e08c     MSVCRT:MSVCRT.dll
 0002:00000090       __imp___XcptFilter         0046e090     MSVCRT:MSVCRT.dll
 0002:00000094       __imp___exit               0046e094     MSVCRT:MSVCRT.dll
 0002:00000098       __imp_??1type_info@@UAE@XZ 0046e098     MSVCRT:MSVCRT.dll
 0002:0000009c       __imp___onexit             0046e09c     MSVCRT:MSVCRT.dll
 0002:000000a0       __imp____dllonexit         0046e0a0     MSVCRT:MSVCRT.dll
 0002:000000a4       __imp___ftol               0046e0a4     MSVCRT:MSVCRT.dll
 0002:000000a8       __imp__asin                0046e0a8     MSVCRT:MSVCRT.dll
 0002:000000ac       __imp__pow                 0046e0ac     MSVCRT:MSVCRT.dll
 0002:000000b0       __imp__remove              0046e0b0     MSVCRT:MSVCRT.dll
 0002:000000b4       __imp__memset              0046e0b4     MSVCRT:MSVCRT.dll
 0002:000000b8       __imp__memcpy              0046e0b8     MSVCRT:MSVCRT.dll
 0002:000000bc       __imp__srand               0046e0bc     MSVCRT:MSVCRT.dll
 0002:000000c0       __imp__strncmp             0046e0c0     MSVCRT:MSVCRT.dll
 0002:000000c4       __imp__strstr              0046e0c4     MSVCRT:MSVCRT.dll
 0002:000000c8       __imp__strcat              0046e0c8     MSVCRT:MSVCRT.dll
 0002:000000cc       __imp__atan                0046e0cc     MSVCRT:MSVCRT.dll
 0002:000000d0       __imp__strncpy             0046e0d0     MSVCRT:MSVCRT.dll
 0002:000000d4       __imp__acos                0046e0d4     MSVCRT:MSVCRT.dll
 0002:000000d8       __imp__sscanf              0046e0d8     MSVCRT:MSVCRT.dll
 0002:000000dc       __imp__atof                0046e0dc     MSVCRT:MSVCRT.dll
 0002:000000e0       __imp__fmod                0046e0e0     MSVCRT:MSVCRT.dll
 0002:000000e4       __imp__tan                 0046e0e4     MSVCRT:MSVCRT.dll
 0002:000000e8       __imp__rand                0046e0e8     MSVCRT:MSVCRT.dll
 0002:000000ec       __imp__atoi                0046e0ec     MSVCRT:MSVCRT.dll
 0002:000000f0       __imp__rename              0046e0f0     MSVCRT:MSVCRT.dll
 0002:000000f4       __imp__strcmp              0046e0f4     MSVCRT:MSVCRT.dll
 0002:000000f8       __imp___initterm           0046e0f8     MSVCRT:MSVCRT.dll
 0002:000000fc       __imp____setusermatherr    0046e0fc     MSVCRT:MSVCRT.dll
 0002:00000100       __imp___adjust_fdiv        0046e100     MSVCRT:MSVCRT.dll
 0002:00000104       __imp____p__commode        0046e104     MSVCRT:MSVCRT.dll
 0002:00000108       __imp____p__fmode          0046e108     MSVCRT:MSVCRT.dll
 0002:0000010c       __imp____set_app_type      0046e10c     MSVCRT:MSVCRT.dll
 0002:00000110       __imp__exit                0046e110     MSVCRT:MSVCRT.dll
 0002:00000114       __imp__strftime            0046e114     MSVCRT:MSVCRT.dll
 0002:00000118       __imp__localtime           0046e118     MSVCRT:MSVCRT.dll
 0002:0000011c       __imp__time                0046e11c     MSVCRT:MSVCRT.dll
 0002:00000120       __imp___except_handler3    0046e120     MSVCRT:MSVCRT.dll
 0002:00000124       __imp__strrchr             0046e124     MSVCRT:MSVCRT.dll
 0002:00000128       __imp__strchr              0046e128     MSVCRT:MSVCRT.dll
 0002:0000012c       __imp___controlfp          0046e12c     MSVCRT:MSVCRT.dll
 0002:00000130       __imp___clearfp            0046e130     MSVCRT:MSVCRT.dll
 0002:00000134       __imp___vsnprintf          0046e134     MSVCRT:MSVCRT.dll
 0002:00000138       __imp__strcpy              0046e138     MSVCRT:MSVCRT.dll
 0002:0000013c       __imp__malloc              0046e13c     MSVCRT:MSVCRT.dll
 0002:00000140       __imp__free                0046e140     MSVCRT:MSVCRT.dll
 0002:00000144       __imp__qsort               0046e144     MSVCRT:MSVCRT.dll
 0002:00000148       __imp___purecall           0046e148     MSVCRT:MSVCRT.dll
 0002:0000014c       __imp__memmove             0046e14c     MSVCRT:MSVCRT.dll
 0002:00000150       __imp__strlen              0046e150     MSVCRT:MSVCRT.dll
 0002:00000154       __imp__fclose              0046e154     MSVCRT:MSVCRT.dll
 0002:00000158       __imp__fwrite              0046e158     MSVCRT:MSVCRT.dll
 0002:0000015c       __imp__fflush              0046e15c     MSVCRT:MSVCRT.dll
 0002:00000160       __imp__fopen               0046e160     MSVCRT:MSVCRT.dll
 0002:00000164       __imp___CxxThrowException@8 0046e164     MSVCRT:MSVCRT.dll
 0002:00000168       __imp___stricmp            0046e168     MSVCRT:MSVCRT.dll
 0002:0000016c       __imp___strnicmp           0046e16c     MSVCRT:MSVCRT.dll
 0002:00000170       __imp__fread               0046e170     MSVCRT:MSVCRT.dll
 0002:00000174       __imp__fseek               0046e174     MSVCRT:MSVCRT.dll
 0002:00000178       __imp__ftell               0046e178     MSVCRT:MSVCRT.dll
 0002:0000017c       __imp___findclose          0046e17c     MSVCRT:MSVCRT.dll
 0002:00000180       __imp___findnext           0046e180     MSVCRT:MSVCRT.dll
 0002:00000184       __imp___findfirst          0046e184     MSVCRT:MSVCRT.dll
 0002:00000188       __imp___mkdir              0046e188     MSVCRT:MSVCRT.dll
 0002:0000018c       __imp__sqrt                0046e18c     MSVCRT:MSVCRT.dll
 0002:00000190       __imp__cos                 0046e190     MSVCRT:MSVCRT.dll
 0002:00000194       __imp__sin                 0046e194     MSVCRT:MSVCRT.dll
 0002:00000198       __imp__atan2               0046e198     MSVCRT:MSVCRT.dll
 0002:0000019c       __imp___stat               0046e19c     MSVCRT:MSVCRT.dll
 0002:0000019c       __imp__stat                0046e19c     MSVCRT:MSVCRT.dll
 0002:000001a0       \177MSVCRT_NULL_THUNK_DATA 0046e1a0     MSVCRT:MSVCRT.dll
 0002:000001a4       __imp__GetDesktopWindow@0  0046e1a4     user32:USER32.dll
 0002:000001a8       __imp__ReleaseDC@8         0046e1a8     user32:USER32.dll
 0002:000001ac       __imp__RegisterWindowMessageA@4 0046e1ac     user32:USER32.dll
 0002:000001b0       __imp__MoveWindow@24       0046e1b0     user32:USER32.dll
 0002:000001b4       __imp__UnregisterClassA@8  0046e1b4     user32:USER32.dll
 0002:000001b8       __imp__RegisterHotKey@16   0046e1b8     user32:USER32.dll
 0002:000001bc       __imp__UnregisterHotKey@8  0046e1bc     user32:USER32.dll
 0002:000001c0       __imp__GetDC@4             0046e1c0     user32:USER32.dll
 0002:000001c4       __imp__ChangeDisplaySettingsA@8 0046e1c4     user32:USER32.dll
 0002:000001c8       __imp__SetWindowPos@28     0046e1c8     user32:USER32.dll
 0002:000001cc       __imp__GetWindowLongA@8    0046e1cc     user32:USER32.dll
 0002:000001d0       __imp__DefWindowProcA@16   0046e1d0     user32:USER32.dll
 0002:000001d4       __imp__AdjustWindowRect@12 0046e1d4     user32:USER32.dll
 0002:000001d8       __imp__LoadIconA@8         0046e1d8     user32:USER32.dll
 0002:000001dc       __imp__LoadCursorA@8       0046e1dc     user32:USER32.dll
 0002:000001e0       __imp__RegisterClassA@4    0046e1e0     user32:USER32.dll
 0002:000001e4       __imp__CreateWindowExA@48  0046e1e4     user32:USER32.dll
 0002:000001e8       __imp__ShowWindow@8        0046e1e8     user32:USER32.dll
 0002:000001ec       __imp__UpdateWindow@4      0046e1ec     user32:USER32.dll
 0002:000001f0       __imp__SetForegroundWindow@4 0046e1f0     user32:USER32.dll
 0002:000001f4       __imp__SetFocus@4          0046e1f4     user32:USER32.dll
 0002:000001f8       __imp__DestroyWindow@4     0046e1f8     user32:USER32.dll
 0002:000001fc       __imp__PeekMessageA@20     0046e1fc     user32:USER32.dll
 0002:00000200       __imp__TranslateMessage@4  0046e200     user32:USER32.dll
 0002:00000204       __imp__DispatchMessageA@4  0046e204     user32:USER32.dll
 0002:00000208       __imp__GetCursorPos@4      0046e208     user32:USER32.dll
 0002:0000020c       __imp__GetSystemMetrics@4  0046e20c     user32:USER32.dll
 0002:00000210       __imp__GetWindowRect@8     0046e210     user32:USER32.dll
 0002:00000214       __imp__SetCursorPos@8      0046e214     user32:USER32.dll
 0002:00000218       __imp__SetCapture@4        0046e218     user32:USER32.dll
 0002:0000021c       __imp__SetCursor@4         0046e21c     user32:USER32.dll
 0002:00000220       __imp__ClipCursor@4        0046e220     user32:USER32.dll
 0002:00000224       __imp__ReleaseCapture@0    0046e224     user32:USER32.dll
 0002:00000228       __imp__ShowCursor@4        0046e228     user32:USER32.dll
 0002:0000022c       __imp__SystemParametersInfoA@16 0046e22c     user32:USER32.dll
 0002:00000230       __imp__MessageBoxA@16      0046e230     user32:USER32.dll
 0002:00000234       \177USER32_NULL_THUNK_DATA 0046e234     user32:USER32.dll
 0002:00000238       __imp__timeEndPeriod@4     0046e238     winmm:WINMM.dll
 0002:0000023c       __imp__mciSendCommandA@16  0046e23c     winmm:WINMM.dll
 0002:00000240       __imp__joyGetDevCapsA@12   0046e240     winmm:WINMM.dll
 0002:00000244       __imp__joyGetPosEx@8       0046e244     winmm:WINMM.dll
 0002:00000248       __imp__joyGetNumDevs@0     0046e248     winmm:WINMM.dll
 0002:0000024c       __imp__timeGetTime@0       0046e24c     winmm:WINMM.dll
 0002:00000250       __imp__timeBeginPeriod@4   0046e250     winmm:WINMM.dll
 0002:00000254       \177WINMM_NULL_THUNK_DATA  0046e254     winmm:WINMM.dll
 0002:00000258       __imp__inet_addr@4         0046e258     wsock32:WSOCK32.dll
 0002:0000025c       __imp__htons@4             0046e25c     wsock32:WSOCK32.dll
 0002:00000260       __imp__WSAGetLastError@0   0046e260     wsock32:WSOCK32.dll
 0002:00000264       __imp__gethostbyname@4     0046e264     wsock32:WSOCK32.dll
 0002:00000268       __imp__sendto@24           0046e268     wsock32:WSOCK32.dll
 0002:0000026c       __imp__closesocket@4       0046e26c     wsock32:WSOCK32.dll
 0002:00000270       __imp__bind@12             0046e270     wsock32:WSOCK32.dll
 0002:00000274       __imp__setsockopt@20       0046e274     wsock32:WSOCK32.dll
 0002:00000278       __imp__ioctlsocket@12      0046e278     wsock32:WSOCK32.dll
 0002:0000027c       __imp__socket@12           0046e27c     wsock32:WSOCK32.dll
 0002:00000280       __imp__WSAStartup@8        0046e280     wsock32:WSOCK32.dll
 0002:00000284       __imp__ntohs@4             0046e284     wsock32:WSOCK32.dll
 0002:00000288       __imp__recvfrom@24         0046e288     wsock32:WSOCK32.dll
 0002:0000028c       \177WSOCK32_NULL_THUNK_DATA 0046e28c     wsock32:WSOCK32.dll
 0002:00000308       __real@8@4008fa00000000000000 0046e308     CoreCpuid.obj
 0002:00000310       __real@8@3ff583126e978d4fe000 0046e310     CoreCpuid.obj
 0002:00000414       ??_7COutputDeviceNull@@6B@ 0046e414     OutputDevice.obj
 0002:00000424       ??_7COutputDevice@@6B@     0046e424     OutputDevice.obj
 0002:00000434       ??_7COutputDeviceLog@@6B@  0046e434     OutputDevice.obj
 0002:00000460       ??_7COutputDeviceMemTail@@6B@ 0046e460     ErrorMgr.obj
 0002:00000470       ??_7COutputDeviceFile@@6B@ 0046e470     ErrorMgr.obj
 0002:00000730       ??_7CFileOS@@6B@           0046e730     FileSystem.obj
 0002:00000740       ??_7CFile@@6B@             0046e740     FileSystem.obj
 0002:00000750       ??_7CFileContainerOS@@6B@  0046e750     FileSystem.obj
 0002:00000764       ??_7CFileContainer@@6B@    0046e764     FileSystem.obj
 0002:00000790       __real@4@3ff583126e978d4fe000 0046e790     FileSystem.obj
 0002:000007c8       ?nullVec3@@3UCVec3@@B      0046e7c8     Math3D.obj
 0002:000007d8       ?nullBox@@3UCBox@@B        0046e7d8     Math3D.obj
 0002:000007f0       ?identAxis@@3UCAxis@@B     0046e7f0     Math3D.obj
 0002:00000814       __real@4@00000000000000000000 0046e814     Math3D.obj
 0002:00000818       __real@4@bfff8000000000000000 0046e818     Math3D.obj
 0002:0000081c       __real@4@3fff8000000000000000 0046e81c     Math3D.obj
 0002:00000820       __real@4@c0178000000000000000 0046e820     Math3D.obj
 0002:00000824       __real@4@40178000000000000000 0046e824     Math3D.obj
 0002:00000828       __real@4@3ffe8000000000000000 0046e828     Math3D.obj
 0002:00000830       __real@8@3ff98efa351294e9c800 0046e830     Math3D.obj
 0002:00000838       __real@8@c004e52ee0d31e0fc000 0046e838     Math3D.obj
 0002:00000840       __real@4@4007b400000000000000 0046e840     Math3D.obj
 0002:00000848       __real@8@4004e52ee0d31e0fc000 0046e848     Math3D.obj
 0002:00000850       __real@4@3fffc000000000000000 0046e850     MathMisc.obj
 0002:00000854       __real@4@4006ff00000000000000 0046e854     MathMisc.obj
 0002:00000890       __real@8@40058edb6db6db6db800 0046e890     cl_cin.obj
 0002:00000898       ?h@?1??appFloor@@YAHM@Z@4MB 0046e898     cl_cin.obj
 0002:000008a0       __real@8@3ff8e5604189374bc800 0046e8a0     cl_cin.obj
 0002:00000984       __real@4@3ffc8000000000000000 0046e984     cl_ents.obj
 0002:00000988       __real@8@40078000000000000000 0046e988     cl_ents.obj
 0002:00000990       __real@4@4004a000000000000000 0046e990     cl_ents.obj
 0002:00000994       __real@4@3ff8a3d70a3d70a3d800 0046e994     cl_ents.obj
 0002:000009a4       __real@4@40068200000000000000 0046e9a4     cl_ents.obj
 0002:000009a8       __real@4@4006c800000000000000 0046e9a8     cl_ents.obj
 0002:000009ac       __real@4@40069b00000000000000 0046e9ac     cl_ents.obj
 0002:000009b0       __real@8@4004c800000000000000 0046e9b0     cl_ents.obj
 0002:000009b8       __real@8@4007fa00000000000000 0046e9b8     cl_ents.obj
 0002:000009c0       __real@8@3fff8000000000000000 0046e9c0     cl_ents.obj
 0002:000009c8       __real@4@3ff683126e978d4fe000 0046e9c8     cl_ents.obj
 0002:000009cc       __real@4@3ffecccccd0000000000 0046e9cc     cl_ents.obj
 0002:000009d0       __real@4@40048000000000000000 0046e9d0     cl_ents.obj
 0002:000009d4       __real@4@3ffdaaaaaaaaaaaaa800 0046e9d4     cl_ents.obj
 0002:000009d8       __real@4@4001a000000000000000 0046e9d8     cl_ents.obj
 0002:000009dc       __real@4@3fef8001000000000000 0046e9dc     cl_ents.obj
 0002:000009e0       __real@4@3ffbcccccd0000000000 0046e9e0     cl_ents.obj
 0002:000009e4       __real@4@3ffbccccccccccccd000 0046e9e4     cl_ents.obj
 0002:000009e8       __real@4@4005c800000000000000 0046e9e8     cl_ents.obj
 0002:000009ec       __real@4@40058000000000000000 0046e9ec     cl_ents.obj
 0002:000009f0       __real@8@4005c800000000000000 0046e9f0     cl_ents.obj
 0002:000009f8       __real@4@4005b400000000000000 0046e9f8     cl_ents.obj
 0002:000009fc       __real@4@3ff8a3d70a0000000000 0046e9fc     cl_ents.obj
 0002:000012a8       __real@4@3ffccccccd0000000000 0046f2a8     cl_fx.obj
 0002:000012ac       __real@4@3ffacccccd0000000000 0046f2ac     cl_fx.obj
 0002:000012b0       __real@4@3fefa3d851ae14000000 0046f2b0     cl_fx.obj
 0002:000012b4       __real@4@40008000000000000000 0046f2b4     cl_fx.obj
 0002:000012b8       __real@4@4003f000000000000000 0046f2b8     cl_fx.obj
 0002:000012bc       __real@4@3ff796012c0000000000 0046f2bc     cl_fx.obj
 0002:000012cc       __real@4@3ffaccccccccccccd000 0046f2cc     cl_fx.obj
 0002:000012d0       __real@4@40089600000000000000 0046f2d0     cl_fx.obj
 0002:000012d4       __real@4@3ffd99999a0000000000 0046f2d4     cl_fx.obj
 0002:000012d8       __real@4@3ff69999999999999800 0046f2d8     cl_fx.obj
 0002:000012dc       __real@4@40019000000000000000 0046f2dc     cl_fx.obj
 0002:000012e0       __real@4@40098000000000000000 0046f2e0     cl_fx.obj
 0002:000012e4       __real@4@40068000000000000000 0046f2e4     cl_fx.obj
 0002:000012e8       __real@4@bffbcccccd0000000000 0046f2e8     cl_fx.obj
 0002:000012f0       __real@8@4000c90fdaa22168c000 0046f2f0     cl_fx.obj
 0002:000012f8       __real@4@3ff6b60b60b60b60b800 0046f2f8     cl_fx.obj
 0002:000012fc       __real@4@3ffb872b020000000000 0046f2fc     cl_fx.obj
 0002:00001300       __real@4@3ffa872b020000000000 0046f300     cl_fx.obj
 0002:00001304       __real@4@3ff78080808080808000 0046f304     cl_fx.obj
 0002:00001308       __real@8@3ffcccccccccccccd000 0046f308     cl_fx.obj
 0002:00001310       __real@4@40038000000000000000 0046f310     cl_fx.obj
 0002:00001314       __real@4@40039000000000000000 0046f314     cl_fx.obj
 0002:00001318       __real@4@3ffe8080808080808000 0046f318     cl_fx.obj
 0002:0000131c       __real@4@3ff08001000000000000 0046f31c     cl_fx.obj
 0002:00001320       ?h@?1??appCeil@@YAHM@Z@4MB 0046f320     cl_fx.obj
 0002:00001328       __real@8@bffd9999999999999800 0046f328     cl_fx.obj
 0002:00001330       __real@8@3ffe8000000000000000 0046f330     cl_fx.obj
 0002:00001338       __real@8@3ffd9999999999999800 0046f338     cl_fx.obj
 0002:00001340       __real@4@c006c800000000000000 0046f340     cl_fx.obj
 0002:00001344       __real@4@40028000000000000000 0046f344     cl_fx.obj
 0002:00001348       __real@8@3ff7c9422b2ceca3e800 0046f348     cl_fx.obj
 0002:00001350       __real@4@4006d000000000000000 0046f350     cl_fx.obj
 0002:00001354       __real@4@4001e000000000000000 0046f354     cl_fx.obj
 0002:00001358       __real@4@3ff8b60b60b60b60b800 0046f358     cl_fx.obj
 0002:00001360       __real@8@40058000000000000000 0046f360     cl_fx.obj
 0002:00001368       __real@4@3ff7a3d70a3d70a3d800 0046f368     cl_fx.obj
 0002:0000136c       __real@4@3ffc9d89d89d89d8a000 0046f36c     cl_fx.obj
 0002:00001370       __real@4@3ff9a3d70a3d70a3d800 0046f370     cl_fx.obj
 0002:00001374       __real@4@4001c000000000000000 0046f374     cl_fx.obj
 0002:00001378       __real@4@4000c000000000000000 0046f378     cl_fx.obj
 0002:0000137c       __real@4@3fedccce66999a000000 0046f37c     cl_fx.obj
 0002:00001380       __real@4@3ffe99999a0000000000 0046f380     cl_fx.obj
 0002:00001388       __real@8@bfff8000000000000000 0046f388     cl_fx.obj
 0002:00001390       __real@4@4003b800000000000000 0046f390     cl_fx.obj
 0002:00001398       __real@8@3ff9a3d70a3d70a3d800 0046f398     cl_fx.obj
 0002:000013a0       __real@4@4002e000000000000000 0046f3a0     cl_fx.obj
 0002:000013a8       __real@8@4001c90fdaa22168c000 0046f3a8     cl_fx.obj
 0002:000013b0       __real@8@3ffda0d97bb4e7870000 0046f3b0     cl_fx.obj
 0002:000013b8       __real@4@4005c000000000000000 0046f3b8     cl_fx.obj
 0002:000013c0       __real@8@40048000000000000000 0046f3c0     cl_fx.obj
 0002:000013c8       __real@4@400b8000000000000000 0046f3c8     cl_fx.obj
 0002:000013cc       __real@4@4001d555555555555000 0046f3cc     cl_fx.obj
 0002:000013d0       __real@4@4003a000000000000000 0046f3d0     cl_fx.obj
 0002:000013d8       __real@8@40028000000000000000 0046f3d8     cl_fx.obj
 0002:000013e0       __real@4@4002a000000000000000 0046f3e0     cl_fx.obj
 0002:000013e8       __real@8@bffeccccccccccccd000 0046f3e8     cl_fx.obj
 0002:000013f0       __real@4@4004b400000000000000 0046f3f0     cl_fx.obj
 0002:0000144c       __real@4@3ff7b400000000000000 0046f44c     cl_input.obj
 0002:00001450       __real@4@3ffee666660000000000 0046f450     cl_input.obj
 0002:00001454       __real@4@3ff98000000000000000 0046f454     cl_input.obj
 0002:00001458       __real@4@4006b60aaaaaaaaab000 0046f458     cl_input.obj
 0002:0000145c       __real@4@4008fa00000000000000 0046f45c     cl_input.obj
 0002:00001460       __real@4@c005b200000000000000 0046f460     cl_input.obj
 0002:00001464       __real@4@4005b200000000000000 0046f464     cl_input.obj
 0002:00001468       __real@4@c007b400000000000000 0046f468     cl_input.obj
 0002:0000146c       __real@4@4006b400000000000000 0046f46c     cl_input.obj
 0002:000016dc       __real@4@400b9c40000000000000 0046f6dc     cl_main.obj
 0002:000016e0       __real@8@3ffbcccccd0000000000 0046f6e0     cl_main.obj
 0002:000016f4       __real@4@400abb80000000000000 0046f6f4     cl_main.obj
 0002:00001740       __real@8@3ff98000000000000000 0046f740     cl_parse.obj
 0002:00001748       __real@8@3ff78080808080808000 0046f748     cl_parse.obj
 0002:000018b4       __real@4@400099999a0000000000 0046f8b4     cl_playermodel.obj
 0002:000018b8       __real@4@4002f000000000000000 0046f8b8     cl_playermodel.obj
 0002:000018bc       __real@4@4004f000000000000000 0046f8bc     cl_playermodel.obj
 0002:000018c0       __real@4@c0048c00000000000000 0046f8c0     cl_playermodel.obj
 0002:000018c4       __real@4@40048c00000000000000 0046f8c4     cl_playermodel.obj
 0002:000018c8       __real@4@4003c800000000000000 0046f8c8     cl_playermodel.obj
 0002:000018cc       __real@4@4005a000000000000000 0046f8cc     cl_playermodel.obj
 0002:000018d0       __real@4@3ffc99999a0000000000 0046f8d0     cl_playermodel.obj
 0002:000018d4       __real@4@3ffd8000000000000000 0046f8d4     cl_playermodel.obj
 0002:0000198c       __real@4@4007fa00000000000000 0046f98c     cl_pred.obj
 0002:00001ad8       __real@8@3ffbccccccccccccd000 0046fad8     cl_scrn.obj
 0002:00001aec       __real@4@40079600000000000000 0046faec     cl_scrn.obj
 0002:00001afc       __real@4@3ffdb333330000000000 0046fafc     cl_scrn.obj
 0002:00001b7c       __real@4@40018000000000000000 0046fb7c     cl_tent.obj
 0002:00001b80       __real@4@bffe8000000000000000 0046fb80     cl_tent.obj
 0002:00001b98       __real@8@4004b400000000000000 0046fb98     cl_tent.obj
 0002:00001ba0       __real@4@3ff3f9a9342cdc676000 0046fba0     cl_tent.obj
 0002:00001ba8       __real@8@4006c800000000000000 0046fba8     cl_tent.obj
 0002:00001bb0       __real@4@3ffb8000000000000000 0046fbb0     cl_tent.obj
 0002:00001bb8       __real@8@4003a000000000000000 0046fbb8     cl_tent.obj
 0002:00001d68       __real@8@4005e52ee0d31e0fc000 0046fd68     cl_view.obj
 0002:00001d70       __real@4@4006b300000000000000 0046fd70     cl_view.obj
 0002:00001d78       __real@8@4000a0d97bdd1de5f000 0046fd78     cl_view.obj
 0002:00001d8c       __real@4@4006c000000000000000 0046fd8c     cl_view.obj
 0002:00001d90       __real@8@3fffc000000000000000 0046fd90     cl_view.obj
 0002:00001d98       __real@8@00000000000000000000 0046fd98     cl_view.obj
 0002:00001da0       __real@8@4009fa00000000000000 0046fda0     cl_view.obj
 0002:00001da8       __real@8@40029000000000000000 0046fda8     cl_view.obj
 0002:00001db0       __real@8@40019000000000000000 0046fdb0     cl_view.obj
 0002:00001db8       __real@8@4002c000000000000000 0046fdb8     cl_view.obj
 0002:000021e4       ??_7completeMenu_t@@6B@    004701e4     keys.obj
 0002:0000222c       ??_7menuMain_t@@6B@        0047022c     menu.obj
 0002:00002238       ??_7multiplayerMenu_t@@6B@ 00470238     menu.obj
 0002:00002244       ??_7keysMenu_t@@6B@        00470244     menu.obj
 0002:00002250       ??_7optionsMenu_t@@6B@     00470250     menu.obj
 0002:0000225c       ??_7creditsMenu_t@@6B@     0047025c     menu.obj
 0002:00002268       ??_7gameMenu_t@@6B@        00470268     menu.obj
 0002:00002274       ??_7savegameMenu_t@@6B@    00470274     menu.obj
 0002:00002280       ??_7joinserverMenu_t@@6B@  00470280     menu.obj
 0002:0000228c       ??_7startserverMenu_t@@6B@ 0047028c     menu.obj
 0002:00002298       ??_7dmoptionsMenu_t@@6B@   00470298     menu.obj
 0002:000022a4       ??_7downloadOptionsMenu_t@@6B@ 004702a4     menu.obj
 0002:000022b0       ??_7addressBookMenu_t@@6B@ 004702b0     menu.obj
 0002:000022bc       ??_7playerConfigMenu_t@@6B@ 004702bc     menu.obj
 0002:000022c8       ??_7dmbrowseMenu_t@@6B@    004702c8     menu.obj
 0002:000022d4       ??_7videoMenu_t@@6B@       004702d4     menu.obj
 0002:000022e0       ?vars@?1??Init@videoMenu_t@@UAE_NXZ@4QBUcvarInfo_t@@B 004702e0     menu.obj
 0002:00002334       ??_7quitMenu_t@@6B@        00470334     menu.obj
 0002:0000235c       __real@4@40059000000000000000 0047035c     qmenu.obj
 0002:0000247c       __real@4@3ff483126f0000000000 0047047c     snd_dma.obj
 0002:00002480       __real@4@3ff583126f0000000000 00470480     snd_dma.obj
 0002:000024cc       __real@4@40078000000000000000 004704cc     snd_mem.obj
 0002:00002500       __real@8@40159c40000000000000 00470500     snd_mix.obj
 0002:000025a4       __real@4@40069600000000000000 004705a4     sv_anim.obj
 0002:000025a8       __real@4@c002a000000000000000 004705a8     sv_anim.obj
 0002:000025ac       __real@4@c003a000000000000000 004705ac     sv_anim.obj
 0002:000025b0       __real@4@4004e400000000000000 004705b0     sv_anim.obj
 0002:000025b4       __real@4@c003f000000000000000 004705b4     sv_anim.obj
 0002:00002698       __real@4@4007c800000000000000 00470698     sv_ents.obj
 0002:00002cf8       __real@8@400185c28f5c28f5c000 00470cf8     sv_main.obj
 0002:00002d28       ??_7COutputDeviceMem@@6B@  00470d28     sv_main.obj
 0002:00002d74       __real@4@4007a200000000000000 00470d74     sv_main.obj
 0002:00002e10       __real@8@3ffd828f5c28f5c29000 00470e10     sv_send.obj
 0002:00002fb4       __real@4@bffc8000000000000000 00470fb4     sv_world.obj
 0002:000034d4       __real@4@400f8000000000000000 004714d4     cmodel.obj
 0002:00003558       __real@8@3feb8637bd05af6c6800 00471558     cmodel.obj
 0002:00003560       __real@4@bffefd70a40000000000 00471560     cmodel.obj
 0002:00003564       __real@4@3ffefd70a40000000000 00471564     cmodel.obj
 0002:00003568       __real@8@3ffa8000000000000000 00471568     cmodel.obj
 0002:00003570       __real@4@3ffa8000000000000000 00471570     cmodel.obj
 0002:00003670       __real@4@3ff18001000000000000 00471670     common.obj
 0002:00003674       __real@4@c006b400000000000000 00471674     common.obj
 0002:00003678       __real@4@4006b60b610000000000 00471678     common.obj
 0002:00003cac       __real@4@3ff1d1b7170000000000 00471cac     cvar.obj
 0002:00003e84       __real@4@3ff283126e978d4fe000 00471e84     EntityParser.obj
 0002:00003e88       __real@4@c0008000000000000000 00471e88     EntityParser.obj
 0002:00003e8c       __real@4@3fe68f2a633943a6d800 00471e8c     EntityParser.obj
 0002:00003e90       __real@8@400bccccccccccccd000 00471e90     EntityParser.obj
 0002:00003e98       __real@4@400bea60000000000000 00471e98     EntityParser.obj
 0002:00003e9c       __real@4@400d8000000000000000 00471e9c     EntityParser.obj
 0002:00003eac       __real@4@4008c800000000000000 00471eac     EntityParser.obj
 0002:00003eb0       __real@4@3ff6a3d70a3d70a3d800 00471eb0     EntityParser.obj
 0002:00003f10       __real@4@bff8a3d70a0000000000 00471f10     MapBrush.obj
 0002:00003f38       __real@8@3ff8a3d70a0000000000 00471f38     MapBrush.obj
 0002:00003f50       __real@8@3ffffeb851eb851eb800 00471f50     MapBrush.obj
 0002:00003fdc       __real@4@3ffeb60b60b60b60b800 00471fdc     msg.obj
 0002:00003fe0       __real@4@3fffb400000000000000 00471fe0     msg.obj
 0002:00004018       __real@8@3ffeb333333333333000 00472018     pmove.obj
 0002:00004020       __real@4@3fff8147ae0000000000 00472020     pmove.obj
 0002:00004028       __real@8@bffbccccccccccccd000 00472028     pmove.obj
 0002:00004030       __real@4@40058c00000000000000 00472030     pmove.obj
 0002:00004034       __real@4@c0058c00000000000000 00472034     pmove.obj
 0002:00004038       __real@4@c0018000000000000000 00472038     pmove.obj
 0002:0000403c       __real@4@c002f000000000000000 0047203c     pmove.obj
 0002:00004040       __real@4@c007c800000000000000 00472040     pmove.obj
 0002:00004044       __real@4@40078700000000000000 00472044     pmove.obj
 0002:00004048       __real@4@c0079600000000000000 00472048     pmove.obj
 0002:0000404c       __real@4@4004c800000000000000 0047204c     pmove.obj
 0002:00004050       __real@4@4003b000000000000000 00472050     pmove.obj
 0002:00004054       __real@4@c0038000000000000000 00472054     pmove.obj
 0002:00004058       __real@8@bffcccccccccccccd000 00472058     pmove.obj
 0002:00004060       __real@4@40078780000000000000 00472060     pmove.obj
 0002:000040a8       ??_7CQuakeFileSystem@@6B@  004720a8     QuakeFileSystem.obj
 0002:000040b8       ?boolStr@?3??FileExists@CQuakeFileSystem@@UAE_NPBDI@Z@4QBDB 004720b8     QuakeFileSystem.obj
 0002:000040bc       ??_7CFileSystem@@6B@       004720bc     QuakeFileSystem.obj
 0002:000040dc       ??_7CFileContainerPak@@6B@ 004720dc     QuakeFileSystem.obj
 0002:000040f4       ??_7CFileContainerArc@@6B@ 004720f4     QuakeFileSystem.obj
 0002:0000410c       ??_7CFilePak@CFileContainerPak@@6B@ 0047210c     QuakeFileSystem.obj
 0002:0000411c       ??_7CFileContainerZip@@6B@ 0047211c     QuakeFileSystem.obj
 0002:00004134       ??_7CFilePak@CFileContainerZip@@6B@ 00472134     QuakeFileSystem.obj
 0002:00004144       ??_7CZResource@@6B@        00472144     QuakeFileSystem.obj
 0002:0000415c       ??_7CFileRes@CZResource@@6B@ 0047215c     QuakeFileSystem.obj
 0002:0000416c       ?__FUNC__@?2??SetGameDir@CQuakeFileSystem@@QAE_NPBD@Z@4QBDB 0047216c     QuakeFileSystem.obj
 0002:000041c8       _IID_IDirectInput8A        004721c8     in_win.obj
 0002:000041d8       _GUID_SysMouse             004721d8     in_win.obj
 0002:000041e8       _GUID_XAxis                004721e8     in_win.obj
 0002:000041f8       _GUID_YAxis                004721f8     in_win.obj
 0002:00004208       _GUID_ZAxis                00472208     in_win.obj
 0002:00004308       __real@8@3ff9b4395810624dd000 00472308     in_win.obj
 0002:00004310       __real@4@3ff08000000000000000 00472310     in_win.obj
 0002:00004570       ??_7COutputDeviceWin32Console@@6B@ 00472570     sys_win.obj
 0002:00004580       ?colorTable@?6??Write@COutputDeviceWin32Console@@UAEXPBD@Z@4QBEB 00472580     sys_win.obj
 0002:000045b0       __real@8@400c9c40000000000000 004725b0     sys_win.obj
 0002:000045b8       ??_7COutputDeviceCon@@6B@  004725b8     sys_win.obj
 0002:00004800       _zresource                 00472800     makeres.obj
 0002:00006ff0       __real@8@40098000000000000000 00474ff0     gl_backend.obj
 0002:00007018       __real@8@3ffca2f9836e4e441800 00475018     gl_backend.obj
 0002:00007030       __real@8@3ff6b60b60b60b60b800 00475030     gl_backend.obj
 0002:00007038       __real@4@3ff58000000000000000 00475038     gl_backend.obj
 0002:0000703c       __real@4@3fe78000000000000000 0047503c     gl_backend.obj
 0002:00007040       __real@4@3ff78000000000000000 00475040     gl_backend.obj
 0002:00007044       __real@4@3ffef000000000000000 00475044     gl_backend.obj
 0002:00007070       __real@8@4007aaaaaaaaaaaaa800 00475070     gl_backend.obj
 0002:00007078       __real@4@3fff8800000000000000 00475078     gl_backend.obj
 0002:0000708c       __real@4@3ffdcccccd0000000000 0047508c     gl_backend.obj
 0002:000070e0       __real@4@c0028000000000000000 004750e0     gl_frontend.obj
 0002:000070e4       ??_7surfacePoly_t@OpenGLDrv@@6B@ 004750e4     gl_frontend.obj
 0002:0000710c       ??_7surfaceEntity_t@OpenGLDrv@@6B@ 0047510c     gl_frontend.obj
 0002:00007114       ??_7surfaceBase_t@OpenGLDrv@@6B@ 00475114     gl_frontend.obj
 0002:00007130       __real@8@4001a000000000000000 00475130     gl_frontend.obj
 0002:00007138       __real@4@3ff5aaaaaaaaaaaaa800 00475138     gl_frontend.obj
 0002:0000713c       __real@4@4008c000000000000000 0047513c     gl_frontend.obj
 0002:00007140       __real@4@3ff797b425ed097b4000 00475140     gl_frontend.obj
 0002:00007144       ??_7surfaceParticle_t@OpenGLDrv@@6B@ 00475144     gl_frontend.obj
 0002:0000715c       __real@4@4000ccccccc000000000 0047515c     gl_frontend.obj
 0002:00007160       __real@4@4008fff99a0000000000 00475160     gl_frontend.obj
 0002:00007164       __real@4@3ffcaaaaab0000000000 00475164     gl_frontend.obj
 0002:000072f4       __real@4@3ffec000000000000000 004752f4     gl_image.obj
 0002:000072f8       __real@4@3ffeaaaaaaaaaaaaa800 004752f8     gl_image.obj
 0002:00007320       __real@8@4006ff00000000000000 00475320     gl_image.obj
 0002:00007328       __real@4@3fff8888888888888800 00475328     gl_image.obj
 0002:0000732c       __real@4@3ffef800000000000000 0047532c     gl_image.obj
 0002:00007330       __real@4@3ff18000000000000000 00475330     gl_image.obj
 0002:00007338       __real@8@3ffc8000000000000000 00475338     gl_image.obj
 0002:0000734c       __real@4@3ff9a3d70a0000000000 0047534c     gl_image.obj
 0002:00007584       __real@4@3ff88000000000000000 00475584     gl_light.obj
 0002:00007588       __real@4@3ff7c000000000000000 00475588     gl_light.obj
 0002:0000758c       __real@4@400e8000000000000000 0047558c     gl_light.obj
 0002:00007590       __real@8@3ffeaaaaaaaaaaaaa800 00475590     gl_light.obj
 0002:00007598       __real@4@4007ff00000000000000 00475598     gl_light.obj
 0002:0000759c       __real@4@3ff68000000000000000 0047559c     gl_light.obj
 0002:000075f4       __real@4@3ffda8f5c30000000000 004755f4     gl_lightmap.obj
 0002:000075f8       __real@4@3ffeaf5c290000000000 004755f8     gl_lightmap.obj
 0002:000075fc       __real@4@3ffb8106250000000000 004755fc     gl_lightmap.obj
 0002:00007630       ?colorTable@OpenGLDrv@@3QBIB 00475630     gl_main.obj
 0002:000078c0       __real@8@3ff88efa351294e9c800 004758c0     gl_main.obj
 0002:000078c8       __real@8@3ffd8000000000000000 004758c8     gl_main.obj
 0002:000078d0       __real@8@3ff5b60b60b60b60b800 004758d0     gl_main.obj
 0002:000078d8       __real@4@3ff58020080200802000 004758d8     gl_math.obj
 0002:000078dc       __real@4@3ff7b60b60b60b60b800 004758dc     gl_math.obj
 0002:000078e0       __real@8@3ff583126f0000000000 004758e0     gl_poly.obj
 0002:00007af8       ??_7shader_t@OpenGLDrv@@6B@ 00475af8     gl_shader.obj
 0002:00007c88       __real@8@3fff8666666666666800 00475c88     gl_sky.obj
 0002:00007cb0       __real@8@3fffc90fdaa22168c000 00475cb0     gl_sky.obj
 0002:00007cc4       ??_7model_t@OpenGLDrv@@6B@ 00475cc4     gl_model.obj
 0002:00007cd8       ??_7CRenderModel@@6B@      00475cd8     gl_model.obj
 0002:00007d80       ??_7surfaceNull_t@OpenGLDrv@@6B@ 00475d80     gl_bspmodel.obj
 0002:00007d94       ??_7CLightLinear@OpenGLDrv@@6B@ 00475d94     gl_bspmodel.obj
 0002:00007da8       ??_7CLightInv@OpenGLDrv@@6B@ 00475da8     gl_bspmodel.obj
 0002:00007dbc       ??_7CLightInv2@OpenGLDrv@@6B@ 00475dbc     gl_bspmodel.obj
 0002:00007dd0       ??_7CLightNofade@OpenGLDrv@@6B@ 00475dd0     gl_bspmodel.obj
 0002:00007de4       ??_7CSunLight@OpenGLDrv@@6B@ 00475de4     gl_bspmodel.obj
 0002:00007dfc       ??_7inlineModel_t@OpenGLDrv@@6B@ 00475dfc     gl_bspmodel.obj
 0002:00007e10       ??_7surfacePlanar_t@OpenGLDrv@@6B@ 00475e10     gl_bspmodel.obj
 0002:00007e28       __real@8@4000c000000000000000 00475e28     gl_bspmodel.obj
 0002:00007e30       ??_7CSurfLight@OpenGLDrv@@6B@ 00475e30     gl_bspmodel.obj
 0002:00007e3c       __real@4@3fef8000000000000000 00475e3c     gl_bspmodel.obj
 0002:00007e7c       ??_7surfaceTrisurf_t@OpenGLDrv@@6B@ 00475e7c     gl_bspmodel.obj
 0002:00007ee8       ??_7surfaceMd3_t@OpenGLDrv@@6B@ 00475ee8     gl_trimodel.obj
 0002:00007ef0       ??_7md3Model_t@OpenGLDrv@@6B@ 00475ef0     gl_trimodel.obj
 0002:00007f48       __real@8@4004a25689eadff5d000 00475f48     gl_trimodel.obj
 0002:00007f5c       ?x1@?7??ATAN2_FUNC@OpenGLDrv@@YAMMM@Z@4QBMB 00475f5c     gl_trimodel.obj
 0002:00007f6c       __real@4@4008ffc0000000000000 00475f6c     gl_trimodel.obj
 0002:00007f70       ?x0@?1??ATAN2_FUNC@OpenGLDrv@@YAMMM@Z@4QBMB 00475f70     gl_trimodel.obj
 0002:00007f84       ??_7sprModel_t@OpenGLDrv@@6B@ 00475f84     gl_trimodel.obj
 0002:00008100       __real@8@400d8000000000000000 00476100     gl_win.obj
 0002:00008108       __real@8@400effff000000000000 00476108     gl_win.obj
 0002:00008110       __real@8@400e8000000000000000 00476110     gl_win.obj
 0002:00008510       _jpeg_natural_order        00476510     libs-vc-win32:jutils.obj
 0002:00008650       _inflate_copyright         00476650     libs-vc-win32:inftrees.obj
 0002:000088d0       __real@4@400d8001000000000000 004768d0     libs-vc-win32:jcdctmgr.obj
 0002:00008a98       __real@4@3fffa73d750000000000 00476a98     libs-vc-win32:jfdctflt.obj
 0002:00008a9c       __real@4@3ffe8a8bd40000000000 00476a9c     libs-vc-win32:jfdctflt.obj
 0002:00008aa0       __real@4@3ffdc3ef150000000000 00476aa0     libs-vc-win32:jfdctflt.obj
 0002:00008aa4       __real@4@3ffeb504f30000000000 00476aa4     libs-vc-win32:jfdctflt.obj
 0002:00008aa8       __real@4@3fff8a8bd40000000000 00476aa8     libs-vc-win32:jidctflt.obj
 0002:00008aac       __real@4@4000a73d750000000000 00476aac     libs-vc-win32:jidctflt.obj
 0002:00008ab0       __real@4@3fffec835e0000000000 00476ab0     libs-vc-win32:jidctflt.obj
 0002:00008ab4       __real@4@3fffb504f30000000000 00476ab4     libs-vc-win32:jidctflt.obj
 0002:00008abc       ??_7type_info@@6B@         00476abc     MSVCRT:ti_inst.obj
 0002:00008cbc       _c_dfDIMouse2              00476cbc     dinput8:dilib5.obj
 0002:00008cd8       ??_R1A@?0A@A@type_info@@8  00476cd8     MSVCRT:ti_inst.obj
 0002:00008cf0       ??_R2type_info@@8          00476cf0     MSVCRT:ti_inst.obj
 0002:00008cf8       ??_R3type_info@@8          00476cf8     MSVCRT:ti_inst.obj
 0002:00008d08       ??_R4type_info@@6B@        00476d08     MSVCRT:ti_inst.obj
 0002:00008d20       __CT??_R0H@84              00476d20     ErrorMgr.obj
 0002:00008d40       __CTA1H                    00476d40     ErrorMgr.obj
 0002:00008d48       __TI1H                     00476d48     ErrorMgr.obj
 0002:00008d58       __IMPORT_DESCRIPTOR_KERNEL32 00476d58     kernel32:KERNEL32.dll
 0002:00008d6c       __IMPORT_DESCRIPTOR_USER32 00476d6c     user32:USER32.dll
 0002:00008d80       __IMPORT_DESCRIPTOR_GDI32  00476d80     gdi32:GDI32.dll
 0002:00008d94       __IMPORT_DESCRIPTOR_MSVCRT 00476d94     MSVCRT:MSVCRT.dll
 0002:00008da8       __IMPORT_DESCRIPTOR_WINMM  00476da8     winmm:WINMM.dll
 0002:00008dbc       __IMPORT_DESCRIPTOR_WSOCK32 00476dbc     wsock32:WSOCK32.dll
 0002:00008dd0       __NULL_IMPORT_DESCRIPTOR   00476dd0     kernel32:KERNEL32.dll
 0003:00000000       ___xc_a                    00478000     MSVCRT:cinitexe.obj
 0003:00000090       ___xc_z                    00478090     MSVCRT:cinitexe.obj
 0003:00000094       ___xi_a                    00478094     MSVCRT:cinitexe.obj
 0003:00000098       ___xi_z                    00478098     MSVCRT:cinitexe.obj
 0003:000000a0       ?GScreenWidth@@3HA         004780a0     CoreMain.obj
 0003:000000a4       ??_C@_0BC@PMHD@?$CFb?5?$CFd?5?$CFY?5?$CFH?3?$CFM?3?$CFS?$AA@ 004780a4     CoreMain.obj
 0003:000000b8       ??_C@_04FKOI@quit?$AA@     004780b8     CoreMain.obj
 0003:000000c0       ??_C@_01KOHF@7?$AA@        004780c0     CoreWin32.obj
 0003:000000c4       ??_C@_05DILG@Vista?$AA@    004780c4     CoreWin32.obj
 0003:000000cc       ??_C@_04GNKK@2003?$AA@     004780cc     CoreWin32.obj
 0003:000000d4       ??_C@_02HJOI@XP?$AA@       004780d4     CoreWin32.obj
 0003:000000d8       ??_C@_04JCBD@2000?$AA@     004780d8     CoreWin32.obj
 0003:000000e0       ??_C@_06FOJC@NT?54?40?$AA@ 004780e0     CoreWin32.obj
 0003:000000e8       ??_C@_07FKOH@NT?53?451?$AA@ 004780e8     CoreWin32.obj
 0003:000000f0       ??_C@_02KEBK@Me?$AA@       004780f0     CoreWin32.obj
 0003:000000f4       ??_C@_02LDCN@98?$AA@       004780f4     CoreWin32.obj
 0003:000000f8       ??_C@_02OHFO@95?$AA@       004780f8     CoreWin32.obj
 0003:000000fc       ?GMachineOS@@3PADA         004780fc     CoreWin32.obj
 0003:0000013c       ??_C@_0BD@KBPG@unknown?5error?5code?$AA@ 0047813c     CoreWin32.obj
 0003:00000150       ??_C@_02DILL@?$CFs?$AA@    00478150     CoreWin32.obj
 0003:00000154       ??_C@_0BA@MNDD@?$CFs?6?6History?3?5?$CFs?$AA@ 00478154     CoreWin32.obj
 0003:00000164       ??_C@_0BA@FBGF@?$CFs?3?5fatal?5error?$AA@ 00478164     CoreWin32.obj
 0003:00000174       ??_C@_0BN@KBAH@Windows?5?$CFs?5?$CFd?4?$CFd?5?$CIBuild?3?5?$CFd?$CJ?$AA@ 00478174     CoreWin32.obj
 0003:00000194       ??_C@_02MOOC@NT?$AA@       00478194     CoreWin32.obj
 0003:00000198       ??_C@_0BB@NLPK@Detected?5OS?3?5?$CFs?6?$AA@ 00478198     CoreWin32.obj
 0003:000001ac       ??_C@_0BH@BMDH@Windows?5?$CFs?5?$CIBuild?3?5?$CFd?$CJ?$AA@ 004781ac     CoreWin32.obj
 0003:000001c4       ??_C@_02EEAN@9X?$AA@       004781c4     CoreWin32.obj
 0003:000001c8       ??_C@_07PCHH@Unknown?$AA@  004781c8     CoreWin32.obj
 0003:000001d0       ??_C@_0DB@LOPB@Windows?5version?5detection?5failed@ 004781d0     CoreWin32.obj
 0003:00000204       ?GMachineCPU@@3PADA        00478204     CoreCpuid.obj
 0003:00000244       ??_C@_08PELM@CPU?3?5?$CFs?6?$AA@ 00478244     CoreCpuid.obj
 0003:00000250       ??_C@_02DIMO@?$FN?6?$AA@   00478250     CoreCpuid.obj
 0003:00000254       ??_C@_07FJPN@3DNow?$CB?5?$AA@ 00478254     CoreCpuid.obj
 0003:0000025c       ??_C@_07OPB@SSE4?42?5?$AA@ 0047825c     CoreCpuid.obj
 0003:00000264       ??_C@_07DFAO@SSE4?41?5?$AA@ 00478264     CoreCpuid.obj
 0003:0000026c       ??_C@_05MMDO@SSE3?5?$AA@   0047826c     CoreCpuid.obj
 0003:00000274       ??_C@_05NKJE@SSE2?5?$AA@   00478274     CoreCpuid.obj
 0003:0000027c       ??_C@_04IIOM@SSE?5?$AA@    0047827c     CoreCpuid.obj
 0003:00000284       ??_C@_04OGOE@MMX?5?$AA@    00478284     CoreCpuid.obj
 0003:0000028c       ??_C@_06JFCH@RDTSC?5?$AA@  0047828c     CoreCpuid.obj
 0003:00000294       ??_C@_04PBEF@FPU?5?$AA@    00478294     CoreCpuid.obj
 0003:0000029c       ??_C@_0N@BFKL@CPU?5caps?3?5?$FL?5?$AA@ 0047829c     CoreCpuid.obj
 0003:000002ac       ??_C@_0O@KPHI@CPU?5name?3?5?$CFs?6?$AA@ 004782ac     CoreCpuid.obj
 0003:000002bc       ??_C@_0BE@ILMD@CPU?5speed?3?5?$CF?42f?5?$CFs?6?$AA@ 004782bc     CoreCpuid.obj
 0003:000002d0       ??_C@_03HLPM@GHz?$AA@      004782d0     CoreCpuid.obj
 0003:000002d4       ??_C@_03EPGE@MHz?$AA@      004782d4     CoreCpuid.obj
 0003:000002d8       ??_C@_0CA@MFEK@symbols?4dbg?3?5too?5much?5packages?6?$AA@ 004782d8     DbgSymbols.obj
 0003:000002f8       ??_C@_0BN@BGOD@symbols?4dbg?3?5unexpected?5EOF?6?$AA@ 004782f8     DbgSymbols.obj
 0003:00000318       ??_C@_0BK@GEII@symbols?4dbg?5is?5not?5found?6?$AA@ 00478318     DbgSymbols.obj
 0003:00000334       ??_C@_0M@NOOL@symbols?4dbg?$AA@ 00478334     DbgSymbols.obj
 0003:00000340       ??_C@_05FAL@?$CFs?$CL?$CFX?$AA@ 00478340     DbgSymbols.obj
 0003:00000348       ??_C@_04CLEA@?$CF08X?$AA@  00478348     DbgSymbols.obj
 0003:00000350       ??_C@_05MIHC@?$CFs?$CB?$CFs?$AA@ 00478350     DbgSymbolsWin32.obj
 0003:00000358       ??_C@_03HAMA@?$CD?$CFd?$AA@ 00478358     DbgSymbolsWin32.obj
 0003:00000368       ??_C@_02FDKA@?$FO1?$AA@    00478368     Memory.obj
 0003:0000036c       ??_C@_02KMNC@?$FO7?$AA@    0047836c     Memory.obj
 0003:00000370       ??_C@_02KMBJ@?$FO2?$AA@    00478370     Memory.obj
 0003:00000374       ??_C@_0O@MNOP@Out?5of?5memory?$AA@ 00478374     Memory.obj
 0003:00000384       ??_C@_0O@OAEJ@maxCount?5hit?6?$AA@ 00478384     Memory.obj
 0003:00000394       ??_C@_0CO@PDEO@BuildAllocatorsTable?3?5error?5in?5m@ 00478394     Memory.obj
 0003:000003c4       ??_C@_0CO@DANG@BuildAllocatorsTable?3?5error?5in?5m@ 004783c4     Memory.obj
 0003:000003f4       ??_C@_09HIMA@mem_check?$AA@ 004783f4     Memory.obj
 0003:00000400       ??_C@_08FDFA@mem_dump?$AA@ 00478400     Memory.obj
 0003:0000040c       ??_C@_08IJHL@mem_mark?$AA@ 0047840c     Memory.obj
 0003:00000418       ??_C@_07BADG@meminfo?$AA@  00478418     Memory.obj
 0003:00000420       ??_C@_0IO@CCFP@Memory?5usage?5information?3?6?5?5?$CF8d?5@ 00478420     Memory.obj
 0003:000004b0       ??_C@_0CC@EACE@Displayed?5?$CFd?5points?0?5?$CFd?1?$CFd?5bytes@ 004784b0     Memory.obj
 0003:000004d4       ??_C@_0BA@ONNN@?$CF8d?1?$CF?94d?5?5?$CFs?$CFs?6?$AA@ 004784d4     Memory.obj
 0003:000004e4       ??_C@_0BC@COED@?$CF8d?1?$CF?94d?5?5?$CFs?$CF08X?6?$AA@ 004784e4     Memory.obj
 0003:000004f8       ??_C@_0BO@CGFN@Marked?5?$CFd?5memory?5allocations?6?$AA@ 004784f8     Memory.obj
 0003:00000518       ??_C@_0DM@BEPH@Remembers?5current?5memory?5allocat@ 00478518     Memory.obj
 0003:00000554       ??_C@_05JHKE@?$CFs?$CFs?6?$AA@ 00478554     Memory.obj
 0003:0000055c       ??_C@_0M@BDOF@?$CF21s?1?$CF?915s?5?$AA@ 0047855c     Memory.obj
 0003:00000568       ??_C@_09DKPB@?$CFd?$CFs?$CF?$CLd?$FO7?$AA@ 00478568     Memory.obj
 0003:00000574       ??_C@_0CB@DICH@?5?5?5?5?5?$FO4?$FL?$FO7?5?5?$CF9d?1?$CF?94d?5?5?$FO4?$FN?$FO7?5?5?5?5?5@ 00478574     Memory.obj
 0003:00000598       ??_C@_0BK@DMJB@?5?5?$CF8d?1?$CF?94d?5?5?5?5?5?5?9?9?9?5?5?5?5?5?5?$AA@ 00478598     Memory.obj
 0003:000005b4       ??_C@_0BK@PDF@?5?5?5?5?5?9?9?9?5?5?5?5?5?5?5?5?$CF8d?1?$CF?94d?5?$AA@ 004785b4     Memory.obj
 0003:000005d0       ??_C@_0BJ@FLEO@no?5?$CCmem_mark?$CC?5performed?6?$AA@ 004785d0     Memory.obj
 0003:000005ec       ??_C@_0DP@HIFE@Compares?5current?5memory?5allocati@ 004785ec     Memory.obj
 0003:0000062c       ?GNull@@3PAVCOutputDevice@@A 0047862c     OutputDevice.obj
 0003:00000630       ?GLog@@3PAVCOutputDevice@@A 00478630     OutputDevice.obj
 0003:00000634       ??_C@_0O@JEHA@GLog?3?5recurse?$AA@ 00478634     OutputDevice.obj
 0003:00000644       ??_C@_0CK@GAIN@COutputDevice?3?3Register?3?5too?5muc@ 00478644     OutputDevice.obj
 0003:00000670       ??_C@_04FJOH@?$FO3?$CFs?$AA@ 00478670     OutputDevice.obj
 0003:00000678       ??_C@_0BI@GKKD@Unable?5to?5write?5to?5log?6?$AA@ 00478678     ErrorMgr.obj
 0003:00000690       ??_C@_0N@CKOH@?6ERROR?3?5?$CFs?6?6?$AA@ 00478690     ErrorMgr.obj
 0003:000006a0       ??_C@_0BB@JEGD@OS?3?5?5?$CFs?6CPU?3?5?$CFs?6?$AA@ 004786a0     ErrorMgr.obj
 0003:000006b4       ??_C@_0O@KGOP@?$CFs?5crash?0?5?$CFs?6?$AA@ 004786b4     ErrorMgr.obj
 0003:000006c4       ??_C@_0CN@LHCG@?9?9?9?9?9?9?9?9?9?9?9?9?9?9?9?9?9?9?9?9?9?9?9?9?9?9?9?9?9?9?9?9@ 004786c4     ErrorMgr.obj
 0003:000006f4       ??_C@_0BH@BBA@?6?6Recursive?5error?3?5?$CFs?6?$AA@ 004786f4     ErrorMgr.obj
 0003:0000070c       ??_C@_0CE@IKAG@WARNING?3?5log?5opened?5without?5erro@ 0047870c     ErrorMgr.obj
 0003:00000730       ??_C@_02JJJH@?6?6?$AA@     00478730     ErrorMgr.obj
 0003:00000734       ??_C@_09KFPK@crash?4log?$AA@ 00478734     ErrorMgr.obj
 0003:00000740       ??_C@_0BL@NFOF@Cannot?5write?5to?5file?5?$CC?$CFs?$CC?6?$AA@ 00478740     ErrorMgr.obj
 0003:0000075c       ??_C@_01FNLH@a?$AA@        0047875c     ErrorMgr.obj
 0003:00000760       ??_C@_01LLF@w?$AA@         00478760     ErrorMgr.obj
 0003:00000768       ??_R0H@8                   00478768     ErrorMgr.obj
 0003:00000774       ??_C@_0N@EEOP@?$FO1ERROR?3?5?$CFs?6?$AA@ 00478774     ErrorMgr.obj
 0003:00000784       ??_C@_03IMDO@?$CFs?3?$AA@  00478784     ErrorMgr.obj
 0003:00000788       ??_C@_07MEHP@?5?$DM?9?5?$CFs?3?$AA@ 00478788     ErrorMgr.obj
 0003:00000790       ??_C@_0M@POPK@History?3?6?5?5?$AA@ 00478790     ErrorMgr.obj
 0003:0000079c       ??_C@_0BL@KGJH@General?5Protection?5Fault?5?$CB?$AA@ 0047879c     ErrorMgr.obj
 0003:000007b8       ??_C@_05COLM@error?$AA@    004787b8     ErrorMgr.obj
 0003:000007c0       ??_C@_06GDDH@?9throw?$AA@  004787c0     ErrorMgr.obj
 0003:000007c8       ??_C@_06IGAP@?9stack?$AA@  004787c8     ErrorMgr.obj
 0003:000007d0       ??_C@_0BD@EHDG@testing?5drop?5error?$AA@ 004787d0     ErrorMgr.obj
 0003:000007e4       ??_C@_05PJCB@?9drop?$AA@   004787e4     ErrorMgr.obj
 0003:000007ec       ??_C@_04FENK@?9gpf?$AA@    004787ec     ErrorMgr.obj
 0003:000007f4       ??_C@_0O@BKAN@History?3?5?$CFs?6?6?$AA@ 004787f4     ErrorMgr.obj
 0003:00000804       ??_C@_0CN@EBOB@?6?6?$FO1?9?9?9?9?9?9?9?9?9?9?9?9?9?9?9?9?9?9?9?9?6?$CFs?5fata@ 00478804     ErrorMgr.obj
 0003:00000834       ??_C@_0BD@MEJF@?6?6Last?5log?5lines?3?6?$AA@ 00478834     ErrorMgr.obj
 0003:00000848       ??_C@_0BE@GGIA@?6Call?5stack?5trace?3?6?$AA@ 00478848     ExceptHandlerWin32.obj
 0003:0000085c       ??_C@_01BJG@?6?$AA@        0047885c     ExceptHandlerWin32.obj
 0003:00000860       ??_C@_08IFFN@?6Stack?3?6?$AA@ 00478860     ExceptHandlerWin32.obj
 0003:0000086c       ??_C@_0BA@FDKH@?5?5EFLAGS?3?5?$CF08X?6?$AA@ 0047886c     ExceptHandlerWin32.obj
 0003:0000087c       ??_C@_0BH@NGIF@Exception?5code?3?5?$CF08X?6?6?$AA@ 0047887c     ExceptHandlerWin32.obj
 0003:00000894       ??_C@_0L@EAJG@?$CFs?5in?5?$CC?$CFs?$CC?$AA@ 00478894     ExceptHandlerWin32.obj
 0003:000008a0       ??_C@_0BE@GCEA@Integer?5zero?5divide?$AA@ 004788a0     ExceptHandlerWin32.obj
 0003:000008b4       ??_C@_0BH@HFFE@Priveleged?5instruction?$AA@ 004788b4     ExceptHandlerWin32.obj
 0003:000008cc       ??_C@_0P@BMBP@Stack?5overflow?$AA@ 004788cc     ExceptHandlerWin32.obj
 0003:000008dc       ??_C@_0O@KOOO@FPU?5exception?$AA@ 004788dc     ExceptHandlerWin32.obj
 0003:000008ec       ??_C@_0BB@LNPF@Access?5violation?$AA@ 004788ec     ExceptHandlerWin32.obj
 0003:00000900       ??_C@_0P@JMBO@Illegal?5opcode?$AA@ 00478900     ExceptHandlerWin32.obj
 0003:00000910       ??_C@_0BH@PMBI@Float?5denormal?5operand?$AA@ 00478910     ExceptHandlerWin32.obj
 0003:00000928       ??_C@_0BC@ILAJ@Float?5zero?5divide?$AA@ 00478928     ExceptHandlerWin32.obj
 0003:0000093c       ??_C@_09EMAD@Exception?$AA@ 0047893c     ExceptHandlerWin32.obj
 0003:00000948       ??_C@_02DIPJ@GS?$AA@       00478948     ExceptDumpers.obj
 0003:0000094c       ??_C@_02COFD@FS?$AA@       0047894c     ExceptDumpers.obj
 0003:00000950       ??_C@_02BFKM@ES?$AA@       00478950     ExceptDumpers.obj
 0003:00000954       ??_C@_02DAG@DS?$AA@        00478954     ExceptDumpers.obj
 0003:00000958       ??_C@_02IPK@SS?$AA@        00478958     ExceptDumpers.obj
 0003:0000095c       ??_C@_02GCFD@CS?$AA@       0047895c     ExceptDumpers.obj
 0003:00000960       ??_C@_03JKAN@EIP?$AA@      00478960     ExceptDumpers.obj
 0003:00000964       ??_C@_03BEKG@EBP?$AA@      00478964     ExceptDumpers.obj
 0003:00000968       ??_C@_03GIKF@ESP?$AA@      00478968     ExceptDumpers.obj
 0003:0000096c       ??_C@_03DEAG@EDI?$AA@      0047896c     ExceptDumpers.obj
 0003:00000970       ??_C@_03DPPK@ESI?$AA@      00478970     ExceptDumpers.obj
 0003:00000974       ??_C@_03DHOB@EDX?$AA@      00478974     ExceptDumpers.obj
 0003:00000978       ??_C@_03FGLE@ECX?$AA@      00478978     ExceptDumpers.obj
 0003:0000097c       ??_C@_03EABO@EBX?$AA@      0047897c     ExceptDumpers.obj
 0003:00000980       ??_C@_03HLOB@EAX?$AA@      00478980     ExceptDumpers.obj
 0003:00000984       ??_C@_0M@DCCB@Registers?3?6?$AA@ 00478984     ExceptDumpers.obj
 0003:00000990       ??_C@_02JBML@?$CFc?$AA@    00478990     ExceptDumpers.obj
 0003:00000994       ??_C@_02IHLC@?5?5?$AA@     00478994     ExceptDumpers.obj
 0003:00000998       ??_C@_05LHOL@?5?$CF02X?$AA@ 00478998     ExceptDumpers.obj
 0003:000009a0       ??_C@_06BCOJ@?5?$DMN?1A?$DO?$AA@ 004789a0     ExceptDumpers.obj
 0003:000009a8       ??_C@_0N@IODG@?5?5?$CFs?3?5?$CF08X?5?5?$AA@ 004789a8     ExceptDumpers.obj
 0003:000009b8       ??_C@_0L@JJGB@?5?5?$CFs?3?5?$CF04X?$AA@ 004789b8     ExceptDumpers.obj
 0003:000009c4       ??_C@_08NLFG@?5?5?$DMN?1A?$DO?6?$AA@ 004789c4     ExceptDumpers.obj
 0003:000009d0       ??_C@_06LDKA@?$CFs?$CF08X?$AA@ 004789d0     ExceptDumpers.obj
 0003:000009d8       ??_C@_06ONMO@?6?5?5?5?5?5?$AA@ 004789d8     ExceptDumpers.obj
 0003:000009e0       ??_C@_0O@CNMB@?$CFs?$CFs?$CF08X?5?$DN?5?$CFs?$AA@ 004789e0     ExceptDumpers.obj
 0003:000009f0       ??_C@_04HGCK@?$CFs?9?$DO?$AA@ 004789f0     ExceptDumpers.obj
 0003:000009f8       ??_C@_05GLIP@?5?5?5?5?5?$AA@ 004789f8     ExceptDumpers.obj
 0003:00000a00       ??_C@_03HBPG@?$CFs?$CC?$AA@ 00478a00     ExceptDumpers.obj
 0003:00000a04       ??_C@_03NAME@?4?4?4?$AA@   00478a04     ExceptDumpers.obj
 0003:00000a08       ??_C@_02HDBI@?2n?$AA@      00478a08     ExceptDumpers.obj
 0003:00000a0c       ??_C@_04JBJI@?5?$DN?5?$CC?$AA@ 00478a0c     ExceptDumpers.obj
 0003:00000a14       ??_C@_0O@GPIC@?$CIwrong?5frame?$CJ?$AA@ 00478a14     ExceptDumpers.obj
 0003:00000a24       ??_C@_06OLJH@?$CIloop?$CJ?$AA@ 00478a24     ExceptDumpers.obj
 0003:00000a2c       ??_C@_05KGON@?$DMN?1A?$DO?$AA@ 00478a2c     ExceptDumpers.obj
 0003:00000a34       ??_C@_06PHBE@?$CFs?5?$DM?9?5?$AA@ 00478a34     ExceptDumpers.obj
 0003:00000a3c       ??_C@_0BA@PMOD@?5?4?4?4?5?$CIoverflow?$CJ?$AA@ 00478a3c     Strings.obj
 0003:00000a4c       ??_C@_0CN@BGKK@appSprintf?3?5overflow?5of?5?$CFd?5?$CIcall@ 00478a4c     Strings.obj
 0003:00000a7c       ??_C@_02JKAF@rb?$AA@       00478a7c     FileSystem.obj
 0003:00000a80       ??_C@_03BNCE@unk?$AA@      00478a80     FileSystem.obj
 0003:00000a84       ??_C@_0DA@FMID@CFileSystem?3?3Mount?$CI?$CJ?3?5container?5@ 00478a84     FileSystem.obj
 0003:00000ab4       ??_C@_0CL@MDOE@CFileSystem?3?3Umount?$CI?$CJ?3?5container@ 00478ab4     FileSystem.obj
 0003:00000ae0       ??_C@_03FIFC@dir?$AA@      00478ae0     FileSystem.obj
 0003:00000ae4       ??_C@_05LELA@?$CFs?1?$CFs?$AA@ 00478ae4     FileSystem.obj
 0003:00000aec       ??_C@_0CE@BLOA@Unsupported?5archive?5format?5of?5?$CC?$CF@ 00478aec     FileSystem.obj
 0003:00000b10       ??_C@_0BI@POEI@File?5?$CC?$CFs?$CC?5is?5not?5found?6?$AA@ 00478b10     FileSystem.obj
 0003:00000b28       ??_C@_0DH@OKCB@Mounted?5?$CFd?5containers?5?$CI?$CFd?5archiv@ 00478b28     FileSystem.obj
 0003:00000b60       ??_C@_01PJCK@?4?$AA@       00478b60     FileSystem.obj
 0003:00000b64       ??_C@_0BI@OOPK@mount?3?5nothing?5in?5?$CC?$CFs?$CC?6?$AA@ 00478b64     FileSystem.obj
 0003:00000b7c       ??_C@_0BN@KPEA@Mount?$CI?$CFs?$CJ?3?5cannot?5open?5file?6?$AA@ 00478b7c     FileSystem.obj
 0003:00000b9c       ??_C@_0CI@IICC@Mount?$CI?$CFs?$CJ?3?5file?5or?5dir?5does?5not?5@ 00478b9c     FileSystem.obj
 0003:00000bc4       ??_C@_0BH@GKKO@mount?3?5no?5empty?5names?6?$AA@ 00478bc4     FileSystem.obj
 0003:00000bdc       ??_C@_0BJ@NOBI@Unmounted?5?$CFd?5containers?6?$AA@ 00478bdc     FileSystem.obj
 0003:00000bf8       ??_C@_0BM@DONC@No?5mount?5points?5match?5?$CC?$CFs?$CC?6?$AA@ 00478bf8     FileSystem.obj
 0003:00000c14       ??_C@_0CG@CMCE@Cannot?5register?5archive?5format?3?5@ 00478c14     FileSystem.obj
 0003:00000c3c       ??_C@_0BH@DKPA@Cannot?5read?5file?5?$CFs?3?$CFs?$AA@ 00478c3c     FileSystem.obj
 0003:00000c54       ??_C@_0EO@FAPI@Usage?3?5mount?6?5?5or?5?5?5mount?5?$DMpath?5@ 00478c54     FileSystem.obj
 0003:00000ca4       ??_C@_0BP@MFHN@?$CF?93d?5?$CFc?5?$CF?94s?5?$CF?96d?5?$CF?913s?5?5?$CFs?$CFs?6?$AA@ 00478ca4     FileSystem.obj
 0003:00000cc4       ??_C@_0CP@DECK@?9?9?9?9L?9type?9nfiles?9mount?5point?9?9?9@ 00478cc4     FileSystem.obj
 0003:00000cf4       ??_C@_02PJPM@?$FO5?$AA@    00478cf4     FileSystem.obj
 0003:00000cf8       ??_C@_02FDGL@?$FO4?$AA@    00478cf8     FileSystem.obj
 0003:00000cfc       ??_C@_0BG@ODK@Usage?3?5umount?5?$DMmask?$DO?6?$AA@ 00478cfc     FileSystem.obj
 0003:00000d14       ??_C@_04PIKN@type?$AA@     00478d14     FileSystem.obj
 0003:00000d1c       ??_C@_02DBOA@ls?$AA@       00478d1c     FileSystem.obj
 0003:00000d20       ??_C@_03KMBF@cat?$AA@      00478d20     FileSystem.obj
 0003:00000d24       ??_C@_06PCKL@umount?$AA@   00478d24     FileSystem.obj
 0003:00000d2c       ??_C@_05LHIE@mount?$AA@    00478d2c     FileSystem.obj
 0003:00000d34       ??_C@_0BH@IAD@Usage?3?5cat?5?$DMfilename?$DO?6?$AA@ 00478d34     FileSystem.obj
 0003:00000d4c       ??_C@_0BL@DFHA@?6binary?5file?5?4?4?4?5stopped?4?6?$AA@ 00478d4c     FileSystem.obj
 0003:00000d68       ??_C@_0BJ@NOHB@Usage?3?5ls?5?$FLpath?1?$FN?$FLmask?$FN?6?$AA@ 00478d68     FileSystem.obj
 0003:00000d84       ??_C@_09LNMI@?$CF?$CFs?$CF?$CF?9?$CFds?$AA@ 00478d84     FileSystem.obj
 0003:00000d90       ??_C@_01FDHG@?$CK?$AA@     00478d90     FileSystem.obj
 0003:00000d94       ??_C@_02FCCF@?1?$CK?$AA@   00478d94     FileSystem.obj
 0003:00000d98       ??_C@_0BI@COAN@Usage?3?5type?5?$DMfilename?$DO?6?$AA@ 00478d98     FileSystem.obj
 0003:00000db0       ??_C@_0CI@EHIB@File?3?5?$CFs?6found?5in?3?5?$CFs?6length?3?5?$CFd@ 00478db0     FileSystem.obj
 0003:00000dd8       ??_C@_0P@KOPJ@nextserver?5?$CFd?6?$AA@ 00478dd8     cl_cin.obj
 0003:00000de8       ??_C@_0CB@FBLK@RunCinematic?3?5dropped?5?$CFd?5frames?6@ 00478de8     cl_cin.obj
 0003:00000e0c       ??_C@_0BG@GKBC@RunCinematic?3?5fix?5?$CFd?6?$AA@ 00478e0c     cl_cin.obj
 0003:00000e24       ??_C@_0BP@HGMF@bad?5compressed?5frame?5size?3?5?$CFd?6?$AA@ 00478e24     cl_cin.obj
 0003:00000e44       ??_C@_0BJ@GEJD@bad?5cinematic?5frame?5size?$AA@ 00478e44     cl_cin.obj
 0003:00000e60       ??_C@_0BO@DFPN@Decompression?5overread?5by?5?$CFd?6?$AA@ 00478e60     cl_cin.obj
 0003:00000e80       ??_C@_05KNK@s_khz?$AA@     00478e80     cl_cin.obj
 0003:00000e88       ??_C@_0BI@JCBK@Cinematic?5?$CFs?5not?5found?6?$AA@ 00478e88     cl_cin.obj
 0003:00000ea0       ??_C@_08MMAN@video?1?$CFs?$AA@ 00478ea0     cl_cin.obj
 0003:00000eac       ??_C@_0O@CAPA@?$CFs?5not?5found?6?$AA@ 00478eac     cl_cin.obj
 0003:00000ebc       ??_C@_07HBB@pics?1?$CFs?$AA@ 00478ebc     cl_cin.obj
 0003:00000ec4       ??_C@_04OOJJ@?4cin?$AA@    00478ec4     cl_cin.obj
 0003:00000ee4       ??_C@_02HJLH@dn?$AA@       00478ee4     cl_download.obj
 0003:00000ee8       ??_C@_02HAO@up?$AA@        00478ee8     cl_download.obj
 0003:00000eec       ??_C@_02PMAE@ft?$AA@       00478eec     cl_download.obj
 0003:00000ef0       ??_C@_02JIFL@lf?$AA@       00478ef0     cl_download.obj
 0003:00000ef4       ??_C@_02OID@bk?$AA@        00478ef4     cl_download.obj
 0003:00000ef8       ??_C@_02MMAH@rt?$AA@       00478ef8     cl_download.obj
 0003:00000efc       ??_C@_0BM@JKMO@Usage?3?5download?5?$DMfilename?$DO?6?$AA@ 00478efc     cl_download.obj
 0003:00000f18       ??_C@_0BG@FFKD@File?5already?5exists?4?6?$AA@ 00478f18     cl_download.obj
 0003:00000f30       ??_C@_0P@FDLO@Not?5connected?6?$AA@ 00478f30     cl_download.obj
 0003:00000f40       ??_C@_0M@FCFA@download?5?$CFs?$AA@ 00478f40     cl_download.obj
 0003:00000f4c       ??_C@_0BA@LOJL@Downloading?5?$CFs?6?$AA@ 00478f4c     cl_download.obj
 0003:00000f5c       ??_C@_0P@IDFC@download?5?$CFs?5?$CFd?$AA@ 00478f5c     cl_download.obj
 0003:00000f6c       ??_C@_0N@CLGM@Resuming?5?$CFs?6?$AA@ 00478f6c     cl_download.obj
 0003:00000f7c       ??_C@_03LLMP@r?$CLb?$AA@   00478f7c     cl_download.obj
 0003:00000f80       ??_C@_06LBGC@?$CFs?4tmp?$AA@ 00478f80     cl_download.obj
 0003:00000f88       ??_C@_04GHND@?4wal?$AA@    00478f88     cl_download.obj
 0003:00000f90       ??_C@_04PHML@?4pcx?$AA@    00478f90     cl_download.obj
 0003:00000f98       ??_C@_04EMJN@?4bsp?$AA@    00478f98     cl_download.obj
 0003:00000fa0       ??_C@_0CF@BGCJ@Refusing?5to?5download?5a?5path?5with@ 00478fa0     cl_download.obj
 0003:00000fc8       ??_C@_03HKFD@?4?4?1?$AA@   00478fc8     cl_download.obj
 0003:00000fcc       ??_C@_07ELB@?4?1?$CFs?1?$CFs?$AA@ 00478fcc     cl_download.obj
 0003:00000fd4       ??_C@_06OOPP@baseq2?$AA@   00478fd4     cl_download.obj
 0003:00000fdc       ??_C@_07PECE@players?$AA@  00478fdc     cl_download.obj
 0003:00000fe4       ??_C@_0BP@EHBN@failed?5to?5rename?5?$CC?$CFs?$CC?5to?5?$CC?$CFs?$CC?6?$AA@ 00478fe4     cl_download.obj
 0003:00001004       ??_C@_06CCCC@nextdl?$AA@   00479004     cl_download.obj
 0003:0000100c       ??_C@_0BD@LGC@Failed?5to?5open?5?$CFs?6?$AA@ 0047900c     cl_download.obj
 0003:00001020       ??_C@_02NGAF@wb?$AA@       00479020     cl_download.obj
 0003:00001024       ??_C@_0CB@INBI@Server?5does?5not?5have?5this?5file?4?6@ 00479024     cl_download.obj
 0003:00001048       ??_C@_06MFNJ@idx?$DN?$CFd?$AA@ 00479048     cl_download.obj
 0003:00001050       ??_C@_09HJPO@begin?5?$CFd?6?$AA@ 00479050     cl_download.obj
 0003:0000105c       ??_C@_0BA@IDAI@textures?1?$CFs?4wal?$AA@ 0047905c     cl_download.obj
 0003:0000106c       ??_C@_0N@OLHP@env?1?$CFs?$CFs?4pcx?$AA@ 0047906c     cl_download.obj
 0003:0000107c       ??_C@_0DC@MFAM@Local?5map?5version?5differs?5from?5s@ 0047907c     cl_download.obj
 0003:000010b0       ??_C@_0BE@HMKI@players?1?$CFs?1?$CFs_i?4pcx?$AA@ 004790b0     cl_download.obj
 0003:000010c4       ??_C@_0BC@LCAL@players?1?$CFs?1?$CFs?4pcx?$AA@ 004790c4     cl_download.obj
 0003:000010d8       ??_C@_0BG@GDGF@players?1?$CFs?1weapon?4pcx?$AA@ 004790d8     cl_download.obj
 0003:000010f0       ??_C@_0BG@NPF@players?1?$CFs?1weapon?4md2?$AA@ 004790f0     cl_download.obj
 0003:00001108       ??_C@_0BE@CNDM@players?1?$CFs?1tris?4md2?$AA@ 00479108     cl_download.obj
 0003:0000111c       ??_C@_0M@GKBO@pics?1?$CFs?4pcx?$AA@ 0047911c     cl_download.obj
 0003:00001128       ??_C@_08CIGF@sound?1?$CFs?$AA@ 00479128     cl_download.obj
 0003:00001134       ??_C@_06CKJG@?$CFs?4add?$AA@ 00479134     cl_download.obj
 0003:0000113c       ??_C@_0BC@FDNF@levelshots?1?$CFs?4jpg?$AA@ 0047913c     cl_download.obj
 0003:00001150       ??_C@_0CC@PCKK@CL_ParseFrame?3?5not?5packetentitie@ 00479150     cl_ents.obj
 0003:00001174       ??_C@_0BO@OOHG@CL_ParseFrame?3?5not?5playerinfo?$AA@ 00479174     cl_ents.obj
 0003:00001194       ??_C@_07HDAD@?$CF3d?3?$CFs?6?$AA@ 00479194     cl_ents.obj
 0003:0000119c       ??_C@_0BP@NGAC@Delta?5parse_entities?5too?5old?4?6?$AA@ 0047919c     cl_ents.obj
 0003:000011bc       ??_C@_0BG@OFIJ@Delta?5frame?5too?5old?4?6?$AA@ 004791bc     cl_ents.obj
 0003:000011d4       ??_C@_0DF@HHME@Delta?5from?5invalid?5frame?5?$CInot?5su@ 004791d4     cl_ents.obj
 0003:0000120c       ??_C@_0BH@PDM@?5?5?5frame?3?$CFi?5?5delta?3?$CFi?6?$AA@ 0047920c     cl_ents.obj
 0003:00001224       ??_C@_0CH@IKH@CL_ParsePacketEntities?3?5bad?5numb@ 00479224     cl_ents.obj
 0003:0000124c       ??_C@_0CH@CHFO@CL_ParsePacketEntities?3?5end?5of?5m@ 0047924c     cl_ents.obj
 0003:00001274       ??_C@_0BB@GIOP@?5?5?5baseline?3?5?$CFd?6?$AA@ 00479274     cl_ents.obj
 0003:00001288       ??_C@_0O@HFOL@?5?5?5delta?3?5?$CFd?6?$AA@ 00479288     cl_ents.obj
 0003:00001298       ??_C@_0DC@JOAF@CL_ParsePacketEntities?3?5remove?3?5@ 00479298     cl_ents.obj
 0003:000012cc       ??_C@_0P@OPIO@?5?5?5remove?3?5?$CFd?6?$AA@ 004792cc     cl_ents.obj
 0003:000012dc       ??_C@_0BC@NCCI@?5?5?5unchanged?3?5?$CFd?6?$AA@ 004792dc     cl_ents.obj
 0003:000012f0       ??_C@_0O@BPNL@low?5clamp?5?$CFi?6?$AA@ 004792f0     cl_ents.obj
 0003:00001300       ??_C@_0P@BBIF@high?5clamp?5?$CFi?6?$AA@ 00479300     cl_ents.obj
 0003:00001310       ??_C@_05LGKD@rogue?$AA@    00479310     cl_ents.obj
 0003:00001598       ??_C@_07GNBA@disint2?$AA@  00479598     cl_fx.obj
 0003:000015a0       ??_C@_06EIB@shotg2?$AA@    004795a0     cl_fx.obj
 0003:000015a8       ??_C@_05NDEM@nail1?$AA@    004795a8     cl_fx.obj
 0003:000015b0       ??_C@_08FPPA@plasshot?$AA@ 004795b0     cl_fx.obj
 0003:000015bc       ??_C@_08FDJE@rippfire?$AA@ 004795bc     cl_fx.obj
 0003:000015c8       ??_C@_08CJNO@hyprbf1a?$AA@ 004795c8     cl_fx.obj
 0003:000015d4       ??_C@_08LKAO@sshotf1b?$AA@ 004795d4     cl_fx.obj
 0003:000015e0       ??_C@_08KDJL@bfg__f1y?$AA@ 004795e0     cl_fx.obj
 0003:000015ec       ??_C@_08OOEN@grenlr1b?$AA@ 004795ec     cl_fx.obj
 0003:000015f8       ??_C@_08HIME@grenlf1a?$AA@ 004795f8     cl_fx.obj
 0003:00001604       ??_C@_08FAHE@rocklr1b?$AA@ 00479604     cl_fx.obj
 0003:00001610       ??_C@_08MGPN@rocklf1a?$AA@ 00479610     cl_fx.obj
 0003:0000161c       ??_C@_08PGPA@railgf1a?$AA@ 0047961c     cl_fx.obj
 0003:00001628       ??_C@_08MNA@shotgr1b?$AA@  00479628     cl_fx.obj
 0003:00001634       ??_C@_08GFOA@shotgf1b?$AA@ 00479634     cl_fx.obj
 0003:00001640       ??_C@_09KCPF@machgf?$CFdb?$AA@ 00479640     cl_fx.obj
 0003:0000164c       ??_C@_08GACE@blastf1a?$AA@ 0047964c     cl_fx.obj
 0003:00001658       ??_C@_0BJ@OFEO@aaaaaaaaaaaaaaaazzzzzzzz?$AA@ 00479658     cl_fx.obj
 0003:00001674       ??_C@_0BJ@CMIG@aaaaaaaazzzzzzzzaaaaaaaa?$AA@ 00479674     cl_fx.obj
 0003:00001690       ??_C@_0BJ@OAFP@zzzzzzzzaaaaaaaaaaaaaaaa?$AA@ 00479690     cl_fx.obj
 0003:000016ac       ??_C@_0BB@EEPB@zzzzzzzzaaaaaaaa?$AA@ 004796ac     cl_fx.obj
 0003:000016c0       ??_C@_0CC@LDEI@mmmmnonmmmmnmmmmmnonmmmmmnmmmmmm@ 004796c0     cl_fx.obj
 0003:000016e4       ??_C@_0CB@KHEF@mmnnoonnmmmmmmmmmnmmmmnonmmmmmmm@ 004796e4     cl_fx.obj
 0003:00001708       ??_C@_0BP@NKDG@kmmmakakmmaaamammamkmamakmmmma?$AA@ 00479708     cl_fx.obj
 0003:00001728       ??_C@_0BN@JIKL@kmamaamakmmmaakmamakmakmmmma?$AA@ 00479728     cl_fx.obj
 0003:00001748       ??_C@_0BL@DCOL@mmnommomhkmmomnonmmonqnmmo?$AA@ 00479748     cl_fx.obj
 0003:00001764       ??_C@_0BH@NBBL@Lightstyle?5length?5?$DN?5?$CFd?$AA@ 00479764     cl_fx.obj
 0003:0000177c       ??_C@_0BD@NMFF@items?1respawn1?4wav?$AA@ 0047977c     cl_fx.obj
 0003:00001790       ??_C@_0BB@IJGC@player?1land1?4wav?$AA@ 00479790     cl_fx.obj
 0003:000017a4       ??_C@_0L@JOBD@?$CKfall2?4wav?$AA@ 004797a4     cl_fx.obj
 0003:000017b0       ??_C@_0L@HOHM@?$CKfall1?4wav?$AA@ 004797b0     cl_fx.obj
 0003:000017bc       ??_C@_0P@IFGP@misc?1tele1?4wav?$AA@ 004797bc     cl_fx.obj
 0003:000017cc       ??_C@_0CA@DHIG@CL_ParseMuzzleFlash?3?5bad?5entity?$AA@ 004797cc     cl_fx.obj
 0003:000017ec       ??_C@_0BG@GNAE@weapons?1machgf?$CFib?4wav?$AA@ 004797ec     cl_fx.obj
 0003:00001804       ??_C@_0P@BJJH@weapons?1?$CFs?4wav?$AA@ 00479804     cl_fx.obj
 0003:00001814       ??_C@_0CB@HIMD@CL_ParseMuzzleFlash2?3?5bad?5entity@ 00479814     cl_fx.obj
 0003:00001838       ??_C@_0BE@GKPM@weapons?1disint2?4wav?$AA@ 00479838     cl_fx.obj
 0003:0000184c       ??_C@_0BC@DLIN@tank?1tnkatck3?4wav?$AA@ 0047984c     cl_fx.obj
 0003:00001860       ??_C@_0BA@OGNC@boss3?1xfire?4wav?$AA@ 00479860     cl_fx.obj
 0003:00001870       ??_C@_0BD@NNP@makron?1blaster?4wav?$AA@ 00479870     cl_fx.obj
 0003:00001884       ??_C@_0BE@FGKE@gunner?1gunatck3?4wav?$AA@ 00479884     cl_fx.obj
 0003:00001898       ??_C@_0BA@GCOI@tank?1rocket?4wav?$AA@ 00479898     cl_fx.obj
 0003:000018a8       ??_C@_0BD@CGIG@chick?1chkatck2?4wav?$AA@ 004798a8     cl_fx.obj
 0003:000018bc       ??_C@_0BF@ILOJ@soldier?1solatck1?4wav?$AA@ 004798bc     cl_fx.obj
 0003:000018d4       ??_C@_0BF@ONDD@floater?1fltatck1?4wav?$AA@ 004798d4     cl_fx.obj
 0003:000018ec       ??_C@_0BD@DKPH@hover?1hovatck1?4wav?$AA@ 004798ec     cl_fx.obj
 0003:00001900       ??_C@_0BD@GMHE@medic?1medatck1?4wav?$AA@ 00479900     cl_fx.obj
 0003:00001914       ??_C@_0BD@LDPI@flyer?1flyatck3?4wav?$AA@ 00479914     cl_fx.obj
 0003:00001928       ??_C@_0BF@GLIG@soldier?1solatck2?4wav?$AA@ 00479928     cl_fx.obj
 0003:00001940       ??_C@_0BG@JHIL@infantry?1infatck1?4wav?$AA@ 00479940     cl_fx.obj
 0003:00001958       ??_C@_0BE@PGIB@gunner?1gunatck2?4wav?$AA@ 00479958     cl_fx.obj
 0003:0000196c       ??_C@_0BF@MLKD@soldier?1solatck3?4wav?$AA@ 0047996c     cl_fx.obj
 0003:00001984       ??_C@_0BC@HLMH@tank?1tnkatck1?4wav?$AA@ 00479984     cl_fx.obj
 0003:00001998       ??_C@_0BD@FLOM@tank?1tnkatk2?$CFc?4wav?$AA@ 00479998     cl_fx.obj
 0003:000019ac       ??_C@_08EKNG@cl_run?$DN0?$AA@ 004799ac     cl_input.obj
 0003:000019b8       ??_C@_0BF@FBAC@cl_anglespeedkey?$DN1?45?$AA@ 004799b8     cl_input.obj
 0003:000019d0       ??_C@_0BC@DBAH@cl_pitchspeed?$DN150?$AA@ 004799d0     cl_input.obj
 0003:000019e4       ??_C@_0BA@EN@cl_yawspeed?$DN140?$AA@ 004799e4     cl_input.obj
 0003:000019f4       ??_C@_0BB@KPBB@cl_sidespeed?$DN200?$AA@ 004799f4     cl_input.obj
 0003:00001a08       ??_C@_0BE@EMPB@cl_forwardspeed?$DN200?$AA@ 00479a08     cl_input.obj
 0003:00001a1c       ??_C@_0P@MAGI@cl_upspeed?$DN200?$AA@ 00479a1c     cl_input.obj
 0003:00001a2c       ??_C@_0L@NLAG@cl_nodelta?$AA@ 00479a2c     cl_input.obj
 0003:00001a38       ??_C@_01PLJA@0?$AA@        00479a38     cl_input.obj
 0003:00001a3c       ??_C@_06MDLE@lookup?$AA@   00479a3c     cl_input.obj
 0003:00001a44       ??_C@_08HKDC@lookdown?$AA@ 00479a44     cl_input.obj
 0003:00001a50       ??_C@_04BFNL@?9use?$AA@    00479a50     cl_input.obj
 0003:00001a58       ??_C@_04MKDH@?$CLuse?$AA@  00479a58     cl_input.obj
 0003:00001a60       ??_C@_07EHKH@?9attack?$AA@ 00479a60     cl_input.obj
 0003:00001a68       ??_C@_07KANK@?$CLattack?$AA@ 00479a68     cl_input.obj
 0003:00001a70       ??_C@_06CNLP@?9speed?$AA@  00479a70     cl_input.obj
 0003:00001a78       ??_C@_06FAHP@?$CLspeed?$AA@ 00479a78     cl_input.obj
 0003:00001a80       ??_C@_0L@BMPO@?9moveright?$AA@ 00479a80     cl_input.obj
 0003:00001a8c       ??_C@_0L@DMHD@?$CLmoveright?$AA@ 00479a8c     cl_input.obj
 0003:00001a98       ??_C@_09MLIL@?9moveleft?$AA@ 00479a98     cl_input.obj
 0003:00001aa4       ??_C@_09EGDL@?$CLmoveleft?$AA@ 00479aa4     cl_input.obj
 0003:00001ab0       ??_C@_09OKBO@?9lookdown?$AA@ 00479ab0     cl_input.obj
 0003:00001abc       ??_C@_09GHKO@?$CLlookdown?$AA@ 00479abc     cl_input.obj
 0003:00001ac8       ??_C@_07PBGO@?9lookup?$AA@ 00479ac8     cl_input.obj
 0003:00001ad0       ??_C@_07BGBD@?$CLlookup?$AA@ 00479ad0     cl_input.obj
 0003:00001ad8       ??_C@_05BMBD@?9back?$AA@   00479ad8     cl_input.obj
 0003:00001ae0       ??_C@_05NMMM@?$CLback?$AA@ 00479ae0     cl_input.obj
 0003:00001ae8       ??_C@_08MLFI@?9forward?$AA@ 00479ae8     cl_input.obj
 0003:00001af4       ??_C@_08HLLP@?$CLforward?$AA@ 00479af4     cl_input.obj
 0003:00001b00       ??_C@_06CDHA@?9right?$AA@  00479b00     cl_input.obj
 0003:00001b08       ??_C@_06FOLA@?$CLright?$AA@ 00479b08     cl_input.obj
 0003:00001b10       ??_C@_05EFBI@?9left?$AA@   00479b10     cl_input.obj
 0003:00001b18       ??_C@_05IFMH@?$CLleft?$AA@ 00479b18     cl_input.obj
 0003:00001b20       ??_C@_09BGG@?9movedown?$AA@ 00479b20     cl_input.obj
 0003:00001b2c       ??_C@_09IMNG@?$CLmovedown?$AA@ 00479b2c     cl_input.obj
 0003:00001b38       ??_C@_07ECOP@?9moveup?$AA@ 00479b38     cl_input.obj
 0003:00001b40       ??_C@_07KFJC@?$CLmoveup?$AA@ 00479b40     cl_input.obj
 0003:00001b48       ??_C@_0L@EKJH@centerview?$AA@ 00479b48     cl_input.obj
 0003:00001b54       ??_C@_0BJ@DBCF@Usage?3?5lookdown?5?$DMangle?$DO?6?$AA@ 00479b54     cl_input.obj
 0003:00001b70       ??_C@_0BH@LPO@Usage?3?5lookup?5?$DMangle?$DO?6?$AA@ 00479b70     cl_input.obj
 0003:00001b88       ??_C@_0CD@DGOO@KeyDown?3?53?5keys?5down?5for?5a?5butto@ 00479b88     cl_input.obj
 0003:00001bac       ??_C@_0BA@PGJB@cl_showbboxes?$DN0?$AA@ 00479bac     cl_main.obj
 0003:00001bbc       ??_C@_0M@POEG@cl_infps?$DN80?$AA@ 00479bbc     cl_main.obj
 0003:00001bc8       ??_C@_0O@MECK@r_sfx_pause?$DN0?$AA@ 00479bc8     cl_main.obj
 0003:00001bd8       ??_C@_0L@LMFA@cl_newfx?$DN1?$AA@ 00479bd8     cl_main.obj
 0003:00001be4       ??_C@_0BB@OJBC@cl_extProtocol?$DN1?$AA@ 00479be4     cl_main.obj
 0003:00001bf8       ??_C@_0BB@DMIK@cl_cameraAngle?$DN0?$AA@ 00479bf8     cl_main.obj
 0003:00001c0c       ??_C@_0BD@ILN@cl_cameraHeight?$DN10?$AA@ 00479c0c     cl_main.obj
 0003:00001c20       ??_C@_0BB@MFCN@cl_cameraDist?$DN80?$AA@ 00479c20     cl_main.obj
 0003:00001c34       ??_C@_0BA@NFCC@cl_3rd_person?$DN0?$AA@ 00479c34     cl_main.obj
 0003:00001c44       ??_C@_09CIOG@cl_vwep?$DN1?$AA@ 00479c44     cl_main.obj
 0003:00001c50       ??_C@_0O@GIDJ@gender_auto?$DN1?$AA@ 00479c50     cl_main.obj
 0003:00001c60       ??_C@_0M@EKHG@gender?$DNmale?$AA@ 00479c60     cl_main.obj
 0003:00001c6c       ??_C@_06LHDK@fov?$DN90?$AA@ 00479c6c     cl_main.obj
 0003:00001c74       ??_C@_06OFHG@hand?$DN0?$AA@ 00479c74     cl_main.obj
 0003:00001c7c       ??_C@_05IGMC@msg?$DN1?$AA@ 00479c7c     cl_main.obj
 0003:00001c84       ??_C@_0L@BDDJ@rate?$DN25000?$AA@ 00479c84     cl_main.obj
 0003:00001c90       ??_C@_0L@FDGB@railtype?$DN1?$AA@ 00479c90     cl_main.obj
 0003:00001c9c       ??_C@_0M@KMON@railcolor?$DN0?$AA@ 00479c9c     cl_main.obj
 0003:00001ca8       ??_C@_0BA@HDOL@skin?$DNmale?1grunt?$AA@ 00479ca8     cl_main.obj
 0003:00001cb8       ??_C@_0N@JGPL@name?$DNunnamed?$AA@ 00479cb8     cl_main.obj
 0003:00001cc8       ??_C@_0M@GEFE@spectator?$DN0?$AA@ 00479cc8     cl_main.obj
 0003:00001cd4       ??_C@_09OFDM@password?$DN?$AA@ 00479cd4     cl_main.obj
 0003:00001ce0       ??_C@_0O@KMKM@rcon_address?$DN?$AA@ 00479ce0     cl_main.obj
 0003:00001cf0       ??_C@_0P@JGAB@rcon_password?$DN?$AA@ 00479cf0     cl_main.obj
 0003:00001d00       ??_C@_08DPL@paused?$DN0?$AA@ 00479d00     cl_main.obj
 0003:00001d0c       ??_C@_0P@NMKC@cl_timeout?$DN120?$AA@ 00479d0c     cl_main.obj
 0003:00001d1c       ??_C@_0M@FABP@showclamp?$DN0?$AA@ 00479d1c     cl_main.obj
 0003:00001d28       ??_C@_0O@GKCO@cl_showmiss?$DN0?$AA@ 00479d28     cl_main.obj
 0003:00001d38       ??_C@_0N@GDGI@cl_shownet?$DN0?$AA@ 00479d38     cl_main.obj
 0003:00001d48       ??_C@_0M@PBGO@cl_maxfps?$DN0?$AA@ 00479d48     cl_main.obj
 0003:00001d54       ??_C@_0N@KOJF@cl_predict?$DN1?$AA@ 00479d54     cl_main.obj
 0003:00001d64       ??_C@_0N@HLNF@cl_noskins?$DN0?$AA@ 00479d64     cl_main.obj
 0003:00001d74       ??_C@_0P@EOPE@cl_footsteps?$DN1?$AA@ 00479d74     cl_main.obj
 0003:00001d84       ??_C@_08MCKE@cl_gun?$DN1?$AA@ 00479d84     cl_main.obj
 0003:00001d90       ??_C@_0O@BIKK@cl_entities?$DN1?$AA@ 00479d90     cl_main.obj
 0003:00001da0       ??_C@_0P@MJG@cl_particles?$DN1?$AA@ 00479da0     cl_main.obj
 0003:00001db0       ??_C@_0M@CMKE@cl_lights?$DN1?$AA@ 00479db0     cl_main.obj
 0003:00001dbc       ??_C@_0L@NLAA@cl_blend?$DN1?$AA@ 00479dbc     cl_main.obj
 0003:00001dc8       ??_C@_04EDEH@echo?$AA@     00479dc8     cl_main.obj
 0003:00001dd0       ??_C@_09DMHI@challenge?$AA@ 00479dd0     cl_main.obj
 0003:00001ddc       ??_C@_04LBKD@ping?$AA@     00479ddc     cl_main.obj
 0003:00001de4       ??_C@_05KCGF@print?$AA@    00479de4     cl_main.obj
 0003:00001dec       ??_C@_03OKJL@cmd?$AA@      00479dec     cl_main.obj
 0003:00001df0       ??_C@_04LEMN@info?$AA@     00479df0     cl_main.obj
 0003:00001df8       ??_C@_0P@JGPO@client_connect?$AA@ 00479df8     cl_main.obj
 0003:00001e08       ??_C@_0BG@GPBN@Unknown?5command?5?$CC?$CFs?$CC?6?$AA@ 00479e08     cl_main.obj
 0003:00001e20       ??_C@_01FCOA@?5?$AA@       00479e20     cl_main.obj
 0003:00001e24       ??_C@_0BL@GCG@Can?8t?5?$CC?$CFs?$CC?0?5not?5connected?6?$AA@ 00479e24     cl_main.obj
 0003:00001e40       ??_C@_06EOIN@paused?$AA@   00479e40     cl_main.obj
 0003:00001e48       ??_C@_0L@IGMM@maxclients?$AA@ 00479e48     cl_main.obj
 0003:00001e54       ??_C@_0BI@HKJK@connect?534?5?$CFd?5?$CFd?5?$CC?$CFs?$CC?$CFs?$AA@ 00479e54     cl_main.obj
 0003:00001e6c       ??_C@_05CBME@qport?$AA@    00479e6c     cl_main.obj
 0003:00001e74       ??_C@_0BM@JLFG@Extended?5protocol?5disabled?6?$AA@ 00479e74     cl_main.obj
 0003:00001e90       ??_C@_09NADM@?5gildor?51?$AA@ 00479e90     cl_main.obj
 0003:00001e9c       ??_C@_0BJ@DOD@Usage?3?5connect?5?$DMserver?$DO?6?$AA@ 00479e9c     cl_main.obj
 0003:00001eb8       ??_C@_0N@NHEN@Server?5quit?6?$AA@ 00479eb8     cl_main.obj
 0003:00001ec8       ??_C@_0CN@HEPM@Not?5connected?5and?5?$CCrcon_address?$CC@ 00479ec8     cl_main.obj
 0003:00001ef8       ??_C@_03HKGO@?5?$CFs?$AA@  00479ef8     cl_main.obj
 0003:00001efc       ??_C@_0M@LC@?$PP?$PP?$PP?$PPrcon?5?$CFs?$AA@ 00479efc     cl_main.obj
 0003:00001f08       ??_C@_0BM@ENGC@?$CCrcon_password?$CC?5is?5not?5set?6?$AA@ 00479f08     cl_main.obj
 0003:00001f24       ??_C@_0L@FPLB@disconnect?$AA@ 00479f24     cl_main.obj
 0003:00001f30       ??_C@_0DP@HCOC@?$FO2Total?5?$CFd?5frames?0?5?$CF3?41f?5seconds@ 00479f30     cl_main.obj
 0003:00001f70       ??_C@_0P@DHN@Stopped?5demo?4?6?$AA@ 00479f70     cl_main.obj
 0003:00001f80       ??_C@_0BH@BFNH@Not?5recording?5a?5demo?4?6?$AA@ 00479f80     cl_main.obj
 0003:00001f98       ??_C@_0BJ@NAGC@Disconnected?5from?5server?$AA@ 00479f98     cl_main.obj
 0003:00001fb4       ??_C@_0BC@PNFB@?6Changing?5map?4?4?4?6?$AA@ 00479fb4     cl_main.obj
 0003:00001fc8       ??_C@_03IDPP@new?$AA@      00479fc8     cl_main.obj
 0003:00001fcc       ??_C@_0BB@DJEH@reconnecting?4?4?4?6?$AA@ 00479fcc     cl_main.obj
 0003:00001fe0       ??_C@_0BB@CILL@Bad?5address?3?5?$CFs?6?$AA@ 00479fe0     cl_main.obj
 0003:00001ff4       ??_C@_0P@GCID@pinging?5?$CFs?4?4?4?6?$AA@ 00479ff4     cl_main.obj
 0003:00002004       ??_C@_05EAEC@adr?$CFd?$AA@ 0047a004     cl_main.obj
 0003:0000200c       ??_C@_09FCOK@127?40?40?41?$AA@ 0047a00c     cl_main.obj
 0003:00002018       ??_C@_07FFPN@info?534?$AA@ 0047a018     cl_main.obj
 0003:00002020       ??_C@_07IJDM@0?40?40?40?$AA@ 0047a020     cl_main.obj
 0003:00002028       ??_C@_0BG@GFC@pinging?5broadcast?4?4?4?6?$AA@ 0047a028     cl_main.obj
 0003:00002040       ??_C@_0CL@CMKN@Server?5does?5not?5support?5extended@ 0047a040     cl_main.obj
 0003:0000206c       ??_C@_0CN@CKBA@Connected?5to?5server?5using?5extend@ 0047a06c     cl_main.obj
 0003:0000209c       ??_C@_0DE@DBM@Server?5supports?5older?5version?5of@ 0047a09c     cl_main.obj
 0003:000020d0       ??_C@_06PGCO@gildor?$AA@   0047a0d0     cl_main.obj
 0003:000020d8       ??_C@_0BP@CDLO@dup?5connect?5received?3?5ignored?6?$AA@ 0047a0d8     cl_main.obj
 0003:000020f8       ??_C@_0BC@JBMH@no?5status?5answer?6?$AA@ 0047a0f8     cl_main.obj
 0003:0000210c       ??_C@_03HHKO@?$CFs?6?$AA@  0047a10c     cl_main.obj
 0003:00002110       ??_C@_0CL@EEOE@Command?5packet?5from?5remote?5host?4@ 0047a110     cl_main.obj
 0003:0000213c       ??_C@_0BN@PKMA@map?3?5?$CFs?5game?3?5?$CFs?5cheats?3?5?$CFd?6?$AA@ 0047a13c     cl_main.obj
 0003:0000215c       ??_C@_06FLJA@cheats?$AA@   0047a15c     cl_main.obj
 0003:00002164       ??_C@_08NPAP@gamename?$AA@ 0047a164     cl_main.obj
 0003:00002170       ??_C@_07DOCO@mapname?$AA@  0047a170     cl_main.obj
 0003:00002178       ??_C@_03INEA@ack?$AA@      0047a178     cl_main.obj
 0003:0000217c       ??_C@_0BH@OOAB@Unknown?5command?5?$CC?$CFs?$CC?4?6?$AA@ 0047a17c     cl_main.obj
 0003:00002194       ??_C@_07OEOL@?$CFs?3?5?$CFs?6?$AA@ 0047a194     cl_main.obj
 0003:0000219c       ??_C@_0CG@CFCD@?$FO2?9?9?9?9?9?9?9?5User?5info?5settings?5?9?9?9@ 0047a19c     cl_main.obj
 0003:000021c4       ??_C@_0BC@DCMP@?1?1?6?1?1?5Aliases?6?1?1?6?$AA@ 0047a1c4     cl_main.obj
 0003:000021d8       ??_C@_0BL@EGCA@?1?1?5game?5created?5variables?6?$AA@ 0047a1d8     cl_main.obj
 0003:000021f4       ??_C@_0BL@NGBM@?1?1?5user?5created?5variables?6?$AA@ 0047a1f4     cl_main.obj
 0003:00002210       ??_C@_0BA@IKF@?1?1?6?1?1?5Cvars?6?1?1?6?$AA@ 0047a210     cl_main.obj
 0003:00002220       ??_C@_0BH@IHL@?1?1?6?1?1?5Key?5bindings?6?1?1?6?$AA@ 0047a220     cl_main.obj
 0003:00002238       ??_C@_0CD@LMDP@?1?1?5generated?5by?5?$CFs?0?5do?5not?5modif@ 0047a238     cl_main.obj
 0003:0000225c       ??_C@_0BP@JGGC@Usage?3?5writeconfig?5?$DMfilename?$DO?6?$AA@ 0047a25c     cl_main.obj
 0003:0000227c       ??_C@_04MELH@?4cfg?$AA@    0047a27c     cl_main.obj
 0003:00002284       ??_C@_0N@IDFB@getchallenge?$AA@ 0047a284     cl_main.obj
 0003:00002294       ??_C@_0BC@BHNJ@Connecting?5to?5?$CFs?6?$AA@ 0047a294     cl_main.obj
 0003:000022a8       ??_C@_09FBHK@localhost?$AA@ 0047a2a8     cl_main.obj
 0003:000022b4       ??_C@_0CG@PDLC@CL?3?5found?5running?5server?3?5connec@ 0047a2b4     cl_main.obj
 0003:000022dc       ??_C@_06DKLM@status?$AA@   0047a2dc     cl_main.obj
 0003:000022e4       ??_C@_0BH@NING@Bad?5server?5address?5?$CFs?6?$AA@ 0047a2e4     cl_main.obj
 0003:000022fc       ??_C@_0BP@BEPE@?6Server?5connection?5timed?5out?4?6?$AA@ 0047a2fc     cl_main.obj
 0003:0000231c       ??_C@_0CJ@EGIC@?$CFs?3?5sequenced?5packet?5without?5con@ 0047a31c     cl_main.obj
 0003:00002348       ??_C@_0BB@HD@?$CFs?3?5runt?5packet?6?$AA@ 0047a348     cl_main.obj
 0003:0000235c       ??_C@_0M@DAKA@writeconfig?$AA@ 0047a35c     cl_main.obj
 0003:00002368       ??_C@_08NKKF@download?$AA@ 0047a368     cl_main.obj
 0003:00002374       ??_C@_08GKBG@precache?$AA@ 0047a374     cl_main.obj
 0003:00002380       ??_C@_04CHBK@rcon?$AA@     0047a380     cl_main.obj
 0003:00002388       ??_C@_09CKHG@reconnect?$AA@ 0047a388     cl_main.obj
 0003:00002394       ??_C@_07DHIJ@connect?$AA@  0047a394     cl_main.obj
 0003:0000239c       ??_C@_04JPPJ@stop?$AA@     0047a39c     cl_main.obj
 0003:000023a4       ??_C@_06JNOM@record?$AA@   0047a3a4     cl_main.obj
 0003:000023ac       ??_C@_08EOOP@changing?$AA@ 0047a3ac     cl_main.obj
 0003:000023b8       ??_C@_0M@IFHL@snd_restart?$AA@ 0047a3b8     cl_main.obj
 0003:000023c4       ??_C@_08ONDD@userinfo?$AA@ 0047a3c4     cl_main.obj
 0003:000023d0       ??_C@_0M@JMJB@pingservers?$AA@ 0047a3d0     cl_main.obj
 0003:000023dc       ??_C@_05PBCN@pause?$AA@    0047a3dc     cl_main.obj
 0003:000023e4       ??_C@_0BK@LHPO@Usage?3?5record?5?$DMdemoname?$DO?6?$AA@ 0047a3e4     cl_main.obj
 0003:00002400       ??_C@_09DLPM@precache?6?$AA@ 0047a400     cl_main.obj
 0003:0000240c       ??_C@_0BH@KJBL@Cannot?5create?5file?5?$CFs?6?$AA@ 0047a40c     cl_main.obj
 0003:00002424       ??_C@_0BC@JCJK@recording?5to?5?$CFs?4?6?$AA@ 0047a424     cl_main.obj
 0003:00002438       ??_C@_0BC@GADK@?4?1?$CFs?1demos?1?$CFs?4dm2?$AA@ 0047a438     cl_main.obj
 0003:0000244c       ??_C@_0CD@JMHA@You?5must?5be?5in?5a?5level?5to?5record@ 0047a44c     cl_main.obj
 0003:00002470       ??_C@_0BE@LCIN@Already?5recording?4?6?$AA@ 0047a470     cl_main.obj
 0003:00002484       ??_C@_07ILLO@cfgfile?$AA@  0047a484     cl_main.obj
 0003:0000248c       ?svc_strings@@3PAPBDA      0047a48c     cl_parse.obj
 0003:000024e0       ??_C@_09DOGH@svc_frame?$AA@ 0047a4e0     cl_parse.obj
 0003:000024ec       ??_C@_0BI@ELFI@svc_deltapacketentities?$AA@ 0047a4ec     cl_parse.obj
 0003:00002504       ??_C@_0BD@GJCL@svc_packetentities?$AA@ 0047a504     cl_parse.obj
 0003:00002518       ??_C@_0P@JFIA@svc_playerinfo?$AA@ 0047a518     cl_parse.obj
 0003:00002528       ??_C@_0N@CDLJ@svc_download?$AA@ 0047a528     cl_parse.obj
 0003:00002538       ??_C@_0BA@HFKB@svc_centerprint?$AA@ 0047a538     cl_parse.obj
 0003:00002548       ??_C@_0BC@NKGK@svc_spawnbaseline?$AA@ 0047a548     cl_parse.obj
 0003:0000255c       ??_C@_0BB@FGCF@svc_configstring?$AA@ 0047a55c     cl_parse.obj
 0003:00002570       ??_C@_0P@GKHI@svc_serverdata?$AA@ 0047a570     cl_parse.obj
 0003:00002580       ??_C@_0O@DCLL@svc_stufftext?$AA@ 0047a580     cl_parse.obj
 0003:00002590       ??_C@_09FEEA@svc_print?$AA@ 0047a590     cl_parse.obj
 0003:0000259c       ??_C@_09CLHB@svc_sound?$AA@ 0047a59c     cl_parse.obj
 0003:000025a8       ??_C@_0O@NMIP@svc_reconnect?$AA@ 0047a5a8     cl_parse.obj
 0003:000025b8       ??_C@_0P@JIEH@svc_disconnect?$AA@ 0047a5b8     cl_parse.obj
 0003:000025c8       ??_C@_07GEPH@svc_nop?$AA@  0047a5c8     cl_parse.obj
 0003:000025d0       ??_C@_0O@OHLG@svc_inventory?$AA@ 0047a5d0     cl_parse.obj
 0003:000025e0       ??_C@_0L@FLHM@svc_layout?$AA@ 0047a5e0     cl_parse.obj
 0003:000025ec       ??_C@_0BA@DEAN@svc_temp_entity?$AA@ 0047a5ec     cl_parse.obj
 0003:000025fc       ??_C@_0BA@KJNC@svc_muzzlflash2?$AA@ 0047a5fc     cl_parse.obj
 0003:0000260c       ??_C@_0BA@KALL@svc_muzzleflash?$AA@ 0047a60c     cl_parse.obj
 0003:0000261c       ??_C@_07HNJP@svc_bad?$AA@  0047a61c     cl_parse.obj
 0003:00002624       ??_C@_06KFDE@gender?$AA@   0047a624     cl_parse.obj
 0003:0000262c       ??_C@_04JGMG@male?$AA@     0047a62c     cl_parse.obj
 0003:00002634       ??_C@_06BKEF@female?$AA@   0047a634     cl_parse.obj
 0003:0000263c       ??_C@_0O@PIIH@?$CFs?2male?1grunt?$AA@ 0047a63c     cl_parse.obj
 0003:0000264c       ??_C@_0EB@OJN@No?5extended?5protocol?5support?4?6Fo@ 0047a64c     cl_parse.obj
 0003:00002690       ??_C@_05KEJO@?$CFs?2?$CFs?$AA@ 0047a690     cl_parse.obj
 0003:00002698       ??_C@_04OPJK@name?$AA@     0047a698     cl_parse.obj
 0003:000026a0       ??_C@_04OFAC@skin?$AA@     0047a6a0     cl_parse.obj
 0003:000026a8       ??_C@_06PEPL@cmd?$DN?$CFs?$AA@ 0047a6a8     cl_parse.obj
 0003:000026b0       ??_C@_0CN@IFNF@CL_ParseServerMessage?3?5bad?5serve@ 0047a6b0     cl_parse.obj
 0003:000026e0       ??_C@_0BI@ENJH@Out?5of?5place?5frame?5data?$AA@ 0047a6e0     cl_parse.obj
 0003:000026f8       ??_C@_0P@IIMB@stufftext?3?5?$CFs?6?$AA@ 0047a6f8     cl_parse.obj
 0003:00002708       ??_C@_0BG@CAAE@stuff?5?$CIdisabled?$CJ?3?5?$CFs?6?$AA@ 0047a708     cl_parse.obj
 0003:00002720       ??_C@_04DCMN@?$CFs?$CFs?$AA@ 0047a720     cl_parse.obj
 0003:00002728       ??_C@_0O@DEBE@misc?1talk?4wav?$AA@ 0047a728     cl_parse.obj
 0003:00002738       ??_C@_0CD@KNJE@Server?5disconnected?0?5reconnectin@ 0047a738     cl_parse.obj
 0003:0000275c       ??_C@_0P@MDJB@bad?5net?5cmd?5?$CFd?$AA@ 0047a75c     cl_parse.obj
 0003:0000276c       ??_C@_0P@HHDF@END?5OF?5MESSAGE?$AA@ 0047a76c     cl_parse.obj
 0003:0000277c       ??_C@_0CK@FPGD@CL_ParseServerMessage?3?5Bad?5serve@ 0047a77c     cl_parse.obj
 0003:000027a8       ??_C@_0BE@DLJO@?9?9?9?9?9?9?9?9?9?9?9?9?9?9?9?9?9?9?6?$AA@ 0047a7a8     cl_parse.obj
 0003:000027bc       ??_C@_03CPCE@?$CFd?5?$AA@  0047a7bc     cl_parse.obj
 0003:000027c0       ??_C@_05GHGL@?$FO1?$CFs?6?$AA@ 0047a7c0     cl_parse.obj
 0003:000027c8       ??_C@_0CL@OGBP@?$FO1?6?6?$DN?$DN?$DN?$DN?$DN?$DN?$DN?$DN?$DN?$DN?$DN?$DN?$DN?$DN?$DN?$DN?$DN?$DN?$DN?$DN?$DN?$DN?$DN?$DN?$DN?$DN?$DN?$DN@ 0047a7c8     cl_parse.obj
 0003:000027f4       ??_C@_0CB@NPI@Server?5returned?5version?5?$CFd?5?$DM?$DO?534@ 0047a7f4     cl_parse.obj
 0003:00002818       ??_C@_0CA@CGFB@demo?5recorded?5with?5protocol?5?$CFd?6?$AA@ 0047a818     cl_parse.obj
 0003:00002838       ??_C@_04OAFI@game?$AA@     0047a838     cl_parse.obj
 0003:00002840       ??_C@_0CG@DIKG@demo?5recorded?5with?5extended?5prot@ 0047a840     cl_parse.obj
 0003:00002868       ??_C@_0BN@BOK@Serverdata?5packet?5received?4?6?$AA@ 0047a868     cl_parse.obj
 0003:00002888       ??_C@_0BH@KAHF@bad?5configstring?5?$CD?3?5?$CFd?$AA@ 0047a888     cl_parse.obj
 0003:000028a0       ??_C@_0CA@ONJO@ParseStartSoundPacket?3?5ent?5?$DN?5?$CFi?$AA@ 0047a8a0     cl_parse.obj
 0003:000028c4       ??_C@_06KCLD@offset?$AA@   0047a8c4     cl_playermodel.obj
 0003:000028cc       ??_C@_05IMHO@scale?$AA@    0047a8cc     cl_playermodel.obj
 0003:000028d4       ??_C@_05LHJL@model?$AA@    0047a8d4     cl_playermodel.obj
 0003:000028dc       ??_C@_0L@LMBK@fixedtorso?$AA@ 0047a8dc     cl_playermodel.obj
 0003:000028e8       ??_C@_09KJJ@fixedlegs?$AA@ 0047a8e8     cl_playermodel.obj
 0003:000028f4       ??_C@_03CJDB@sex?$AA@      0047a8f4     cl_playermodel.obj
 0003:000028f8       ??_C@_0L@EPMP@headoffset?$AA@ 0047a8f8     cl_playermodel.obj
 0003:00002904       ??_C@_09EDIM@footsteps?$AA@ 0047a904     cl_playermodel.obj
 0003:00002910       ??_C@_0CA@EHG@?$CFs?1players?1?$CFs?1?$CK?4pcx?0?$CK?4tga?0?$CK?4jpg?$AA@ 0047a910     cl_playermodel.obj
 0003:00002930       ??_C@_0BH@MIFG@?$CFs?1players?1?$CFs?1tris?4md2?$AA@ 0047a930     cl_playermodel.obj
 0003:00002948       ??_C@_0N@NCLE@?$CFs?1players?1?$CK?$AA@ 0047a948     cl_playermodel.obj
 0003:00002958       ??_C@_04BHHE@?$CFs_i?$AA@  0047a958     cl_playermodel.obj
 0003:00002960       ??_C@_04NFFA@skn_?$AA@     0047a960     cl_playermodel.obj
 0003:00002968       ??_C@_0BP@ODBK@?$CFs?1models?1players?1?$CFs?1lower?4md3?$AA@ 0047a968     cl_playermodel.obj
 0003:00002988       ??_C@_0CC@NEJM@?$CFs?1models?1players?1?$CFs?1lower_?$CK?4ski@ 0047a988     cl_playermodel.obj
 0003:000029ac       ??_C@_0CD@HOJC@?$CFs?1models?1players?1?$CFs?1animation?4c@ 0047a9ac     cl_playermodel.obj
 0003:000029d0       ??_C@_0BE@JMCG@?$CFs?1models?1players?1?$CK?$AA@ 0047a9d0     cl_playermodel.obj
 0003:000029e4       ??_C@_0L@FPDF@weapon?4md2?$AA@ 0047a9e4     cl_playermodel.obj
 0003:000029f0       ??_C@_0BC@NKBP@pics?1default_icon?$AA@ 0047a9f0     cl_playermodel.obj
 0003:00002a04       ??_C@_06IJLN@weapon?$AA@   0047aa04     cl_playermodel.obj
 0003:00002a0c       ??_C@_05DJEP@grunt?$AA@    0047aa0c     cl_playermodel.obj
 0003:00002a14       ??_C@_0L@JLMI@male?1grunt?$AA@ 0047aa14     cl_playermodel.obj
 0003:00002a20       ??_C@_0BJ@ELCC@Parsed?5?$CFd?5model?5genders?6?$AA@ 0047aa20     cl_playermodel.obj
 0003:00002a3c       ??_C@_0BI@CIPL@model?4lst?5is?5too?5large?6?$AA@ 0047aa3c     cl_playermodel.obj
 0003:00002a54       ??_C@_0BC@BGP@female?5model?3?5?$CFs?6?$AA@ 0047aa54     cl_playermodel.obj
 0003:00002a68       ??_C@_0CA@KOBO@players?1model?4lst?5is?5not?5found?6?$AA@ 0047aa68     cl_playermodel.obj
 0003:00002a88       ??_C@_07EIBF@crakhor?$AA@  0047aa88     cl_playermodel.obj
 0003:00002a90       ??_C@_0BC@BFFJ@players?1model?4lst?$AA@ 0047aa90     cl_playermodel.obj
 0003:00002aa4       ??_C@_0BK@BJGF@models?1players?1?$CFs?1icon_?$CFs?$AA@ 0047aaa4     cl_playermodel.obj
 0003:00002ac0       ??_C@_07FMEP@default?$AA@  0047aac0     cl_playermodel.obj
 0003:00002ac8       ??_C@_04DNEF@head?$AA@     0047aac8     cl_playermodel.obj
 0003:00002ad0       ??_C@_05FKGB@upper?$AA@    0047aad0     cl_playermodel.obj
 0003:00002ad8       ??_C@_05MCFF@lower?$AA@    0047aad8     cl_playermodel.obj
 0003:00002ae0       ??_C@_0CA@ELJL@models?1players?1?$CFs?1animation?4cfg?$AA@ 0047aae0     cl_playermodel.obj
 0003:00002b00       ??_C@_0BL@ICGP@Invalid?5line?5?$FL?$CFs?$FN?5in?5?$CC?$CFs?$CC?6?$AA@ 0047ab00     cl_playermodel.obj
 0003:00002b1c       ??_C@_0CB@DJH@Invalid?5frame?5info?5?$FL?$CFs?$FN?5in?5?$CC?$CFs?$CC?6@ 0047ab1c     cl_playermodel.obj
 0003:00002b40       ??_C@_0BN@KJCI@Too?5much?5animations?5in?5?$CC?$CFs?$CC?6?$AA@ 0047ab40     cl_playermodel.obj
 0003:00002b60       ??_C@_0M@OHBH@?$CFd?5?$CFd?5?$CFd?5?$CFf?$AA@ 0047ab60     cl_playermodel.obj
 0003:00002b6c       ??_C@_0L@CFBO@?$CFs?1head_?$CFs?$AA@ 0047ab6c     cl_playermodel.obj
 0003:00002b78       ??_C@_0M@ODGN@?$CFs?1upper_?$CFs?$AA@ 0047ab78     cl_playermodel.obj
 0003:00002b84       ??_C@_0M@NEKB@?$CFs?1lower_?$CFs?$AA@ 0047ab84     cl_playermodel.obj
 0003:00002b90       ??_C@_0BO@HHNL@Too?5much?5skin?5surfaces?5in?5?$CFs?6?$AA@ 0047ab90     cl_playermodel.obj
 0003:00002bb0       ??_C@_0BC@IAFC@nodraw?5for?5?$CFs?1?$CFs?6?$AA@ 0047abb0     cl_playermodel.obj
 0003:00002bc4       ??_C@_06CLLN@nodraw?$AA@   0047abc4     cl_playermodel.obj
 0003:00002bcc       ??_C@_0N@JKDG@no?5skin?3?5?$CFs?6?$AA@ 0047abcc     cl_playermodel.obj
 0003:00002bdc       ??_C@_0BH@HIDG@models?1players?1?$CFs?4skin?$AA@ 0047abdc     cl_playermodel.obj
 0003:00002bf4       ??_C@_0BJ@PNEF@models?1players?1?$CFs?1?$CFs?4md3?$AA@ 0047abf4     cl_playermodel.obj
 0003:00002c10       ??_C@_0BP@DJII@Invalid?5line?5?$FL?$CFs?$FN?5in?5?$CC?$CFs?4cfg?$CC?6?$AA@ 0047ac10     cl_playermodel.obj
 0003:00002c30       ??_C@_0BG@PEIO@models?1weapons?1?$CFs?4cfg?$AA@ 0047ac30     cl_playermodel.obj
 0003:00002c48       ??_C@_04JJFL@?4md2?$AA@    0047ac48     cl_playermodel.obj
 0003:00002c50       ??_C@_0O@MGPF@players?1?$CFs?1?$CFs?$AA@ 0047ac50     cl_playermodel.obj
 0003:00002c60       ??_C@_0BA@CHID@players?1?$CFs?1?$CFs_i?$AA@ 0047ac60     cl_playermodel.obj
 0003:00002c70       ??_C@_0BN@BKLB@players?1?$CFs?1?$CK?4pcx?0?$CK?4tga?0?$CK?4jpg?$AA@ 0047ac70     cl_playermodel.obj
 0003:00002c90       ??_C@_04BHG@tris?$AA@      0047ac90     cl_playermodel.obj
 0003:00002c98       ??_C@_0L@FMME@tag_weapon?$AA@ 0047ac98     cl_playermodel.obj
 0003:00002ca4       ??_C@_08JGJE@tag_head?$AA@ 0047aca4     cl_playermodel.obj
 0003:00002cb0       ??_C@_09ECJI@tag_torso?$AA@ 0047acb0     cl_playermodel.obj
 0003:00002cbc       ??_C@_0BB@IOMI@?$CFs?6invalid?5model?$AA@ 0047acbc     cl_playermodel.obj
 0003:00002cd0       ??_C@_0BF@MOAN@?$CFs?3?5removed?5tag?5?$CC?$CFs?$CC?$AA@ 0047acd0     cl_playermodel.obj
 0003:00002ce8       ??_C@_0BA@NFFB@?$CFs?3?5no?5tag?5?$CC?$CFs?$CC?$AA@ 0047ace8     cl_playermodel.obj
 0003:00002cfc       ??_C@_0CB@IDNM@prediction?5miss?5on?5?$CFd?3?5?$CFg?5?$CFg?5?$CFg?6@ 0047acfc     cl_pred.obj
 0003:00002d20       ??_C@_0CJ@GOCP@CL_PredictMovement?3?5exceeded?5CMD@ 0047ad20     cl_pred.obj
 0003:00002d4c       ??_C@_0N@HMIE@graphshift?$DN0?$AA@ 0047ad4c     cl_scrn.obj
 0003:00002d5c       ??_C@_0N@NHJA@graphscale?$DN1?$AA@ 0047ad5c     cl_scrn.obj
 0003:00002d6c       ??_C@_0P@HMIE@graphheight?$DN32?$AA@ 0047ad6c     cl_scrn.obj
 0003:00002d7c       ??_C@_0N@OIFG@debuggraph?$DN0?$AA@ 0047ad7c     cl_scrn.obj
 0003:00002d8c       ??_C@_0M@JCLH@timegraph?$DN0?$AA@ 0047ad8c     cl_scrn.obj
 0003:00002d98       ??_C@_0L@BFLF@netgraph?$DN0?$AA@ 0047ad98     cl_scrn.obj
 0003:00002da4       ??_C@_0M@IJLO@cl_draw2d?$DN1?$AA@ 0047ada4     cl_scrn.obj
 0003:00002db0       ??_C@_0BD@MECE@scr_centertime?$DN2?45?$AA@ 0047adb0     cl_scrn.obj
 0003:00002dc4       ??_C@_0BA@HFPF@con_maxSize?$DN0?48?$AA@ 0047adc4     cl_scrn.obj
 0003:00002dd4       ??_C@_0BB@EJDK@crosshairColor?$DN7?$AA@ 0047add4     cl_scrn.obj
 0003:00002de8       ??_C@_0M@MLFE@crosshair?$DN0?$AA@ 0047ade8     cl_scrn.obj
 0003:00002df4       ??_C@_0CG@MIPN@?9?9?9?9?9?9?9?9?9?9?9?9?9?9?9?9?9?9?9?9?9?9?9?9?9?9?9?9?9?9?9?9@ 0047adf4     cl_scrn.obj
 0003:00002e1c       ??_C@_0CI@HHIP@?6?9?9?9?9?9?9?9?9?9?9?9?9?9?9?9?9?9?9?9?9?9?9?9?9?9?9?9?9?9?9?9@ 0047ae1c     cl_scrn.obj
 0003:00002e44       ??_C@_02PJJB@?$CC?6?$AA@   0047ae44     cl_scrn.obj
 0003:00002e48       ??_C@_05MCHL@say?5?$CC?$AA@ 0047ae48     cl_scrn.obj
 0003:00002e50       ??_C@_0L@LAAC@say_team?5?$CC?$AA@ 0047ae50     cl_scrn.obj
 0003:00002e5c       ??_C@_0BC@GJEH@SetLevelshot?3?5?$CFs?6?$AA@ 0047ae5c     cl_scrn.obj
 0003:00002e70       ??_C@_0O@CJGC@levelshots?1?$CFs?$AA@ 0047ae70     cl_scrn.obj
 0003:00002e80       ??_C@_09KOO@crosshair?$AA@ 0047ae80     cl_scrn.obj
 0003:00002e8c       ??_C@_09KDID@pics?1ch?$CFd?$AA@ 0047ae8c     cl_scrn.obj
 0003:00002e98       ??_C@_0N@KACD@pics?1conback?$AA@ 0047ae98     cl_scrn.obj
 0003:00002ea8       ??_C@_0L@MEIM@pics?1pause?$AA@ 0047aea8     cl_scrn.obj
 0003:00002eb4       ??_C@_08CKHJ@pics?1net?$AA@ 0047aeb4     cl_scrn.obj
 0003:00002ec0       ??_C@_04BNNP@say?3?$AA@    0047aec0     cl_scrn.obj
 0003:00002ec8       ??_C@_09GEPG@say_team?3?$AA@ 0047aec8     cl_scrn.obj
 0003:00002ed4       ??_C@_0O@NMNJ@?$CFd?$CF?$CF?5complete?$AA@ 0047aed4     cl_scrn.obj
 0003:00002ee4       ??_C@_0BA@IGEO@Downloading?3?5?$CFs?$AA@ 0047aee4     cl_scrn.obj
 0003:00002ef4       ??_C@_04KPNM@?$FO0?$CFs?$AA@ 0047aef4     cl_scrn.obj
 0003:00002efc       ??_C@_0N@DEFP@pics?1loading?$AA@ 0047aefc     cl_scrn.obj
 0003:00002f0c       ??_C@_0N@DGEG@?$CFs?$CF6s?5?$CF3i?5?$CFs?$AA@ 0047af0c     cl_scrn.obj
 0003:00002f1c       ??_C@_06JOFI@use?5?$CFs?$AA@ 0047af1c     cl_scrn.obj
 0003:00002f24       ??_C@_0BC@IGDO@?$FO2?9?9?9?9?9?9?5?9?9?9?5?9?9?9?9?$AA@ 0047af24     cl_scrn.obj
 0003:00002f38       ??_C@_0BC@FIKE@?$FO2hotkey?5?$CD?$CD?$CD?5item?$AA@ 0047af38     cl_scrn.obj
 0003:00002f4c       ??_C@_0P@JLFH@pics?1inventory?$AA@ 0047af4c     cl_scrn.obj
 0003:00002f5c       ??_C@_05HNIL@endif?$AA@    0047af5c     cl_scrn.obj
 0003:00002f64       ??_C@_02NEFL@if?$AA@       0047af64     cl_scrn.obj
 0003:00002f68       ??_C@_07IIPC@string2?$AA@  0047af68     cl_scrn.obj
 0003:00002f70       ??_C@_06EMNG@string?$AA@   0047af70     cl_scrn.obj
 0003:00002f78       ??_C@_08FOPG@cstring2?$AA@ 0047af78     cl_scrn.obj
 0003:00002f84       ??_C@_07EILE@cstring?$AA@  0047af84     cl_scrn.obj
 0003:00002f8c       ??_C@_0BG@HMBM@Bad?5stat_string?5index?$AA@ 0047af8c     cl_scrn.obj
 0003:00002fa4       ??_C@_0M@KGFB@stat_string?$AA@ 0047afa4     cl_scrn.obj
 0003:00002fb0       ??_C@_04KAPC@rnum?$AA@     0047afb0     cl_scrn.obj
 0003:00002fb8       ??_C@_04JKCF@anum?$AA@     0047afb8     cl_scrn.obj
 0003:00002fc0       ??_C@_0N@EPFI@pics?1field_3?$AA@ 0047afc0     cl_scrn.obj
 0003:00002fd0       ??_C@_04JFOH@hnum?$AA@     0047afd0     cl_scrn.obj
 0003:00002fd8       ??_C@_03EBLA@num?$AA@      0047afd8     cl_scrn.obj
 0003:00002fdc       ??_C@_04LGNI@picn?$AA@     0047afdc     cl_scrn.obj
 0003:00002fe4       ??_C@_04PNMK@?$FO1?$CFs?$AA@ 0047afe4     cl_scrn.obj
 0003:00002fec       ??_C@_0BB@PFPA@?$CF3d?5?$CF3d?5?$CF?912?412s?$AA@ 0047afec     cl_scrn.obj
 0003:00003000       ??_C@_03HGOC@ctf?$AA@      0047b000     cl_scrn.obj
 0003:00003004       ??_C@_0BG@HCFE@client?5?$DO?$DN?5MAX_CLIENTS?$AA@ 0047b004     cl_scrn.obj
 0003:0000301c       ??_C@_09FLDN@Time?3?5?5?$CFd?$AA@ 0047b01c     cl_scrn.obj
 0003:00003028       ??_C@_09KOD@Ping?3?5?5?$CFd?$AA@ 0047b028     cl_scrn.obj
 0003:00003034       ??_C@_0M@EOOD@Score?3?5?$FO2?$CFd?$AA@ 0047b034     cl_scrn.obj
 0003:00003040       ??_C@_04LPB@?$FO2?$CFs?$AA@ 0047b040     cl_scrn.obj
 0003:00003048       ??_C@_06ILMK@client?$AA@   0047b048     cl_scrn.obj
 0003:00003050       ??_C@_0BC@DMHA@Pic?5?$DO?$DN?5MAX_IMAGES?$AA@ 0047b050     cl_scrn.obj
 0003:00003064       ??_C@_03DCIF@pic?$AA@      0047b064     cl_scrn.obj
 0003:00003068       ??_C@_02BHIC@yv?$AA@       0047b068     cl_scrn.obj
 0003:0000306c       ??_C@_02BEKO@yb?$AA@       0047b06c     cl_scrn.obj
 0003:00003070       ??_C@_02ECKM@yt?$AA@       0047b070     cl_scrn.obj
 0003:00003074       ??_C@_02BCI@xv?$AA@        0047b074     cl_scrn.obj
 0003:00003078       ??_C@_02KLHE@xr?$AA@       0047b078     cl_scrn.obj
 0003:0000307c       ??_C@_02KJMO@xl?$AA@       0047b07c     cl_scrn.obj
 0003:00003080       ??_C@_0O@MEPD@pics?1?$CFsnum_?$CFc?$AA@ 0047b080     cl_scrn.obj
 0003:00003090       ??_C@_0BB@GKGH@pics?1?$CFsnum_minus?$AA@ 0047b090     cl_scrn.obj
 0003:000030a4       ??_C@_02MECO@?$CFd?$AA@    0047b0a4     cl_scrn.obj
 0003:000030a8       ??_C@_0L@BJLF@screenshot?$AA@ 0047b0a8     cl_scrn.obj
 0003:000030b4       ??_C@_0N@OKBC@messagemode2?$AA@ 0047b0b4     cl_scrn.obj
 0003:000030c4       ??_C@_0M@KMFF@messagemode?$AA@ 0047b0c4     cl_scrn.obj
 0003:000030d0       ??_C@_0O@PBHO@toggleconsole?$AA@ 0047b0d0     cl_scrn.obj
 0003:000030e0       ??_C@_0M@MNON@timerefresh?$AA@ 0047b0e0     cl_scrn.obj
 0003:000030ec       ??_C@_0BE@NCII@Unknown?5option?3?5?$CFs?6?$AA@ 0047b0ec     cl_scrn.obj
 0003:00003100       ??_C@_0BG@NDOP@Invalid?5map_name?3?5?$CFs?6?$AA@ 0047b100     cl_scrn.obj
 0003:00003118       ??_C@_0CB@OPPM@No?5levelshots?5when?5disconnected?6@ 0047b118     cl_scrn.obj
 0003:0000313c       ??_C@_0BE@PHLM@?4?1?$CFs?1screenshots?1?$CFs?$AA@ 0047b13c     cl_scrn.obj
 0003:00003150       ??_C@_0DA@BHOJ@WARNING?3?5name?5already?5specified?5@ 0047b150     cl_scrn.obj
 0003:00003180       ??_C@_04OJNE@jpeg?$AA@     0047b180     cl_scrn.obj
 0003:00003188       ??_C@_06EBGC@silent?$AA@   0047b188     cl_scrn.obj
 0003:00003190       ??_C@_07FNGD@nogamma?$AA@  0047b190     cl_scrn.obj
 0003:00003198       ??_C@_04CNMC@no2d?$AA@     0047b198     cl_scrn.obj
 0003:000031a0       ??_C@_0BD@MLNL@?4?1?$CFs?1levelshots?1?$CFs?$AA@ 0047b1a0     cl_scrn.obj
 0003:000031b4       ??_C@_09IADL@levelshot?$AA@ 0047b1b4     cl_scrn.obj
 0003:000031c0       ??_C@_0FC@BNHE@Usage?3?5screenshot?5?$FL?9levelshot?$FN?5?$FL@ 0047b1c0     cl_scrn.obj
 0003:00003214       ??_C@_0CA@EKBE@Usage?3?5timerefresh?5?$FLsteps?$DN256?$FN?6?$AA@ 0047b214     cl_scrn.obj
 0003:00003234       ??_C@_0BP@JPEF@?$CFd?5frames?1?$CFg?5seconds?5?$CI?$CFg?5fps?$CJ?6?$AA@ 0047b234     cl_scrn.obj
 0003:000032f0       ??_C@_0BD@NPJD@objects?1gibs?1bone2?$AA@ 0047b2f0     cl_tent.obj
 0003:00003304       ??_C@_0BF@JEPP@objects?1gibs?1sm_meat?$AA@ 0047b304     cl_tent.obj
 0003:0000331c       ??_C@_0BC@CNND@objects?1gibs?1bone?$AA@ 0047b31c     cl_tent.obj
 0003:00003330       ??_C@_0BB@JCHF@weapons?1v_shotg2?$AA@ 0047b330     cl_tent.obj
 0003:00003344       ??_C@_0BB@NLGB@weapons?1v_handgr?$AA@ 0047b344     cl_tent.obj
 0003:00003358       ??_C@_0BA@KECD@weapons?1v_machn?$AA@ 0047b358     cl_tent.obj
 0003:00003368       ??_C@_0BB@DKHH@objects?1grenade2?$AA@ 0047b368     cl_tent.obj
 0003:0000337c       ??_C@_0O@MOCL@objects?1laser?$AA@ 0047b37c     cl_tent.obj
 0003:0000338c       ??_C@_05FPAN@spit1?$AA@    0047b38c     cl_tent.obj
 0003:00003394       ??_C@_05FACJ@burp1?$AA@    0047b394     cl_tent.obj
 0003:0000339c       ??_C@_05DOKH@yawn2?$AA@    0047b39c     cl_tent.obj
 0003:000033a4       ??_C@_05MBBO@yawn1?$AA@    0047b3a4     cl_tent.obj
 0003:000033ac       ??_C@_07MNKD@sneeze2?$AA@  0047b3ac     cl_tent.obj
 0003:000033b4       ??_C@_07DCBK@sneeze1?$AA@  0047b3b4     cl_tent.obj
 0003:000033bc       ??_C@_06IDM@cough2?$AA@    0047b3bc     cl_tent.obj
 0003:000033c4       ??_C@_06PHIF@cough1?$AA@   0047b3c4     cl_tent.obj
 0003:000033cc       ??_C@_08FLON@tinyfart?$AA@ 0047b3cc     cl_tent.obj
 0003:000033d8       ??_C@_05HCHG@stone?$AA@    0047b3d8     cl_tent.obj
 0003:000033e0       ??_C@_04KCFE@dirt?$AA@     0047b3e0     cl_tent.obj
 0003:000033e8       ??_C@_05DGDK@glass?$AA@    0047b3e8     cl_tent.obj
 0003:000033f0       ??_C@_05CCAC@water?$AA@    0047b3f0     cl_tent.obj
 0003:000033f8       ??_C@_04EOHJ@wood?$AA@     0047b3f8     cl_tent.obj
 0003:00003400       ??_C@_06PKAF@marble?$AA@   0047b400     cl_tent.obj
 0003:00003408       ??_C@_03COKM@tin?$AA@      0047b408     cl_tent.obj
 0003:0000340c       ??_C@_04NPOO@snow?$AA@     0047b40c     cl_tent.obj
 0003:00003414       ??_C@_0M@BKJL@metal_light?$AA@ 0047b414     cl_tent.obj
 0003:00003420       ??_C@_05KMGP@metal?$AA@    0047b420     cl_tent.obj
 0003:00003428       ??_C@_06JAEI@gravel?$AA@   0047b428     cl_tent.obj
 0003:00003430       ??_C@_03LJKD@rug?$AA@      0047b430     cl_tent.obj
 0003:00003434       ??_C@_08PDHI@pavement?$AA@ 0047b434     cl_tent.obj
 0003:00003440       ??_C@_0BH@HPKN@weapons?1disrupthit?4wav?$AA@ 0047b440     cl_tent.obj
 0003:00003458       ??_C@_0BC@DCEO@weapons?1tesla?4wav?$AA@ 0047b458     cl_tent.obj
 0003:0000346c       ??_C@_0BH@DCAE@player?1reallife?1?$CFs?4wav?$AA@ 0047b46c     cl_tent.obj
 0003:00003484       ??_C@_0BI@EICK@weapons?1?$CFs?1impact?$CFd?4wav?$AA@ 0047b484     cl_tent.obj
 0003:0000349c       ??_C@_0BP@DFHN@player?1footsteps?1?$CFs?1step?$CFd?4wav?$AA@ 0047b49c     cl_tent.obj
 0003:000034bc       ??_C@_0BO@PGGG@player?1footsteps?1?$CFs?1land1?4wav?$AA@ 0047b4bc     cl_tent.obj
 0003:000034dc       ??_C@_0BC@OHAC@player?1step?$CFd?4wav?$AA@ 0047b4dc     cl_tent.obj
 0003:000034f0       ??_C@_0BB@PPG@player?1fall2?4wav?$AA@ 0047b4f0     cl_tent.obj
 0003:00003504       ??_C@_0BB@OPJJ@player?1fall1?4wav?$AA@ 0047b504     cl_tent.obj
 0003:00003518       ??_C@_0BF@NKOF@weapons?1xpld_wat?4wav?$AA@ 0047b518     cl_tent.obj
 0003:00003530       ??_C@_0BF@CKHB@weapons?1grenlx1a?4wav?$AA@ 0047b530     cl_tent.obj
 0003:00003548       ??_C@_0BF@HJEO@weapons?1rocklx1a?4wav?$AA@ 0047b548     cl_tent.obj
 0003:00003560       ??_C@_0BF@JPPD@weapons?1railgf1a?4wav?$AA@ 0047b560     cl_tent.obj
 0003:00003578       ??_C@_0BB@GOFH@world?1spark7?4wav?$AA@ 0047b578     cl_tent.obj
 0003:0000358c       ??_C@_0BB@MOHC@world?1spark6?4wav?$AA@ 0047b58c     cl_tent.obj
 0003:000035a0       ??_C@_0BB@COBN@world?1spark5?4wav?$AA@ 0047b5a0     cl_tent.obj
 0003:000035b4       ??_C@_0BD@BJLH@weapons?1lashit?4wav?$AA@ 0047b5b4     cl_tent.obj
 0003:000035c8       ??_C@_0BA@HPF@world?1ric?$CFd?4wav?$AA@ 0047b5c8     cl_tent.obj
 0003:000035d8       ??_C@_0P@FFM@proj?1widowbeam?$AA@ 0047b5d8     cl_tent.obj
 0003:000035e8       ??_C@_09LFLO@proj?1beam?$AA@ 0047b5e8     cl_tent.obj
 0003:000035f4       ??_C@_0P@LMFG@proj?1lightning?$AA@ 0047b5f4     cl_tent.obj
 0003:00003604       ??_C@_0BD@OJG@objects?1r_explode2?$AA@ 0047b604     cl_tent.obj
 0003:00003618       ??_C@_0BD@MLCH@items?1armor?1effect?$AA@ 0047b618     cl_tent.obj
 0003:0000362c       ??_C@_0BD@JADH@sprites?1s_bfg2?4sp2?$AA@ 0047b62c     cl_tent.obj
 0003:00003640       ??_C@_0BC@CIEA@objects?1r_explode?$AA@ 0047b640     cl_tent.obj
 0003:00003654       ??_C@_0BG@LFLJ@particles?1explode?4spr?$AA@ 0047b654     cl_tent.obj
 0003:0000366c       ??_C@_0BG@GHPC@monsters?1parasite?1tip?$AA@ 0047b66c     cl_tent.obj
 0003:00003684       ??_C@_0M@IDIA@ctf?1segment?$AA@ 0047b684     cl_tent.obj
 0003:00003690       ??_C@_0BK@LPNI@monsters?1parasite?1segment?$AA@ 0047b690     cl_tent.obj
 0003:000036ac       ??_C@_0O@CFDG@objects?1flash?$AA@ 0047b6ac     cl_tent.obj
 0003:000036bc       ??_C@_0O@NFMN@objects?1smoke?$AA@ 0047b6bc     cl_tent.obj
 0003:000036cc       ??_C@_0BE@FOAD@particles?1smoke?4spr?$AA@ 0047b6cc     cl_tent.obj
 0003:000036e0       ??_C@_0BA@GIF@objects?1explode?$AA@ 0047b6e0     cl_tent.obj
 0003:000036f0       ??_C@_0BD@HFBD@models?1?$CFs?1tris?4md2?$AA@ 0047b6f0     cl_tent.obj
 0003:00003704       ??_C@_0BA@FNIC@no?5fx?5model?5?$CFs?6?$AA@ 0047b704     cl_tent.obj
 0003:00003714       ??_C@_05BION@fx?1?$CFs?$AA@ 0047b714     cl_tent.obj
 0003:0000371c       ??_C@_04BDMG@t?$DN?$CFd?$AA@ 0047b71c     cl_tent.obj
 0003:00003724       ??_C@_0BH@OMGP@CL_ParseTEnt?3?5bad?5type?$AA@ 0047b724     cl_tent.obj
 0003:0000373c       ??_C@_0BB@KGMJ@misc?1bigtele?4wav?$AA@ 0047b73c     cl_tent.obj
 0003:00003750       ??_C@_0BF@FOL@beam?5list?5overflow?$CB?6?$AA@ 0047b750     cl_tent.obj
 0003:00003768       ??_C@_0BB@NDPN@scr_viewsize?$DN100?$AA@ 0047b768     cl_view.obj
 0003:0000377c       ??_C@_0M@GABN@r_drawfps?$DN0?$AA@ 0047b77c     cl_view.obj
 0003:00003788       ??_C@_0P@PJEH@r_showBrush?$DN?91?$AA@ 0047b788     cl_view.obj
 0003:00003798       ??_C@_0N@IJHF@r_surfinfo?$DN0?$AA@ 0047b798     cl_view.obj
 0003:000037a8       ??_C@_0O@EFLN@r_playerpos?$DN0?$AA@ 0047b7a8     cl_view.obj
 0003:000037b8       ??_C@_0BA@DBIK@cl_testlights?$DN0?$AA@ 0047b7b8     cl_view.obj
 0003:000037c8       ??_C@_0BC@MOLA@cl_testentities?$DN0?$AA@ 0047b7c8     cl_view.obj
 0003:000037dc       ??_C@_0P@MIGP@cl_testblend?$DN0?$AA@ 0047b7dc     cl_view.obj
 0003:00003830       ??_C@_04FMJA@tile?$AA@     0047b830     cl_view.obj
 0003:00003838       ??_C@_07NOGN@metal_l?$AA@  0047b838     cl_view.obj
 0003:00003840       ??_C@_06CONN@fabric?$AA@   0047b840     cl_view.obj
 0003:00003848       ??_C@_08HJKO@concrete?$AA@ 0047b848     cl_view.obj
 0003:00003854       ??_C@_09NHKP@AUTOFLARE?$AA@ 0047b854     cl_view.obj
 0003:00003860       ??_C@_08FGHF@SPECULAR?$AA@ 0047b860     cl_view.obj
 0003:0000386c       ??_C@_07ONAA@DIFFUSE?$AA@  0047b86c     cl_view.obj
 0003:00003874       ??_C@_06PEDG@NODRAW?$AA@   0047b874     cl_view.obj
 0003:0000387c       ??_C@_07JNCB@FLOWING?$AA@  0047b87c     cl_view.obj
 0003:00003884       ??_C@_07HJLK@TRANS66?$AA@  0047b884     cl_view.obj
 0003:0000388c       ??_C@_07DFHB@TRANS33?$AA@  0047b88c     cl_view.obj
 0003:00003894       ??_C@_04MNEP@WARP?$AA@     0047b894     cl_view.obj
 0003:0000389c       ??_C@_03IEGK@SKY?$AA@      0047b89c     cl_view.obj
 0003:000038a0       ??_C@_05NIKB@SLICK?$AA@    0047b8a0     cl_view.obj
 0003:000038a8       ??_C@_05FBHK@LIGHT?$AA@    0047b8a8     cl_view.obj
 0003:000038b0       ??_C@_06IJPP@LADDER?$AA@   0047b8b0     cl_view.obj
 0003:000038b8       ??_C@_0M@PFLG@TRANSLUCENT?$AA@ 0047b8b8     cl_view.obj
 0003:000038c4       ??_C@_06GEC@DETAIL?$AA@    0047b8c4     cl_view.obj
 0003:000038cc       ??_C@_0M@KPPG@DEADMONSTER?$AA@ 0047b8cc     cl_view.obj
 0003:000038d8       ??_C@_07JNDM@MONSTER?$AA@  0047b8d8     cl_view.obj
 0003:000038e0       ??_C@_06BPO@ORIGIN?$AA@    0047b8e0     cl_view.obj
 0003:000038e8       ??_C@_0N@DIDI@CURRENT_DOWN?$AA@ 0047b8e8     cl_view.obj
 0003:000038f8       ??_C@_0L@OIPB@CURRENT_UP?$AA@ 0047b8f8     cl_view.obj
 0003:00003904       ??_C@_0M@DKME@CURRENT_270?$AA@ 0047b904     cl_view.obj
 0003:00003910       ??_C@_0M@BIPO@CURRENT_180?$AA@ 0047b910     cl_view.obj
 0003:0000391c       ??_C@_0L@IPNI@CURRENT_90?$AA@ 0047b91c     cl_view.obj
 0003:00003928       ??_C@_09LGED@CURRENT_0?$AA@ 0047b928     cl_view.obj
 0003:00003934       ??_C@_0M@LPOP@MONSTERCLIP?$AA@ 0047b934     cl_view.obj
 0003:00003940       ??_C@_0L@FDOC@PLAYERCLIP?$AA@ 0047b940     cl_view.obj
 0003:0000394c       ??_C@_0L@LPLL@AREAPORTAL?$AA@ 0047b94c     cl_view.obj
 0003:00003958       ??_C@_05PGEK@ALPHA?$AA@    0047b958     cl_view.obj
 0003:00003960       ??_C@_04NEBJ@MIST?$AA@     0047b960     cl_view.obj
 0003:00003968       ??_C@_05EJIN@WATER?$AA@    0047b968     cl_view.obj
 0003:00003970       ??_C@_05LBMA@SLIME?$AA@    0047b970     cl_view.obj
 0003:00003978       ??_C@_04IEEF@LAVA?$AA@     0047b978     cl_view.obj
 0003:00003980       ??_C@_03DLI@AUX?$AA@       0047b980     cl_view.obj
 0003:00003984       ??_C@_06DJMI@WINDOW?$AA@   0047b984     cl_view.obj
 0003:0000398c       ??_C@_05DEEH@SOLID?$AA@    0047b98c     cl_view.obj
 0003:00003994       ??_C@_08JPAH@?$CFf?5?$CFf?5?$CFf?$AA@ 0047b994     cl_view.obj
 0003:000039a0       ??_C@_03EBAN@sky?$AA@      0047b9a0     cl_view.obj
 0003:000039a4       ??_C@_0O@ELIN@client?5?$CFd?3?5?$CFs?$AA@ 0047b9a4     cl_view.obj
 0003:000039b4       ??_C@_08CANB@textures?$AA@ 0047b9b4     cl_view.obj
 0003:000039c0       ??_C@_07DEIN@map?3?5?$CFs?$AA@ 0047b9c0     cl_view.obj
 0003:000039c8       ??_C@_0N@FIG@fx?1railRings?$AA@ 0047b9c8     cl_view.obj
 0003:000039d8       ??_C@_0O@GLFP@fx?1railSpiral?$AA@ 0047b9d8     cl_view.obj
 0003:000039e8       ??_C@_0M@DHAC@fx?1railBeam?$AA@ 0047b9e8     cl_view.obj
 0003:000039f4       ??_C@_0O@BKAO@fx?1colorShell?$AA@ 0047b9f4     cl_view.obj
 0003:00003a04       ??_C@_0L@EKGO@fx?1irModel?$AA@ 0047ba04     cl_view.obj
 0003:00003a10       ??_C@_0BB@KIKN@fx?1disguiseShell?$AA@ 0047ba10     cl_view.obj
 0003:00003a24       ??_C@_0M@GKG@Bad?5fov?3?5?$CFg?$AA@ 0047ba24     cl_view.obj
 0003:00003a30       ??_C@_0BG@EKNO@players?1male?1tris?4md2?$AA@ 0047ba30     cl_view.obj
 0003:00003a48       ??_C@_0O@NGN@pics?1backtile?$AA@ 0047ba48     cl_view.obj
 0003:00003a58       ??_C@_0L@MJLI@model4?3?5?$CFs?$AA@ 0047ba58     cl_view.obj
 0003:00003a64       ??_C@_0L@KJEC@model3?3?5?$CFs?$AA@ 0047ba64     cl_view.obj
 0003:00003a70       ??_C@_0L@JGH@model2?3?5?$CFs?$AA@ 0047ba70     cl_view.obj
 0003:00003a7c       ??_C@_09ODC@model?3?5?$CFs?$AA@ 0047ba7c     cl_view.obj
 0003:00003a88       ??_C@_0BA@JKLA@fx?3?5?$CFX?5?5rfx?3?5?$CFX?$AA@ 0047ba88     cl_view.obj
 0003:00003a98       ??_C@_0BB@LKHC@Origin?3?5?$CFg?5?$CFg?5?$CFg?$AA@ 0047ba98     cl_view.obj
 0003:00003aac       ??_C@_0BB@NAHI@?6Entity?3?6?9?9?9?9?9?9?9?$AA@ 0047baac     cl_view.obj
 0003:00003ac0       ??_C@_0N@BNFC@Material?3?5?$CFs?$AA@ 0047bac0     cl_view.obj
 0003:00003ad0       ??_C@_09DOPH@?$DP?$DP?5bad?5?$DP?$DP?$AA@ 0047bad0     cl_view.obj
 0003:00003adc       ??_C@_05IKIK@SURF_?$AA@    0047badc     cl_view.obj
 0003:00003ae4       ??_C@_09LFIK@Value?3?5?$CFd?$AA@ 0047bae4     cl_view.obj
 0003:00003af0       ??_C@_0M@DHLH@Texture?3?5?$CFs?$AA@ 0047baf0     cl_view.obj
 0003:00003afc       ??_C@_0BD@DLNG@Normal?3?5?$CFg?5?5?$CFg?5?5?$CFg?$AA@ 0047bafc     cl_view.obj
 0003:00003b10       ??_C@_0BC@HOHC@Point?3?5?$CFg?5?5?$CFg?5?5?$CFg?$AA@ 0047bb10     cl_view.obj
 0003:00003b24       ??_C@_0BM@IDDF@Surface?5info?3?6?9?9?9?9?9?9?9?9?9?9?9?9?9?$AA@ 0047bb24     cl_view.obj
 0003:00003b40       ??_C@_0BA@IDHF@brush?5?$CFd?3?5error?$AA@ 0047bb40     cl_view.obj
 0003:00003b50       ??_C@_05NNJG@brush?$AA@    0047bb50     cl_view.obj
 0003:00003b58       ??_C@_0N@NKKB@BrushNum?3?5?$CFd?$AA@ 0047bb58     cl_view.obj
 0003:00003b68       ??_C@_08ODFJ@?$CFsUNK_?$CFX?$AA@ 0047bb68     cl_view.obj
 0003:00003b74       ??_C@_05DGGH@?5?$CFs?$CFs?$AA@ 0047bb74     cl_view.obj
 0003:00003b7c       ??_C@_09KGGB@CONTENTS_?$AA@ 0047bb7c     cl_view.obj
 0003:00003b88       ??_C@_0P@MNKG@CONTENTS_EMPTY?$AA@ 0047bb88     cl_view.obj
 0003:00003b98       ??_C@_08BHEG@?$CIcustom?$CJ?$AA@ 0047bb98     cl_view.obj
 0003:00003ba4       ??_C@_0CA@IPBD@Leaf?3?5?$CFd?0?5cluster?3?5?$CFd?0?5zone?3?5?$CFd?$AA@ 0047bba4     cl_view.obj
 0003:00003bc4       ??_C@_0BL@LAHG@View?5direction?3?5?$CFg?5?5?$CFg?5?5?$CFg?$AA@ 0047bbc4     cl_view.obj
 0003:00003be0       ??_C@_0BI@MGLN@Point?3?5?$CF?40f?5?5?$CF?40f?5?5?$CF?40f?$AA@ 0047bbe0     cl_view.obj
 0003:00003bf8       ??_C@_0CC@BJCE@Player?5position?3?6?9?9?9?9?9?9?9?9?9?9?9?9?9?9?9@ 0047bbf8     cl_view.obj
 0003:00003c1c       ??_C@_0BE@NEIB@DrawBrush?5?$CFd?3?5error?$AA@ 0047bc1c     cl_view.obj
 0003:00003c30       ??_C@_0CA@NEDD@FPS?3?5?$CF?42f?5?5min?3?5?$CF?42f?5?5max?3?5?$CF?42f?$AA@ 0047bc30     cl_view.obj
 0003:00003c50       ??_C@_08FNII@setlight?$AA@ 0047bc50     cl_view.obj
 0003:00003c5c       ??_C@_0CG@JKHJ@Usage?3?5setlight?5?$DMstyle?$DO?5?$DMvalue?$DN0@ 0047bc5c     cl_view.obj
 0003:00003c84       ??_C@_0P@HIIK@bad?5style?3?5?$CFd?6?$AA@ 0047bc84     cl_view.obj
 0003:00003c94       ??_C@_0CN@NEC@Usage?3?5sky?5?$DMbasename?$DO?5?$DMrotate?$DO?5?$DM@ 0047bc94     cl_view.obj
 0003:00003cc4       ??_C@_0BA@MHPJ@con_colorText?$DN1?$AA@ 0047bcc4     console.obj
 0003:00003cd4       ??_C@_0P@IME@con_wordWrap?$DN1?$AA@ 0047bcd4     console.obj
 0003:00003ce4       ??_C@_0BB@FNEL@con_notifyTime?$DN3?$AA@ 0047bce4     console.obj
 0003:00003cfc       ??_C@_0BB@NPBD@0123456789?4?1?$CK?9?$CL?$AN?$AA@ 0047bcfc     console.obj
 0003:00003d10       ??_C@_07BLFM@console?$AA@  0047bd10     console.obj
 0003:00003d18       ??_C@_0M@PGNC@pics?1notify?$AA@ 0047bd18     console.obj
 0003:00003d24       ??_C@_08KJEL@?$CFs?5v4?418?$AA@ 0047bd24     console.obj
 0003:00003d30       ??_C@_0N@NDFJ@pics?1console?$AA@ 0047bd30     console.obj
 0003:00003d40       ??_C@_07BOCA@condump?$AA@  0047bd40     console.obj
 0003:00003d48       ??_C@_05BDJO@clear?$AA@    0047bd48     console.obj
 0003:00003d50       ??_C@_0BL@NJLE@Usage?3?5condump?5?$DMfilename?$DO?6?$AA@ 0047bd50     console.obj
 0003:00003d6c       ??_C@_0BP@LMEF@Console?5text?5was?5dumped?5to?5?$CFs?6?$AA@ 0047bd6c     console.obj
 0003:00003d8c       ??_C@_0M@NHFE@?4?1?$CFs?1?$CFs?4txt?$AA@ 0047bd8c     console.obj
 0003:00003d98       ??_C@_09CJGN@BackSlash?$AA@ 0047bd98     keys.obj
 0003:00003da4       ??_C@_05LCCB@Slash?$AA@    0047bda4     keys.obj
 0003:00003dac       ??_C@_0N@HDIE@RigntBracket?$AA@ 0047bdac     keys.obj
 0003:00003dbc       ??_C@_0M@BANH@LeftBracket?$AA@ 0047bdbc     keys.obj
 0003:00003dc8       ??_C@_06LLNC@Equals?$AA@   0047bdc8     keys.obj
 0003:00003dd0       ??_C@_05JKMB@Minus?$AA@    0047bdd0     keys.obj
 0003:00003dd8       ??_C@_09MOFI@Semicolon?$AA@ 0047bdd8     keys.obj
 0003:00003de4       ??_C@_06NFB@Period?$AA@    0047bde4     keys.obj
 0003:00003dec       ??_C@_05FBEA@Comma?$AA@    0047bdec     keys.obj
 0003:00003df4       ??_C@_09DPKL@PrintScrn?$AA@ 0047bdf4     keys.obj
 0003:00003e00       ??_C@_07IFP@ScrLock?$AA@   0047be00     keys.obj
 0003:00003e08       ??_C@_07EFCM@NumLock?$AA@  0047be08     keys.obj
 0003:00003e10       ??_C@_08PJIL@CapsLock?$AA@ 0047be10     keys.obj
 0003:00003e1c       ??_C@_05PFIH@Pause?$AA@    0047be1c     keys.obj
 0003:00003e24       ??_C@_05OOJH@Aux32?$AA@    0047be24     keys.obj
 0003:00003e2c       ??_C@_05BBCO@Aux31?$AA@    0047be2c     keys.obj
 0003:00003e34       ??_C@_05LLLJ@Aux30?$AA@    0047be34     keys.obj
 0003:00003e3c       ??_C@_05FDDM@Aux29?$AA@    0047be3c     keys.obj
 0003:00003e44       ??_C@_05PJKL@Aux28?$AA@    0047be44     keys.obj
 0003:00003e4c       ??_C@_05PIPG@Aux27?$AA@    0047be4c     keys.obj
 0003:00003e54       ??_C@_05FCGB@Aux26?$AA@    0047be54     keys.obj
 0003:00003e5c       ??_C@_05KNNI@Aux25?$AA@    0047be5c     keys.obj
 0003:00003e64       ??_C@_05HEP@Aux24?$AA@     0047be64     keys.obj
 0003:00003e6c       ??_C@_05FCKK@Aux23?$AA@    0047be6c     keys.obj
 0003:00003e74       ??_C@_05PIDN@Aux22?$AA@    0047be74     keys.obj
 0003:00003e7c       ??_C@_05HIE@Aux21?$AA@     0047be7c     keys.obj
 0003:00003e84       ??_C@_05KNBD@Aux20?$AA@    0047be84     keys.obj
 0003:00003e8c       ??_C@_05GIMD@Aux19?$AA@    0047be8c     keys.obj
 0003:00003e94       ??_C@_05MCFE@Aux18?$AA@    0047be94     keys.obj
 0003:00003e9c       ??_C@_05MDAJ@Aux17?$AA@    0047be9c     keys.obj
 0003:00003ea4       ??_C@_05GJJO@Aux16?$AA@    0047bea4     keys.obj
 0003:00003eac       ??_C@_05JGCH@Aux15?$AA@    0047beac     keys.obj
 0003:00003eb4       ??_C@_05DMLA@Aux14?$AA@    0047beb4     keys.obj
 0003:00003ebc       ??_C@_05GJFF@Aux13?$AA@    0047bebc     keys.obj
 0003:00003ec4       ??_C@_05MDMC@Aux12?$AA@    0047bec4     keys.obj
 0003:00003ecc       ??_C@_05DMHL@Aux11?$AA@    0047becc     keys.obj
 0003:00003ed4       ??_C@_05JGOM@Aux10?$AA@    0047bed4     keys.obj
 0003:00003edc       ??_C@_04CIDL@Aux9?$AA@     0047bedc     keys.obj
 0003:00003ee4       ??_C@_04ICKM@Aux8?$AA@     0047bee4     keys.obj
 0003:00003eec       ??_C@_04IDPB@Aux7?$AA@     0047beec     keys.obj
 0003:00003ef4       ??_C@_04CJGG@Aux6?$AA@     0047bef4     keys.obj
 0003:00003efc       ??_C@_04NGNP@Aux5?$AA@     0047befc     keys.obj
 0003:00003f04       ??_C@_04HMEI@Aux4?$AA@     0047bf04     keys.obj
 0003:00003f0c       ??_C@_04CJKN@Aux3?$AA@     0047bf0c     keys.obj
 0003:00003f14       ??_C@_04IDDK@Aux2?$AA@     0047bf14     keys.obj
 0003:00003f1c       ??_C@_04HMID@Aux1?$AA@     0047bf1c     keys.obj
 0003:00003f24       ??_C@_04DKHG@Joy4?$AA@     0047bf24     keys.obj
 0003:00003f2c       ??_C@_04GPJD@Joy3?$AA@     0047bf2c     keys.obj
 0003:00003f34       ??_C@_04MFAE@Joy2?$AA@     0047bf34     keys.obj
 0003:00003f3c       ??_C@_04DKLN@Joy1?$AA@     0047bf3c     keys.obj
 0003:00003f44       ??_C@_0L@PIMN@MWheelDown?$AA@ 0047bf44     keys.obj
 0003:00003f50       ??_C@_08HIMM@MWheelUp?$AA@ 0047bf50     keys.obj
 0003:00003f5c       ??_C@_06PNAL@Mouse8?$AA@   0047bf5c     keys.obj
 0003:00003f64       ??_C@_06PMFG@Mouse7?$AA@   0047bf64     keys.obj
 0003:00003f6c       ??_C@_06FGMB@Mouse6?$AA@   0047bf6c     keys.obj
 0003:00003f74       ??_C@_06KJHI@Mouse5?$AA@   0047bf74     keys.obj
 0003:00003f7c       ??_C@_06DOP@Mouse4?$AA@    0047bf7c     keys.obj
 0003:00003f84       ??_C@_06FGAK@Mouse3?$AA@   0047bf84     keys.obj
 0003:00003f8c       ??_C@_06PMJN@Mouse2?$AA@   0047bf8c     keys.obj
 0003:00003f94       ??_C@_06DCE@Mouse1?$AA@    0047bf94     keys.obj
 0003:00003f9c       ??_C@_08BNGD@KP_Enter?$AA@ 0047bf9c     keys.obj
 0003:00003fa8       ??_C@_07BMCC@KP_Plus?$AA@  0047bfa8     keys.obj
 0003:00003fb0       ??_C@_08DDDL@KP_Minus?$AA@ 0047bfb0     keys.obj
 0003:00003fbc       ??_C@_07FIJP@KP_Star?$AA@  0047bfbc     keys.obj
 0003:00003fc4       ??_C@_08BLNL@KP_Slash?$AA@ 0047bfc4     keys.obj
 0003:00003fd0       ??_C@_06FGKA@KP_Del?$AA@   0047bfd0     keys.obj
 0003:00003fd8       ??_C@_07FAEH@KP_PgUp?$AA@  0047bfd8     keys.obj
 0003:00003fe0       ??_C@_0L@GMAI@KP_UpArrow?$AA@ 0047bfe0     keys.obj
 0003:00003fec       ??_C@_07BMFH@KP_Home?$AA@  0047bfec     keys.obj
 0003:00003ff4       ??_C@_0O@NKEI@KP_RightArrow?$AA@ 0047bff4     keys.obj
 0003:00004004       ??_C@_04FKHF@KP_5?$AA@     0047c004     keys.obj
 0003:0000400c       ??_C@_0N@HAMA@KP_LeftArrow?$AA@ 0047c00c     keys.obj
 0003:0000401c       ??_C@_07COPO@KP_PgDn?$AA@  0047c01c     keys.obj
 0003:00004024       ??_C@_0N@KICE@KP_DownArrow?$AA@ 0047c024     keys.obj
 0003:00004034       ??_C@_06NOKF@KP_End?$AA@   0047c034     keys.obj
 0003:0000403c       ??_C@_06PKNP@KP_Ins?$AA@   0047c03c     keys.obj
 0003:00004044       ??_C@_03HPMG@End?$AA@      0047c044     keys.obj
 0003:00004048       ??_C@_04OGPG@Home?$AA@     0047c048     keys.obj
 0003:00004050       ??_C@_04KKOG@PgUp?$AA@     0047c050     keys.obj
 0003:00004058       ??_C@_04NEFP@PgDn?$AA@     0047c058     keys.obj
 0003:00004060       ??_C@_03PHMD@Del?$AA@      0047c060     keys.obj
 0003:00004064       ??_C@_03FLLM@Ins?$AA@      0047c064     keys.obj
 0003:00004068       ??_C@_03KKLP@F24?$AA@      0047c068     keys.obj
 0003:0000406c       ??_C@_03PPFK@F23?$AA@      0047c06c     keys.obj
 0003:00004070       ??_C@_03FFMN@F22?$AA@      0047c070     keys.obj
 0003:00004074       ??_C@_03KKHE@F21?$AA@      0047c074     keys.obj
 0003:00004078       ??_C@_03OD@F20?$AA@        0047c078     keys.obj
 0003:0000407c       ??_C@_03MFDD@F19?$AA@      0047c07c     keys.obj
 0003:00004080       ??_C@_03GPKE@F18?$AA@      0047c080     keys.obj
 0003:00004084       ??_C@_03GOPJ@F17?$AA@      0047c084     keys.obj
 0003:00004088       ??_C@_03MEGO@F16?$AA@      0047c088     keys.obj
 0003:0000408c       ??_C@_03DLNH@F15?$AA@      0047c08c     keys.obj
 0003:00004090       ??_C@_03JBEA@F14?$AA@      0047c090     keys.obj
 0003:00004094       ??_C@_03MEKF@F13?$AA@      0047c094     keys.obj
 0003:00004098       ??_C@_03GODC@F12?$AA@      0047c098     keys.obj
 0003:0000409c       ??_C@_03JBIL@F11?$AA@      0047c09c     keys.obj
 0003:000040a0       ??_C@_03DLBM@F10?$AA@      0047c0a0     keys.obj
 0003:000040a4       ??_C@_02NIOF@F9?$AA@       0047c0a4     keys.obj
 0003:000040a8       ??_C@_02HCHC@F8?$AA@       0047c0a8     keys.obj
 0003:000040ac       ??_C@_02HDCP@F7?$AA@       0047c0ac     keys.obj
 0003:000040b0       ??_C@_02NJLI@F6?$AA@       0047c0b0     keys.obj
 0003:000040b4       ??_C@_02CGAB@F5?$AA@       0047c0b4     keys.obj
 0003:000040b8       ??_C@_02IMJG@F4?$AA@       0047c0b8     keys.obj
 0003:000040bc       ??_C@_02NJHD@F3?$AA@       0047c0bc     keys.obj
 0003:000040c0       ??_C@_02HDOE@F2?$AA@       0047c0c0     keys.obj
 0003:000040c4       ??_C@_02IMFN@F1?$AA@       0047c0c4     keys.obj
 0003:000040c8       ??_C@_05MGOB@Shift?$AA@    0047c0c8     keys.obj
 0003:000040d0       ??_C@_05OPLI@RCtrl?$AA@    0047c0d0     keys.obj
 0003:000040d8       ??_C@_04KEPD@Ctrl?$AA@     0047c0d8     keys.obj
 0003:000040e0       ??_C@_04PILJ@RAlt?$AA@     0047c0e0     keys.obj
 0003:000040e8       ??_C@_03LDLJ@Alt?$AA@      0047c0e8     keys.obj
 0003:000040ec       ??_C@_0L@JHDN@RightArrow?$AA@ 0047c0ec     keys.obj
 0003:000040f8       ??_C@_09FOP@LeftArrow?$AA@ 0047c0f8     keys.obj
 0003:00004104       ??_C@_09NNAL@DownArrow?$AA@ 0047c104     keys.obj
 0003:00004110       ??_C@_07PELG@UpArrow?$AA@  0047c110     keys.obj
 0003:00004118       ??_C@_09PNEO@BackSpace?$AA@ 0047c118     keys.obj
 0003:00004124       ??_C@_05GGAC@Space?$AA@    0047c124     keys.obj
 0003:0000412c       ??_C@_06KCAA@Escape?$AA@   0047c12c     keys.obj
 0003:00004134       ??_C@_05LEJJ@Enter?$AA@    0047c134     keys.obj
 0003:0000413c       ??_C@_03CHMJ@Tab?$AA@      0047c13c     keys.obj
 0003:00004140       ??_C@_0BD@NPOJ@?$FO1?$DMUNKNOWN?5KEYNUM?$DO?$AA@ 0047c140     keys.obj
 0003:00004154       ??_C@_04JLLN@?$CFs?$CFc?$AA@ 0047c154     keys.obj
 0003:0000415c       ??_C@_09FNEH@?$CFsUnk?$CF02X?$AA@ 0047c15c     keys.obj
 0003:00004168       ??_C@_05PMEF@Ctrl?$CL?$AA@ 0047c168     keys.obj
 0003:00004170       ??_C@_04NIFC@Alt?$CL?$AA@  0047c170     keys.obj
 0003:00004178       ??_C@_0BC@HGGL@?$FO1?$DMKEY?5NOT?5FOUND?$DO?$AA@ 0047c178     keys.obj
 0003:0000418c       ??_C@_03CENI@?$CFs?5?$AA@  0047c18c     keys.obj
 0003:00004190       ??_C@_06BGHK@?$CFs?5?$CFs?5?$AA@ 0047c190     keys.obj
 0003:00004198       ??_C@_04JBBA@?$CC?$CFs?$CC?$AA@ 0047c198     keys.obj
 0003:000041a0       ??_C@_06KMHK@?$CFs?1?$CK?$CFs?$AA@ 0047c1a0     keys.obj
 0003:000041a8       ??_C@_02OOND@?4?4?$AA@     0047c1a8     keys.obj
 0003:000041ac       ??_C@_04PIAG@?4dm2?$AA@    0047c1ac     keys.obj
 0003:000041b4       ??_C@_05IECP@demos?$AA@    0047c1b4     keys.obj
 0003:000041bc       ??_C@_07KKKB@demomap?$AA@  0047c1bc     keys.obj
 0003:000041c4       ??_C@_04EFJD@maps?$AA@     0047c1c4     keys.obj
 0003:000041cc       ??_C@_03HKIL@map?$AA@      0047c1cc     keys.obj
 0003:000041d0       ??_C@_05JKGE@?$CFs?5?$CFs?$AA@ 0047c1d0     keys.obj
 0003:000041d8       ??_C@_05CHFJ@?$FN?1?$CFs?6?$AA@ 0047c1d8     keys.obj
 0003:000041e0       ??_C@_0L@FG@bind?5?$CFs?5?$CFs?$AA@ 0047c1e0     keys.obj
 0003:000041ec       ??_C@_04FBJP@bind?$AA@     0047c1ec     keys.obj
 0003:000041f4       ??_C@_0M@NPEB@alias?5?$CFs?5?$CFs?$AA@ 0047c1f4     keys.obj
 0003:00004200       ??_C@_05CBKM@alias?$AA@    0047c200     keys.obj
 0003:00004208       ??_C@_05PIOP@ctrl?$CL?$AA@ 0047c208     keys.obj
 0003:00004210       ??_C@_04HCBA@alt?$CL?$AA@  0047c210     keys.obj
 0003:00004218       ??_C@_0O@PPPM@?5?5?$FO2?$CFc?$FO7?5?5?$CFs?6?$AA@ 0047c218     keys.obj
 0003:00004228       ??_C@_0M@CDJG@bind?5?$CFs?5?$CFs?6?$AA@ 0047c228     keys.obj
 0003:00004234       ??_C@_08KMAH@bindlist?$AA@ 0047c234     keys.obj
 0003:00004240       ??_C@_09KOHL@unbindall?$AA@ 0047c240     keys.obj
 0003:0000424c       ??_C@_06NILL@unbind?$AA@   0047c24c     keys.obj
 0003:00004254       ??_C@_0BK@ECNJ@Usage?3?5unbind?5?$DMkey?5mask?$DO?6?$AA@ 0047c254     keys.obj
 0003:00004270       ??_C@_0BI@GELF@?$CC?$CFs?$CC?5isn?8t?5a?5valid?5key?6?$AA@ 0047c270     keys.obj
 0003:00004288       ??_C@_0BD@FLKM@?$CFd?5key?$CIs?$CJ?5unbound?6?$AA@ 0047c288     keys.obj
 0003:0000429c       ??_C@_0L@OPEO@unbind?5?$CFs?6?$AA@ 0047c29c     keys.obj
 0003:000042a8       ??_C@_0BN@OCDO@Usage?3?5bind?5?$DMkey?$DO?5?$FLcommand?$FN?6?$AA@ 0047c2a8     keys.obj
 0003:000042c8       ??_C@_0BD@DLNG@?$CC?$CFs?$CC?5is?5not?5bound?6?$AA@ 0047c2c8     keys.obj
 0003:000042dc       ??_C@_0N@DLB@?$CC?$CFs?$CC?5?$DN?5?$CC?$CFs?$CC?6?$AA@ 0047c2dc     keys.obj
 0003:000042ec       ??_C@_0CB@GLPL@Usage?3?5bindlist?5?$FL?$DMaction?5mask?$DO?$FN?6@ 0047c2ec     keys.obj
 0003:00004310       ??_C@_0BE@PFHH@?5?5?5?5?$CFd?5binds?5found?6?$AA@ 0047c310     keys.obj
 0003:00004324       ??_C@_0N@NGMA@?$FO3?$CF?99s?5?$FO7?$CFs?6?$AA@ 0047c324     keys.obj
 0003:00004334       ??_C@_0BL@KKPI@?9?9?9key?9?9?9?9action?9?9?9?9?9?9?9?9?9?6?$AA@ 0047c334     keys.obj
 0003:00004350       ??_C@_09CIGL@?$CFs?5?$CFd?5?$CFd?6?$AA@ 0047c350     keys.obj
 0003:0000435c       ??_C@_0L@BOPL@?9?$CFs?5?$CFd?5?$CFd?6?$AA@ 0047c35c     keys.obj
 0003:00004368       ??_C@_0BE@HLJC@Bad?5cls?4key_dest?5?$CFd?$AA@ 0047c368     keys.obj
 0003:0000437c       ??_C@_0N@GBFE@cmd?5putaway?6?$AA@ 0047c37c     keys.obj
 0003:0000438c       ?menu_in_sound@@3PBDB      0047c38c     menu.obj
 0003:00004390       ?menu_move_sound@@3PBDB    0047c390     menu.obj
 0003:00004394       ?menu_out_sound@@3PBDB     0047c394     menu.obj
 0003:000043a4       ?menuNames@menuMain_t@@2PAPBDA 0047c3a4     menu.obj
 0003:000043f8       ??_C@_0N@OGEE@User?5defined?$AA@ 0047c3f8     menu.obj
 0003:00004408       ??_C@_06FHHN@T1?1LAN?$AA@  0047c408     menu.obj
 0003:00004410       ??_C@_0BA@NKHA@Dual?5ISDN?1Cable?$AA@ 0047c410     menu.obj
 0003:00004420       ??_C@_0M@CKMP@Single?5ISDN?$AA@ 0047c420     menu.obj
 0003:0000442c       ??_C@_0L@DKAE@33?46?5Modem?$AA@ 0047c42c     menu.obj
 0003:00004438       ??_C@_0L@HCIP@28?48?5Modem?$AA@ 0047c438     menu.obj
 0003:00004444       ??_C@_05HENO@video?$AA@    0047c444     menu.obj
 0003:0000444c       ??_C@_07MHLD@options?$AA@  0047c44c     menu.obj
 0003:00004454       ??_C@_0M@COLJ@multiplayer?$AA@ 0047c454     menu.obj
 0003:00004460       ??_C@_03LGKI@yes?$AA@      0047c460     menu.obj
 0003:00004464       ??_C@_02ELCB@no?$AA@       0047c464     menu.obj
 0003:00004468       ??_C@_0P@DGIH@misc?1menu3?4wav?$AA@ 0047c468     menu.obj
 0003:00004478       ??_C@_0P@JGKC@misc?1menu2?4wav?$AA@ 0047c478     menu.obj
 0003:00004488       ??_C@_0P@HGMN@misc?1menu1?4wav?$AA@ 0047c488     menu.obj
 0003:00004498       ??_C@_0BB@LFBB@pics?1m_main_logo?$AA@ 0047c498     menu.obj
 0003:000044ac       ??_C@_0BD@BLGH@pics?1m_main_plaque?$AA@ 0047c4ac     menu.obj
 0003:000044c0       ??_C@_0O@NCDK@pics?1m_cursor?$AA@ 0047c4c0     menu.obj
 0003:000044d0       ??_C@_0BB@MHLH@pics?1m_main_?$CFs?$CFs?$AA@ 0047c4d0     menu.obj
 0003:000044e4       ??_C@_04PLJH@_sel?$AA@     0047c4e4     menu.obj
 0003:000044ec       ??_C@_0P@HDDE@pics?1m_main_?$CFs?$AA@ 0047c4ec     menu.obj
 0003:000044fc       ??_C@_08EBHL@menu_?$CFs?6?$AA@ 0047c4fc     menu.obj
 0003:00004508       ??_C@_0BC@IDMK@menu_playerconfig?$AA@ 0047c508     menu.obj
 0003:0000451c       ??_C@_0N@KEJN@player?5setup?$AA@ 0047c51c     menu.obj
 0003:0000452c       ??_C@_0BF@DLIO@disconnect?$DLmenu_main?$AA@ 0047c52c     menu.obj
 0003:00004544       ??_C@_0BB@POMC@menu_startserver?$AA@ 0047c544     menu.obj
 0003:00004558       ??_C@_0BF@KNCM@start?5network?5server?$AA@ 0047c558     menu.obj
 0003:00004570       ??_C@_0BA@MHIP@menu_joinserver?$AA@ 0047c570     menu.obj
 0003:00004580       ??_C@_0BE@LOFH@join?5network?5server?$AA@ 0047c580     menu.obj
 0003:00004594       ??_C@_0CE@JBIB@enter?5to?5change?0?5backspace?5to?5cl@ 0047c594     menu.obj
 0003:000045b8       ??_C@_09EDPF@binds?4lst?$AA@ 0047c5b8     menu.obj
 0003:000045c4       ??_C@_0L@KFLF@?$CFs?5or?5?$CFs?$CFs?$AA@ 0047c5c4     menu.obj
 0003:000045d0       ??_C@_04HKIG@?5?4?4?4?$AA@ 0047c5d0     menu.obj
 0003:000045d8       ??_C@_0O@DGOB@?$FO1?$CInot?5bound?$CJ?$AA@ 0047c5d8     menu.obj
 0003:000045e8       ??_C@_0CG@FAHM@press?5a?5key?5or?5button?5for?5this?5a@ 0047c5e8     menu.obj
 0003:00004610       ??_C@_0BA@HGCM@max?5performance?$AA@ 0047c610     menu.obj
 0003:00004620       ??_C@_0BC@PPOD@max?5compatibility?$AA@ 0047c620     menu.obj
 0003:00004634       ??_C@_06KADK@44?5khz?$AA@  0047c634     menu.obj
 0003:0000463c       ??_C@_06BNCF@22?5khz?$AA@  0047c63c     menu.obj
 0003:00004644       ??_C@_06EDKK@11?5khz?$AA@  0047c644     menu.obj
 0003:0000464c       ??_C@_07IHHA@enabled?$AA@  0047c64c     menu.obj
 0003:00004654       ??_C@_08FDGF@disabled?$AA@ 0047c654     menu.obj
 0003:00004660       ??_C@_0BB@JHPD@?$FO1reset?5defaults?$AA@ 0047c660     menu.obj
 0003:00004674       ??_C@_09NOON@menu_keys?$AA@ 0047c674     menu.obj
 0003:00004680       ??_C@_0BD@CAPK@customize?5controls?$AA@ 0047c680     menu.obj
 0003:00004694       ??_C@_0N@DAJN@use?5joystick?$AA@ 0047c694     menu.obj
 0003:000046a4       ??_C@_0BA@CPP@crosshair?5color?$AA@ 0047c6a4     menu.obj
 0003:000046b4       ??_C@_0BA@DCNA@crosshair?5shape?$AA@ 0047c6b4     menu.obj
 0003:000046c4       ??_C@_0L@NGMM@always?5run?$AA@ 0047c6c4     menu.obj
 0003:000046d0       ??_C@_0N@HDIH@invert?5mouse?$AA@ 0047c6d0     menu.obj
 0003:000046e0       ??_C@_0M@PPMI@mouse?5speed?$AA@ 0047c6e0     menu.obj
 0003:000046ec       ?compatibility_items@?1??Init@optionsMenu_t@@UAE_NXZ@4PAPBDA 0047c6ec     menu.obj
 0003:000046f8       ??_C@_0BE@GDGM@sound?5compatibility?$AA@ 0047c6f8     menu.obj
 0003:0000470c       ??_C@_09HPMN@s_primary?$AA@ 0047c70c     menu.obj
 0003:00004718       ??_C@_0P@GGIE@reverse?5stereo?$AA@ 0047c718     menu.obj
 0003:00004728       ??_C@_0M@EAAA@8?5bit?5sound?$AA@ 0047c728     menu.obj
 0003:00004734       ?s_khz_items@?1??Init@optionsMenu_t@@UAE_NXZ@4PAPBDA 0047c734     menu.obj
 0003:00004744       ??_C@_0O@FCMP@sound?5quality?$AA@ 0047c744     menu.obj
 0003:00004754       ?cd_music_items@?1??Init@optionsMenu_t@@UAE_NXZ@4PAPBDA 0047c754     menu.obj
 0003:00004760       ??_C@_08ILMK@CD?5music?$AA@ 0047c760     menu.obj
 0003:0000476c       ??_C@_0P@EHL@effects?5volume?$AA@ 0047c76c     menu.obj
 0003:0000477c       ??_C@_0P@ODNO@crosshairColor?$AA@ 0047c77c     menu.obj
 0003:0000478c       ??_C@_0M@JGHL@in_joystick?$AA@ 0047c78c     menu.obj
 0003:00004798       ??_C@_06HIKK@cl_run?$AA@   0047c798     menu.obj
 0003:000047a0       ??_C@_0M@CKB@sensitivity?$AA@ 0047c7a0     menu.obj
 0003:000047ac       ??_C@_08JLHJ@m_invert?$AA@ 0047c7ac     menu.obj
 0003:000047b8       ??_C@_08POHF@s_volume?$AA@ 0047c7b8     menu.obj
 0003:000047c4       ??_C@_07BPFK@cd_nocd?$AA@  0047c7c4     menu.obj
 0003:000047cc       ??_C@_0BB@KJKE@s_reverse_stereo?$AA@ 0047c7cc     menu.obj
 0003:000047e0       ??_C@_0N@BJNB@s_loadas8bit?$AA@ 0047c7e0     menu.obj
 0003:000047f0       ??_C@_0BC@LCK@exec?5default?4cfg?6?$AA@ 0047c7f0     menu.obj
 0003:00004804       ??_C@_0BD@KJEP@please?5be?5patient?4?$AA@ 0047c804     menu.obj
 0003:00004818       ??_C@_0BO@LNLI@could?5take?5up?5to?5a?5minute?0?5so?$AA@ 0047c818     menu.obj
 0003:00004838       ??_C@_0CC@BPKH@Restarting?5the?5sound?5system?4?5Thi@ 0047c838     menu.obj
 0003:0000485c       ??_C@_08LCMG@?$FO1?$CInone?$CJ?$AA@ 0047c85c     menu.obj
 0003:00004868       ??_C@_07ECN@credits?$AA@   0047c868     menu.obj
 0003:00004870       ??_C@_0N@JGCC@menu_credits?$AA@ 0047c870     menu.obj
 0003:00004880       ??_C@_0O@LJOP@menu_savegame?$AA@ 0047c880     menu.obj
 0003:00004890       ??_C@_09HNCJ@save?5game?$AA@ 0047c890     menu.obj
 0003:0000489c       ??_C@_0O@DCM@menu_loadgame?$AA@ 0047c89c     menu.obj
 0003:000048ac       ??_C@_09EAJD@load?5game?$AA@ 0047c8ac     menu.obj
 0003:000048b8       ??_C@_04CEEJ@hard?$AA@     0047c8b8     menu.obj
 0003:000048c0       ??_C@_06LDM@medium?$AA@    0047c8c0     menu.obj
 0003:000048c8       ??_C@_04FFGK@easy?$AA@     0047c8c8     menu.obj
 0003:000048d0       ??_C@_0BJ@HFON@killserver?6wait?6newgame?6?$AA@ 0047c8d0     menu.obj
 0003:000048ec       ??_C@_09IDKD@gamerules?$AA@ 0047c8ec     menu.obj
 0003:000048f8       ??_C@_04INDM@coop?$AA@     0047c8f8     menu.obj
 0003:00004900       ??_C@_0L@IKBP@deathmatch?$AA@ 0047c900     menu.obj
 0003:0000490c       ??_C@_05MIHE@skill?$AA@    0047c90c     menu.obj
 0003:00004914       ??_C@_01FBAH@1?$AA@        0047c914     menu.obj
 0003:00004918       ??_C@_01KOLO@2?$AA@        0047c918     menu.obj
 0003:0000491c       ??_C@_09COOI@load_game?$AA@ 0047c91c     menu.obj
 0003:00004928       ??_C@_09BDFC@save_game?$AA@ 0047c928     menu.obj
 0003:00004934       ??_C@_0BB@PACH@save?1save?$CFd?1shot?$AA@ 0047c934     menu.obj
 0003:00004948       ??_C@_07KIGE@?$DMEMPTY?$DO?$AA@ 0047c948     menu.obj
 0003:00004950       ??_C@_0BM@EIFI@?4?1?$CFs?1save?1save?$CFd?1server?4ssv?$AA@ 0047c950     menu.obj
 0003:0000496c       ??_C@_0N@CFFO@load?5save?$CFd?6?$AA@ 0047c96c     menu.obj
 0003:0000497c       ??_C@_0N@CPEK@save?5save?$CFd?6?$AA@ 0047c97c     menu.obj
 0003:0000498c       ??_C@_0BD@CJGK@search?5for?5servers?$AA@ 0047c98c     menu.obj
 0003:000049a0       ??_C@_0BB@MIJO@menu_addressbook?$AA@ 0047c9a0     menu.obj
 0003:000049b4       ??_C@_0N@KDGA@address?5book?$AA@ 0047c9b4     menu.obj
 0003:000049c4       ??_C@_0BH@EHAO@press?5ENTER?5to?5connect?$AA@ 0047c9c4     menu.obj
 0003:000049dc       ??_C@_0M@KOPI@?$DMno?5server?$DO?$AA@ 0047c9dc     menu.obj
 0003:000049e8       ??_C@_0O@IEPF@connect?5to?4?4?4?$AA@ 0047c9e8     menu.obj
 0003:000049f8       ??_C@_0M@GJHD@join_server?$AA@ 0047c9f8     menu.obj
 0003:00004a04       ??_C@_0M@HMCF@connect?5?$CFs?6?$AA@ 0047ca04     menu.obj
 0003:00004a10       ??_C@_0CC@IHBN@Searching?5for?5local?5servers?0?5thi@ 0047ca10     menu.obj
 0003:00004a34       ??_C@_03GFNH@tag?$AA@      0047ca34     menu.obj
 0003:00004a38       ??_C@_0M@FDIE@cooperative?$AA@ 0047ca38     menu.obj
 0003:00004a44       ??_C@_05PKJE@begin?$AA@    0047ca44     menu.obj
 0003:00004a4c       ??_C@_0O@CMJG@menu_dmbrowse?$AA@ 0047ca4c     menu.obj
 0003:00004a5c       ??_C@_0M@INKA@browse?5maps?$AA@ 0047ca5c     menu.obj
 0003:00004a68       ??_C@_0BB@JIPI@deathmatch?5flags?$AA@ 0047ca68     menu.obj
 0003:00004a7c       ??_C@_08NNNB@hostname?$AA@ 0047ca7c     menu.obj
 0003:00004a88       ??_C@_01KPCI@8?$AA@        0047ca88     menu.obj
 0003:00004a8c       ??_C@_0M@HNOE@max?5players?$AA@ 0047ca8c     menu.obj
 0003:00004a98       ??_C@_0L@HOE@frag?5limit?$AA@ 0047ca98     menu.obj
 0003:00004aa4       ??_C@_09DPJO@fraglimit?$AA@ 0047caa4     menu.obj
 0003:00004ab0       ??_C@_0N@CIAO@0?5?$DN?5no?5limit?$AA@ 0047cab0     menu.obj
 0003:00004ac0       ??_C@_09GBNJ@timelimit?$AA@ 0047cac0     menu.obj
 0003:00004acc       ??_C@_0L@KILK@time?5limit?$AA@ 0047cacc     menu.obj
 0003:00004ad8       ?dm_coop_names@?1??Init@startserverMenu_t@@UAE_NXZ@4PAPBDA 0047cad8     menu.obj
 0003:00004ae4       ?dm_coop_names_rogue@?1??Init@startserverMenu_t@@UAE_NXZ@4PAPBDA 0047cae4     menu.obj
 0003:00004af4       ??_C@_05NJJD@rules?$AA@    0047caf4     menu.obj
 0003:00004afc       ??_C@_0M@IFFP@initial?5map?$AA@ 0047cafc     menu.obj
 0003:00004b08       ??_C@_05OMCJ@?$CFs?6?$CFs?$AA@ 0047cb08     menu.obj
 0003:00004b10       ??_C@_0BI@OHHO@Couldn?8t?5find?5maps?4lst?6?$AA@ 0047cb10     menu.obj
 0003:00004b28       ??_C@_08INBG@maps?4lst?$AA@ 0047cb28     menu.obj
 0003:00004b34       ??_C@_0O@HOHF@?4?1?$CFs?1maps?4lst?$AA@ 0047cb34     menu.obj
 0003:00004b44       ??_C@_0BE@OPMB@N?1A?5for?5cooperative?$AA@ 0047cb44     menu.obj
 0003:00004b58       ??_C@_01FBMM@4?$AA@        0047cb58     menu.obj
 0003:00004b5c       ??_C@_0BK@PAEC@4?5maximum?5for?5cooperative?$AA@ 0047cb5c     menu.obj
 0003:00004b78       ??_C@_07MFI@map?5?$CFs?6?$AA@ 0047cb78     menu.obj
 0003:00004b80       ??_C@_0BC@MGDF@gamemap?5?$CC?$CK?$CFs$?$CFs?$CC?6?$AA@ 0047cb80     menu.obj
 0003:00004b94       ??_C@_0M@PFMJ@disconnect?6?$AA@ 0047cb94     menu.obj
 0003:00004ba0       ??_C@_05IIAE@start?$AA@    0047cba0     menu.obj
 0003:00004ba8       ??_C@_09LOGP@unitstart?$AA@ 0047cba8     menu.obj
 0003:00004bb4       ??_C@_08OEFI@bosstart?$AA@ 0047cbb4     menu.obj
 0003:00004bc0       ??_C@_05MNF@boss1?$AA@     0047cbc0     menu.obj
 0003:00004bc8       ??_C@_05FFHM@city1?$AA@    0047cbc8     menu.obj
 0003:00004bd0       ??_C@_07HOML@hangar1?$AA@  0047cbd0     menu.obj
 0003:00004bd8       ??_C@_06HPEJ@bstart?$AA@   0047cbd8     menu.obj
 0003:00004be0       ??_C@_06CDGP@biggun?$AA@   0047cbe0     menu.obj
 0003:00004be8       ??_C@_06OAL@pstart?$AA@    0047cbe8     menu.obj
 0003:00004bf0       ??_C@_06PEG@power1?$AA@    0047cbf0     menu.obj
 0003:00004bf8       ??_C@_05DJAD@fact1?$AA@    0047cbf8     menu.obj
 0003:00004c00       ??_C@_06HFFP@mintro?$AA@   0047cc00     menu.obj
 0003:00004c08       ??_C@_05ENKO@bunk1?$AA@    0047cc08     menu.obj
 0003:00004c10       ??_C@_08FJAL@by?5model?$AA@ 0047cc10     menu.obj
 0003:00004c1c       ??_C@_07HFPB@by?5skin?$AA@ 0047cc1c     menu.obj
 0003:00004c24       ??_C@_0P@EADO@remove?5spheres?$AA@ 0047cc24     menu.obj
 0003:00004c34       ??_C@_0BD@OLCO@2x?14x?5stacking?5off?$AA@ 0047cc34     menu.obj
 0003:00004c48       ??_C@_0N@LPPI@remove?5nukes?$AA@ 0047cc48     menu.obj
 0003:00004c58       ??_C@_0N@KPCC@remove?5mines?$AA@ 0047cc58     menu.obj
 0003:00004c68       ??_C@_0O@CFML@friendly?5fire?$AA@ 0047cc68     menu.obj
 0003:00004c78       ??_C@_09NCLB@quad?5drop?$AA@ 0047cc78     menu.obj
 0003:00004c84       ??_C@_09GHAH@fixed?5FOV?$AA@ 0047cc84     menu.obj
 0003:00004c90       ??_C@_0O@IGHH@infinite?5ammo?$AA@ 0047cc90     menu.obj
 0003:00004ca0       ??_C@_0L@JIOL@allow?5exit?$AA@ 0047cca0     menu.obj
 0003:00004cac       ?teamplay_names@?1??Init@dmoptionsMenu_t@@UAE_NXZ@4PAPBDA 0047ccac     menu.obj
 0003:00004cbc       ??_C@_08FHKG@teamplay?$AA@ 0047ccbc     menu.obj
 0003:00004cc8       ??_C@_0O@BPHA@force?5respawn?$AA@ 0047ccc8     menu.obj
 0003:00004cd8       ??_C@_08ECAP@same?5map?$AA@ 0047ccd8     menu.obj
 0003:00004ce4       ??_C@_0P@PHOJ@spawn?5farthest?$AA@ 0047cce4     menu.obj
 0003:00004cf4       ??_C@_0M@GEBP@allow?5armor?$AA@ 0047ccf4     menu.obj
 0003:00004d00       ??_C@_0N@LLOO@allow?5health?$AA@ 0047cd00     menu.obj
 0003:00004d10       ??_C@_0P@JENC@allow?5powerups?$AA@ 0047cd10     menu.obj
 0003:00004d20       ??_C@_0BB@ICPM@instant?5powerups?$AA@ 0047cd20     menu.obj
 0003:00004d34       ??_C@_0N@BOBM@weapons?5stay?$AA@ 0047cd34     menu.obj
 0003:00004d44       ??_C@_0P@ENLL@falling?5damage?$AA@ 0047cd44     menu.obj
 0003:00004d54       ??_C@_07NJLK@dmflags?$AA@  0047cd54     menu.obj
 0003:00004d5c       ??_C@_0N@FJJN@dmflags?5?$DN?5?$CFd?$AA@ 0047cd5c     menu.obj
 0003:00004d6c       ??_C@_06HADE@sounds?$AA@   0047cd6c     menu.obj
 0003:00004d74       ??_C@_0BG@CNCP@allow_download_sounds?$AA@ 0047cd74     menu.obj
 0003:00004d8c       ??_C@_06FJFO@models?$AA@   0047cd8c     menu.obj
 0003:00004d94       ??_C@_0BG@EEF@allow_download_models?$AA@ 0047cd94     menu.obj
 0003:00004dac       ??_C@_0BE@IECK@player?5models?1skins?$AA@ 0047cdac     menu.obj
 0003:00004dc0       ??_C@_0BH@EOHJ@allow_download_players?$AA@ 0047cdc0     menu.obj
 0003:00004dd8       ??_C@_0BE@LNDL@allow_download_maps?$AA@ 0047cdd8     menu.obj
 0003:00004dec       ??_C@_0BC@HOGO@allow?5downloading?$AA@ 0047cdec     menu.obj
 0003:00004e00       ??_C@_0P@EAMI@allow_download?$AA@ 0047ce00     menu.obj
 0003:00004e10       ??_C@_0BB@FKPK@Download?5Options?$AA@ 0047ce10     menu.obj
 0003:00004e24       ??_C@_0M@HPJD@addressbook?$AA@ 0047ce24     menu.obj
 0003:00004e30       ??_C@_04KDFO@beam?$AA@     0047ce30     menu.obj
 0003:00004e38       ??_C@_05LKBC@rings?$AA@    0047ce38     menu.obj
 0003:00004e40       ??_C@_06OEOA@spiral?$AA@   0047ce40     menu.obj
 0003:00004e48       ??_C@_08NHOO@original?$AA@ 0047ce48     menu.obj
 0003:00004e54       ??_C@_05GMF@white?$AA@     0047ce54     menu.obj
 0003:00004e5c       ??_C@_04IADA@cyan?$AA@     0047ce5c     menu.obj
 0003:00004e64       ??_C@_07FEDI@magenta?$AA@  0047ce64     menu.obj
 0003:00004e6c       ??_C@_04FEG@blue?$AA@      0047ce6c     menu.obj
 0003:00004e74       ??_C@_06GNCM@yellow?$AA@   0047ce74     menu.obj
 0003:00004e7c       ??_C@_05DOGI@green?$AA@    0047ce7c     menu.obj
 0003:00004e84       ??_C@_03CMLD@red?$AA@      0047ce84     menu.obj
 0003:00004e88       ??_C@_06NCNO@center?$AA@   0047ce88     menu.obj
 0003:00004e90       ??_C@_04GACI@left?$AA@     0047ce90     menu.obj
 0003:00004e98       ??_C@_05PJFF@right?$AA@    0047ce98     menu.obj
 0003:00004ea0       ??_C@_0BF@FDOP@menu_downloadoptions?$AA@ 0047cea0     menu.obj
 0003:00004eb8       ??_C@_0BB@LABK@download?5options?$AA@ 0047ceb8     menu.obj
 0003:00004ecc       ??_C@_0O@CHM@connect?5speed?$AA@ 0047cecc     menu.obj
 0003:00004edc       ??_C@_04MMDE@rate?$AA@     0047cedc     menu.obj
 0003:00004ee4       ?handedness@?1??Init@playerConfigMenu_t@@UAE_NXZ@4PAPBDA 0047cee4     menu.obj
 0003:00004ef4       ??_C@_04KBBO@hand?$AA@     0047cef4     menu.obj
 0003:00004efc       ??_C@_0L@JGGH@handedness?$AA@ 0047cefc     menu.obj
 0003:00004f08       ?colorNames@?1??Init@playerConfigMenu_t@@UAE_NXZ@4PAPBDA 0047cf08     menu.obj
 0003:00004f2c       ??_C@_09ELEN@railcolor?$AA@ 0047cf2c     menu.obj
 0003:00004f38       ??_C@_0L@IEFD@rail?5color?$AA@ 0047cf38     menu.obj
 0003:00004f44       ?railTypes@?1??Init@playerConfigMenu_t@@UAE_NXZ@4PAPBDA 0047cf44     menu.obj
 0003:00004f58       ??_C@_08NFMK@railtype?$AA@ 0047cf58     menu.obj
 0003:00004f64       ??_C@_09MLCK@rail?5type?$AA@ 0047cf64     menu.obj
 0003:00004f70       ??_C@_0BP@OKB@?$FO3No?5valid?5player?5models?5found?$AA@ 0047cf70     menu.obj
 0003:00004f90       ?dl@?1??Draw@playerConfigMenu_t@@UAEXXZ@4PAUdlight_t@@A 0047cf90     menu.obj
 0003:00004fc8       ??_C@_0L@FOPP@menu?2?$CFs?1?$CFs?$AA@ 0047cfc8     menu.obj
 0003:00004fd4       ??_C@_04KGKE@?$CFs?$FO7?$AA@ 0047cfd4     menu.obj
 0003:00004fdc       ??_C@_0BG@EOPI@?$FO3No?5levelshots?5found?$AA@ 0047cfdc     menu.obj
 0003:00004ff4       ??_C@_0CG@NOJD@Maximum?5number?5of?5levelshots?5rea@ 0047cff4     menu.obj
 0003:0000501c       ??_C@_0M@HBDC@maps?1?$CFs?4bsp?$AA@ 0047d01c     menu.obj
 0003:00005028       ??_C@_0CA@MEOD@?$CFs?1levelshots?1?$CK?4pcx?0?$CK?4tga?0?$CK?4jpg?$AA@ 0047d028     menu.obj
 0003:00005048       ??_C@_0BF@EGID@r_q3map_overbright?$DN1?$AA@ 0047d048     menu.obj
 0003:00005060       ??_C@_0BA@FFMA@gl_overbright?$DN2?$AA@ 0047d060     menu.obj
 0003:00005070       ??_C@_0BB@BKBG@gl_vertexLight?$DN0?$AA@ 0047d070     menu.obj
 0003:00005084       ??_C@_0BB@HGAD@gl_textureBits?$DN0?$AA@ 0047d084     menu.obj
 0003:00005098       ??_C@_0O@KMDM@gl_bitdepth?$DN0?$AA@ 0047d098     menu.obj
 0003:000050a8       ??_C@_0M@IAIL@gl_picmip?$DN0?$AA@ 0047d0a8     menu.obj
 0003:000050b4       ??_C@_09CAAA@gl_mode?$DN3?$AA@ 0047d0b4     menu.obj
 0003:000050c0       ??_C@_09PIFN@trilinear?$AA@ 0047d0c0     menu.obj
 0003:000050cc       ??_C@_06KAJD@vertex?$AA@   0047d0cc     menu.obj
 0003:000050d4       ??_C@_08DOMB@lightmap?$AA@ 0047d0d4     menu.obj
 0003:000050e0       ??_C@_06PHEG@32?5bit?$AA@  0047d0e0     menu.obj
 0003:000050e8       ??_C@_06FMJD@16?5bit?$AA@  0047d0e8     menu.obj
 0003:000050f0       ??_C@_04JOEF@auto?$AA@     0047d0f0     menu.obj
 0003:000050f8       ??_C@_0M@KGKK@?$FL2048?51536?$FN?$AA@ 0047d0f8     menu.obj
 0003:00005104       ??_C@_0M@FJNF@?$FL1920?51200?$FN?$AA@ 0047d104     menu.obj
 0003:00005110       ??_C@_0M@IFKN@?$FL1680?51050?$FN?$AA@ 0047d110     menu.obj
 0003:0000511c       ??_C@_0M@JEDB@?$FL1600?51200?$FN?$AA@ 0047d11c     menu.obj
 0003:00005128       ??_C@_0M@LFBG@?$FL1600?5900?5?$FN?$AA@ 0047d128     menu.obj
 0003:00005134       ??_C@_0M@GIEG@?$FL1280?51024?$FN?$AA@ 0047d134     menu.obj
 0003:00005140       ??_C@_0M@CCKO@?$FL1280?5960?5?$FN?$AA@ 0047d140     menu.obj
 0003:0000514c       ??_C@_0M@DMLH@?$FL1280?5700?5?$FN?$AA@ 0047d14c     menu.obj
 0003:00005158       ??_C@_0M@PIMC@?$FL1152?5864?5?$FN?$AA@ 0047d158     menu.obj
 0003:00005164       ??_C@_0M@JMAB@?$FL1024?5768?5?$FN?$AA@ 0047d164     menu.obj
 0003:00005170       ??_C@_0M@KJAP@?$FL960?5?5720?5?$FN?$AA@ 0047d170     menu.obj
 0003:0000517c       ??_C@_0M@EBPM@?$FL800?5?5600?5?$FN?$AA@ 0047d17c     menu.obj
 0003:00005188       ??_C@_0M@HMJJ@?$FL640?5?5480?5?$FN?$AA@ 0047d188     menu.obj
 0003:00005194       ??_C@_0M@JPEK@?$FL512?5?5384?5?$FN?$AA@ 0047d194     menu.obj
 0003:000051a0       ??_C@_0M@CAFH@?$FL400?5?5300?5?$FN?$AA@ 0047d1a0     menu.obj
 0003:000051ac       ??_C@_0M@DOOF@?$FL320?5?5240?5?$FN?$AA@ 0047d1ac     menu.obj
 0003:000051b8       ??_C@_06MPPK@cancel?$AA@   0047d1b8     menu.obj
 0003:000051c0       ??_C@_0BB@IF@sync?5every?5frame?$AA@ 0047d1c0     menu.obj
 0003:000051d4       ??_C@_09IEFK@gl_finish?$AA@ 0047d1d4     menu.obj
 0003:000051e0       ??_C@_0P@NBDD@gl_texturemode?$AA@ 0047d1e0     menu.obj
 0003:000051f0       ?filters@?1??Init@videoMenu_t@@UAE_NXZ@4PAPBDA 0047d1f0     menu.obj
 0003:000051fc       ??_C@_0P@CPGH@texture?5filter?$AA@ 0047d1fc     menu.obj
 0003:0000520c       ??_C@_08IMBI@bilinear?$AA@ 0047d20c     menu.obj
 0003:00005218       ??_C@_0BA@LBFK@texture?5quality?$AA@ 0047d218     menu.obj
 0003:00005228       ??_C@_0P@CMEL@texture?5detail?$AA@ 0047d228     menu.obj
 0003:00005238       ??_C@_0BE@ELFH@overbright?5Q3A?5maps?$AA@ 0047d238     menu.obj
 0003:0000524c       ??_C@_0BD@BFHC@r_q3map_overbright?$AA@ 0047d24c     menu.obj
 0003:00005260       ??_C@_08LLEH@fast?5sky?$AA@ 0047d260     menu.obj
 0003:0000526c       ??_C@_0L@BOGB@gl_fastsky?$AA@ 0047d26c     menu.obj
 0003:00005278       ?lighting@?1??Init@videoMenu_t@@UAE_NXZ@4PAPBDA 0047d278     menu.obj
 0003:00005284       ??_C@_08FOAP@lighting?$AA@ 0047d284     menu.obj
 0003:00005290       ?overbrightNames@?1??Init@videoMenu_t@@UAE_NXZ@4PAPBDA 0047d290     menu.obj
 0003:000052a0       ??_C@_0BB@LMJI@gamma?5overbright?$AA@ 0047d2a0     menu.obj
 0003:000052b4       ?bits@?1??Init@videoMenu_t@@UAE_NXZ@4PAPBDA 0047d2b4     menu.obj
 0003:000052c4       ??_C@_0M@NNNN@color?5depth?$AA@ 0047d2c4     menu.obj
 0003:000052d0       ??_C@_0L@EMDO@fullscreen?$AA@ 0047d2d0     menu.obj
 0003:000052dc       ??_C@_0L@BHGE@saturation?$AA@ 0047d2dc     menu.obj
 0003:000052e8       ??_C@_08DBOJ@contrast?$AA@ 0047d2e8     menu.obj
 0003:000052f4       ??_C@_0L@HCKI@brightness?$AA@ 0047d2f4     menu.obj
 0003:00005300       ??_C@_0M@LAAH@screen?5size?$AA@ 0047d300     menu.obj
 0003:0000530c       ?resolutions@?1??Init@videoMenu_t@@UAE_NXZ@4PAPBDA 0047d30c     menu.obj
 0003:00005350       ??_C@_0L@NADB@video?5mode?$AA@ 0047d350     menu.obj
 0003:0000535c       ??_C@_07KMDJ@gl_mode?$AA@  0047d35c     menu.obj
 0003:00005364       ??_C@_0N@LICP@scr_viewsize?$AA@ 0047d364     menu.obj
 0003:00005374       ??_C@_07JEME@r_gamma?$AA@  0047d374     menu.obj
 0003:0000537c       ??_C@_0N@HKPK@r_brightness?$AA@ 0047d37c     menu.obj
 0003:0000538c       ??_C@_0L@DBKC@r_contrast?$AA@ 0047d38c     menu.obj
 0003:00005398       ??_C@_0P@LBKH@gl_vertexLight?$AA@ 0047d398     menu.obj
 0003:000053a8       ??_C@_0P@HLID@gl_textureBits?$AA@ 0047d3a8     menu.obj
 0003:000053b8       ??_C@_0O@BFPL@gl_overbright?$AA@ 0047d3b8     menu.obj
 0003:000053c8       ??_C@_0M@GPNJ@gl_bitdepth?$AA@ 0047d3c8     menu.obj
 0003:000053d4       ??_C@_09HOCI@gl_picmip?$AA@ 0047d3d4     menu.obj
 0003:000053e0       ??_C@_0N@BPDG@r_saturation?$AA@ 0047d3e0     menu.obj
 0003:000053f0       ??_C@_0N@EEGM@r_fullscreen?$AA@ 0047d3f0     menu.obj
 0003:00005400       ??_C@_09PLLO@pics?1quit?$AA@ 0047d400     menu.obj
 0003:0000540c       ??_C@_09PFNO@menu_quit?$AA@ 0047d40c     menu.obj
 0003:00005418       ??_C@_0N@FFLM@menu_options?$AA@ 0047d418     menu.obj
 0003:00005428       ??_C@_0L@CAHB@menu_video?$AA@ 0047d428     menu.obj
 0003:00005434       ??_C@_0BB@JJLE@menu_multiplayer?$AA@ 0047d434     menu.obj
 0003:00005448       ??_C@_0P@GOII@menu_dmoptions?$AA@ 0047d448     menu.obj
 0003:00005458       ??_C@_09EPGO@menu_game?$AA@ 0047d458     menu.obj
 0003:00005464       ??_C@_09NOPB@menu_main?$AA@ 0047d464     menu.obj
 0003:00005474       ??_C@_0DA@KOFB@GetMenuItem?3?5item?5index?5?$CFd?5is?5ou@ 0047d474     qmenu.obj
 0003:000054a4       ??_C@_0BC@NAF@invalid?5item?5list?$AA@ 0047d4a4     qmenu.obj
 0003:000054b8       ??_C@_0CN@IICF@double?5item?5?$CC?$CFs?$CC?5in?5menu?0?5index?$DN@ 0047d4b8     qmenu.obj
 0003:000054e8       ??_C@_0BB@HFFJ@pics?1m_banner_?$CFs?$AA@ 0047d4e8     qmenu.obj
 0003:000054fc       ??_C@_0BL@LDPL@M_PushMenu?3?5MAX_MENU_DEPTH?$AA@ 0047d4fc     qmenu.obj
 0003:00005518       ??_C@_0BF@CFFI@M_PopMenu?3?5depth?5?$DM?51?$AA@ 0047d518     qmenu.obj
 0003:00005530       ??_C@_0N@MDAO@r_lightmap?$DN0?$AA@ 0047d530     ref_vars.obj
 0003:00005540       ??_C@_0P@GG@r_fullbright?$DN0?$AA@ 0047d540     ref_vars.obj
 0003:00005550       ??_C@_0P@NIPA@r_saturation?$DN1?$AA@ 0047d550     ref_vars.obj
 0003:00005560       ??_C@_0N@LACP@r_contrast?$DN1?$AA@ 0047d560     ref_vars.obj
 0003:00005570       ??_C@_0P@FMPO@r_brightness?$DN1?$AA@ 0047d570     ref_vars.obj
 0003:00005580       ??_C@_09HGJM@r_gamma?$DN1?$AA@ 0047d580     ref_vars.obj
 0003:0000558c       ??_C@_0P@CBCI@r_fullscreen?$DN1?$AA@ 0047d58c     ref_vars.obj
 0003:0000559c       ??_C@_0O@NNCD@pain100_1?4wav?$AA@ 0047d59c     snd_dma.obj
 0003:000055ac       ??_C@_0O@DNEM@pain100_2?4wav?$AA@ 0047d5ac     snd_dma.obj
 0003:000055bc       ??_C@_0N@HCHD@pain75_1?4wav?$AA@ 0047d5bc     snd_dma.obj
 0003:000055cc       ??_C@_0N@JCBM@pain75_2?4wav?$AA@ 0047d5cc     snd_dma.obj
 0003:000055dc       ??_C@_0N@HGON@pain50_1?4wav?$AA@ 0047d5dc     snd_dma.obj
 0003:000055ec       ??_C@_0N@JGIC@pain50_2?4wav?$AA@ 0047d5ec     snd_dma.obj
 0003:000055fc       ??_C@_0N@BKOH@pain25_1?4wav?$AA@ 0047d5fc     snd_dma.obj
 0003:0000560c       ??_C@_0N@PKII@pain25_2?4wav?$AA@ 0047d60c     snd_dma.obj
 0003:0000561c       ??_C@_09OHKD@fall1?4wav?$AA@ 0047d61c     snd_dma.obj
 0003:00005628       ??_C@_09HMM@fall2?4wav?$AA@ 0047d628     snd_dma.obj
 0003:00005634       ??_C@_0L@FNNO@death1?4wav?$AA@ 0047d634     snd_dma.obj
 0003:00005640       ??_C@_0L@HNGO@death4?4wav?$AA@ 0047d640     snd_dma.obj
 0003:0000564c       ??_C@_0M@BBBI@s_primary?$DN0?$AA@ 0047d64c     snd_dma.obj
 0003:00005658       ??_C@_0O@GGCA@s_testsound?$DN0?$AA@ 0047d658     snd_dma.obj
 0003:00005668       ??_C@_08FKAD@s_show?$DN0?$AA@ 0047d668     snd_dma.obj
 0003:00005674       ??_C@_0P@PBCG@s_mixahead?$DN0?42?$AA@ 0047d674     snd_dma.obj
 0003:00005684       ??_C@_0BD@NANA@s_reverse_stereo?$DN0?$AA@ 0047d684     snd_dma.obj
 0003:00005698       ??_C@_0P@LFBM@s_loadas8bit?$DN0?$AA@ 0047d698     snd_dma.obj
 0003:000056a8       ??_C@_08HICG@s_khz?$DN22?$AA@ 0047d6a8     snd_dma.obj
 0003:000056b4       ??_C@_0N@HCDJ@s_volume?$DN0?47?$AA@ 0047d6b4     snd_dma.obj
 0003:000056c4       ??_C@_0L@JCHF@?$CF5d?5speed?6?$AA@ 0047d6c4     snd_dma.obj
 0003:000056d0       ??_C@_0BG@JJMA@?$CF5d?5submission_chunk?6?$AA@ 0047d6d0     snd_dma.obj
 0003:000056e8       ??_C@_0BA@MLCC@?$CF5d?5samplebits?6?$AA@ 0047d6e8     snd_dma.obj
 0003:000056f8       ??_C@_0P@IGHG@?$CF5d?5samplepos?6?$AA@ 0047d6f8     snd_dma.obj
 0003:00005708       ??_C@_0N@KDEK@?$CF5d?5samples?6?$AA@ 0047d708     snd_dma.obj
 0003:00005718       ??_C@_0M@PEPK@?$CF5d?5stereo?6?$AA@ 0047d718     snd_dma.obj
 0003:00005724       ??_C@_0BK@JHHA@sound?5system?5not?5started?6?$AA@ 0047d724     snd_dma.obj
 0003:00005740       ??_C@_0BJ@NJE@sound?5sampling?5rate?3?5?$CFd?6?$AA@ 0047d740     snd_dma.obj
 0003:0000575c       ??_C@_09DBLB@soundinfo?$AA@ 0047d75c     snd_dma.obj
 0003:00005768       ??_C@_09BLBC@soundlist?$AA@ 0047d768     snd_dma.obj
 0003:00005774       ??_C@_09IELC@stopsound?$AA@ 0047d774     snd_dma.obj
 0003:00005780       ??_C@_04HNFE@play?$AA@     0047d780     snd_dma.obj
 0003:00005788       ??_C@_0CH@MEDF@?6?9?9?9?9?9?9?9?5Sound?5initialization?5?9?9@ 0047d788     snd_dma.obj
 0003:000057b0       ??_C@_0BC@BPEM@?$FO6Sound?5disabled?6?$AA@ 0047d7b0     snd_dma.obj
 0003:000057c4       ??_C@_07KADE@nosound?$AA@  0047d7c4     snd_dma.obj
 0003:000057cc       ??_C@_0BG@NKNG@too?5much?5sfx?5records?6?$AA@ 0047d7cc     snd_dma.obj
 0003:000057e4       ??_C@_0BI@HAHM@Sound?5name?5too?5long?3?5?$CFs?$AA@ 0047d7e4     snd_dma.obj
 0003:000057fc       ??_C@_0M@DPNB@empty?5name?6?$AA@ 0047d7fc     snd_dma.obj
 0003:00005808       ??_C@_0L@OGJ@NULL?5name?6?$AA@ 0047d808     snd_dma.obj
 0003:00005814       ??_C@_0BM@MBGK@S_PickChannel?3?5entchannel?$DM0?$AA@ 0047d814     snd_dma.obj
 0003:00005830       ??_C@_0CB@CNO@CL_GetEntitySoundOrigin?3?5bad?5ent@ 0047d830     snd_dma.obj
 0003:00005854       ??_C@_0CC@LLJ@Sound?3?5?$CFs?5begin?3?$CFd?5ent?3?$CFd?5chn?3?$CFd@ 0047d854     snd_dma.obj
 0003:00005878       ??_C@_0BB@JGID@player?1?$CFsmale?1?$CFs?$AA@ 0047d878     snd_dma.obj
 0003:0000588c       ??_C@_02PPOD@fe?$AA@       0047d88c     snd_dma.obj
 0003:00005890       ??_C@_0BD@FEG@sound?1player?1?$CFs?1?$CFs?$AA@ 0047d890     snd_dma.obj
 0003:000058a4       ??_C@_0P@CMCL@?$CDplayers?1?$CFs?1?$CFs?$AA@ 0047d8a4     snd_dma.obj
 0003:000058b4       ??_C@_0CD@BKPA@S_StartLocalSound?3?5can?8t?5cache?5?$CF@ 0047d8b4     snd_dma.obj
 0003:000058d8       ??_C@_0BK@NGAB@?9?9?9?9?$CI?$CFi?$CJ?9?9?9?9?5painted?3?5?$CFi?6?$AA@ 0047d8d8     snd_dma.obj
 0003:000058f4       ??_C@_0M@OMDK@?$CF3i?5?$CF3i?5?$CFs?6?$AA@ 0047d8f4     snd_dma.obj
 0003:00005900       ??_C@_0BG@DBOM@S_Update_?5?3?5overflow?6?$AA@ 0047d900     snd_dma.obj
 0003:00005918       ??_C@_06FHNF@?$CFs?4wav?$AA@ 0047d918     snd_dma.obj
 0003:00005920       ??_C@_0BL@HBKE@Usage?3?5soundlist?5?$FL?$DMmask?$DO?$FN?6?$AA@ 0047d920     snd_dma.obj
 0003:0000593c       ??_C@_0CM@BIJL@Displayed?5?$CFd?1?$CFd?5sounds?$DL?5resident@ 0047d93c     snd_dma.obj
 0003:00005968       ??_C@_0M@LFPC@?$CF?93d?5?$CFs?5?$CFs?6?$AA@ 0047d968     snd_dma.obj
 0003:00005974       ??_C@_0O@JMLC@not?5loaded?5?5?5?$AA@ 0047d974     snd_dma.obj
 0003:00005984       ??_C@_0BC@PDLM@?$FO1not?5found?5?5?5?5?$FO7?$AA@ 0047d984     snd_dma.obj
 0003:00005998       ??_C@_0O@ELED@placeholder?5?5?$AA@ 0047d998     snd_dma.obj
 0003:000059a8       ??_C@_0BG@IKLO@?$CF?93d?5?$CFc?5?$CF2d?5?5?$CF?97d?5?$CFs?6?$AA@ 0047d9a8     snd_dma.obj
 0003:000059c0       ??_C@_0CC@HMGF@?9?9?9lp?9bit?9size?9?9?9?9name?9?9?9?9?9?9?9?9?9?9@ 0047d9c0     snd_dma.obj
 0003:000059e4       ??_C@_0BH@BKDA@?$CFs?5is?5a?5stereo?5sample?6?$AA@ 0047d9e4     snd_mem.obj
 0003:000059fc       ??_C@_0BC@DJDD@Couldn?8t?5load?5?$CFs?6?$AA@ 0047d9fc     snd_mem.obj
 0003:00005a10       ??_C@_0BK@HDNC@Missing?5RIFF?1WAVE?5chunks?6?$AA@ 0047da10     snd_mem.obj
 0003:00005a2c       ??_C@_0BP@CLHH@Sound?5?$CFs?5has?5a?5bad?5loop?5length?$AA@ 0047da2c     snd_mem.obj
 0003:00005a4c       ??_C@_0BE@OGAC@Missing?5data?5chunk?6?$AA@ 0047da4c     snd_mem.obj
 0003:00005a60       ??_C@_04OMKF@data?$AA@     0047da60     snd_mem.obj
 0003:00005a68       ??_C@_04JFAO@mark?$AA@     0047da68     snd_mem.obj
 0003:00005a70       ??_C@_04PBEL@LIST?$AA@     0047da70     snd_mem.obj
 0003:00005a78       ??_C@_04MHP@cue?5?$AA@     0047da78     snd_mem.obj
 0003:00005a80       ??_C@_0BL@CPKL@Microsoft?5PCM?5format?5only?6?$AA@ 0047da80     snd_mem.obj
 0003:00005a9c       ??_C@_0BD@LFCE@Missing?5fmt?5chunk?6?$AA@ 0047da9c     snd_mem.obj
 0003:00005ab0       ??_C@_04HBLJ@fmt?5?$AA@    0047dab0     snd_mem.obj
 0003:00005ab8       ??_C@_04DOFO@WAVE?$AA@     0047dab8     snd_mem.obj
 0003:00005ac0       ??_C@_04ILOB@RIFF?$AA@     0047dac0     snd_mem.obj
 0003:00005ac8       ??_C@_06EOJG@snd?$DN?$CFs?$AA@ 0047dac8     snd_mix.obj
 0003:00005ad0       ??_C@_0BJ@PEE@?4?1?$CFs?1save?1current?1?$CFs?4sav?$AA@ 0047dad0     sv_ccmds.obj
 0003:00005aec       ??_C@_0BJ@LCE@?4?1?$CFs?1save?1current?1?$CFs?4sv2?$AA@ 0047daec     sv_ccmds.obj
 0003:00005b08       ??_C@_0BE@PDLB@SV_ReadLevelFile?$CI?$CJ?6?$AA@ 0047db08     sv_ccmds.obj
 0003:00005b1c       ??_C@_03NJAM@say?$AA@      0047db1c     sv_ccmds.obj
 0003:00005b20       ??_C@_02IPID@sv?$AA@       0047db20     sv_ccmds.obj
 0003:00005b24       ??_C@_0L@PNBO@killserver?$AA@ 0047db24     sv_ccmds.obj
 0003:00005b30       ??_C@_04JMJF@load?$AA@     0047db30     sv_ccmds.obj
 0003:00005b38       ??_C@_04MEDD@save?$AA@     0047db38     sv_ccmds.obj
 0003:00005b40       ??_C@_0L@NONC@serverstop?$AA@ 0047db40     sv_ccmds.obj
 0003:00005b4c       ??_C@_0N@LMDI@serverrecord?$AA@ 0047db4c     sv_ccmds.obj
 0003:00005b5c       ??_C@_09LGEG@setmaster?$AA@ 0047db5c     sv_ccmds.obj
 0003:00005b68       ??_C@_07OPKL@gamemap?$AA@  0047db68     sv_ccmds.obj
 0003:00005b70       ??_C@_08KKFE@dumpuser?$AA@ 0047db70     sv_ccmds.obj
 0003:00005b7c       ??_C@_0L@PFOG@serverinfo?$AA@ 0047db7c     sv_ccmds.obj
 0003:00005b88       ??_C@_09GFGG@banremove?$AA@ 0047db88     sv_ccmds.obj
 0003:00005b94       ??_C@_07DBDP@banlist?$AA@  0047db94     sv_ccmds.obj
 0003:00005b9c       ??_C@_05KPMF@banip?$AA@    0047db9c     sv_ccmds.obj
 0003:00005ba4       ??_C@_03FGOF@ban?$AA@      0047dba4     sv_ccmds.obj
 0003:00005ba8       ??_C@_04KGFE@kick?$AA@     0047dba8     sv_ccmds.obj
 0003:00005bb0       ??_C@_09CAJF@heartbeat?$AA@ 0047dbb0     sv_ccmds.obj
 0003:00005bbc       ??_C@_0BB@PMMC@Sending?5a?5ping?4?6?$AA@ 0047dbbc     sv_ccmds.obj
 0003:00005bd0       ??_C@_0BF@OAM@Master?5server?5at?5?$CFs?6?$AA@ 0047dbd0     sv_ccmds.obj
 0003:00005be8       ??_C@_06NGHH@public?$AA@   0047dbe8     sv_ccmds.obj
 0003:00005bf0       ??_C@_0CF@FEG@Only?5dedicated?5servers?5use?5maste@ 0047dbf0     sv_ccmds.obj
 0003:00005c18       ??_C@_0BN@FADC@Usage?3?5loadgame?5?$DMdirectory?$DO?6?$AA@ 0047dc18     sv_ccmds.obj
 0003:00005c38       ??_C@_0N@ELMN@Bad?5savedir?6?$AA@ 0047dc38     sv_ccmds.obj
 0003:00005c48       ??_C@_07HLIN@current?$AA@  0047dc48     sv_ccmds.obj
 0003:00005c50       ??_C@_0BG@IAAB@No?5such?5savegame?3?5?$CFs?6?$AA@ 0047dc50     sv_ccmds.obj
 0003:00005c68       ??_C@_0BI@FEJD@?4?1?$CFs?1save?1?$CFs?1server?4ssv?$AA@ 0047dc68     sv_ccmds.obj
 0003:00005c80       ??_C@_0BB@GFMF@Loading?5game?4?4?4?6?$AA@ 0047dc80     sv_ccmds.obj
 0003:00005c94       ??_C@_0P@FGAB@?4?1?$CFs?1save?1?$CFs?1?$CK?$AA@ 0047dc94     sv_ccmds.obj
 0003:00005ca4       ??_C@_0O@HHKP@?4?1?$CFs?1save?1?$CFs?1?$AA@ 0047dca4     sv_ccmds.obj
 0003:00005cb4       ??_C@_0BJ@KHEP@SV_CopySaveGame?$CI?$CFs?0?5?$CFs?$CJ?6?$AA@ 0047dcb4     sv_ccmds.obj
 0003:00005cd0       ??_C@_0BF@GKPD@SV_WipeSaveGame?$CI?$CFs?$CJ?6?$AA@ 0047dcd0     sv_ccmds.obj
 0003:00005ce8       ??_C@_0BL@PK@?4?1?$CFs?1save?1current?1game?4ssv?$AA@ 0047dce8     sv_ccmds.obj
 0003:00005d04       ??_C@_0N@OMIM@Set?5?$CFs?5?$DN?5?$CFs?6?$AA@ 0047dd04     sv_ccmds.obj
 0003:00005d14       ??_C@_0BC@GDMP@Couldn?8t?5read?5?$CFs?6?$AA@ 0047dd14     sv_ccmds.obj
 0003:00005d28       ??_C@_0BN@PHGA@?4?1?$CFs?1save?1current?1server?4ssv?$AA@ 0047dd28     sv_ccmds.obj
 0003:00005d48       ??_C@_0BC@MNLH@save?1current?1shot?$AA@ 0047dd48     sv_ccmds.obj
 0003:00005d5c       ??_C@_0BF@FIGK@SV_ReadServerFile?$CI?$CJ?6?$AA@ 0047dd5c     sv_ccmds.obj
 0003:00005d74       ??_C@_0BN@LOOP@Usage?3?5savegame?5?$DMdirectory?$DO?6?$AA@ 0047dd74     sv_ccmds.obj
 0003:00005d94       ??_C@_06JCEA@Done?4?6?$AA@ 0047dd94     sv_ccmds.obj
 0003:00005d9c       ??_C@_0BA@EJPL@Saving?5game?4?4?4?6?$AA@ 0047dd9c     sv_ccmds.obj
 0003:00005dac       ??_C@_0BM@DFCE@Can?8t?5savegame?5while?5dead?$CB?6?$AA@ 0047ddac     sv_ccmds.obj
 0003:00005dc8       ??_C@_0BJ@MDNH@Can?8t?5save?5to?5?8current?8?6?$AA@ 0047ddc8     sv_ccmds.obj
 0003:00005de4       ??_C@_0CA@PPCA@Can?8t?5savegame?5in?5a?5deathmatch?6?$AA@ 0047dde4     sv_ccmds.obj
 0003:00005e04       ??_C@_0CA@FPJJ@You?5must?5be?5in?5a?5game?5to?5save?4?6?$AA@ 0047de04     sv_ccmds.obj
 0003:00005e24       ??_C@_0BF@LIHG@SV_WriteLevelFile?$CI?$CJ?6?$AA@ 0047de24     sv_ccmds.obj
 0003:00005e3c       ??_C@_0BC@KBMO@?4?1?$CFs?1save?1?$CFs?1shot?$AA@ 0047de3c     sv_ccmds.obj
 0003:00005e50       ??_C@_0BG@DNLD@?4?1?$CFs?1save?1?$CFs?1game?4ssv?$AA@ 0047de50     sv_ccmds.obj
 0003:00005e68       ??_C@_0BI@GKOA@Cvar?5too?5long?3?5?$CFs?5?$DN?5?$CFs?6?$AA@ 0047de68     sv_ccmds.obj
 0003:00005e80       ??_C@_0M@MMJA@ENTERING?5?$CFs?$AA@ 0047de80     sv_ccmds.obj
 0003:00005e8c       ??_C@_06EIMM@?$CFs?5?5?$CFs?$AA@ 0047de8c     sv_ccmds.obj
 0003:00005e94       ??_C@_0BD@CDPL@Couldn?8t?5write?5?$CFs?6?$AA@ 0047de94     sv_ccmds.obj
 0003:00005ea8       ??_C@_0BM@MEBO@SV_WriteServerFile?$CI?$CFs?0?5?$CFs?$CJ?6?$AA@ 0047dea8     sv_ccmds.obj
 0003:00005ec4       ??_C@_05NAGO@false?$AA@    0047dec4     sv_ccmds.obj
 0003:00005ecc       ??_C@_04NCCD@true?$AA@     0047decc     sv_ccmds.obj
 0003:00005ed4       ??_C@_0P@CGJ@nextserver?$DN?$CC?$CC?6?$AA@ 0047ded4     sv_ccmds.obj
 0003:00005ee4       ??_C@_07LKBD@nointro?$AA@  0047dee4     sv_ccmds.obj
 0003:00005eec       ??_C@_0BG@FJEL@Usage?3?5gamemap?5?$DMmap?$DO?6?$AA@ 0047deec     sv_ccmds.obj
 0003:00005f04       ??_C@_05PGFE@save0?$AA@    0047df04     sv_ccmds.obj
 0003:00005f0c       ??_C@_0BC@NIB@?4?1?$CFs?1save?1current?$AA@ 0047df0c     sv_ccmds.obj
 0003:00005f20       ??_C@_0BA@FFIL@SV_GameMap?$CI?$CFs?$CJ?6?$AA@ 0047df20     sv_ccmds.obj
 0003:00005f30       ??_C@_0P@JOEA@Can?8t?5find?5?$CFs?6?$AA@ 0047df30     sv_ccmds.obj
 0003:00005f40       ??_C@_0BG@FFOD@Usage?3?5kick?5?$DMuserid?$DO?6?$AA@ 0047df40     sv_ccmds.obj
 0003:00005f58       ??_C@_0L@PJPJ@was?5kicked?$AA@ 0047df58     sv_ccmds.obj
 0003:00005f64       ??_C@_0BJ@LHLB@Cannot?5kick?5host?5player?6?$AA@ 0047df64     sv_ccmds.obj
 0003:00005f80       ??_C@_0BE@PLJD@No?5server?5running?4?6?$AA@ 0047df80     sv_ccmds.obj
 0003:00005f94       ??_C@_0CA@HDFP@Userid?5?$CFs?5is?5not?5on?5the?5server?6?$AA@ 0047df94     sv_ccmds.obj
 0003:00005fb4       ??_C@_0BJ@PCKC@Client?5?$CFd?5is?5not?5active?6?$AA@ 0047dfb4     sv_ccmds.obj
 0003:00005fd0       ??_C@_0BF@FHHD@Bad?5client?5slot?3?5?$CFd?6?$AA@ 0047dfd0     sv_ccmds.obj
 0003:00005fe8       ??_C@_0BF@MGKE@Usage?3?5ban?5?$DMuserid?$DO?6?$AA@ 0047dfe8     sv_ccmds.obj
 0003:00006000       ??_C@_0L@EALE@was?5banned?$AA@ 0047e000     sv_ccmds.obj
 0003:0000600c       ??_C@_0M@IBML@?$CFd?4?$CFd?4?$CFd?4?$CFd?$AA@ 0047e00c     sv_ccmds.obj
 0003:00006018       ??_C@_0BJ@BINI@Cannot?5ban?5local?5client?6?$AA@ 0047e018     sv_ccmds.obj
 0003:00006034       ??_C@_0BD@CCOH@Add?5?$CFs?5to?5banlist?6?$AA@ 0047e034     sv_ccmds.obj
 0003:00006048       ??_C@_0BO@DECP@Cannot?5ban?5?$CFs?3?5ban?5list?5full?6?$AA@ 0047e048     sv_ccmds.obj
 0003:00006068       ??_C@_0BD@DCKE@?$CFs?5already?5banned?6?$AA@ 0047e068     sv_ccmds.obj
 0003:0000607c       ??_C@_0BI@OAG@Usage?3?5banip?5?$DMip?9mask?$DO?6?$AA@ 0047e07c     sv_ccmds.obj
 0003:00006094       ??_C@_0BF@NFIF@IP?9mask?5is?5too?5long?6?$AA@ 0047e094     sv_ccmds.obj
 0003:000060ac       ??_C@_09NIGE@?$CF?92d?3?5?$CFs?6?$AA@ 0047e0ac     sv_ccmds.obj
 0003:000060b8       ??_C@_0O@NKD@Banned?5IP?8s?3?6?$AA@ 0047e0b8     sv_ccmds.obj
 0003:000060c8       ??_C@_0CK@OPDJ@Usage?3?5banremove?5?$DMlist?9index?5or?5@ 0047e0c8     sv_ccmds.obj
 0003:000060f4       ??_C@_0BD@NGMG@Bad?5list?5index?5?$CFs?6?$AA@ 0047e0f4     sv_ccmds.obj
 0003:00006108       ??_C@_0CA@MOJ@Index?5?$CFd?5is?5out?5of?5list?5bounds?6?$AA@ 0047e108     sv_ccmds.obj
 0003:00006128       ??_C@_0BM@HBKB@Mask?5?$CFs?5is?5not?5in?5ban?5list?6?$AA@ 0047e128     sv_ccmds.obj
 0003:00006144       ??_C@_0BK@PMOC@Usage?3?5dumpuser?5?$DMuserid?$DO?6?$AA@ 0047e144     sv_ccmds.obj
 0003:00006160       ??_C@_0BF@MCOG@?$FO2userinfo?6?9?9?9?9?9?9?9?9?6?$AA@ 0047e160     sv_ccmds.obj
 0003:00006178       ??_C@_0BE@KMIG@?$FO4?5?5dwnl?3?5?$CFs?5?$CI?$CFd?$CF?$CF?$CJ?$AA@ 0047e178     sv_ccmds.obj
 0003:0000618c       ??_C@_0BE@EHEJ@?$CF?915s?5?$CF7d?5?$CF?921s?5?$CF5d?$AA@ 0047e18c     sv_ccmds.obj
 0003:000061a0       ??_C@_04EGAA@?$CF4d?5?$AA@ 0047e1a0     sv_ccmds.obj
 0003:000061a8       ??_C@_09HJKP@?$FO1ZMBI?5?$FO7?$AA@ 0047e1a8     sv_ccmds.obj
 0003:000061b4       ??_C@_05PDBF@CNCT?5?$AA@   0047e1b4     sv_ccmds.obj
 0003:000061bc       ??_C@_0P@JI@?$CF3d?5?$FO1?9?9?9?9?9?5?$FO7?$AA@ 0047e1bc     sv_ccmds.obj
 0003:000061cc       ??_C@_08LPCH@?$CF3d?5?$CF5d?5?$AA@ 0047e1cc     sv_ccmds.obj
 0003:000061d8       ??_C@_0EF@EIN@?9?9n?9score?9ping?9name?9?9?9?9?9?9?9?9?9?9?9?9l@ 0047e1d8     sv_ccmds.obj
 0003:00006220       ??_C@_08GCKC@map?3?5?$CFs?6?$AA@ 0047e220     sv_ccmds.obj
 0003:0000622c       ??_C@_0M@EODC@server?3?5?$CFs?6?$AA@ 0047e22c     sv_ccmds.obj
 0003:00006238       ??_C@_0CG@MAJP@?$FO2?9?9?9?9?9?9?5Server?5info?5settings?5?9?9@ 0047e238     sv_ccmds.obj
 0003:00006260       ??_C@_0CA@KCOO@Usage?3?5serverrecord?5?$DMdemoname?$DO?6?$AA@ 0047e260     sv_ccmds.obj
 0003:00006280       ??_C@_0BB@PEEL@recording?5to?5?$CFs?6?$AA@ 0047e280     sv_ccmds.obj
 0003:00006294       ??_C@_0BK@PJBP@ERROR?3?5couldn?8t?5write?5?$CFs?6?$AA@ 0047e294     sv_ccmds.obj
 0003:000062b0       ??_C@_0CC@BOAA@You?5must?5be?5in?5a?5level?5to?5record@ 0047e2b0     sv_ccmds.obj
 0003:000062d4       ??_C@_0BD@ODDC@Already?5recording?6?$AA@ 0047e2d4     sv_ccmds.obj
 0003:000062e8       ??_C@_0BF@KALO@Recording?5completed?6?$AA@ 0047e2e8     sv_ccmds.obj
 0003:00006300       ??_C@_0BL@GMKD@Not?5doing?5a?5serverrecord?4?6?$AA@ 0047e300     sv_ccmds.obj
 0003:0000631c       ??_C@_0BD@OOMB@Server?5was?5killed?6?$AA@ 0047e31c     sv_ccmds.obj
 0003:00006330       ??_C@_0BA@HAJA@No?5game?5loaded?6?$AA@ 0047e330     sv_ccmds.obj
 0003:00006340       ??_C@_0CD@FLII@ent?3?5?$CFd?5cl?3?5?$CF04X?6frame?3?5?$CFd?6mdl?3?5@ 0047e340     sv_ents.obj
 0003:00006364       ??_C@_0CN@EFPK@ent?3?5?$CFd?5cl?3?5?$CF04X?6frame?3?5?$CFd?6anim?3@ 0047e364     sv_ents.obj
 0003:00006394       ??_C@_0BF@BKHO@SV_FatPVS?3?5count?5?$DM?51?$AA@ 0047e394     sv_ents.obj
 0003:000064d8       ??_C@_08KKEF@weapprev?$AA@ 0047e4d8     sv_game.obj
 0003:000064e4       ??_C@_08FDMA@weapnext?$AA@ 0047e4e4     sv_game.obj
 0003:000064f0       ??_C@_07DCEN@invdrop?$AA@  0047e4f0     sv_game.obj
 0003:000064f8       ??_C@_07GMNC@invnext?$AA@  0047e4f8     sv_game.obj
 0003:00006500       ??_C@_07JFFH@invprev?$AA@  0047e500     sv_game.obj
 0003:00006508       ??_C@_06HJLO@invuse?$AA@   0047e508     sv_game.obj
 0003:00006510       ??_C@_06GMBK@noclip?$AA@   0047e510     sv_game.obj
 0003:00006518       ??_C@_08BHIO@notarget?$AA@ 0047e518     sv_game.obj
 0003:00006524       ??_C@_03IPJE@god?$AA@      0047e524     sv_game.obj
 0003:00006528       ??_C@_04JEOP@give?$AA@     0047e528     sv_game.obj
 0003:00006530       ??_C@_08PAEI@say_team?$AA@ 0047e530     sv_game.obj
 0003:0000653c       ??_C@_04NMBB@drop?$AA@     0047e53c     sv_game.obj
 0003:00006544       ??_C@_03CFBD@use?$AA@      0047e544     sv_game.obj
 0003:00006548       ??_C@_04CHLA@kill?$AA@     0047e548     sv_game.obj
 0003:00006550       ??_C@_05MCDF@inven?$AA@    0047e550     sv_game.obj
 0003:00006558       ??_C@_04FBHL@wave?$AA@     0047e558     sv_game.obj
 0003:00006560       ??_C@_07MNHC@gamedir?$AA@  0047e560     sv_game.obj
 0003:00006568       ??_C@_07JKBB@basedir?$AA@  0047e568     sv_game.obj
 0003:00006570       ??_C@_0BI@DKJ@cprintf?5to?5a?5non?9client?$AA@ 0047e570     sv_game.obj
 0003:00006588       ??_C@_0P@NPOJ@Game?5Error?3?5?$CFs?$AA@ 0047e588     sv_game.obj
 0003:00006598       ??_C@_0BG@BHNI@G_setmodel?3?5NULL?5name?$AA@ 0047e598     sv_game.obj
 0003:000065b0       ??_C@_0BM@CNAK@configstring?3?5bad?5index?5?$CFi?6?$AA@ 0047e5b0     sv_game.obj
 0003:000065cc       ??_C@_08JMMK@gz_stats?$AA@ 0047e5cc     sv_game.obj
 0003:000065d8       ??_C@_0BK@ODIF@game?5is?5version?5?$CFd?0?5not?53?$AA@ 0047e5d8     sv_game.obj
 0003:000065f4       ??_C@_0BM@EHHK@failed?5to?5load?5game?5library?$AA@ 0047e5f4     sv_game.obj
 0003:00006610       ??_C@_0CE@NOEA@Game?5memory?3?6?$CFd?5bytes?5in?5?$CFd?5bloc@ 0047e610     sv_game.obj
 0003:00006634       ??_C@_0CA@LAAH@GetGameAPI?$CI?$CFs?$CJ?3?5failed?5to?5load?6?$AA@ 0047e634     sv_game.obj
 0003:00006654       ??_C@_0L@OIFE@GetGameAPI?$AA@ 0047e654     sv_game.obj
 0003:00006660       ??_C@_09JFKI@Load?$CI?$CFs?$CJ?6?$AA@ 0047e660     sv_game.obj
 0003:0000666c       ??_C@_0M@KCKA@gamex86?4dll?$AA@ 0047e66c     sv_game.obj
 0003:00006678       ??_C@_0BA@LMHP@Free?$CIgame?4dll?$CJ?6?$AA@ 0047e678     sv_game.obj
 0003:00006688       ??_C@_07OGMJ@cmd?5?$CFs?6?$AA@ 0047e688     sv_game.obj
 0003:00006690       ??_C@_0DI@KENO@Game?5library?5have?5memory?5leak?5of@ 0047e690     sv_game.obj
 0003:000066c8       ??_C@_0CE@NLI@SV_FindIndex?$CI?$CFs?$CJ?3?5overflow?5?$CImax?$DN@ 0047e6c8     sv_init.obj
 0003:000066ec       ??_C@_03LCGD@?$CK?$CFd?$AA@ 0047e6ec     sv_init.obj
 0003:000066f0       ??_C@_02DLJH@?$CFg?$AA@    0047e6f0     sv_init.obj
 0003:000066f4       ??_C@_0BB@GLPC@SpawnServer?3?5?$CFs?6?$AA@ 0047e6f4     sv_init.obj
 0003:00006708       ??_C@_0CH@NMJ@?6?9?9?9?9?9?9?5Server?5initialization?5?9?9@ 0047e708     sv_init.obj
 0003:00006730       ??_C@_0BE@KPDO@192?4246?440?437?327900?$AA@ 0047e730     sv_init.obj
 0003:00006744       ??_C@_03DAIL@256?$AA@      0047e744     sv_init.obj
 0003:00006748       ??_C@_0DE@CELL@?$CCdeathmatch?$CC?5and?5?$CCcoop?$CC?5both?5set@ 0047e748     sv_init.obj
 0003:0000677c       ??_C@_0BC@IKLG@Server?5restarted?6?$AA@ 0047e77c     sv_init.obj
 0003:00006790       ??_C@_0L@BGLM@reconnect?6?$AA@ 0047e790     sv_init.obj
 0003:0000679c       ??_C@_09LPNI@changing?6?$AA@ 0047e79c     sv_init.obj
 0003:000067a8       ??_C@_04BLEC@?4jpg?$AA@    0047e7a8     sv_init.obj
 0003:000067b0       ??_C@_04LCGE@?4tga?$AA@    0047e7b0     sv_init.obj
 0003:000067b8       ??_C@_0BB@JIPH@gamemap?5?$CC?$CKbase1?$CC?$AA@ 0047e7b8     sv_init.obj
 0003:000067cc       ??_C@_0M@NDJE@victory?4pcx?$AA@ 0047e7cc     sv_init.obj
 0003:000067d8       ??_C@_0L@GJBA@nextserver?$AA@ 0047e7d8     sv_init.obj
 0003:000067e4       ??_C@_0N@GFOP@gamemap?5?$CC?$CFs?$CC?$AA@ 0047e7e4     sv_init.obj
 0003:000067f4       ??_C@_0M@KACE@g_fpuXcpt?$DN0?$AA@ 0047e7f4     sv_main.obj
 0003:00006800       ??_C@_0M@FKNL@sv_labels?$DN0?$AA@ 0047e800     sv_main.obj
 0003:0000680c       ??_C@_0BF@GNLD@sv_reconnect_limit?$DN3?$AA@ 0047e80c     sv_main.obj
 0003:00006824       ??_C@_0N@JEFN@sv_shownet?$DN0?$AA@ 0047e824     sv_main.obj
 0003:00006834       ??_C@_08IAKJ@public?$DN0?$AA@ 0047e834     sv_main.obj
 0003:00006840       ??_C@_0O@KBFF@sv_noreload?$DN0?$AA@ 0047e840     sv_main.obj
 0003:00006850       ??_C@_0BB@NJGJ@sv_enforcetime?$DN0?$AA@ 0047e850     sv_main.obj
 0003:00006864       ??_C@_0BG@OOIM@allow_download_maps?$DN1?$AA@ 0047e864     sv_main.obj
 0003:0000687c       ??_C@_0BI@GOD@allow_download_sounds?$DN1?$AA@ 0047e87c     sv_main.obj
 0003:00006894       ??_C@_0BI@HBOO@allow_download_models?$DN1?$AA@ 0047e894     sv_main.obj
 0003:000068ac       ??_C@_0BJ@BOLC@allow_download_players?$DN0?$AA@ 0047e8ac     sv_main.obj
 0003:000068c8       ??_C@_0BB@KHCE@allow_download?$DN1?$AA@ 0047e8c8     sv_main.obj
 0003:000068dc       ??_C@_07MHAC@skill?$DN1?$AA@ 0047e8dc     sv_main.obj
 0003:000068e4       ??_C@_0N@MOLN@zombietime?$DN2?$AA@ 0047e8e4     sv_main.obj
 0003:000068f4       ??_C@_0M@FADJ@timeout?$DN125?$AA@ 0047e8f4     sv_main.obj
 0003:00006900       ??_C@_0BD@KOKD@sv_airaccelerate?$DN0?$AA@ 0047e900     sv_main.obj
 0003:00006914       ??_C@_0M@CCNH@protocol?$DN34?$AA@ 0047e914     sv_main.obj
 0003:00006920       ??_C@_0BC@NEKH@sv_camperSounds?$DN1?$AA@ 0047e920     sv_main.obj
 0003:00006934       ??_C@_0L@JGAO@dmflags?$DN16?$AA@ 0047e934     sv_main.obj
 0003:00006940       ??_C@_0BA@MHHL@hostname?$DNnoname?$AA@ 0047e940     sv_main.obj
 0003:00006950       ??_C@_0M@POJO@timelimit?$DN0?$AA@ 0047e950     sv_main.obj
 0003:0000695c       ??_C@_0M@BKDB@fraglimit?$DN0?$AA@ 0047e95c     sv_main.obj
 0003:00006968       ??_C@_05GHAD@game?$DN?$AA@ 0047e968     sv_main.obj
 0003:00006970       ??_C@_07KMLI@cheats?$DN?$AA@ 0047e970     sv_main.obj
 0003:00006978       ??_C@_0BB@EPHP@sv_extProtocol?$DN1?$AA@ 0047e978     sv_main.obj
 0003:0000698c       ??_C@_0N@NFAJ@maxclients?$DN1?$AA@ 0047e98c     sv_main.obj
 0003:0000699c       ??_C@_06HLAA@coop?$DN0?$AA@ 0047e99c     sv_main.obj
 0003:000069a4       ??_C@_0N@NGLD@deathmatch?$DN0?$AA@ 0047e9a4     sv_main.obj
 0003:000069b4       ??_C@_06EFAM@?$CFs?5?$CFs?6?$AA@ 0047e9b4     sv_main.obj
 0003:000069bc       ??_C@_0BK@HJDC@Ping?5acknowledge?5from?5?$CFs?6?$AA@ 0047e9bc     sv_main.obj
 0003:000069d8       ??_C@_08FFBJ@print?6?$CFs?$AA@ 0047e9d8     sv_main.obj
 0003:000069e4       ??_C@_0M@MMFA@?$CFd?5?$CFd?5?$CC?$CFs?$CC?6?$AA@ 0047e9e4     sv_main.obj
 0003:000069f0       ??_C@_07MOMD@info?6?$CFs?$AA@ 0047e9f0     sv_main.obj
 0003:000069f8       ??_C@_0BC@HIGA@?$CF16s?5?$CF8s?5?$CF2d?1?$CF2d?6?$AA@ 0047e9f8     sv_main.obj
 0003:00006a0c       ??_C@_0BG@DOMC@?$CFs?3?5wrong?5version?5?$CFd?6?$AA@ 0047ea0c     sv_main.obj
 0003:00006a24       ??_C@_0BI@ELEG@rejected?5?$CCinfo?$CC?5answer?6?$AA@ 0047ea24     sv_main.obj
 0003:00006a3c       ??_C@_0N@LFIF@challenge?5?$CFd?$AA@ 0047ea3c     sv_main.obj
 0003:00006a4c       ??_C@_0BI@PKKO@client_connect?5gildor?51?$AA@ 0047ea4c     sv_main.obj
 0003:00006a64       ??_C@_0CL@EBBP@Connecting?5client?5using?5extended@ 0047ea64     sv_main.obj
 0003:00006a90       ??_C@_0FH@BABO@print?6?$FO3Server?5provides?5newer?5ve@ 0047ea90     sv_main.obj
 0003:00006ae8       ??_C@_0CH@INBP@Client?5used?5extended?5protocol?5?$CFd@ 0047eae8     sv_main.obj
 0003:00006b10       ??_C@_0BN@MCHJ@Game?5rejected?5a?5connection?4?6?$AA@ 0047eb10     sv_main.obj
 0003:00006b30       ??_C@_0BO@JIEH@print?6?$CFs?6Connection?5refused?4?6?$AA@ 0047eb30     sv_main.obj
 0003:00006b50       ??_C@_06NPBA@rejmsg?$AA@   0047eb50     sv_main.obj
 0003:00006b58       ??_C@_0BI@NPCI@Rejected?5a?5connection?4?6?$AA@ 0047eb58     sv_main.obj
 0003:00006b70       ??_C@_0BH@EJBL@print?6Server?5is?5full?4?6?$AA@ 0047eb70     sv_main.obj
 0003:00006b88       ??_C@_0O@PINL@?$CFs?3reconnect?6?$AA@ 0047eb88     sv_main.obj
 0003:00006b98       ??_C@_0CC@HDAG@?$CFs?3reconnect?5rejected?5?3?5too?5soon@ 0047eb98     sv_main.obj
 0003:00006bbc       ??_C@_0BG@FLBC@print?6Bad?5challenge?4?6?$AA@ 0047ebbc     sv_main.obj
 0003:00006bd4       ??_C@_0CB@NJKI@print?6No?5challenge?5for?5address?4?6@ 0047ebd4     sv_main.obj
 0003:00006bf8       ??_C@_0BL@MOAJ@print?6Connection?5refused?4?6?$AA@ 0047ebf8     sv_main.obj
 0003:00006c14       ??_C@_0CK@DFGO@Remote?5connect?5in?5attract?5loop?4?5@ 0047ec14     sv_main.obj
 0003:00006c40       ??_C@_02ICFJ@ip?$AA@       0047ec40     sv_main.obj
 0003:00006c44       ??_C@_0CE@CCFI@?5?5rejected?5connect?5from?5version?5@ 0047ec44     sv_main.obj
 0003:00006c68       ??_C@_0CA@DFPL@print?6Server?5is?5version?5?$CF4?42f?4?6?$AA@ 0047ec68     sv_main.obj
 0003:00006c88       ??_C@_0BF@PAKP@SVC_DirectConnect?$CI?$CJ?6?$AA@ 0047ec88     sv_main.obj
 0003:00006ca0       ??_C@_0BJ@KKDO@print?6Bad?5rcon?5password?6?$AA@ 0047eca0     sv_main.obj
 0003:00006cbc       ??_C@_0BG@HOCP@Bad?5rcon?5from?5?$CFs?3?6?$CFs?6?$AA@ 0047ecbc     sv_main.obj
 0003:00006cd4       ??_C@_0BJ@BICJ@Bad?5remote?5command?5?$CC?$CFs?$CC?6?$AA@ 0047ecd4     sv_main.obj
 0003:00006cf0       ??_C@_0BC@IMG@Rcon?5from?5?$CFs?3?6?$CFs?6?$AA@ 0047ecf0     sv_main.obj
 0003:00006d04       ??_C@_0CN@JDAA@SV_ReadPackets?3?5fixing?5up?5a?5tran@ 0047ed04     sv_main.obj
 0003:00006d34       ??_C@_0CJ@FIJF@Bad?5connectionless?5packet?5from?5?$CF@ 0047ed34     sv_main.obj
 0003:00006d60       ??_C@_0M@FCEE@?4?4?4?5banned?6?$AA@ 0047ed60     sv_main.obj
 0003:00006d6c       ??_C@_0BI@LFDE@SV?3?5packet?5from?5?$CFs?3?5?$CFs?6?$AA@ 0047ed6c     sv_main.obj
 0003:00006d84       ??_C@_09BKMO@timed?5out?$AA@ 0047ed84     sv_main.obj
 0003:00006d90       ??_C@_0O@IAAP@?$CKfalling1?4wav?$AA@ 0047ed90     sv_main.obj
 0003:00006da0       ??_C@_0BO@IAGK@sv?5highclamp?5s?3?$CFd?5r?3?$CFd?5?9?$DO?5?$CFd?6?$AA@ 0047eda0     sv_main.obj
 0003:00006dc0       ??_C@_0CA@LEIA@sv?5lowclamp?5s?3?$CFd?5?9?9?5r?3?$CFd?5?9?$DO?5?$CFd?6?$AA@ 0047edc0     sv_main.obj
 0003:00006de0       ??_C@_0N@OALD@heartbeat?6?$CFs?$AA@ 0047ede0     sv_main.obj
 0003:00006df0       ??_C@_0BJ@BMKD@Sending?5heartbeat?5to?5?$CFs?6?$AA@ 0047edf0     sv_main.obj
 0003:00006e0c       ??_C@_03MBOC@msg?$AA@      0047ee0c     sv_main.obj
 0003:00006e10       ??_C@_08DHEI@shutdown?$AA@ 0047ee10     sv_main.obj
 0003:00006e1c       ??_C@_0BI@EAPH@SV_Multicast?3?5bad?5to?$DN?$CFd?$AA@ 0047ee1c     sv_send.obj
 0003:00006e34       ??_C@_0BL@LNPI@SV_StartSound?3?5volume?5?$DN?5?$CFf?$AA@ 0047ee34     sv_send.obj
 0003:00006e50       ??_C@_0CA@JBBE@SV_StartSound?3?5attenuation?5?$DN?5?$CFf?$AA@ 0047ee50     sv_send.obj
 0003:00006e70       ??_C@_0BM@BECA@SV_StartSound?3?5timeofs?5?$DN?5?$CFf?$AA@ 0047ee70     sv_send.obj
 0003:00006e8c       ??_C@_0BH@FOOP@Msg?5overflowed?5for?5?$CFs?6?$AA@ 0047ee8c     sv_send.obj
 0003:00006ea4       ??_C@_0BM@JJLC@Datagram?5overflowed?5for?5?$CFs?6?$AA@ 0047eea4     sv_send.obj
 0003:00006ec0       ??_C@_0BB@INLH@send?5data?5to?5?$CFs?6?$AA@ 0047eec0     sv_send.obj
 0003:00006ed4       ??_C@_0L@DLGO@overflowed?$AA@ 0047eed4     sv_send.obj
 0003:00006ee0       ??_C@_0CL@JPLE@SV_SendClientMessages?3?5msglen?5?$DO?5@ 0047eee0     sv_send.obj
 0003:00006f0c       ??_C@_09LPDF@baselines?$AA@ 0047ef0c     sv_user.obj
 0003:00006f18       ??_C@_0O@KHFO@configstrings?$AA@ 0047ef18     sv_user.obj
 0003:00006f28       ??_C@_0BI@BJGL@cmd?5configstrings?5?$CFi?50?6?$AA@ 0047ef28     sv_user.obj
 0003:00006f40       ??_C@_0BC@KCLP@Couldn?8t?5open?5?$CFs?6?$AA@ 0047ef40     sv_user.obj
 0003:00006f54       ??_C@_08IDHK@demos?1?$CFs?$AA@ 0047ef54     sv_user.obj
 0003:00006f60       ??_C@_0CC@OENI@New?5not?5valid?5?9?9?5already?5spawned@ 0047ef60     sv_user.obj
 0003:00006f84       ??_C@_0P@PNCG@New?$CI?$CJ?5from?5?$CFs?6?$AA@ 0047ef84     sv_user.obj
 0003:00006f94       ??_C@_0BJ@KDKB@cmd?5configstrings?5?$CFi?5?$CFi?6?$AA@ 0047ef94     sv_user.obj
 0003:00006fb0       ??_C@_0BE@OBMO@cmd?5baselines?5?$CFi?50?6?$AA@ 0047efb0     sv_user.obj
 0003:00006fc4       ??_C@_0CJ@PHAB@SV_Configstrings_f?5from?5differen@ 0047efc4     sv_user.obj
 0003:00006ff0       ??_C@_0CM@BIPJ@configstrings?5not?5valid?5?9?9?5alrea@ 0047eff0     sv_user.obj
 0003:0000701c       ??_C@_0BJ@LAHB@Configstrings?$CI?$CJ?5from?5?$CFs?6?$AA@ 0047f01c     sv_user.obj
 0003:00007038       ??_C@_0BF@COFJ@cmd?5baselines?5?$CFi?5?$CFi?6?$AA@ 0047f038     sv_user.obj
 0003:00007050       ??_C@_0N@ICEK@precache?5?$CFi?6?$AA@ 0047f050     sv_user.obj
 0003:00007060       ??_C@_0CF@HKKI@SV_Baselines_f?5from?5different?5le@ 0047f060     sv_user.obj
 0003:00007088       ??_C@_0CI@DKBH@baselines?5not?5valid?5?9?9?5already?5s@ 0047f088     sv_user.obj
 0003:000070b0       ??_C@_0BF@GBGN@Baselines?$CI?$CJ?5from?5?$CFs?6?$AA@ 0047f0b0     sv_user.obj
 0003:000070c8       ??_C@_0CB@ILDH@SV_Begin_f?5from?5different?5level?6@ 0047f0c8     sv_user.obj
 0003:000070ec       ??_C@_0BB@EAAN@Begin?$CI?$CJ?5from?5?$CFs?6?$AA@ 0047f0ec     sv_user.obj
 0003:00007100       ??_C@_0BE@JDMN@Uploading?5?$CFs?5to?5?$CFs?6?$AA@ 0047f100     sv_user.obj
 0003:00007114       ??_C@_0BK@PIMF@Couldn?8t?5upload?5?$CFs?5to?5?$CFs?6?$AA@ 0047f114     sv_user.obj
 0003:00007130       ??_C@_05GMPI@maps?1?$AA@   0047f130     sv_user.obj
 0003:00007138       ??_C@_06ICGA@sound?1?$AA@  0047f138     sv_user.obj
 0003:00007140       ??_C@_07KPOE@models?1?$AA@ 0047f140     sv_user.obj
 0003:00007148       ??_C@_08KDEJ@players?1?$AA@ 0047f148     sv_user.obj
 0003:00007154       ??_C@_0M@OCGL@killserver?6?$AA@ 0047f154     sv_user.obj
 0003:00007160       ??_C@_0BG@OHIL@Nextserver?$CI?$CJ?5from?5?$CFs?6?$AA@ 0047f160     sv_user.obj
 0003:00007178       ??_C@_0CI@GELI@Nextserver?$CI?$CJ?5from?5wrong?5level?0?5f@ 0047f178     sv_user.obj
 0003:000071a0       ??_C@_0BP@PHFB@commandMsec?5underflow?5from?5?$CFs?6?$AA@ 0047f1a0     sv_user.obj
 0003:000071c0       ??_C@_07BGCG@?4?4?4nop?6?$AA@ 0047f1c0     sv_user.obj
 0003:000071c8       ??_C@_08OLGO@?4?4?4move?6?$AA@ 0047f1c8     sv_user.obj
 0003:000071d4       ??_C@_0N@GKHB@?4?4?4userinfo?6?$AA@ 0047f1d4     sv_user.obj
 0003:000071e4       ??_C@_0BC@OCEE@?4?4?4stringcmd?3?5?$CFs?6?$AA@ 0047f1e4     sv_user.obj
 0003:000071f8       ??_C@_0CP@JGAD@SV_ExecuteClientMessage?3?5unknown@ 0047f1f8     sv_user.obj
 0003:00007228       ??_C@_0BP@JOFM@SV_ReadClientMessage?3?5badread?6?$AA@ 0047f228     sv_user.obj
 0003:00007248       ??_C@_0BC@KLEJ@net?3?5msg?5from?5?$CFs?6?$AA@ 0047f248     sv_user.obj
 0003:0000725c       ??_C@_0CO@HDIJ@Failed?5command?5checksum?5for?5?$CFs?5?$CI@ 0047f25c     sv_user.obj
 0003:0000728c       ??_C@_0CF@LOIJ@Object?5touching?53?5zones?5at?5?$CFg?5?$CFg@ 0047f28c     sv_world.obj
 0003:000072b4       ??_C@_0CD@JLKE@MOVETYPE_PUSH?5with?5a?5non?5bsp?5mod@ 0047f2b4     sv_world.obj
 0003:000072d8       ??_C@_0BP@IEEA@models?1objects?1dmspot?1tris?4md2?$AA@ 0047f2d8     sv_world.obj
 0003:000072f8       ??_C@_0BJ@DAAG@SV_AreaEdicts?3?5MAXCOUNT?6?$AA@ 0047f2f8     sv_world.obj
 0003:00007314       ??_C@_0BB@GMBF@?$FO4AddText?3?5?$CC?$CFs?$CC?6?$AA@ 0047f314     cmd.obj
 0003:00007328       ??_C@_0BF@KDAM@?$FO4AddText?3?5?$CFd?5chars?6?$AA@ 0047f328     cmd.obj
 0003:00007340       ??_C@_0BI@FHKM@Cbuf_AddText?3?5overflow?6?$AA@ 0047f340     cmd.obj
 0003:00007358       ??_C@_0BB@JHCO@?$FO4DeferCommands?6?$AA@ 0047f358     cmd.obj
 0003:0000736c       ??_C@_0BE@NNBP@?$FO4UndeferCommands?3?5?$AA@ 0047f36c     cmd.obj
 0003:00007380       ??_C@_0BB@JIBH@?$FO4InsText?3?5?$CC?$CFs?$CC?6?$AA@ 0047f380     cmd.obj
 0003:00007394       ??_C@_0BF@LMIH@?$FO4InsText?3?5?$CFd?5chars?6?$AA@ 0047f394     cmd.obj
 0003:000073ac       ??_C@_0BL@CAL@Cbuf_InsertText?3?5overflow?6?$AA@ 0047f3ac     cmd.obj
 0003:000073c8       ??_C@_0BH@CGBN@Usage?3?5unalias?5?$DMmask?$DO?6?$AA@ 0047f3c8     cmd.obj
 0003:000073e0       ??_C@_0BE@FJHA@?$CFd?5aliases?5removed?6?$AA@ 0047f3e0     cmd.obj
 0003:000073f4       ??_C@_0N@IFEJ@alias?5?$CFs?5?$CFs?6?$AA@ 0047f3f4     cmd.obj
 0003:00007404       ??_C@_0CN@OLID@RegisterCommand?3?5?$CC?$CFs?$CC?5is?5already@ 0047f404     cmd.obj
 0003:00007434       ??_C@_0CL@LPDN@UnregisterCommand?3?5?$CC?$CFs?$CC?5is?5not?5r@ 0047f434     cmd.obj
 0003:00007460       ??_C@_0BC@BMPO@ALIAS_LOOP_COUNT?6?$AA@ 0047f460     cmd.obj
 0003:00007474       ??_C@_02PLJO@?1?$DP?$AA@   0047f474     cmd.obj
 0003:00007478       ??_C@_0L@ODFG@?$FO6cmd?3?5?$CFs?6?$AA@ 0047f478     cmd.obj
 0003:00007484       ??_C@_0CB@CKOM@Macro?5expansion?5loop?0?5discarded?6@ 0047f484     cmd.obj
 0003:000074a8       ??_C@_0CO@EPI@Expanded?5line?5exceeded?51024?5char@ 0047f4a8     cmd.obj
 0003:000074d8       ??_C@_0BH@OMAJ@bad?5str?3?5?$DM?$CFs?$DO?5?9?$DO?5?$DM?$CFs?$DO?6?$AA@ 0047f4d8     cmd.obj
 0003:000074f0       ??_C@_0CG@GFJO@Line?5has?5unmatched?5quote?0?5discar@ 0047f4f0     cmd.obj
 0003:00007518       ??_C@_0CF@PFBF@Line?5exceeded?51024?5chars?0?5discar@ 0047f518     cmd.obj
 0003:00007540       ??_C@_09FLNO@cmd_debug?$AA@ 0047f540     cmd.obj
 0003:0000754c       ??_C@_04OMDE@wait?$AA@     0047f54c     cmd.obj
 0003:00007554       ??_C@_07CHCF@unalias?$AA@  0047f554     cmd.obj
 0003:0000755c       ??_C@_04DBD@exec?$AA@      0047f55c     cmd.obj
 0003:00007564       ??_C@_07KFEL@cmdlist?$AA@  0047f564     cmd.obj
 0003:0000756c       ??_C@_0BM@GCKF@Usage?3?5wait?5?$FL?$DMnum_frames?$DO?$FN?6?$AA@ 0047f56c     cmd.obj
 0003:00007588       ??_C@_0BI@BCCL@Usage?3?5exec?5?$DMfilename?$DO?6?$AA@ 0047f588     cmd.obj
 0003:000075a0       ??_C@_0M@DOAP@Execing?5?$CFs?6?$AA@ 0047f5a0     cmd.obj
 0003:000075ac       ??_C@_0BC@CGKB@Couldn?8t?5exec?5?$CFs?6?$AA@ 0047f5ac     cmd.obj
 0003:000075c0       ??_C@_0BP@KHHI@Usage?3?5alias?5?$FL?$DMname?$DO?5?$DMvalue?$DO?$FN?6?$AA@ 0047f5c0     cmd.obj
 0003:000075e0       ??_C@_08IDHN@?$CFs?5?$CC?$CFs?$CC?6?$AA@ 0047f5e0     cmd.obj
 0003:000075ec       ??_C@_0BJ@KMBC@Current?5alias?5commands?3?6?$AA@ 0047f5ec     cmd.obj
 0003:00007608       ??_C@_0BJ@PKNG@Usage?3?5cmdlist?5?$FL?$DMmask?$DO?$FN?6?$AA@ 0047f608     cmd.obj
 0003:00007624       ??_C@_0BK@HMMH@Displayed?5?$CFd?1?$CFd?5commands?6?$AA@ 0047f624     cmd.obj
 0003:00007640       ??_C@_0P@CNAN@?$CF?93d?5?$CFc?5?$CFc?5?$CFs?6?$AA@ 0047f640     cmd.obj
 0003:00007650       ??_C@_0BO@OMDO@?9?9?9?9i?9a?9name?9?9?9?9?9?9?9?9?9?9?9?9?9?9?9?9?6?$AA@ 0047f650     cmd.obj
 0003:00007670       ??_C@_0BI@DOFI@unknown?5bsp?5type?5for?5?$CFs?$AA@ 0047f670     cmodel.obj
 0003:00007688       ??_C@_0BO@KMOK@map?5has?5invalid?5headnode?5?$DN?5?$CFd?$AA@ 0047f688     cmodel.obj
 0003:000076a8       ??_C@_08DIA@flushmap?$AA@  0047f6a8     cmodel.obj
 0003:000076b4       ??_C@_0M@JOOJ@map_noZones?$AA@ 0047f6b4     cmodel.obj
 0003:000076c0       ??_C@_0BE@CKNK@sound?1materials?4lst?$AA@ 0047f6c0     cmodel.obj
 0003:000076d4       ??_C@_0BF@ECHE@Map?5with?5no?5surfaces?$AA@ 0047f6d4     cmodel.obj
 0003:000076ec       ??_C@_0BL@EKH@Unexpected?5end?5of?5file?5?$CFs?6?$AA@ 0047f6ec     cmodel.obj
 0003:00007708       ??_C@_0CE@FACN@Unknown?5material?5marker?5?$CC?$CFs?$CC?5in?5@ 0047f708     cmodel.obj
 0003:0000772c       ??_C@_0CE@JLFE@ReadSurfMaterials?3?5?$CFs?5is?5not?5fou@ 0047f72c     cmodel.obj
 0003:00007750       ??_C@_0BG@NJMD@Bad?5brushside?5texinfo?$AA@ 0047f750     cmodel.obj
 0003:00007768       ??_C@_0CB@JJLD@map?5leaf?50?5is?5not?5CONTENTS_SOLID@ 0047f768     cmodel.obj
 0003:0000778c       ??_C@_0BC@JLOO@Map?5with?5no?5leafs?$AA@ 0047f78c     cmodel.obj
 0003:000077a0       ??_C@_0BD@BHBN@Map?5with?5no?5planes?$AA@ 0047f7a0     cmodel.obj
 0003:000077b4       ??_C@_0P@LHPO@?$CFs?5?$CFd?5?$CFd?5?$CFd?5?$CFd?$AA@ 0047f7b4     cmodel.obj
 0003:000077c4       ??_C@_0P@KJCI@gfx?1lights?4rad?$AA@ 0047f7c4     cmodel.obj
 0003:000077d4       ??_C@_06EEFK@scroll?$AA@   0047f7d4     cmodel.obj
 0003:000077dc       ??_C@_0L@MENG@wads?1?$CFs?1?$CFs?$AA@ 0047f7dc     cmodel.obj
 0003:000077e8       ??_C@_0BE@LPJK@textures?1wads?1?$CFs?1?$CFs?$AA@ 0047f7e8     cmodel.obj
 0003:000077fc       ??_C@_0CC@JODP@unknown?5contents?5in?5Q1?1HL?5map?3?5?$CF@ 0047f7fc     cmodel.obj
 0003:00007820       ??_C@_0CN@FDIO@Found?5?$CFd?5solid?5leafs?5?$CIhave?5?$CFd?5no@ 0047f820     cmodel.obj
 0003:00007850       ??_C@_0FL@DCC@FindPlane?3?5?5?5?$CFg?5ms?5?$CIfound?5?$CFd?1?$CFd?$CJ@ 0047f850     cmodel.obj
 0003:000078ac       ??_C@_0DJ@IHAE@Built?5?$CFd?5brushes?5in?5?$CFg?5msec?0?5use@ 0047f8ac     cmodel.obj
 0003:000078e8       ??_C@_0BH@EEMI@brush?5?$CFd?5not?5generated?$AA@ 0047f8e8     cmodel.obj
 0003:00007900       ??_C@_0P@ICJJ@NULL?5backBrush?$AA@ 0047f900     cmodel.obj
 0003:00007910       ??_C@_0BI@IABP@?$CBleafBrushes?$FLleaf?9?$DOnum?$FN?$AA@ 0047f910     cmodel.obj
 0003:00007928       ??_C@_0CC@IOHB@leaf?9?$DOnum?5?$DN?$DN?5leaf?5?9?5bspfile?4leaf@ 0047f928     cmodel.obj
 0003:0000794c       ??_C@_0BD@LIEK@Assertion?3?5?$CFs?5?$CI?$CFs?$CJ?$AA@ 0047f94c     cmodel.obj
 0003:00007960       ??_C@_0O@GFEC@leaf?9?$DOnum?5?$DO?50?$AA@ 0047f960     cmodel.obj
 0003:00007970       ??_C@_0BD@OPNL@qcommon?1cmodel?4cpp?$AA@ 0047f970     cmodel.obj
 0003:00007984       ??_C@_0BI@IFGA@Bad?5brushside?5shaderNum?$AA@ 0047f984     cmodel.obj
 0003:0000799c       ??_C@_0BD@LGDL@Map?5with?5no?5models?$AA@ 0047f99c     cmodel.obj
 0003:000079b0       ??_C@_09MEJN@textures?1?$AA@ 0047f9b0     cmodel.obj
 0003:000079bc       ??_C@_0BE@GDFO@Map?5with?5no?5shaders?$AA@ 0047f9bc     cmodel.obj
 0003:000079d0       ??_C@_0BJ@CPOG@CM_InlineModel?3?5bad?5name?$AA@ 0047f9d0     cmodel.obj
 0003:000079ec       ??_C@_0BL@ONMA@CM_InlineModel?3?5bad?5number?$AA@ 0047f9ec     cmodel.obj
 0003:00007a08       ??_C@_0BH@OPBN@FloodZone_r?3?5reflooded?$AA@ 0047fa08     cmodel.obj
 0003:00007a20       ??_C@_0BM@BBON@zoneportal?5?$DO?5numzoneportals?$AA@ 0047fa20     cmodel.obj
 0003:00007a3c       ??_C@_0BA@HEMN@zone?5?$DO?5numZones?$AA@ 0047fa3c     cmodel.obj
 0003:00007a4c       ??_C@_0BC@BOBL@map?5with?5no?5nodes?$AA@ 0047fa4c     cmodel.obj
 0003:00007a60       ??_C@_0BP@LDMN@?$CBnode?9?$DOchildren?$FLindex?$FN?9?$DOparent?$AA@ 0047fa60     cmodel.obj
 0003:00007a80       ??_C@_0BI@HDCD@Map?5with?5no?5leafbrushes?$AA@ 0047fa80     cmodel.obj
 0003:00007a98       ?dedicated@@3PAUcvar_t@@A  0047fa98     common.obj
 0003:00007acc       ??_C@_08PEEC@FreeTags?$AA@ 0047facc     common.obj
 0003:00007ad8       ??_C@_04NEN@Free?$AA@      0047fad8     common.obj
 0003:00007ae0       ??_C@_06FGBD@Malloc?$AA@   0047fae0     common.obj
 0003:00007ae8       ??_C@_08CKGE@SndIndex?$AA@ 0047fae8     common.obj
 0003:00007af4       ??_C@_08LEPK@ImgIndex?$AA@ 0047faf4     common.obj
 0003:00007b00       ??_C@_08HHIL@ModIndex?$AA@ 0047fb00     common.obj
 0003:00007b0c       ??_C@_05BDKN@Pmove?$AA@    0047fb0c     common.obj
 0003:00007b14       ??_C@_0L@HLNK@PtContents?$AA@ 0047fb14     common.obj
 0003:00007b20       ??_C@_05EMFM@Trace?$AA@    0047fb20     common.obj
 0003:00007b28       ??_C@_0L@DDPI@AreaEdicts?$AA@ 0047fb28     common.obj
 0003:00007b34       ??_C@_0M@GOJ@UnlinkEdict?$AA@ 0047fb34     common.obj
 0003:00007b40       ??_C@_09FCBE@LinkEdict?$AA@ 0047fb40     common.obj
 0003:00007b4c       ??_C@_0M@ILBC@dedicated?$DN0?$AA@ 0047fb4c     common.obj
 0003:00007b58       ??_C@_08PEDM@cheats?$DN0?$AA@ 0047fb58     common.obj
 0003:00007b64       ??_C@_09OFLO@logfile?$DN0?$AA@ 0047fb64     common.obj
 0003:00007b70       ??_C@_09OIPF@nointro?$DN0?$AA@ 0047fb70     common.obj
 0003:00007b7c       ??_C@_0L@JDGD@timedemo?$DN0?$AA@ 0047fb7c     common.obj
 0003:00007b88       ??_C@_0M@MEIO@timescale?$DN1?$AA@ 0047fb88     common.obj
 0003:00007b94       ??_C@_0M@GKMC@developer?$DN0?$AA@ 0047fb94     common.obj
 0003:00007ba0       ??_C@_0N@FBLA@com_speeds?$DN0?$AA@ 0047fba0     common.obj
 0003:00007bb0       ??_C@_04OHIG@?$FO4?$CFs?$AA@ 0047fbb0     common.obj
 0003:00007bb8       ??_C@_0CA@GJKP@?6?6?9?9?9?9?9?5?$CFs?5debug?5log?0?5?$CFs?5?9?9?9?9?9?6?$AA@ 0047fbb8     common.obj
 0003:00007bd8       ??_C@_09PPIM@debug?4log?$AA@ 0047fbd8     common.obj
 0003:00007be4       ??_C@_0BO@KBHK@IPWildcard?3?5bad?5char?5in?5?$CC?$CFs?$CC?6?$AA@ 0047fbe4     common.obj
 0003:00007c04       ??_C@_0BN@JGPE@IPWildcard?3?5short?5mask?5?$CC?$CFs?$CC?6?$AA@ 0047fc04     common.obj
 0003:00007c24       ??_C@_0DK@OAML@Info_Set?$CI?$CC?$CFs?$CC?0?$CC?$CFs?$CC?$CJ?3?5can?8t?5use?5k@ 0047fc24     common.obj
 0003:00007c60       ??_C@_0BN@DPCF@Info?5string?5length?5exceeded?6?$AA@ 0047fc60     common.obj
 0003:00007c80       ??_C@_06GNBE@?2?$CFs?2?$CFs?$AA@ 0047fc80     common.obj
 0003:00007c88       ??_C@_0P@BLOA@missing?5value?6?$AA@ 0047fc88     common.obj
 0003:00007c98       ??_C@_07PKKD@?$FO2?$CF?922s?$AA@ 0047fc98     common.obj
 0003:00007ca0       ??_C@_0CG@EKON@?$FO2?6?$DN?$DN?$DN?$DN?$DN?$DN?5Quake2?5Initialized?5?$DN?$DN?$DN@ 0047fca0     common.obj
 0003:00007cc8       ??_C@_0BB@MFEB@dedicated_start?6?$AA@ 0047fcc8     common.obj
 0003:00007cdc       ??_C@_03CHOC@d1?6?$AA@     0047fcdc     common.obj
 0003:00007ce0       ??_C@_07BPOH@version?$AA@  0047fce0     common.obj
 0003:00007ce8       ??_C@_0BL@NMIC@4?418?5x86?5Nov?510?52010?5Win32?$AA@ 0047fce8     common.obj
 0003:00007d04       ??_C@_0CC@GBGI@ParseCmdline?3?5unable?5to?5set?5?$CC?$CFs?$CC@ 0047fd04     common.obj
 0003:00007d28       ??_C@_0BI@FIGH@ParseCmdline?3?5overflow?6?$AA@ 0047fd28     common.obj
 0003:00007d40       ??_C@_0BN@FNHH@ParseCmdline?3?5bad?5argument?5?$CC?$AA@ 0047fd40     common.obj
 0003:00007d60       ??_C@_0P@FJG@?$CF11s?3?5?$CF3d?5?$CF?43f?$AA@ 0047fd60     common.obj
 0003:00007d70       ??_C@_0FC@PCGK@sv?3?$CF5?42f?5gm?3?$CF5?42f?5?$CI?$CF5?42f?$CJ?5cl?3?$CF5?4@ 0047fd70     common.obj
 0003:00007dc4       ??_C@_0L@JBAD@Quake2?4log?$AA@ 0047fdc4     common.obj
 0003:00007dd0       ??_C@_0BH@JNPH@BlockCRC?3?5sequence?5?$DM?50?$AA@ 0047fdd0     crc.obj
 0003:00007dec       ??_C@_0BJ@JIGN@Invalid?5info?5cvar?5value?6?$AA@ 0047fdec     cvar.obj
 0003:00007e08       ??_C@_0CP@CFHC@Different?5default?5value?5for?5cvar@ 0047fe08     cvar.obj
 0003:00007e38       ??_C@_0BI@DGEI@Invalid?5info?5cvar?5name?6?$AA@ 0047fe38     cvar.obj
 0003:00007e50       ??_C@_0CC@NDBD@?$CFs?5will?5be?5changed?5after?5restart@ 0047fe50     cvar.obj
 0003:00007e74       ??_C@_0BH@FDIH@?$CFs?5is?5cheat?5protected?6?$AA@ 0047fe74     cvar.obj
 0003:00007e8c       ??_C@_0BH@EAGI@?$CFs?5is?5write?5protected?6?$AA@ 0047fe8c     cvar.obj
 0003:00007ea4       ??_C@_0BD@DOLD@?$CC?$CFs?$CC?5is?3?$CC?$CFs?$CC?5?$CFs?$CFs?6?$AA@ 0047fea4     cvar.obj
 0003:00007eb8       ??_C@_0N@LNED@?$CIno?5default?$CJ?$AA@ 0047feb8     cvar.obj
 0003:00007ec8       ??_C@_0N@KINN@default?3?$CC?$CFs?$CC?$AA@ 0047fec8     cvar.obj
 0003:00007ed8       ??_C@_09HNNH@?$CIdefault?$CJ?$AA@ 0047fed8     cvar.obj
 0003:00007ee4       ??_C@_08NEHJ@?9?$DO?5?$CC?$CFs?$CC?5?$AA@ 0047fee4     cvar.obj
 0003:00007ef0       ??_C@_0P@HEND@set?$CFc?5?$CFs?5?$CC?$CFs?$CC?6?$AA@ 0047fef0     cvar.obj
 0003:00007f00       ??_C@_0BG@JGCG@fixing?5cheat?5cvar?5?$CFs?6?$AA@ 0047ff00     cvar.obj
 0003:00007f18       ??_C@_05BPBD@cycle?$AA@    0047ff18     cvar.obj
 0003:00007f20       ??_C@_06KGCE@toggle?$AA@   0047ff20     cvar.obj
 0003:00007f28       ??_C@_03ONEI@add?$AA@      0047ff28     cvar.obj
 0003:00007f2c       ??_C@_08DHNN@cvarlist?$AA@ 0047ff2c     cvar.obj
 0003:00007f38       ??_C@_05NGOJ@reset?$AA@    0047ff38     cvar.obj
 0003:00007f40       ??_C@_04PHDO@sets?$AA@     0047ff40     cvar.obj
 0003:00007f48       ??_C@_04IEM@setu?$AA@      0047ff48     cvar.obj
 0003:00007f50       ??_C@_04LGA@seta?$AA@      0047ff50     cvar.obj
 0003:00007f58       ??_C@_03NHNF@set?$AA@      0047ff58     cvar.obj
 0003:00007f5c       ??_C@_0BM@DDIA@Invalid?5flag?5for?5?8set?8?3?5?$CFc?6?$AA@ 0047ff5c     cvar.obj
 0003:00007f78       ??_C@_0EH@IHNB@Usage?3?5set?5?$DMvariable?$DO?5?$DMvalue?$DO?5?$FLa@ 0047ff78     cvar.obj
 0003:00007fc0       ??_C@_0CA@DHAI@Usage?3?5seta?5?$DMvariable?$DO?5?$DMvalue?$DO?6?$AA@ 0047ffc0     cvar.obj
 0003:00007fe0       ??_C@_0CA@HCDI@Usage?3?5setu?5?$DMvariable?$DO?5?$DMvalue?$DO?6?$AA@ 0047ffe0     cvar.obj
 0003:00008000       ??_C@_0CA@BDLA@Usage?3?5sets?5?$DMvariable?$DO?5?$DMvalue?$DO?6?$AA@ 00480000     cvar.obj
 0003:00008020       ??_C@_0BF@LGPO@Usage?3?5reset?5?$DMmask?$DO?6?$AA@ 00480020     cvar.obj
 0003:00008038       ??_C@_0BK@FEJA@Usage?3?5cvarlist?5?$FL?$DMmask?$DO?$FN?6?$AA@ 00480038     cvar.obj
 0003:00008054       ??_C@_0BH@NELE@Displayed?5?$CFd?1?$CFd?5cvars?6?$AA@ 00480054     cvar.obj
 0003:0000806c       ??_C@_0BA@GEPH@?$CFs?5?$CFs?$CFs?5?$DN?5?$CC?$CFs?$CC?6?$AA@ 0048006c     cvar.obj
 0003:0000807c       ??_C@_02GEF@?$FO6?$AA@     0048007c     cvar.obj
 0003:00008080       ??_C@_06NPIL@?5?5?5?5?5?5?$AA@ 00480080     cvar.obj
 0003:00008088       ??_C@_0BB@LABI@?$CFs?5is?5not?5found?6?$AA@ 00480088     cvar.obj
 0003:0000809c       ??_C@_0BB@FAIO@add?3?5MIN?5?$DO?$DN?5MAX?6?$AA@ 0048009c     cvar.obj
 0003:000080b0       ??_C@_0BK@BDKF@Invalid?5flag?5for?5add?3?5?$CFc?6?$AA@ 004800b0     cvar.obj
 0003:000080cc       ??_C@_0DI@CJMF@Usage?3?5add?5?$DMvariable?$DO?5?$DMincrement@ 004800cc     cvar.obj
 0003:00008104       ??_C@_0CB@KHPP@Usage?3?5scale?5?$DMvariable?$DO?5?$DMscale?$DO?6@ 00480104     cvar.obj
 0003:00008128       ??_C@_0BK@DBGB@Usage?3?5toggle?5?$DMvariable?$DO?6?$AA@ 00480128     cvar.obj
 0003:00008144       ??_C@_0DP@BGLF@Usage?3?5cycle?5?$FL?9r?$FN?5?$DMvariable?$DO?5?$DMva@ 00480144     cvar.obj
 0003:00008184       ??_C@_02CHHI@?9r?$AA@      00480184     cvar.obj
 0003:0000826c       ??_C@_0BM@PCGB@Entity?5number?5?$DO?$DN?5MAX_EDICTS?$AA@ 0048026c     entdelta.obj
 0003:00008288       ??_C@_0BE@IKFJ@Unset?5entity?5number?$AA@ 00480288     entdelta.obj
 0003:0000829c       ??_C@_0CD@FPOE@ProcessEntstring?3?5size?5?$DN?5?$CFd?5?9?$DO?5?$CF@ 0048029c     EntityParser.obj
 0003:000082c0       ??_C@_0BJ@MIIC@Adding?5entity?5patch?5?4?4?4?6?$AA@ 004802c0     EntityParser.obj
 0003:000082dc       ??_C@_0BA@EJBK@?$CF2d?5?$CF3d?5?$CF3d?5?$CFs?6?$AA@ 004802dc     EntityParser.obj
 0003:000082ec       ??_C@_0DF@NKCB@?9?9?9?9?5Entity?5statistics?3?5?9?9?9?9?6?9n?9@ 004802ec     EntityParser.obj
 0003:00008324       ??_C@_0BH@OGEO@dst?5?$DM?5dst2?5?$CL?5entStrLen?$AA@ 00480324     EntityParser.obj
 0003:0000833c       ??_C@_0BJ@KHBL@qcommon?1EntityParser?4cpp?$AA@ 0048033c     EntityParser.obj
 0003:00008358       ??_C@_0N@EHLC@expected?5?$CC?$HL?$CC?$AA@ 00480358     EntityParser.obj
 0003:00008368       ??_C@_0P@CODN@MAX_ENT_FIELDS?$AA@ 00480368     EntityParser.obj
 0003:00008378       ??_C@_0BH@ENLB@unexpected?5end?5of?5data?$AA@ 00480378     EntityParser.obj
 0003:00008390       ??_C@_0BF@OJJ@EntString?5error?3?5?$CFs?6?$AA@ 00480390     EntityParser.obj
 0003:000083a8       ??_C@_02ONJM@?$HN?6?$AA@   004803a8     EntityParser.obj
 0003:000083ac       ??_C@_0L@LNNB@?$CC?$CFs?$CC?5?$CC?$CFs?$CC?6?$AA@ 004803ac     EntityParser.obj
 0003:000083b8       ??_C@_02JKGD@?$HL?6?$AA@   004803b8     EntityParser.obj
 0003:000083bc       ??_C@_05LIJM@angle?$AA@    004803bc     EntityParser.obj
 0003:000083c4       ??_C@_06NOHF@origin?$AA@   004803c4     EntityParser.obj
 0003:000083cc       ??_C@_0BF@OCLF@MAX_TARGETS?5reached?6?$AA@ 004803cc     EntityParser.obj
 0003:000083e4       ??_C@_0L@PMO@targetname?$AA@ 004803e4     EntityParser.obj
 0003:000083f0       ??_C@_0O@IEPH@target_splash?$AA@ 004803f0     EntityParser.obj
 0003:00008400       ??_C@_0BB@ECKI@func_illusionary?$AA@ 00480400     EntityParser.obj
 0003:00008414       ??_C@_09GDDG@surfparam?$AA@ 00480414     EntityParser.obj
 0003:00008420       ??_C@_0L@LME@worldspawn?$AA@ 00480420     EntityParser.obj
 0003:0000842c       ??_C@_05DKPF@light?$AA@    0048042c     EntityParser.obj
 0003:00008434       ??_C@_0CO@CFNM@func_plat?0func_?$CKrotating?0func_do@ 00480434     EntityParser.obj
 0003:00008464       ??_C@_0P@OHKL@?$DM?$DM?5OVERFLOW?5?$DO?$DO?$AA@ 00480464     EntityParser.obj
 0003:00008474       ??_C@_0BI@BJJF@invalid?5model?5index?5?$CFd?6?$AA@ 00480474     EntityParser.obj
 0003:0000848c       ??_C@_0L@CANC@spawnflags?$AA@ 0048048c     EntityParser.obj
 0003:00008498       ??_C@_09JDJH@classname?$AA@ 00480498     EntityParser.obj
 0003:000084a4       ??_C@_06FNFB@_focus?$AA@   004804a4     EntityParser.obj
 0003:000084ac       ??_C@_05FIPM@_cone?$AA@    004804ac     EntityParser.obj
 0003:000084b4       ??_C@_05LHHB@pitch?$AA@    004804b4     EntityParser.obj
 0003:000084bc       ??_C@_06MFB@angles?$AA@    004804bc     EntityParser.obj
 0003:000084c4       ??_C@_05NGOE@?$CFf?5?$CFf?$AA@ 004804c4     EntityParser.obj
 0003:000084cc       ??_C@_0BD@NNFL@_mangle?0_spotangle?$AA@ 004804cc     EntityParser.obj
 0003:000084e0       ??_C@_0L@JPPJ@_spotpoint?$AA@ 004804e0     EntityParser.obj
 0003:000084ec       ??_C@_0M@ILIF@_spotvector?$AA@ 004804ec     EntityParser.obj
 0003:000084f8       ??_C@_0CK@IHFG@_spotvector?0_spotpoint?0_mangle?0_@ 004804f8     EntityParser.obj
 0003:00008524       ??_C@_05BHCO@_spot?$AA@    00480524     EntityParser.obj
 0003:0000852c       ??_C@_0M@OPBM@?$CFf?5?$CFf?5?$CFf?5?$CFf?$AA@ 0048052c     EntityParser.obj
 0003:00008538       ??_C@_06ENJP@_light?$AA@   00480538     EntityParser.obj
 0003:00008540       ??_C@_05BFAE@delay?$AA@    00480540     EntityParser.obj
 0003:00008548       ??_C@_06CCPD@target?$AA@   00480548     EntityParser.obj
 0003:00008550       ??_C@_0N@IGOF@color?0_color?$AA@ 00480550     EntityParser.obj
 0003:00008560       ??_C@_0N@MANK@light?0_light?$AA@ 00480560     EntityParser.obj
 0003:00008570       ??_C@_0BB@HJIB@_wait?0_fade?0wait?$AA@ 00480570     EntityParser.obj
 0003:00008584       ??_C@_08MNFC@_falloff?$AA@ 00480584     EntityParser.obj
 0003:00008590       ??_C@_0N@DNMD@_environment?$AA@ 00480590     EntityParser.obj
 0003:000085a0       ??_C@_08NNKG@?$CFd?5?$CFd?5?$CFd?$AA@ 004805a0     EntityParser.obj
 0003:000085ac       ??_C@_05HMGA@color?$AA@    004805ac     EntityParser.obj
 0003:000085b4       ??_C@_06JGHA@radius?$AA@   004805b4     EntityParser.obj
 0003:000085bc       ??_C@_0BE@FHOB@HAVE?5SUN?5FLARE?3?5?$CFs?6?$AA@ 004805bc     EntityParser.obj
 0003:000085d0       ??_C@_03KLED@dmg?$AA@      004805d0     EntityParser.obj
 0003:000085d4       ??_C@_06HECL@health?$AA@   004805d4     EntityParser.obj
 0003:000085dc       ??_C@_05NGLH@flare?$AA@    004805dc     EntityParser.obj
 0003:000085e4       ??_C@_0N@FBG@style?0_style?$AA@ 004805e4     EntityParser.obj
 0003:000085f4       ??_C@_0BK@MBJG@target?5?$CC?$CFs?$CC?5is?5not?5found?6?$AA@ 004805f4     EntityParser.obj
 0003:00008610       ??_C@_0BC@FEBM@info_intermission?$AA@ 00480610     EntityParser.obj
 0003:00008624       ??_C@_09NKAN@item_quad?$AA@ 00480624     EntityParser.obj
 0003:00008630       ??_C@_0BL@MIFG@item_artifact_super_damage?$AA@ 00480630     EntityParser.obj
 0003:0000864c       ??_C@_0M@CNAP@item_enviro?$AA@ 0048064c     EntityParser.obj
 0003:00008658       ??_C@_0BJ@KAMC@item_artifact_envirosuit?$AA@ 00480658     EntityParser.obj
 0003:00008674       ??_C@_0BF@MAMM@item_invulnerability?$AA@ 00480674     EntityParser.obj
 0003:0000868c       ??_C@_0BO@HDDH@item_artifact_invulnerability?$AA@ 0048068c     EntityParser.obj
 0003:000086ac       ??_C@_0BA@GFMA@item_armor_body?$AA@ 004806ac     EntityParser.obj
 0003:000086bc       ??_C@_0O@HMHM@item_armorInv?$AA@ 004806bc     EntityParser.obj
 0003:000086cc       ??_C@_0BC@GPNI@item_armor_combat?$AA@ 004806cc     EntityParser.obj
 0003:000086e0       ??_C@_0M@FMJG@item_armor2?$AA@ 004806e0     EntityParser.obj
 0003:000086ec       ??_C@_0BC@PLPJ@item_armor_jacket?$AA@ 004806ec     EntityParser.obj
 0003:00008700       ??_C@_0M@KDCP@item_armor1?$AA@ 00480700     EntityParser.obj
 0003:0000870c       ??_C@_0M@MOIJ@ammo_shells?$AA@ 0048070c     EntityParser.obj
 0003:00008718       ??_C@_0N@KNDC@ammo_bullets?$AA@ 00480718     EntityParser.obj
 0003:00008728       ??_C@_0M@MIDE@item_weapon?$AA@ 00480728     EntityParser.obj
 0003:00008734       ??_C@_0BC@KFF@item_health_large?$AA@ 00480734     EntityParser.obj
 0003:00008748       ??_C@_0BB@KJE@item_health_mega?$AA@ 00480748     EntityParser.obj
 0003:0000875c       ??_C@_0BC@HBNN@item_health_small?$AA@ 0048075c     EntityParser.obj
 0003:00008770       ??_C@_0M@DFKC@item_health?$AA@ 00480770     EntityParser.obj
 0003:0000877c       ??_C@_0L@PCJD@ammo_slugs?$AA@ 0048077c     EntityParser.obj
 0003:00008788       ??_C@_0L@EKA@item_cells?$AA@ 00480788     EntityParser.obj
 0003:00008794       ??_C@_0O@KBKH@ammo_grenades?$AA@ 00480794     EntityParser.obj
 0003:000087a4       ??_C@_0N@IAJO@item_rockets?$AA@ 004807a4     EntityParser.obj
 0003:000087b4       ??_C@_0M@LECH@item_spikes?$AA@ 004807b4     EntityParser.obj
 0003:000087c0       ??_C@_0M@BFBP@item_shells?$AA@ 004807c0     EntityParser.obj
 0003:000087cc       ??_C@_0P@FOOL@weapon_railgun?$AA@ 004807cc     EntityParser.obj
 0003:000087dc       ??_C@_0BB@GAKO@weapon_lightning?$AA@ 004807dc     EntityParser.obj
 0003:000087f0       ??_C@_0BA@FDHN@weapon_chaingun?$AA@ 004807f0     EntityParser.obj
 0003:00008800       ??_C@_0BE@IJNB@weapon_supernailgun?$AA@ 00480800     EntityParser.obj
 0003:00008814       ??_C@_0BC@JMBH@weapon_machinegun?$AA@ 00480814     EntityParser.obj
 0003:00008828       ??_C@_0P@HJEK@weapon_nailgun?$AA@ 00480828     EntityParser.obj
 0003:00008838       ??_C@_04CJJD@team?$AA@     00480838     EntityParser.obj
 0003:00008840       ??_C@_07JHLA@door_?$CFd?$AA@ 00480840     EntityParser.obj
 0003:00008848       ??_C@_0BD@EOPI@MAX_DOORS?5reached?6?$AA@ 00480848     EntityParser.obj
 0003:0000885c       ??_C@_09HMCI@func_door?$AA@ 0048085c     EntityParser.obj
 0003:00008868       ??_C@_0BF@HFGF@misc_teleporter_dest?$AA@ 00480868     EntityParser.obj
 0003:00008880       ??_C@_0BK@NHGH@info_teleport_destination?$AA@ 00480880     EntityParser.obj
 0003:0000889c       ??_C@_05CCAL@ammo_?$AA@    0048089c     EntityParser.obj
 0003:000088a4       ??_C@_05MECC@item_?$AA@    004808a4     EntityParser.obj
 0003:000088ac       ??_C@_07BHGE@weapon_?$AA@  004808ac     EntityParser.obj
 0003:000088b4       ??_C@_08DOFH@?$CFg?5?$CFg?5?$CFg?$AA@ 004808b4     EntityParser.obj
 0003:000088c0       ??_C@_0BA@HPLN@misc_teleporter?$AA@ 004808c0     EntityParser.obj
 0003:000088d0       ??_C@_0BB@EDMK@trigger_teleport?$AA@ 004808d0     EntityParser.obj
 0003:000088e4       ??_C@_0BE@LOMA@weapon_hyperblaster?$AA@ 004808e4     EntityParser.obj
 0003:000088f8       ??_C@_0BB@IMNM@weapon_plasmagun?$AA@ 004808f8     EntityParser.obj
 0003:0000890c       ??_C@_08LECE@nosingle?$AA@ 0048090c     EntityParser.obj
 0003:00008918       ??_C@_07NLMN@notteam?$AA@  00480918     EntityParser.obj
 0003:00008920       ??_C@_07FFFB@notfree?$AA@  00480920     EntityParser.obj
 0003:00008928       ??_C@_0BC@JHNF@target_teleporter?$AA@ 00480928     EntityParser.obj
 0003:0000893c       ??_C@_0EN@PJBL@?$HL?6classname?5misc_teleporter_dest@ 0048093c     EntityParser.obj
 0003:0000898c       ??_C@_02EJLK@_a?$AA@       0048098c     EntityParser.obj
 0003:00008990       ??_C@_0CM@KKDJ@q3?3?5trigger_push?3?5bad?5target?5?$CC?$CFs@ 00480990     EntityParser.obj
 0003:000089bc       ??_C@_0CF@DODJ@q3?3?5trigger_push?3?5no?5?$CCtarget?$CC?5fi@ 004809bc     EntityParser.obj
 0003:000089e4       ??_C@_0N@EEFP@trigger_push?$AA@ 004809e4     EntityParser.obj
 0003:000089f4       ??_C@_0M@LMAL@func_static?$AA@ 004809f4     EntityParser.obj
 0003:00008a00       ??_C@_0NF@MCKF@?$HL?6classname?5path_corner?6origin?5?$CC@ 00480a00     EntityParser.obj
 0003:00008ad8       ??_C@_04OFOL@?$CFs_0?$AA@  00480ad8     EntityParser.obj
 0003:00008ae0       ??_C@_06GBDK@bob_?$CFd?$AA@ 00480ae0     EntityParser.obj
 0003:00008ae8       ??_C@_05PHJK@speed?$AA@    00480ae8     EntityParser.obj
 0003:00008af0       ??_C@_05JHNP@phase?$AA@    00480af0     EntityParser.obj
 0003:00008af8       ??_C@_06OKPG@height?$AA@   00480af8     EntityParser.obj
 0003:00008b00       ??_C@_0L@OLKI@func_train?$AA@ 00480b00     EntityParser.obj
 0003:00008b0c       ??_C@_0N@BKKD@func_bobbing?$AA@ 00480b0c     EntityParser.obj
 0003:00008b1c       ??_C@_0O@HHKP@func_rotating?$AA@ 00480b1c     EntityParser.obj
 0003:00008b2c       ??_C@_05DOHE@noise?$AA@    00480b2c     EntityParser.obj
 0003:00008b34       ??_C@_0N@EBAD@item_botroam?$AA@ 00480b34     EntityParser.obj
 0003:00008b44       ??_C@_0L@FNHL@misc_model?$AA@ 00480b44     EntityParser.obj
 0003:00008b50       ??_C@_0BA@FCBO@target_location?$AA@ 00480b50     EntityParser.obj
 0003:00008b60       ??_C@_0BA@OKBB@target_position?$AA@ 00480b60     EntityParser.obj
 0003:00008b70       ??_C@_03BOIF@yel?$AA@      00480b70     EntityParser.obj
 0003:00008b74       ??_C@_04LLKK@glow?$AA@     00480b74     EntityParser.obj
 0003:00008b7c       ??_C@_0BO@DCHL@env_sprite?3?5non?9sprite?5model?6?$AA@ 00480b7c     EntityParser.obj
 0003:00008b9c       ??_C@_08FFFE@sprites?1?$AA@ 00480b9c     EntityParser.obj
 0003:00008ba8       ??_C@_09GPEF@infodecal?$AA@ 00480ba8     EntityParser.obj
 0003:00008bb4       ??_C@_0BB@JODA@item_armor_shard?$AA@ 00480bb4     EntityParser.obj
 0003:00008bc8       ??_C@_0N@CIMM@item_battery?$AA@ 00480bc8     EntityParser.obj
 0003:00008bd8       ??_C@_0P@LMGJ@item_healthkit?$AA@ 00480bd8     EntityParser.obj
 0003:00008be8       ??_C@_0P@JCMM@weapon_satchel?$AA@ 00480be8     EntityParser.obj
 0003:00008bf8       ??_C@_0O@FHCF@ammo_buckshot?$AA@ 00480bf8     EntityParser.obj
 0003:00008c08       ??_C@_0BE@HCK@weapon_supershotgun?$AA@ 00480c08     EntityParser.obj
 0003:00008c1c       ??_C@_0P@PHLB@weapon_shotgun?$AA@ 00480c1c     EntityParser.obj
 0003:00008c2c       ??_C@_0L@HEPA@ammo_9mmAR?$AA@ 00480c2c     EntityParser.obj
 0003:00008c38       ??_C@_0N@MPPM@ammo_9mmclip?$AA@ 00480c38     EntityParser.obj
 0003:00008c48       ??_C@_0N@JNOE@weapon_9mmAR?$AA@ 00480c48     EntityParser.obj
 0003:00008c58       ??_C@_0L@JCGG@ammo_cells?$AA@ 00480c58     EntityParser.obj
 0003:00008c64       ??_C@_0P@MILI@ammo_gaussclip?$AA@ 00480c64     EntityParser.obj
 0003:00008c74       ??_C@_0N@DDMO@weapon_gauss?$AA@ 00480c74     EntityParser.obj
 0003:00008c84       ??_C@_0O@OFDM@ammo_crossbow?$AA@ 00480c84     EntityParser.obj
 0003:00008c94       ??_C@_0BA@HAEF@weapon_crossbow?$AA@ 00480c94     EntityParser.obj
 0003:00008ca4       ??_C@_0N@DEF@ammo_rockets?$AA@ 00480ca4     EntityParser.obj
 0003:00008cb4       ??_C@_0N@BIME@ammo_rpgclip?$AA@ 00480cb4     EntityParser.obj
 0003:00008cc4       ??_C@_0BG@EKMA@weapon_rocketlauncher?$AA@ 00480cc4     EntityParser.obj
 0003:00008cdc       ??_C@_0L@OCEH@weapon_rpg?$AA@ 00480cdc     EntityParser.obj
 0003:00008ce8       ??_C@_0BA@LLON@weapon_tripmine?$AA@ 00480ce8     EntityParser.obj
 0003:00008cf8       ??_C@_0BD@HGIA@weapon_handgrenade?$AA@ 00480cf8     EntityParser.obj
 0003:00008d0c       ??_C@_0P@KFIJ@func_breakable?$AA@ 00480d0c     EntityParser.obj
 0003:00008d1c       ??_C@_08KIFL@env_glow?$AA@ 00480d1c     EntityParser.obj
 0003:00008d28       ??_C@_0L@FKCE@env_sprite?$AA@ 00480d28     EntityParser.obj
 0003:00008d34       ??_C@_0CB@HAEF@func_conveyor?3?5unknown?5angle?5?$CFd?6@ 00480d34     EntityParser.obj
 0003:00008d58       ??_C@_0O@ONIM@func_conveyor?$AA@ 00480d58     EntityParser.obj
 0003:00008d68       ??_C@_0BJ@DKNA@func_water?3?5bad?5skin?$DN?$CFs?6?$AA@ 00480d68     EntityParser.obj
 0003:00008d84       ??_C@_0L@LCFM@func_water?$AA@ 00480d84     EntityParser.obj
 0003:00008d90       ??_C@_09DHI@func_wall?$AA@ 00480d90     EntityParser.obj
 0003:00008d9c       ??_C@_0M@PMOE@func_ladder?$AA@ 00480d9c     EntityParser.obj
 0003:00008da8       ??_C@_08DDKP@?$CKtarget?$CK?$AA@ 00480da8     EntityParser.obj
 0003:00008db4       ??_C@_08HAHO@renderfx?$AA@ 00480db4     EntityParser.obj
 0003:00008dc0       ??_C@_0L@MGOP@rendermode?$AA@ 00480dc0     EntityParser.obj
 0003:00008dcc       ??_C@_09FILE@renderamt?$AA@ 00480dcc     EntityParser.obj
 0003:00008dd8       ??_C@_0M@GPPJ@rendercolor?$AA@ 00480dd8     EntityParser.obj
 0003:00008de4       ??_C@_09OGED@func_lift?$AA@ 00480de4     EntityParser.obj
 0003:00008df0       ??_C@_0BE@PEIJ@func_train_rotating?$AA@ 00480df0     EntityParser.obj
 0003:00008e04       ??_C@_0P@CDNG@func_explosive?$AA@ 00480e04     EntityParser.obj
 0003:00008e14       ??_C@_0BD@DIJK@func_door_rotating?$AA@ 00480e14     EntityParser.obj
 0003:00008e28       ??_C@_06NLLI@junior?$AA@   00480e28     EntityParser.obj
 0003:00008e30       ??_C@_0N@HPMD@_sun_surface?$AA@ 00480e30     EntityParser.obj
 0003:00008e40       ??_C@_0N@FMCD@_sun_ambient?$AA@ 00480e40     EntityParser.obj
 0003:00008e50       ??_C@_0N@GCIE@_sun?$CFs_light?$AA@ 00480e50     EntityParser.obj
 0003:00008e60       ??_C@_0N@CEBB@_sun?$CFs_color?$AA@ 00480e60     EntityParser.obj
 0003:00008e70       ??_C@_0BL@JPAJ@_sun?$CFs_angle?0_sun?$CFs_mangle?$AA@ 00480e70     EntityParser.obj
 0003:00008e8c       ??_C@_06FE@_sun?$CFs?$AA@  00480e8c     EntityParser.obj
 0003:00008e94       ??_C@_0O@PNCP@_sun?$CFs_vector?$AA@ 00480e94     EntityParser.obj
 0003:00008ea4       ??_C@_0BA@KPIO@_sun?$CFs?0_sun?$CFs_?$CK?$AA@ 00480ea4     EntityParser.obj
 0003:00008eb4       ??_C@_01ECJ@3?$AA@         00480eb4     EntityParser.obj
 0003:00008eb8       ??_C@_0M@KJNG@fogdensity2?$AA@ 00480eb8     EntityParser.obj
 0003:00008ec4       ??_C@_07LLBN@fogval2?$AA@  00480ec4     EntityParser.obj
 0003:00008ecc       ??_C@_0L@GILE@fogdensity?$AA@ 00480ecc     EntityParser.obj
 0003:00008ed8       ??_C@_06KDGB@fogval?$AA@   00480ed8     EntityParser.obj
 0003:00008ee0       ??_C@_01FAJB@?$DL?$AA@     00480ee0     EntityParser.obj
 0003:00008ee4       ??_C@_03GMFF@wad?$AA@      00480ee4     EntityParser.obj
 0003:00008ee8       ??_C@_07NPGL@message?$AA@  00480ee8     EntityParser.obj
 0003:00008ef0       ??_C@_07GDOK@skyname?$AA@  00480ef0     EntityParser.obj
 0003:00008ef8       ??_C@_02CFNP@sr?$AA@       00480ef8     EntityParser.obj
 0003:00008efc       ??_C@_0BJ@IEPG@texinfo?5?$CFs?5is?5not?5found?6?$AA@ 00480efc     EntityParser.obj
 0003:00008f18       ??_C@_05MJGO@?$CFd?5?$CFd?$AA@ 00480f18     EntityParser.obj
 0003:00008f20       ??_C@_07IHDE@inflags?$AA@  00480f20     EntityParser.obj
 0003:00008f28       ??_C@_0BN@OKDJ@no?5flags?5specified?5for?5?$CC?$CFs?$CC?6?$AA@ 00480f28     EntityParser.obj
 0003:00008f48       ??_C@_05KGBM@flags?$AA@    00480f48     EntityParser.obj
 0003:00008f50       ??_C@_0BK@BDGF@surfparam?5without?5?$CCname?$CC?6?$AA@ 00480f50     EntityParser.obj
 0003:00008f6c       ??_C@_0BA@CIJM@LoadPCX?$CI?$CFs?$CJ?3?5?$CFs?$AA@ 00480f6c     images.obj
 0003:00008f7c       ??_C@_0N@JODK@bad?5pcx?5file?$AA@ 00480f7c     images.obj
 0003:00008f8c       ??_C@_0BD@CBJI@image?5is?5too?5large?$AA@ 00480f8c     images.obj
 0003:00008fa0       ??_C@_0BA@EJCB@LoadTGA?$CI?$CFs?$CJ?3?5?$CFs?$AA@ 00480fa0     images.obj
 0003:00008fb0       ??_C@_0BE@JDPA@colormap_index?5?$CB?$DN?50?$AA@ 00480fb0     images.obj
 0003:00008fc4       ??_C@_0BN@IPAA@unsupported?5colormap?5type?5?$CFd?$AA@ 00480fc4     images.obj
 0003:00008fe4       ??_C@_0CJ@BLMP@unsupported?5color?5depth?5?$CFd?5for?5f@ 00480fe4     images.obj
 0003:00009010       ??_C@_0BL@JNEA@unsupported?5color?5depth?5?$CFd?$AA@ 00481010     images.obj
 0003:0000902c       ??_C@_0BE@BGGK@unsupported?5type?5?$CFd?$AA@ 0048102c     images.obj
 0003:00009040       ??_C@_0BA@BEFI@LoadJPG?$CI?$CFs?$CJ?3?5?$CFs?$AA@ 00481040     images.obj
 0003:00009050       ??_C@_0BN@ICHC@color?5components?5not?5equal?53?$AA@ 00481050     images.obj
 0003:00009070       ??_C@_0BL@EPMH@LoadJPG?$CI?$CFs?$CJ?3?5damaged?5file?6?$AA@ 00481070     images.obj
 0003:0000908c       ??_C@_0O@CAML@JPEG?5error?5?$CFd?$AA@ 0048108c     images.obj
 0003:0000909c       ??_C@_0BB@IMMK@JPEG?5warning?5?$CFd?6?$AA@ 0048109c     images.obj
 0003:000090b0       ??_C@_07FFBL@?$CFs?1?$CFs?4?$CK?$AA@ 004810b0     images.obj
 0003:000090b8       ??_C@_04EOPJ@?$CFs?4?$CK?$AA@ 004810b8     images.obj
 0003:000090c0       ??_C@_0CC@PHFH@WriteTGA?3?5revert?5to?5uncompressed@ 004810c0     images.obj
 0003:000090e4       ??_C@_0BL@GDMM@WriteTGA?3?5packed?5?$CFd?5?9?$DO?5?$CFd?6?$AA@ 004810e4     images.obj
 0003:00009100       ??_C@_0CC@NEH@WriteTGA?$CI?$CFs?$CJ?3?5cannot?5create?5file@ 00481100     images.obj
 0003:00009124       ??_C@_0CC@HMFG@WriteJPG?$CI?$CFs?$CJ?3?5cannot?5create?5file@ 00481124     images.obj
 0003:00009148       ??_C@_0CL@EPGB@CBrush?3?3Split?$CI?$CJ?3?5no?5loop?5in?5poly@ 00481148     MapBrush.obj
 0003:00009174       ??_C@_0CD@DOKJ@CBrush?3?3Split?$CI?$CJ?3?5cannot?5build?5po@ 00481174     MapBrush.obj
 0003:00009198       ??_C@_0BK@DBK@split?3?5numPlaneVecs?5?$DN?5?$CFd?6?$AA@ 00481198     MapBrush.obj
 0003:000091b4       ??_C@_0CC@CONA@front?$DN?$DNs?9?$DOverts?5?$HM?$HM?5back?$DN?$DNs?9?$DOvert@ 004811b4     MapBrush.obj
 0003:000091d8       ??_C@_0BF@OKM@qcommon?1MapBrush?4cpp?$AA@ 004811d8     MapBrush.obj
 0003:000091f0       ??_C@_0CC@MOMC@CBrush?3?3Split?$CI?$CJ?3?5odd?5numPlaneVec@ 004811f0     MapBrush.obj
 0003:00009214       ??_C@_0CN@BDHB@CBrush?3?3Split?$CI?$CJ?3?5intersection?5is@ 00481214     MapBrush.obj
 0003:00009244       ??_C@_0BK@EBO@SplitPoly?3?5MAX_SIDE_VERTS?$AA@ 00481244     MapBrush.obj
 0003:00009260       ??_C@_07MBHK@vecPool?$AA@  00481260     MapBrush.obj
 0003:000092a8       ??_C@_0BG@GGJC@Kingpin?5map?5detected?6?$AA@ 004812a8     model.obj
 0003:000092c0       ??_C@_0O@PLAB@?$CCfogdensity2?$CC?$AA@ 004812c0     model.obj
 0003:000092d0       ??_C@_0BJ@PIJA@?$CCclassname?$CC?5?$CClightflare?$CC?$AA@ 004812d0     model.obj
 0003:000092ec       ??_C@_0BF@KIIB@?$CCclassname?$CC?5?$CCjunior?$CC?$AA@ 004812ec     model.obj
 0003:00009304       ??_C@_0BD@GFGC@Loading?5Q2?5bsp?5?$CFs?6?$AA@ 00481304     model.obj
 0003:00009318       ??_C@_0CC@BOOB@Decompressed?5vis?3?5?$CFd?5?9?$DO?5?$CFd?5bytes@ 00481318     model.obj
 0003:0000933c       ??_C@_0DE@DMHI@WARNING?3?5map?5with?5cluster?5info?5b@ 0048133c     model.obj
 0003:00009370       ??_C@_0BD@HGPI@No?5visinfo?5in?5map?6?$AA@ 00481370     model.obj
 0003:00009384       ??_C@_0CB@NLEG@LoadBSPFile?3?5incorrect?5lump?5size@ 00481384     model.obj
 0003:000093a8       ??_C@_0L@CCEL@unnamed?$CD?$CFd?$AA@ 004813a8     model.obj
 0003:000093b4       ??_C@_0BD@PONH@Loading?5?$CFs?5bsp?5?$CFs?6?$AA@ 004813b4     model.obj
 0003:000093c8       ??_C@_02EENF@HL?$AA@       004813c8     model.obj
 0003:000093cc       ??_C@_02IHKB@Q1?$AA@       004813cc     model.obj
 0003:000093d0       ??_C@_0BD@KHCK@Loading?5Q3?5bsp?5?$CFs?6?$AA@ 004813d0     model.obj
 0003:000093e4       ??_C@_0CK@GPHN@LoadQ3Vis?3?5vis?4rowSize?$DN?$CFd?5?$CB?$DN?5com@ 004813e4     model.obj
 0003:00009410       ??_C@_0BK@NHFE@?$CFs?5has?5a?5wrong?5BSP?5header?$AA@ 00481410     model.obj
 0003:0000942c       ??_C@_0BK@CPJG@?$FO1Unknown?5bsp?5version?5?$CFd?6?$AA@ 0048142c     model.obj
 0003:00009448       ??_C@_0BB@KFPO@Couldn?8t?5load?5?$CFs?$AA@ 00481448     model.obj
 0003:0000945c       ??_C@_0DJ@OEDL@client?5trying?5to?5load?5map?5?$CC?$CFs?$CC?5w@ 0048145c     model.obj
 0003:00009498       ??_C@_0CH@LMIO@MSG_Write?3?5overflow?5?$CImax?$DN?$CFd?0?5nee@ 00481498     msg.obj
 0003:000094c0       ??_C@_0CE@KPDK@MSG_Write?3?5?$CFd?5is?5?$DO?5full?5buffer?5s@ 004814c0     msg.obj
 0003:000094e4       ??_C@_0DH@OCKH@MSG_Write?3?5overflow?5without?5allo@ 004814e4     msg.obj
 0003:0000951c       ??_C@_0BK@OJBA@MSG_ReadDir?3?5out?5of?5range?$AA@ 0048151c     msg.obj
 0003:00009538       ??_C@_08HNLA@showdrop?$AA@ 00481538     net_chan.obj
 0003:00009544       ??_C@_0M@FDHI@showpackets?$AA@ 00481544     net_chan.obj
 0003:00009550       ??_C@_0CA@FAJD@send?5?$CF4i?5?3?5s?$DN?$CFi?5ack?$DN?$CFi?5rack?$DN?$CFi?6?$AA@ 00481550     net_chan.obj
 0003:00009570       ??_C@_0CM@NEJP@send?5?$CF4i?5?3?5s?$DN?$CFi?5reliable?$DN?$CFi?5ack?$DN@ 00481570     net_chan.obj
 0003:0000959c       ??_C@_0CI@HDHM@netchan_t?3?3Transmit?3?5dumped?5unre@ 0048159c     net_chan.obj
 0003:000095c4       ??_C@_0BP@DHDF@?$CFs?3?5outgoing?5message?5overflow?6?$AA@ 004815c4     net_chan.obj
 0003:000095e4       ??_C@_0BO@POCN@?$CFs?3?5dropped?5?$CFi?5packets?5at?5?$CFi?6?$AA@ 004815e4     net_chan.obj
 0003:00009604       ??_C@_0CC@JMKN@?$CFs?3?5out?5of?5order?5packet?5?$CFi?5at?5?$CFi@ 00481604     net_chan.obj
 0003:00009628       ??_C@_0CA@OEMD@recv?5?$CF4i?5?3?5s?$DN?$CFi?5ack?$DN?$CFi?5rack?$DN?$CFi?6?$AA@ 00481628     net_chan.obj
 0003:00009648       ??_C@_0CM@HAFP@recv?5?$CF4i?5?3?5s?$DN?$CFi?5reliable?$DN?$CFi?5ack?$DN@ 00481648     net_chan.obj
 0003:00009694       ??_C@_0BJ@GBLJ@Bad?5InitialSnapPosition?6?$AA@ 00481694     pmove.obj
 0003:000096b0       ??_C@_0N@ECLI@fs_logFile?$DN0?$AA@ 004816b0     QuakeFileSystem.obj
 0003:000096c0       ??_C@_06BGDN@cddir?$DN?$AA@ 004816c0     QuakeFileSystem.obj
 0003:000096c8       ??_C@_0BD@FPMJ@cfgfile?$DNconfig?4cfg?$AA@ 004816c8     QuakeFileSystem.obj
 0003:000096dc       ??_C@_0M@JPMF@chk?3?5?$CFs?5?$CFc?6?$AA@ 004816dc     QuakeFileSystem.obj
 0003:000096e8       ??_C@_0M@PGJD@?4?1baseq2?1?$CFs?$AA@ 004816e8     QuakeFileSystem.obj
 0003:000096f4       ??_C@_09GCLC@?$CIfailed?$CJ?6?$AA@ 004816f4     QuakeFileSystem.obj
 0003:00009700       ??_C@_05HIMM@?$CI?$CFs?$CJ?6?$AA@ 00481700     QuakeFileSystem.obj
 0003:00009708       ??_C@_09CMPP@open?3?5?$CFs?5?$AA@ 00481708     QuakeFileSystem.obj
 0003:00009714       ??_C@_09GAIG@list?3?5?$CFs?6?$AA@ 00481714     QuakeFileSystem.obj
 0003:00009720       ??_C@_08HFEP@?4?1baseq2?$AA@ 00481720     QuakeFileSystem.obj
 0003:0000972c       ??_C@_04LIE@?4?1?$CFs?$AA@ 0048172c     QuakeFileSystem.obj
 0003:00009734       ??_C@_0N@CAF@?3?5can?8t?5dst?6?$AA@ 00481734     QuakeFileSystem.obj
 0003:00009744       ??_C@_09EEPI@?3?5no?5src?6?$AA@ 00481744     QuakeFileSystem.obj
 0003:00009750       ??_C@_0P@KHIG@copy?$CI?$CFs?5?9?$DO?5?$CFs?$CJ?$AA@ 00481750     QuakeFileSystem.obj
 0003:00009760       ??_C@_0BD@PMPF@CopyFiles?$CI?$CFs?9?$DO?$CFs?$CJ?6?$AA@ 00481760     QuakeFileSystem.obj
 0003:00009774       ??_C@_0BB@LNHI@RemoveFiles?$CI?$CFs?$CJ?6?$AA@ 00481774     QuakeFileSystem.obj
 0003:00009788       ??_C@_0BP@KJCE@FS?3?5using?5?$CC?$CFs?$CC?5as?5CDROM?5image?6?$AA@ 00481788     QuakeFileSystem.obj
 0003:000097a8       ??_C@_09EKI@resources?$AA@ 004817a8     QuakeFileSystem.obj
 0003:000097b4       ??_C@_03NDGJ@pak?$AA@      004817b4     QuakeFileSystem.obj
 0003:000097b8       ??_C@_0EP@IEBA@CFileContainerZip?3?3Create?3?5?$CFs?5ha@ 004817b8     QuakeFileSystem.obj
 0003:00009808       ??_C@_0EA@GEMH@CFileContainerZip?3?3Create?3?5?$CFs?5co@ 00481808     QuakeFileSystem.obj
 0003:00009848       ??_C@_03FANE@zip?$AA@      00481848     QuakeFileSystem.obj
 0003:0000984c       ??_C@_05IHDB@1?42?42?$AA@  0048184c     QuakeFileSystem.obj
 0003:00009854       ??_C@_0CA@GHPM@zip?5?$CC?$CFs?$CC?3?5?$CC?$CFs?$CC?3?5unexpected?5eof?6?$AA@ 00481854     QuakeFileSystem.obj
 0003:00009874       ??_C@_0BP@HIAM@zip?5?$CC?$CFs?$CC?3?5?$CC?$CFs?$CC?5have?5wrong?5CRC?6?$AA@ 00481874     QuakeFileSystem.obj
 0003:00009894       ??_C@_04BLPE@zres?$AA@     00481894     QuakeFileSystem.obj
 0003:0000989c       ??_C@_0L@KOM@?4?1?$CFs?1?$CK?4pak?$AA@ 0048189c     QuakeFileSystem.obj
 0003:000098a8       ??_C@_0M@NJML@?$CFs?1?$CFs?1?$CK?4pak?$AA@ 004818a8     QuakeFileSystem.obj
 0003:000098b4       ??_C@_0BM@GIMG@Invalid?5game?5directory?3?5?$CFs?6?$AA@ 004818b4     QuakeFileSystem.obj
 0003:000098d0       ??_C@_06FJOM@?4?1?$CFs?1?$CK?$AA@ 004818d0     QuakeFileSystem.obj
 0003:000098d8       ??_C@_0BB@LBPD@Set?5gamedir?3?5?$CFs?6?$AA@ 004818d8     QuakeFileSystem.obj
 0003:000098ec       ??_C@_0BD@EAME@exec?5autoexec?4cfg?6?$AA@ 004818ec     QuakeFileSystem.obj
 0003:00009900       ??_C@_0BC@POEL@?4?1?$CFs?1autoexec?4cfg?$AA@ 00481900     QuakeFileSystem.obj
 0003:00009914       ??_C@_0CF@DFHG@unbindall?6reset?5?$CK?6unalias?5?$CK?6exec@ 00481914     QuakeFileSystem.obj
 0003:0000993c       ??_C@_0BJ@FGHA@vid_restart?6snd_restart?6?$AA@ 0048193c     QuakeFileSystem.obj
 0003:00009958       ??_C@_0CE@FFJA@?6?$CK?$CK?$CK?5File?5system?5activity?0?5?$CFs?5?$CK?$CK@ 00481958     QuakeFileSystem.obj
 0003:0000997c       ??_C@_06HJE@fs?4log?$AA@   0048197c     QuakeFileSystem.obj
 0003:00009984       ??_C@_0BA@DPNM@cd_looptrack?$DN11?$AA@ 00481984     cd_win.obj
 0003:00009994       ??_C@_0P@NIFL@cd_loopcount?$DN4?$AA@ 00481994     cd_win.obj
 0003:000099a4       ??_C@_09IBKF@cd_nocd?$DN0?$AA@ 004819a4     cd_win.obj
 0003:000099b0       ??_C@_0BL@NOOG@CDAudio?3?5PLAY?5failed?5?$CI?$CFd?$CJ?6?$AA@ 004819b0     cd_win.obj
 0003:000099cc       ??_C@_0CA@EGJA@CDAudio?3?5track?5?$CFd?5is?5not?5audio?6?$AA@ 004819cc     cd_win.obj
 0003:000099ec       ??_C@_0BN@CBMA@CDAudio?3?5STATUS?5failed?5?$CI?$CFd?$CJ?6?$AA@ 004819ec     cd_win.obj
 0003:00009a0c       ??_C@_0BK@FODH@CDAudio?3?5no?5music?5tracks?6?$AA@ 00481a0c     cd_win.obj
 0003:00009a28       ??_C@_0BK@EBGL@CDAudio?3?5drive?5not?5ready?6?$AA@ 00481a28     cd_win.obj
 0003:00009a44       ??_C@_04PANM@STOP?$AA@     00481a44     cd_win.obj
 0003:00009a4c       ??_C@_0BJ@IJLE@CDAudio?3?5?$CFs?5failed?5?$CI?$CFd?$CJ?6?$AA@ 00481a4c     cd_win.obj
 0003:00009a68       ??_C@_0BL@OLHA@CDAudio?3?5PAUSE?5failed?5?$CI?$CFd?$CJ?$AA@ 00481a68     cd_win.obj
 0003:00009a84       ??_C@_0BG@ONJF@CD?5Audio?5Initialized?6?$AA@ 00481a84     cd_win.obj
 0003:00009a9c       ??_C@_02BJHE@cd?$AA@       00481a9c     cd_win.obj
 0003:00009aa0       ??_C@_0CG@MFAD@CDAudio?3?5SET_TIME_FORMAT?5failed?5@ 00481aa0     cd_win.obj
 0003:00009ac8       ??_C@_0CA@FJML@CDAudio_Init?3?5OPEN?5failed?5?$CI?$CFd?$CJ?6?$AA@ 00481ac8     cd_win.obj
 0003:00009ae8       ??_C@_07JNJJ@cdaudio?$AA@  00481ae8     cd_win.obj
 0003:00009af0       ??_C@_0BE@PJNE@Paused?5?$CFs?5track?5?$CFd?6?$AA@ 00481af0     cd_win.obj
 0003:00009b04       ??_C@_0BH@EFIO@Currently?5?$CFs?5track?5?$CFd?6?$AA@ 00481b04     cd_win.obj
 0003:00009b1c       ??_C@_07KKLA@playing?$AA@  00481b1c     cd_win.obj
 0003:00009b24       ??_C@_07PNMG@looping?$AA@  00481b24     cd_win.obj
 0003:00009b2c       ??_C@_0L@KEMN@?$CFd?5tracks?6?$AA@ 00481b2c     cd_win.obj
 0003:00009b38       ??_C@_0O@OIGJ@SET_DOOR_OPEN?$AA@ 00481b38     cd_win.obj
 0003:00009b48       ??_C@_05NOIK@eject?$AA@    00481b48     cd_win.obj
 0003:00009b50       ??_C@_06MJAA@resume?$AA@   00481b50     cd_win.obj
 0003:00009b58       ??_C@_04FNBC@loop?$AA@     00481b58     cd_win.obj
 0003:00009b60       ??_C@_0BC@KKKC@No?5CD?5in?5player?4?6?$AA@ 00481b60     cd_win.obj
 0003:00009b74       ??_C@_0BA@FMNI@SET_DOOR_CLOSED?$AA@ 00481b74     cd_win.obj
 0003:00009b84       ??_C@_05JMGP@close?$AA@    00481b84     cd_win.obj
 0003:00009b8c       ??_C@_0M@BMJK@?5?5?$CFd?5?9?$DO?5?$CFd?6?$AA@ 00481b8c     cd_win.obj
 0003:00009b98       ??_C@_05HLLH@remap?$AA@    00481b98     cd_win.obj
 0003:00009ba0       ??_C@_03OJPB@off?$AA@      00481ba0     cd_win.obj
 0003:00009ba4       ??_C@_02PHBM@on?$AA@       00481ba4     cd_win.obj
 0003:00009ba8       ??_C@_0BE@KLKE@MCI_NOTIFY_FAILURE?6?$AA@ 00481ba8     cd_win.obj
 0003:00009bbc       ??_C@_0CD@CGJC@Unexpected?5MM_MCINOTIFY?5type?5?$CI?$CFd@ 00481bbc     cd_win.obj
 0003:00009be0       ??_C@_05PHOA@CLOSE?$AA@    00481be0     cd_win.obj
 0003:00009be8       ??_C@_0BF@GIMJ@joy_upSensitivity?$DN?91?$AA@ 00481be8     in_win.obj
 0003:00009c00       ??_C@_0BG@NDPF@joy_yawSensitivity?$DN?91?$AA@ 00481c00     in_win.obj
 0003:00009c18       ??_C@_0BH@OJEA@joy_sideSensitivity?$DN?91?$AA@ 00481c18     in_win.obj
 0003:00009c30       ??_C@_0BH@IONC@joy_pitchSensitivity?$DN1?$AA@ 00481c30     in_win.obj
 0003:00009c48       ??_C@_0BK@CCJD@joy_forwardSensitivity?$DN?91?$AA@ 00481c48     in_win.obj
 0003:00009c64       ??_C@_0P@JCBL@joy_advAxisV?$DN0?$AA@ 00481c64     in_win.obj
 0003:00009c74       ??_C@_0P@GECA@joy_advAxisU?$DN0?$AA@ 00481c74     in_win.obj
 0003:00009c84       ??_C@_0P@NKEB@joy_advAxisR?$DN0?$AA@ 00481c84     in_win.obj
 0003:00009c94       ??_C@_0P@EKPE@joy_advAxisZ?$DN0?$AA@ 00481c94     in_win.obj
 0003:00009ca4       ??_C@_0P@OJOB@joy_advAxisY?$DN2?$AA@ 00481ca4     in_win.obj
 0003:00009cb4       ??_C@_0P@EEIF@joy_advAxisX?$DN4?$AA@ 00481cb4     in_win.obj
 0003:00009cc4       ??_C@_0BD@INCC@joy_threshold?$DN0?415?$AA@ 00481cc4     in_win.obj
 0003:00009cd8       ??_C@_0O@NEEG@in_joystick?$DN0?$AA@ 00481cd8     in_win.obj
 0003:00009ce8       ??_C@_0L@OKKA@m_invert?$DN0?$AA@ 00481ce8     in_win.obj
 0003:00009cf4       ??_C@_0O@LGJF@sensitivity?$DN3?$AA@ 00481cf4     in_win.obj
 0003:00009d04       ??_C@_0L@KHCO@m_filter?$DN0?$AA@ 00481d04     in_win.obj
 0003:00009d10       ??_C@_0L@FNPC@in_mouse?$DN2?$AA@ 00481d10     in_win.obj
 0003:00009d20       ??_C@_0BD@HBGN@Joystick?5detected?6?$AA@ 00481d20     in_win.obj
 0003:00009d34       ??_C@_0CI@GKIJ@Invalid?5joystick?5capabilities?5?$CIe@ 00481d34     in_win.obj
 0003:00009d5c       ??_C@_0BM@EIK@No?5valid?5joysticks?$DL?5err?$DN?$CFX?6?$AA@ 00481d5c     in_win.obj
 0003:00009d78       ??_C@_0BO@JBOO@No?5connected?5joysticks?5found?6?$AA@ 00481d78     in_win.obj
 0003:00009d98       ??_C@_0BM@EBOM@Shutdown?5DirectInput?5mouse?6?$AA@ 00481d98     in_win.obj
 0003:00009db4       ??_C@_0BG@HCNK@Shutdown?5Win32?5mouse?6?$AA@ 00481db4     in_win.obj
 0003:00009dcc       ??_C@_0BF@JOKN@Changing?5mouse?5type?6?$AA@ 00481dcc     in_win.obj
 0003:00009de4       ??_C@_0CE@IBDD@?4?4?4?5cannot?5set?5mouse?5buffered?5mo@ 00481de4     in_win.obj
 0003:00009e08       ??_C@_0CC@DIBO@?4?4?4?5cannot?5set?5cooperative?5level@ 00481e08     in_win.obj
 0003:00009e2c       ??_C@_0BM@KGIG@?4?4?4?5cannot?5set?5data?5format?6?$AA@ 00481e2c     in_win.obj
 0003:00009e48       ??_C@_0CF@GOEL@?4?4?4?5cannot?5create?5DirectInput?5mo@ 00481e48     in_win.obj
 0003:00009e70       ??_C@_0CG@JDI@?4?4?4?5cannot?5create?5DirectInput?5ob@ 00481e70     in_win.obj
 0003:00009e98       ??_C@_0BD@MMPO@Wrong?5dinput8?4dll?6?$AA@ 00481e98     in_win.obj
 0003:00009eac       ??_C@_0BD@HDGM@DirectInput8Create?$AA@ 00481eac     in_win.obj
 0003:00009ec0       ??_C@_0BH@INOD@dinput8?4dll?5not?5found?6?$AA@ 00481ec0     in_win.obj
 0003:00009ed8       ??_C@_0M@PNJE@dinput8?4dll?$AA@ 00481ed8     in_win.obj
 0003:00009ee4       ??_C@_0BK@HAJB@Initializing?5DirectInput?6?$AA@ 00481ee4     in_win.obj
 0003:00009f00       ??_C@_0CC@PKCJ@Initializing?5Win32?5mouse?5support@ 00481f00     in_win.obj
 0003:00009f24       ??_C@_0CA@DOOL@Error?5?$CFX?5on?5DI?5mouse?4GetData?$CI?$CJ?6?$AA@ 00481f24     in_win.obj
 0003:00009f48       ??_C@_07PCIB@NO_DATA?$AA@  00481f48     net_wins.obj
 0003:00009f50       ??_C@_0M@IKOO@NO_RECOVERY?$AA@ 00481f50     net_wins.obj
 0003:00009f5c       ??_C@_09BAHP@TRY_AGAIN?$AA@ 00481f5c     net_wins.obj
 0003:00009f68       ??_C@_0P@LEPK@HOST_NOT_FOUND?$AA@ 00481f68     net_wins.obj
 0003:00009f78       ??_C@_08BKPG@EREFUSED?$AA@ 00481f78     net_wins.obj
 0003:00009f84       ??_C@_0N@PFKN@_E_CANCELLED?$AA@ 00481f84     net_wins.obj
 0003:00009f94       ??_C@_0L@OIFL@_E_NO_MORE?$AA@ 00481f94     net_wins.obj
 0003:00009fa0       ??_C@_0P@DHNM@TYPE_NOT_FOUND?$AA@ 00481fa0     net_wins.obj
 0003:00009fb0       ??_C@_0BC@IOAI@SERVICE_NOT_FOUND?$AA@ 00481fb0     net_wins.obj
 0003:00009fc4       ??_C@_0P@HOHJ@SYSCALLFAILURE?$AA@ 00481fc4     net_wins.obj
 0003:00009fd4       ??_C@_0BE@IFIG@EPROVIDERFAILEDINIT?$AA@ 00481fd4     net_wins.obj
 0003:00009fe8       ??_C@_0BB@FDNH@EINVALIDPROVIDER?$AA@ 00481fe8     net_wins.obj
 0003:00009ffc       ??_C@_0BC@LBMM@EINVALIDPROCTABLE?$AA@ 00481ffc     net_wins.obj
 0003:0000a010       ??_C@_0L@EBJF@ECANCELLED?$AA@ 00482010     net_wins.obj
 0003:0000a01c       ??_C@_07MMME@ENOMORE?$AA@  0048201c     net_wins.obj
 0003:0000a024       ??_C@_0P@JAON@NOTINITIALISED?$AA@ 00482024     net_wins.obj
 0003:0000a034       ??_C@_0BA@LGGB@VERNOTSUPPORTED?$AA@ 00482034     net_wins.obj
 0003:0000a044       ??_C@_0M@MFMD@SYSNOTREADY?$AA@ 00482044     net_wins.obj
 0003:0000a050       ??_C@_07FLNI@EREMOTE?$AA@  00482050     net_wins.obj
 0003:0000a058       ??_C@_06ODEH@ESTALE?$AA@   00482058     net_wins.obj
 0003:0000a060       ??_C@_06GANK@EDQUOT?$AA@   00482060     net_wins.obj
 0003:0000a068       ??_C@_06GPHM@EUSERS?$AA@   00482068     net_wins.obj
 0003:0000a070       ??_C@_08MABC@EPROCLIM?$AA@ 00482070     net_wins.obj
 0003:0000a07c       ??_C@_09PEOB@ENOTEMPTY?$AA@ 0048207c     net_wins.obj
 0003:0000a088       ??_C@_0N@FHHG@EHOSTUNREACH?$AA@ 00482088     net_wins.obj
 0003:0000a098       ??_C@_09MJAA@EHOSTDOWN?$AA@ 00482098     net_wins.obj
 0003:0000a0a4       ??_C@_0N@BEIO@ENAMETOOLONG?$AA@ 004820a4     net_wins.obj
 0003:0000a0b4       ??_C@_05BLND@ELOOP?$AA@    004820b4     net_wins.obj
 0003:0000a0bc       ??_C@_0N@JDEH@ECONNREFUSED?$AA@ 004820bc     net_wins.obj
 0003:0000a0cc       ??_C@_09GAFK@ETIMEDOUT?$AA@ 004820cc     net_wins.obj
 0003:0000a0d8       ??_C@_0N@KOGG@ETOOMANYREFS?$AA@ 004820d8     net_wins.obj
 0003:0000a0e8       ??_C@_09GGMG@ESHUTDOWN?$AA@ 004820e8     net_wins.obj
 0003:0000a0f4       ??_C@_08FHM@ENOTCONN?$AA@  004820f4     net_wins.obj
 0003:0000a100       ??_C@_07HMGE@EISCONN?$AA@  00482100     net_wins.obj
 0003:0000a108       ??_C@_07GPBJ@ENOBUFS?$AA@  00482108     net_wins.obj
 0003:0000a110       ??_C@_0L@BFIE@ECONNRESET?$AA@ 00482110     net_wins.obj
 0003:0000a11c       ??_C@_0N@EBD@ECONNABORTED?$AA@ 0048211c     net_wins.obj
 0003:0000a12c       ??_C@_09ELBD@ENETRESET?$AA@ 0048212c     net_wins.obj
 0003:0000a138       ??_C@_0M@MFKL@ENETUNREACH?$AA@ 00482138     net_wins.obj
 0003:0000a144       ??_C@_08LANE@ENETDOWN?$AA@ 00482144     net_wins.obj
 0003:0000a150       ??_C@_0O@NIMO@EADDRNOTAVAIL?$AA@ 00482150     net_wins.obj
 0003:0000a160       ??_C@_0L@NEKG@EADDRINUSE?$AA@ 00482160     net_wins.obj
 0003:0000a16c       ??_C@_0N@KCKI@EAFNOSUPPORT?$AA@ 0048216c     net_wins.obj
 0003:0000a17c       ??_C@_0N@OANL@EPFNOSUPPORT?$AA@ 0048217c     net_wins.obj
 0003:0000a18c       ??_C@_0L@IKIB@EOPNOTSUPP?$AA@ 0048218c     net_wins.obj
 0003:0000a198       ??_C@_0BA@FLIJ@ESOCKTNOSUPPORT?$AA@ 00482198     net_wins.obj
 0003:0000a1a8       ??_C@_0BA@JBLC@EPROTONOSUPPORT?$AA@ 004821a8     net_wins.obj
 0003:0000a1b8       ??_C@_0M@PFGD@ENOPROTOOPT?$AA@ 004821b8     net_wins.obj
 0003:0000a1c4       ??_C@_0L@GMGL@EPROTOTYPE?$AA@ 004821c4     net_wins.obj
 0003:0000a1d0       ??_C@_08BHCP@EMSGSIZE?$AA@ 004821d0     net_wins.obj
 0003:0000a1dc       ??_C@_0N@IHAI@EDESTADDRREQ?$AA@ 004821dc     net_wins.obj
 0003:0000a1ec       ??_C@_08KJMC@ENOTSOCK?$AA@ 004821ec     net_wins.obj
 0003:0000a1f8       ??_C@_08BLM@EALREADY?$AA@  004821f8     net_wins.obj
 0003:0000a204       ??_C@_0M@OPHH@EINPROGRESS?$AA@ 00482204     net_wins.obj
 0003:0000a210       ??_C@_0M@KNGP@EWOULDBLOCK?$AA@ 00482210     net_wins.obj
 0003:0000a21c       ??_C@_06KPNH@EMFILE?$AA@   0048221c     net_wins.obj
 0003:0000a224       ??_C@_06NBH@EINVAL?$AA@    00482224     net_wins.obj
 0003:0000a22c       ??_C@_06EOEO@EFAULT?$AA@   0048222c     net_wins.obj
 0003:0000a234       ??_C@_07MKBE@EDISCON?$AA@  00482234     net_wins.obj
 0003:0000a23c       ??_C@_06FPBG@EACCES?$AA@   0048223c     net_wins.obj
 0003:0000a244       ??_C@_05EKME@EBADF?$AA@    00482244     net_wins.obj
 0003:0000a24c       ??_C@_05EIPD@EINTR?$AA@    0048224c     net_wins.obj
 0003:0000a254       ??_C@_0P@EOMI@?$CFd?4?$CFd?4?$CFd?4?$CFd?3?$CFd?$AA@ 00482254     net_wins.obj
 0003:0000a264       ??_C@_08KME@loopback?$AA@  00482264     net_wins.obj
 0003:0000a270       ??_C@_0BH@LDLC@NET_GetPacket?$CI?$CFs?$CJ?3?5?$CFs?6?$AA@ 00482270     net_wins.obj
 0003:0000a288       ??_C@_0BJ@DNJE@Oversize?5packet?5from?5?$CFs?6?$AA@ 00482288     net_wins.obj
 0003:0000a2a4       ??_C@_05OKKO@WSA?$CFs?$AA@ 004822a4     net_wins.obj
 0003:0000a2ac       ??_C@_0L@EAM@WSA_ERR_?$CFd?$AA@ 004822ac     net_wins.obj
 0003:0000a2b8       ??_C@_0BL@JFAD@NET_SendPacket?$CI?$CFs?0?$CFd?$CJ?3?5?$CFs?6?$AA@ 004822b8     net_wins.obj
 0003:0000a2d4       ??_C@_04IOEK@port?$AA@     004822d4     net_wins.obj
 0003:0000a2dc       ??_C@_05LALF@27910?$AA@    004822dc     net_wins.obj
 0003:0000a2e4       ??_C@_0BN@CMOG@IPSocket?3?5allocated?5port?5?$CFd?6?$AA@ 004822e4     net_wins.obj
 0003:0000a304       ??_C@_0CL@INOP@IPSocket?3?5unable?5to?5allocate?5add@ 00482304     net_wins.obj
 0003:0000a330       ??_C@_0DH@KGIN@IPSocket?3?5unable?5to?5bind?5to?5port@ 00482330     net_wins.obj
 0003:0000a368       ??_C@_0BJ@EKEF@IPSocket?3?5broadcast?3?5?$CFs?6?$AA@ 00482368     net_wins.obj
 0003:0000a384       ??_C@_0BL@MNGD@IPSocket?3?5nonblocking?3?5?$CFs?6?$AA@ 00482384     net_wins.obj
 0003:0000a3a0       ??_C@_0BF@BDLI@IPSocket?3?5socket?3?5?$CFs?$AA@ 004823a0     net_wins.obj
 0003:0000a3b8       ??_C@_0CA@BACJ@WinSock?3?5version?5?$CFd?4?$CFd?5?$CI?$CFd?4?$CFd?$CJ?6?$AA@ 004823b8     net_wins.obj
 0003:0000a3d8       ??_C@_0BG@PMME@WSAStartup?5failed?3?5?$CFs?$AA@ 004823d8     net_wins.obj
 0003:0000a3f4       ??_C@_0BM@GEGJ@?$CK?$CK?$CK?5dsound?5init?5failed?5?$CK?$CK?$CK?6?$AA@ 004823f4     snd_win.obj
 0003:0000a410       ??_C@_0BH@DHHL@dsound?5init?5succeeded?6?$AA@ 00482410     snd_win.obj
 0003:0000a428       ??_C@_0CB@OELN@failed?0?5hardware?5already?5in?5use?6@ 00482428     snd_win.obj
 0003:0000a44c       ??_C@_0BL@PJEE@?4?4?4completed?5successfully?6?$AA@ 0048244c     snd_win.obj
 0003:0000a468       ??_C@_0N@HOHD@retrying?4?4?4?6?$AA@ 00482468     snd_win.obj
 0003:0000a478       ??_C@_0BI@FMOF@?4?4?4creating?5DS?5object?3?5?$AA@ 00482478     snd_win.obj
 0003:0000a490       ??_C@_0CD@EFCI@?$CK?$CK?$CK?5couldn?8t?5get?5DS?5proc?5addr?5?$CK?$CK@ 00482490     snd_win.obj
 0003:0000a4b4       ??_C@_0BC@OJFH@DirectSoundCreate?$AA@ 004824b4     snd_win.obj
 0003:0000a4c8       ??_C@_03BJGB@ok?6?$AA@     004824c8     snd_win.obj
 0003:0000a4cc       ??_C@_07MNBK@failed?6?$AA@ 004824cc     snd_win.obj
 0003:0000a4d4       ??_C@_0L@PLHI@dsound?4dll?$AA@ 004824d4     snd_win.obj
 0003:0000a4e0       ??_C@_0BI@JDCH@?4?4?4loading?5dsound?4dll?3?5?$AA@ 004824e0     snd_win.obj
 0003:0000a4f8       ??_C@_0BK@JBKA@Initializing?5DirectSound?6?$AA@ 004824f8     snd_win.obj
 0003:0000a514       ??_C@_0DE@DCGK@?5?5?5?$CFd?5channel?$CIs?$CJ?6?5?5?5?$CFd?5bits?1samp@ 00482514     snd_win.obj
 0003:0000a548       ??_C@_0CB@CFEN@?4?4?4using?5secondary?5sound?5buffer?6@ 00482548     snd_win.obj
 0003:0000a56c       ??_C@_0BP@EBHA@?4?4?4creating?5secondary?5buffer?3?5?$AA@ 0048256c     snd_win.obj
 0003:0000a58c       ??_C@_0BI@EOFF@?$CK?$CK?$CK?5GetCaps?5failed?5?$CK?$CK?$CK?6?$AA@ 0048258c     snd_win.obj
 0003:0000a5a4       ??_C@_0CF@KFBO@?4?4?4setting?5WRITEPRIMARY?5coop?5lev@ 004825a4     snd_win.obj
 0003:0000a5cc       ??_C@_0BJ@KLHA@?4?4?4using?5primary?5buffer?6?$AA@ 004825cc     snd_win.obj
 0003:0000a5e8       ??_C@_0CF@OENB@?4?4?4setting?5primary?5sound?5format?3@ 004825e8     snd_win.obj
 0003:0000a610       ??_C@_0CJ@HPFH@?4?4?4setting?5primary?5sound?5format?3@ 00482610     snd_win.obj
 0003:0000a63c       ??_C@_0BN@IKOP@?4?4?4creating?5primary?5buffer?3?5?$AA@ 0048263c     snd_win.obj
 0003:0000a65c       ??_C@_0CB@BHNP@?4?4?4setting?5PRIORITY?5coop?5level?3?5@ 0048265c     snd_win.obj
 0003:0000a680       ??_C@_0BF@MHHH@Creating?5DS?5buffers?6?$AA@ 00482680     snd_win.obj
 0003:0000a698       ??_C@_0BH@MNDJ@?4?4?4freeing?5DSOUND?4DLL?6?$AA@ 00482698     snd_win.obj
 0003:0000a6b0       ??_C@_0BI@MGAJ@?4?4?4releasing?5DS?5object?6?$AA@ 004826b0     snd_win.obj
 0003:0000a6c8       ??_C@_0BM@MLMO@Shutting?5down?5sound?5system?6?$AA@ 004826c8     snd_win.obj
 0003:0000a6e4       ??_C@_0BN@OBDC@?4?4?4releasing?5primary?5buffer?6?$AA@ 004826e4     snd_win.obj
 0003:0000a704       ??_C@_0CI@NPAP@?4?4?4stopping?5and?5releasing?5sound?5@ 00482704     snd_win.obj
 0003:0000a72c       ??_C@_0BO@FPOK@?4?4?4setting?5NORMAL?5coop?5level?6?$AA@ 0048272c     snd_win.obj
 0003:0000a74c       ??_C@_0BH@IDCM@Destroying?5DS?5buffers?6?$AA@ 0048274c     snd_win.obj
 0003:0000a764       ??_C@_0DB@MAFM@S_TransferStereo16?3?5Lock?5failed?5@ 00482764     snd_win.obj
 0003:0000a798       ??_C@_0CC@PILE@Couldn?8t?5get?5sound?5buffer?5status@ 00482798     snd_win.obj
 0003:0000a7bc       ??_C@_0BD@JMDM@DSERR_INVALIDPARAM?$AA@ 004827bc     snd_win.obj
 0003:0000a7d0       ??_C@_0BD@NIEA@DSERR_INVALIDCALLS?$AA@ 004827d0     snd_win.obj
 0003:0000a7e4       ??_C@_0BG@MDBD@DSERR_PRIOLEVELNEEDED?$AA@ 004827e4     snd_win.obj
 0003:0000a7fc       ??_C@_0BB@MLJO@DSERR_BUFFERLOST?$AA@ 004827fc     snd_win.obj
 0003:0000a810       ??_C@_07CAMD@unknown?$AA@  00482810     snd_win.obj
 0003:0000a820       ??_C@_03BBFP@?$AI?5?$AI?$AA@ 00482820     sys_win.obj
 0003:0000a824       ??_C@_03BGIC@?$FN?$CFs?$AA@ 00482824     sys_win.obj
 0003:0000a828       ??_C@_02PIMC@?$AN?6?$AA@   00482828     sys_win.obj
 0003:0000a82c       ??_C@_06HBIN@msg?$DN?$CFX?$AA@ 0048282c     sys_win.obj
 0003:0000a834       ??_C@_0BK@LBEM@Server?5fatal?5crashed?3?5?$CFs?6?$AA@ 00482834     sys_win.obj
 0003:0000a850       ??_C@_0N@JLKB@History?3?5?$CFs?6?$AA@ 00482850     sys_win.obj
 0003:0000a860       ??_C@_0BE@GPDD@Server?5crashed?3?5?$CFs?6?$AA@ 00482860     sys_win.obj
 0003:0000a874       ??_C@_0BG@PFLM@fixing?5timeDelta?5?$DM?50?6?$AA@ 00482874     sys_win.obj
 0003:0000a88c       ??_C@_05NOEM@cddir?$AA@    0048288c     sys_win.obj
 0003:0000a894       ??_C@_0P@GHLE@?$CFsinstall?1data?$AA@ 00482894     sys_win.obj
 0003:0000a8a4       ??_C@_0BK@BEMN@?$CFsinstall?1data?1quake2?4exe?$AA@ 004828a4     sys_win.obj
 0003:0000a8c0       ??_C@_01LHO@r?$AA@         004828c0     sys_win.obj
 0003:0000a8c4       ??_C@_0BE@OALC@win_priorityBoost?$DN0?$AA@ 004828c4     vid_dll.obj
 0003:0000a8d8       ??_C@_0P@KNND@win_noalttab?$DN0?$AA@ 004828d8     vid_dll.obj
 0003:0000a8e8       ??_C@_0L@DCDC@vid_ypos?$DN0?$AA@ 004828e8     vid_dll.obj
 0003:0000a8f4       ??_C@_0L@KHJC@vid_xpos?$DN0?$AA@ 004828f4     vid_dll.obj
 0003:0000a904       ??_C@_0O@HCHA@max?5msg?5hooks?$AA@ 00482904     vid_dll.obj
 0003:0000a914       ??_C@_0CG@GCOC@RemoveMsgHook?3?5hook?5is?5not?5insta@ 00482914     vid_dll.obj
 0003:0000a93c       ??_C@_0BF@CEDC@Cannot?5create?5window?$AA@ 0048293c     vid_dll.obj
 0003:0000a954       ??_C@_0BN@JNEH@Cannot?5register?5window?5class?$AA@ 00482954     vid_dll.obj
 0003:0000a974       ??_C@_08LJOP@vid_ypos?$AA@ 00482974     vid_dll.obj
 0003:0000a980       ??_C@_08JMLN@vid_xpos?$AA@ 00482980     vid_dll.obj
 0003:0000a98c       ??_C@_0BJ@HGPI@Setting?5game?5resolution?6?$AA@ 0048298c     vid_dll.obj
 0003:0000a9a8       ??_C@_0BM@BCCJ@Setting?5desktop?5resolution?6?$AA@ 004829a8     vid_dll.obj
 0003:0000a9c4       ??_C@_0BG@OLGM@?4?4?4destroying?5window?6?$AA@ 004829c4     vid_dll.obj
 0003:0000a9dc       ??_C@_0BF@MPLO@Cannot?5load?5renderer?$AA@ 004829dc     vid_dll.obj
 0003:0000a9f4       ??_C@_0BA@CLBL@MSWHEEL_ROLLMSG?$AA@ 004829f4     vid_dll.obj
 0003:0000aa04       ??_C@_0M@GKIE@vid_restart?$AA@ 00482a04     vid_dll.obj
 0003:0000aa10       ??_C@_0M@NIPL@gl_finish?$DN0?$AA@ 00482a10     gl_backend.obj
 0003:0000aa1c       ??_C@_0L@HNDI@gl_clear?$DN0?$AA@ 00482a1c     gl_backend.obj
 0003:0000aa28       ??_C@_0L@JCJ@gl_noFog?$DN0?$AA@ 00482a28     gl_backend.obj
 0003:0000aa34       ??_C@_0BE@KIDJ@gl_forcePostLight?$DN0?$AA@ 00482a34     gl_backend.obj
 0003:0000aa48       ??_C@_0BB@OFFI@gl_showNormals?$DN0?$AA@ 00482a48     gl_backend.obj
 0003:0000aa5c       ??_C@_0O@CPDL@gl_showTris?$DN0?$AA@ 00482a5c     gl_backend.obj
 0003:0000aa6c       ??_C@_0BA@PMBA@gl_showbboxes?$DN0?$AA@ 00482a6c     gl_backend.obj
 0003:0000aa7c       ??_C@_0P@JEFJ@gl_spyShader?$DN0?$AA@ 00482a7c     gl_backend.obj
 0003:0000aac8       ??_C@_05CKAI@?$CI1?9C?$CJ?$AA@ 00482ac8     gl_backend.obj
 0003:0000aad0       ??_C@_01FKHJ@C?$AA@        00482ad0     gl_backend.obj
 0003:0000aad4       ??_C@_07MKMA@?$CI1?9E?4c?$CJ?$AA@ 00482ad4     gl_backend.obj
 0003:0000aadc       ??_C@_03IAIG@E?4c?$AA@     00482adc     gl_backend.obj
 0003:0000aae0       ??_C@_07CKO@?$CI1?9P?4a?$CJ?$AA@ 00482ae0     gl_backend.obj
 0003:0000aae8       ??_C@_03OOIO@P?4a?$AA@     00482ae8     gl_backend.obj
 0003:0000aaec       ??_C@_07CPPL@?$CI1?9P?4c?$CJ?$AA@ 00482aec     gl_backend.obj
 0003:0000aaf4       ??_C@_03LLKA@P?4c?$AA@     00482af4     gl_backend.obj
 0003:0000aaf8       ??_C@_07JHOG@?$CI1?9T?4a?$CJ?$AA@ 00482af8     gl_backend.obj
 0003:0000ab00       ??_C@_03KGNE@T?4a?$AA@     00482b00     gl_backend.obj
 0003:0000ab04       ??_C@_07LKLD@?$CI1?9T?4c?$CJ?$AA@ 00482b04     gl_backend.obj
 0003:0000ab0c       ??_C@_03PDPK@T?4c?$AA@     00482b0c     gl_backend.obj
 0003:0000ab10       ??_C@_0CF@OCLI@numRenderStages?5?$DM?$DN?5MAX_RENDER_ST@ 00482b10     gl_backend.obj
 0003:0000ab38       ??_C@_0BG@DKLH@ref_gl?1gl_backend?4cpp?$AA@ 00482b38     gl_backend.obj
 0003:0000ab50       ??_C@_0CF@KDLL@numRenderPasses?5?$DM?$DN?5MAX_RENDER_PA@ 00482b50     gl_backend.obj
 0003:0000ab78       ??_C@_0BA@DJID@?5?5tmu?$FL1?$FN?5?$DN?5?$CC?$CFs?$CC?$AA@ 00482b78     gl_backend.obj
 0003:0000ab88       ??_C@_09PBMN@?5?5MT?$CIMUL?$CJ?$AA@ 00482b88     gl_backend.obj
 0003:0000ab94       ??_C@_0L@IGDM@?5?5MT?$CIMUL2?$CJ?$AA@ 00482b94     gl_backend.obj
 0003:0000aba0       ??_C@_0BA@PLML@?5?5tmu?$FL0?$FN?5?$DN?5?$CC?$CFs?$CC?$AA@ 00482ba0     gl_backend.obj
 0003:0000abb0       ??_C@_04BAK@NULL?$AA@      00482bb0     gl_backend.obj
 0003:0000abb8       ??_C@_0BJ@KIDK@?9?9?5next?5pass?5?$CIPostLight?$CJ?$AA@ 00482bb8     gl_backend.obj
 0003:0000abd4       ??_C@_0BD@LIAB@?9?9?5next?5pass?5?$CIfog?$CJ?$AA@ 00482bd4     gl_backend.obj
 0003:0000abe8       ??_C@_0P@JFFF@?5?5not?5combined?$AA@ 00482be8     gl_backend.obj
 0003:0000abf8       ??_C@_0BE@GAOE@?5?5?5new?5rgba?3?5?$CFX?5?$CFX?$CJ?$AA@ 00482bf8     gl_backend.obj
 0003:0000ac0c       ??_C@_0BD@KAGM@?5?5?$CIold?5rgba?3?5?$CFX?5?$CFX?$AA@ 00482c0c     gl_backend.obj
 0003:0000ac20       ??_C@_0BK@FION@?5?5MT?$CIINTERP?$CK2?$CJ?3?5with?5?$CC?$CFs?$CC?$AA@ 00482c20     gl_backend.obj
 0003:0000ac3c       ??_C@_0CG@DPFO@?5?5MT?$CIATI?$CJ?3?5?$CFX?5?9?$DO?5?$CF08X?5?$DN?$DN?5?$CFs?5x?5?$CFs@ 00482c3c     gl_backend.obj
 0003:0000ac64       ??_C@_0CK@DGMP@?5?5MT?$CINV?$CJ?3?5?$CFX?5?9?$DO?5?$CF08X?5?$DN?$DN?5?$CFs?5x?5?$CFs?5@ 00482c64     gl_backend.obj
 0003:0000ac90       ??_C@_0BG@IABF@?5?5MT?$CIMUL2?$CJ?3?5with?5?$CC?$CFs?$CC?$AA@ 00482c90     gl_backend.obj
 0003:0000aca8       ??_C@_0BF@CIMA@?5?5MT?$CIADD?$CJ?3?5with?5?$CC?$CFs?$CC?$AA@ 00482ca8     gl_backend.obj
 0003:0000acc0       ??_C@_0BF@BJGL@?5?5MT?$CIMUL?$CJ?3?5with?5?$CC?$CFs?$CC?$AA@ 00482cc0     gl_backend.obj
 0003:0000acd8       ??_C@_0BD@LANH@incompat?5state?3?5?$CFX?$AA@ 00482cd8     gl_backend.obj
 0003:0000acec       ??_C@_0P@DKMH@incompat?5blend?$AA@ 00482cec     gl_backend.obj
 0003:0000acfc       ??_C@_0CG@GADA@?5?5tmu?$FL?$CFd?3?$CFd?$FN?5?$DN?5?$CC?$CFs?$CC?5?$CIrgba?3?5?$CFs?5?$CFs@ 00482cfc     gl_backend.obj
 0003:0000ad24       ??_C@_03GIEB@var?$AA@      00482d24     gl_backend.obj
 0003:0000ad28       ??_C@_05KCGI@const?$AA@    00482d28     gl_backend.obj
 0003:0000ad30       ??_C@_02CKJF@?9?9?$AA@     00482d30     gl_backend.obj
 0003:0000ad34       ??_C@_05FDBN@ident?$AA@    00482d34     gl_backend.obj
 0003:0000ad3c       ??_C@_0N@BIOP@?9?9?5next?5pass?$AA@ 00482d3c     gl_backend.obj
 0003:0000ad4c       ??_C@_0BC@FLMJ@?9?9?9?9?9?9?9?9?9?9?9?9?9?9?9?9?9?$AA@ 00482d4c     gl_backend.obj
 0003:0000ad60       ??_C@_0CL@KNOB@ComputeCombiners?3?5numStages?5too?5@ 00482d60     gl_backend.obj
 0003:0000ad8c       ??_C@_0BN@JHGL@?9?9?9?5ComputeCombiners?$CI?$CFs?$CJ?5?9?9?9?$AA@ 00482d8c     gl_backend.obj
 0003:0000adac       ??_C@_0CB@IEOI@pass?9?$DOcolorStage?5?$DN?$DN?5pass?9?$DOstages@ 00482dac     gl_backend.obj
 0003:0000add0       ??_C@_0BI@JAPF@?9?9?5pass?5?$CFd?5?$CImtex?5?$CFd?$CJ?5?9?9?$AA@ 00482dd0     gl_backend.obj
 0003:0000ade8       ??_C@_0CA@IFPF@?$CK?$CK?$CK?5FlushShader?$CI?$CFs?0?5?$CFd?0?5?$CFd?$CJ?5?$CK?$CK?$CK?$AA@ 00482de8     gl_backend.obj
 0003:0000ae08       ??_C@_0CH@MOED@Incorrect?5surface?5for?5AUTOSPRITE@ 00482e08     gl_backend.obj
 0003:0000ae30       ??_C@_0CI@PEC@Incorrect?5surface?5for?5AUTOSPRITE@ 00482e30     gl_backend.obj
 0003:0000ae58       ??_C@_0BP@FPB@ReserveVerts?3?5?$CFd?5?$DO?5MAX_INDEXES?$AA@ 00482e58     gl_backend.obj
 0003:0000ae78       ??_C@_0CA@JIJH@ReserveVerts?3?5?$CFd?5?$DO?5MAX_VERTEXES?$AA@ 00482e78     gl_backend.obj
 0003:0000ae98       ??_C@_0BL@DFB@Unknown?5ent?5surf?5flags?3?5?$CFX?$AA@ 00482e98     gl_backend.obj
 0003:0000aeb4       ??_C@_0BO@JMMO@?$CK?$CK?$CK?$CK?$CK?$CK?$CK?$CK?5entity?5?$DN?5?$CFs?5?$CK?$CK?$CK?$CK?$CK?$CK?$CK?$CK?$AA@ 00482eb4     gl_backend.obj
 0003:0000aed4       ??_C@_0CB@FFJM@?$CK?$CK?$CK?$CK?$CK?$CK?$CK?$CK?5entity?5?$DN?5WORLD?5?$CK?$CK?$CK?$CK?$CK?$CK?$CK?$CK@ 00482ed4     gl_backend.obj
 0003:0000aef8       ??_C@_0BO@NIJD@?$CK?$CK?$CK?$CK?$CK?$CK?$CK?$CK?5shader?5?$DN?5?$CFs?5?$CK?$CK?$CK?$CK?$CK?$CK?$CK?$CK?$AA@ 00482ef8     gl_backend.obj
 0003:0000af18       ??_C@_0DD@CDMG@?$CK?$CK?$CK?$CK?$CK?$CK?$CK?$CK?5R_DrawScene?3?5?$CI?$CFd?0?5?$CFd?$CJ?5?9@ 00482f18     gl_backend.obj
 0003:0000af4c       ??_C@_0EB@GNHN@SetCurrentShader?$CI?$CFs?$CJ?5without?5flu@ 00482f4c     gl_backend.obj
 0003:0000af90       ??_C@_0CC@CADN@SetCurrentShader?$CI?$CJ?5without?5flush@ 00482f90     gl_backend.obj
 0003:0000afb4       ??_C@_05GGPB@?$CFs?5?$CFd?$AA@ 00482fb4     gl_backend.obj
 0003:0000afbc       ??_C@_0CB@ILMK@R_AllocDynamicMemory?$CI?$CFd?$CJ?5failed?6@ 00482fbc     gl_buffers.obj
 0003:0000afe0       ??_C@_0CD@GOLC@R_ResizeDynamicMemory?3?5bad?5point@ 00482fe0     gl_buffers.obj
 0003:0000b004       ??_C@_0DB@JB@R_ResizeDynamicMemory?3?5out?5of?5me@ 00483004     gl_buffers.obj
 0003:0000b038       ??_C@_08MCAD@charSize?$AA@ 00483038     gl_font.obj
 0003:0000b044       ??_C@_09CLHF@firstChar?$AA@ 00483044     gl_font.obj
 0003:0000b050       ??_C@_06BPJJ@bitmap?$AA@   00483050     gl_font.obj
 0003:0000b058       ??_C@_0BG@NMJF@fontCount?5?$DM?5MAX_FONTS?$AA@ 00483058     gl_font.obj
 0003:0000b070       ??_C@_0BD@EKFO@ref_gl?1gl_font?4cpp?$AA@ 00483070     gl_font.obj
 0003:0000b084       ??_C@_08GJJF@fontlist?$AA@ 00483084     gl_font.obj
 0003:0000b090       ??_C@_0O@DBDC@?$CF3d?5?$CF3d?5?5?5?$CFs?6?$AA@ 00483090     gl_font.obj
 0003:0000b0a0       ??_C@_0BJ@NOFP@?9?9w?9?9?9h?9?9?9name?9?9?9?9?9?9?9?9?9?6?$AA@ 004830a0     gl_font.obj
 0003:0000b0bc       ??_C@_05FLHP@debug?$AA@    004830bc     gl_font.obj
 0003:0000b0c4       ??_C@_0O@DNNE@pics?1conchars?$AA@ 004830c4     gl_font.obj
 0003:0000b0d4       ??_C@_08CFBM@conchars?$AA@ 004830d4     gl_font.obj
 0003:0000b0e0       ??_C@_08GHFB@fonts?1?$CFs?$AA@ 004830e0     gl_font.obj
 0003:0000b0ec       ??_C@_0BH@LEJG@?$CFs?3?5invalid?5line?5?$FL?$CFs?$FN?6?$AA@ 004830ec     gl_font.obj
 0003:0000b104       ??_C@_0BI@ICAO@File?5?$CFs?5does?5not?5exist?6?$AA@ 00483104     gl_font.obj
 0003:0000b11c       ??_C@_0O@BFBE@fonts?1?$CFs?4font?$AA@ 0048311c     gl_font.obj
 0003:0000b12c       ??_C@_0N@BHL@no?5model?3?5?$CFs?$AA@ 0048312c     gl_frontend.obj
 0003:0000b13c       ??_C@_0BA@FOFH@bad?5surface?3?5?$CFs?$AA@ 0048313c     gl_frontend.obj
 0003:0000b14c       ??_C@_0CH@GFLH@origin?3?5?$CFg?5?$CFg?5?$CFg?6bmodel?3?5?$CFs?6flag@ 0048314c     gl_frontend.obj
 0003:0000b174       ??_C@_0CL@GGKN@md3Model_t?3?3InitEntity?3?5no?5frame@ 00483174     gl_frontend.obj
 0003:0000b1a0       ??_C@_0P@CFMF@?$CKidentityLight?$AA@ 004831a0     gl_frontend.obj
 0003:0000b1b0       ??_C@_0DI@EBAG@origin?3?5?$CFg?5?$CFg?5?$CFg?6md3?3?5?$CFs?6skin?3?5?$CF@ 004831b0     gl_frontend.obj
 0003:0000b1e8       ??_C@_0BI@HGGC@ent?4time?5?$DO?5time?5for?5?$CFs?6?$AA@ 004831e8     gl_frontend.obj
 0003:0000b200       ??_C@_0L@PDKC@?$CIno?5model?$CJ?$AA@ 00483200     gl_frontend.obj
 0003:0000b20c       ??_C@_0CB@MOGN@R_AddEntity?3?5MAX_GLENTITIES?5hit?6@ 0048320c     gl_frontend.obj
 0003:0000b230       ??_C@_0CA@PEKO@R_AddDlight?3?5MAX_GLDLIGHTS?5hit?6?$AA@ 00483230     gl_frontend.obj
 0003:0000b250       ??_C@_0M@JDAB@occluded?6?$CFs?$AA@ 00483250     gl_frontend.obj
 0003:0000b25c       ??_C@_0BD@LKLN@?$CK?5bad?5ent?5?$CFd?3?5f?$DN?$CFX?$AA@ 0048325c     gl_frontend.obj
 0003:0000b270       ??_C@_0BF@JGNA@gl_roundImagesDown?$DN0?$AA@ 00483270     gl_image.obj
 0003:0000b288       ??_C@_0BD@ILL@r_colorMipLevels?$DN0?$AA@ 00483288     gl_image.obj
 0003:0000b29c       ??_C@_0BA@GOME@gl_showImages?$DN0?$AA@ 0048329c     gl_image.obj
 0003:0000b2ac       ??_C@_08IECI@RGBA_ARB?$AA@ 004832ac     gl_image.obj
 0003:0000b2b8       ??_C@_07MDOP@RGB_ARB?$AA@  004832b8     gl_image.obj
 0003:0000b2c0       ??_C@_04JEEF@DXT5?$AA@     004832c0     gl_image.obj
 0003:0000b2c8       ??_C@_04GLDH@DXT3?$AA@     004832c8     gl_image.obj
 0003:0000b2d0       ??_C@_05OIGJ@DXT1A?$AA@    004832d0     gl_image.obj
 0003:0000b2d8       ??_C@_04DOBJ@DXT1?$AA@     004832d8     gl_image.obj
 0003:0000b2e0       ??_C@_0L@DHJK@RGBA4_S3TC?$AA@ 004832e0     gl_image.obj
 0003:0000b2ec       ??_C@_09JFEH@RGBA_S3TC?$AA@ 004832ec     gl_image.obj
 0003:0000b2f8       ??_C@_04DLAJ@S3TC?$AA@     004832f8     gl_image.obj
 0003:0000b300       ??_C@_0L@BGEN@GL_RGB5_A1?$AA@ 00483300     gl_image.obj
 0003:0000b30c       ??_C@_08DIEF@GL_RGBA8?$AA@ 0048330c     gl_image.obj
 0003:0000b318       ??_C@_08MGKB@GL_RGBA4?$AA@ 00483318     gl_image.obj
 0003:0000b324       ??_C@_07MNMK@GL_RGB8?$AA@  00483324     gl_image.obj
 0003:0000b32c       ??_C@_07JJLJ@GL_RGB5?$AA@  0048332c     gl_image.obj
 0003:0000b334       ??_C@_04PIGM@RGBA?$AA@     00483334     gl_image.obj
 0003:0000b33c       ??_C@_03DLPD@RGB?$AA@      0048333c     gl_image.obj
 0003:0000b34c       ??_C@_04KIKH@none?$AA@     0048334c     gl_image.obj
 0003:0000b354       ??_C@_0BI@KDJA@GL_LINEAR_MIPMAP_LINEAR?$AA@ 00483354     gl_image.obj
 0003:0000b36c       ??_C@_0BJ@FEEC@GL_NEAREST_MIPMAP_LINEAR?$AA@ 0048336c     gl_image.obj
 0003:0000b388       ??_C@_0BJ@CJFK@GL_LINEAR_MIPMAP_NEAREST?$AA@ 00483388     gl_image.obj
 0003:0000b3a4       ??_C@_0BK@NEKN@GL_NEAREST_MIPMAP_NEAREST?$AA@ 004833a4     gl_image.obj
 0003:0000b3c0       ??_C@_09KGLC@GL_LINEAR?$AA@ 004833c0     gl_image.obj
 0003:0000b3cc       ??_C@_0L@FLFP@GL_NEAREST?$AA@ 004833cc     gl_image.obj
 0003:0000b3d8       ??_C@_0CA@DIF@R_TextureMode?3?5bad?5filter?5name?6?$AA@ 004833d8     gl_image.obj
 0003:0000b3f8       ??_C@_0CF@IAOJ@R_CreateImage?$CI?$CFs?$CJ?3?5MAX_TEXTURES?5@ 004833f8     gl_image.obj
 0003:0000b420       ??_C@_0BJ@EOBL@R_CreateImage?3?5NULL?5name?$AA@ 00483420     gl_image.obj
 0003:0000b43c       ??_C@_0O@OKIJ@?1?1?5Upload?$CI?$CFs?$CJ?$AA@ 0048343c     gl_image.obj
 0003:0000b44c       ??_C@_0CE@CACM@rebuilding?5saturation?5table?5for?5@ 0048344c     gl_image.obj
 0003:0000b470       ??_C@_0BO@LAI@?$CFd?5images?5uploaded?5in?5?$CFg?5sec?6?$AA@ 00483470     gl_image.obj
 0003:0000b490       ??_C@_09PAG@Wrote?5?$CFs?6?$AA@ 00483490     gl_image.obj
 0003:0000b49c       ??_C@_0BM@CEFM@?4?1?$CFs?1screenshots?1shot?$CF04d?$CFs?$AA@ 0048349c     gl_image.obj
 0003:0000b4b8       ??_C@_0L@JJML@fx?1diffuse?$AA@ 004834b8     gl_image.obj
 0003:0000b4c4       ??_C@_0M@ENOB@fx?1specular?$AA@ 004834c4     gl_image.obj
 0003:0000b4d0       ??_C@_04OIEN@?$CKfog?$AA@  004834d0     gl_image.obj
 0003:0000b4d8       ??_C@_07CCPL@?$CKdetail?$AA@ 004834d8     gl_image.obj
 0003:0000b4e0       ??_C@_09IPNB@?$CKparticle?$AA@ 004834e0     gl_image.obj
 0003:0000b4ec       ??_C@_07ELEK@?$CKdlight?$AA@ 004834ec     gl_image.obj
 0003:0000b4f4       ??_C@_06EGJL@?$CKvideo?$AA@ 004834f4     gl_image.obj
 0003:0000b4fc       ??_C@_08IILE@?$CKdefault?$AA@ 004834fc     gl_image.obj
 0003:0000b508       ??_C@_0L@OAHB@img_reload?$AA@ 00483508     gl_image.obj
 0003:0000b514       ??_C@_09PCJE@imagelist?$AA@ 00483514     gl_image.obj
 0003:0000b520       ??_C@_0BP@NOEH@Can?5not?5load?5pics?1colormap?4pcx?$AA@ 00483520     gl_image.obj
 0003:0000b540       ??_C@_0BC@EOBO@pics?1colormap?4pcx?$AA@ 00483540     gl_image.obj
 0003:0000b554       ??_C@_0BL@MIHL@Usage?3?5imagelist?5?$FL?$DMmask?$DO?$FN?6?$AA@ 00483554     gl_image.obj
 0003:0000b570       ??_C@_0BA@FDPA@Chain?5?$CFdx?5?3?5?$CFd?6?$AA@ 00483570     gl_image.obj
 0003:0000b580       ??_C@_0CD@KFPJ@?9?9?9?9?9?9?9?9?9?9?9?9?9?9?6Hash?5distribution@ 00483580     gl_image.obj
 0003:0000b5a4       ??_C@_0DF@CMGK@Displayed?5?$CFd?1?$CFd?5images?$DL?5texel?5co@ 004835a4     gl_image.obj
 0003:0000b5dc       ??_C@_0CE@POIF@?$CF?93d?5?$CF?94d?5?$CF?94d?5?$CFc?5?$CFc?5?5?$CFc?5?$CF?98s?5?$CFs@ 004835dc     gl_image.obj
 0003:0000b600       ??_C@_07NJP@?$FO1?$DP?$DP?$DP?$FO7?$AA@ 00483600     gl_image.obj
 0003:0000b608       ??_C@_0CO@NDFN@?9?9?9?9w?9?9?9?9h?9?9?9?9a?9wr?9m?9fmt?9?9?9?9?9?9na@ 00483608     gl_image.obj
 0003:0000b638       ??_C@_0BK@OLJD@Usage?3?5img_reload?5?$DMmask?$DO?6?$AA@ 00483638     gl_image.obj
 0003:0000b654       ??_C@_0BO@OMAH@?$CFd?5images?5reloaded?5in?5?$CFg?5sec?6?$AA@ 00483654     gl_image.obj
 0003:0000b674       ??_C@_06BNEM@img?$DN?$CFs?$AA@ 00483674     gl_image.obj
 0003:0000b67c       ??_C@_0DF@FEMN@R_FindImage?3?5reusing?5?$CC?$CFs?$CC?5with?5a@ 0048367c     gl_image.obj
 0003:0000b6b4       ??_C@_0EE@IFON@R_FindImage?$CI?$CFs?$CJ?3?5using?5different@ 004836b4     gl_image.obj
 0003:0000b6f8       ??_C@_0DJ@MDNJ@?$CB?$CIflags?5?$CG?5IMAGE_ANYFLAGS?$CJ?5?$HM?$HM?5?$CIfl@ 004836f8     gl_image.obj
 0003:0000b734       ??_C@_0BE@IKBG@ref_gl?1gl_image?4cpp?$AA@ 00483734     gl_image.obj
 0003:0000b748       ??_C@_0CG@MACJ@R_LoadImage?$CI?$CFs?$CJ?3?5cannot?5load?5tex@ 00483748     gl_image.obj
 0003:0000b770       ??_C@_0BF@LGLC@Bind?3?5error?5with?5?$CFs?6?$AA@ 00483770     gl_interface.obj
 0003:0000b788       ??_C@_0P@MFOK@?1?1?5GL_Bind?$CI?$CFs?$CJ?$AA@ 00483788     gl_interface.obj
 0003:0000b798       ??_C@_0O@OFDE@?1?1?5fix?5BUG001?$AA@ 00483798     gl_interface.obj
 0003:0000b7a8       ??_C@_0BC@NDEN@pics?1conchars?4pcx?$AA@ 004837a8     gl_interface.obj
 0003:0000b7bc       ??_C@_0BK@FONC@BindForce?3?5error?5with?5?$CFs?6?$AA@ 004837bc     gl_interface.obj
 0003:0000b7d8       ??_C@_0BL@BMDP@R_SetMultitexture?$CI?$CFd?5?$DO?5?$CFd?$CJ?$AA@ 004837d8     gl_interface.obj
 0003:0000b7f4       ??_C@_0BI@NNNK@?$CK?$CK?$CK?$CK?$CK?5Set2DMode?$CI?$CJ?5?$CK?$CK?$CK?$CK?$CK?$AA@ 004837f4     gl_interface.obj
 0003:0000b80c       ??_C@_0BH@FOEK@?$CK?$CK?$CK?5GL_Set3DMode?$CI?$CJ?5?$CK?$CK?$CK?$AA@ 0048380c     gl_interface.obj
 0003:0000b824       ??_C@_0L@HGJD@?$CFg?6fall?3?$CFs?$AA@ 00483824     gl_light.obj
 0003:0000b830       ??_C@_05CPGM@?$CFg?6?$CFg?$AA@ 00483830     gl_light.obj
 0003:0000b838       ??_C@_0BJ@EPHL@?$CK?$CK?$CK?$CK?$CK?5ShowLights?$CI?$CJ?5?$CK?$CK?$CK?$CK?$CK?$AA@ 00483838     gl_light.obj
 0003:0000b854       ??_C@_0BN@ODFF@?$CFs?3?5inv2?5slight?5at?5?$CFg?5?$CFg?5?$CFg?6?$AA@ 00483854     gl_light.obj
 0003:0000b874       ??_C@_0M@GCNE@?$CKlightmap?$CFd?$AA@ 00483874     gl_lightmap.obj
 0003:0000b880       ??_C@_0BP@HCJJ@LM_NewBlock?3?5MAX_LIGHTMAPS?5hit?$AA@ 00483880     gl_lightmap.obj
 0003:0000b8a0       ??_C@_02CMJJ@dl?$AA@       004838a0     gl_lightmap.obj
 0003:0000b8a4       ??_C@_02DDFK@lm?$AA@       004838a4     gl_lightmap.obj
 0003:0000b8a8       ??_C@_0BH@PIBN@ref_gl?1gl_lightmap?4cpp?$AA@ 004838a8     gl_lightmap.obj
 0003:0000b8c0       ??_C@_0P@DKNA@surf?9?$DOlightmap?$AA@ 004838c0     gl_lightmap.obj
 0003:0000b8d0       ??_C@_04IBA@surf?$AA@      004838d0     gl_lightmap.obj
 0003:0000b8d8       ??_C@_08GNCC@bsp?5load?$AA@ 004838d8     gl_main.obj
 0003:0000b8e4       ??_C@_0M@MPJE@md2?5normals?$AA@ 004838e4     gl_main.obj
 0003:0000b8f0       ??_C@_0L@BCNP@tex?5upload?$AA@ 004838f0     gl_main.obj
 0003:0000b8fc       ??_C@_0P@DEDH@tex?5lightscale?$AA@ 004838fc     gl_main.obj
 0003:0000b90c       ??_C@_0L@LHO@tex?5mipmap?$AA@ 0048390c     gl_main.obj
 0003:0000b918       ??_C@_0N@FAPC@tex?5resample?$AA@ 00483918     gl_main.obj
 0003:0000b928       ??_C@_0P@DJBE@gl_sortAlpha?$DN0?$AA@ 00483928     gl_main.obj
 0003:0000b938       ??_C@_0BC@NMNL@gl_showFillRate?$DN0?$AA@ 00483938     gl_main.obj
 0003:0000b94c       ??_C@_0BC@NBOA@gl_singleShader?$DN0?$AA@ 0048394c     gl_main.obj
 0003:0000b960       ??_C@_0BA@NAGF@gl_showLights?$DN0?$AA@ 00483960     gl_main.obj
 0003:0000b970       ??_C@_0BA@GNPP@gl_lightLines?$DN0?$AA@ 00483970     gl_main.obj
 0003:0000b980       ??_C@_0M@MFKK@gl_labels?$DN0?$AA@ 00483980     gl_main.obj
 0003:0000b98c       ??_C@_0BB@LNJJ@r_drawentities?$DN1?$AA@ 0048398c     gl_main.obj
 0003:0000b9a0       ??_C@_0O@IOCE@r_drawworld?$DN1?$AA@ 004839a0     gl_main.obj
 0003:0000b9b0       ??_C@_0N@IMCC@gl_showSky?$DN0?$AA@ 004839b0     gl_main.obj
 0003:0000b9c0       ??_C@_09EIDO@r_stats?$DN0?$AA@ 004839c0     gl_main.obj
 0003:0000b9cc       ??_C@_0BC@HOLH@gl_backfaceCull?$DN1?$AA@ 004839cc     gl_main.obj
 0003:0000b9e0       ??_C@_0L@CNEG@gl_oCull?$DN1?$AA@ 004839e0     gl_main.obj
 0003:0000b9ec       ??_C@_0BB@CEEE@gl_frustumCull?$DN1?$AA@ 004839ec     gl_main.obj
 0003:0000ba00       ??_C@_09KFON@r_novis?$DN0?$AA@ 00483a00     gl_main.obj
 0003:0000ba0c       ??_C@_0N@EGHP@gl_logFile?$DN0?$AA@ 00483a0c     gl_main.obj
 0003:0000ba1c       ??_C@_0M@JCDH@gl_nobind?$DN0?$AA@ 00483a1c     gl_main.obj
 0003:0000ba28       ??_C@_0BF@IFAO@gl_maxTextureUnits?$DN0?$AA@ 00483a28     gl_main.obj
 0003:0000ba40       ??_C@_0BD@ICLC@gl_driver?$DNopengl32?$AA@ 00483a40     gl_main.obj
 0003:0000ba54       ??_C@_0BC@GPJF@gl_swapinterval?$DN0?$AA@ 00483a54     gl_main.obj
 0003:0000ba68       ??_C@_0L@EPEG@gl_znear?$DN4?$AA@ 00483a68     gl_main.obj
 0003:0000ba74       ??_C@_0O@FENC@gl_showGrid?$DN0?$AA@ 00483a74     gl_main.obj
 0003:0000ba84       ??_C@_0M@PMLN@gl_noGrid?$DN0?$AA@ 00483a84     gl_main.obj
 0003:0000ba90       ??_C@_0BB@HOHO@gl_dlightBacks?$DN1?$AA@ 00483a90     gl_main.obj
 0003:0000baa4       ??_C@_0N@BGAD@gl_dynamic?$DN1?$AA@ 00483aa4     gl_main.obj
 0003:0000bab4       ??_C@_0M@INPH@gl_flares?$DN1?$AA@ 00483ab4     gl_main.obj
 0003:0000bac0       ??_C@_08BPBK@gl_fog?$DN0?$AA@ 00483ac0     gl_main.obj
 0003:0000bacc       ??_C@_0N@PDND@gl_fastSky?$DN0?$AA@ 00483acc     gl_main.obj
 0003:0000badc       ??_C@_0BC@FLED@r_ignorehwgamma?$DN0?$AA@ 00483adc     gl_main.obj
 0003:0000baf0       ??_C@_0BC@OKBK@gl_skinMipBias?$DN?91?$AA@ 00483af0     gl_main.obj
 0003:0000bb04       ??_C@_0BD@EHME@gl_texMipBias?$DN?90?45?$AA@ 00483b04     gl_main.obj
 0003:0000bb18       ??_C@_0BI@NDKI@gl_texturemode?$DNbilinear?$AA@ 00483b18     gl_main.obj
 0003:0000bb48       ??_C@_08BONO@required?$AA@ 00483b48     gl_main.obj
 0003:0000bb54       ??_C@_08IOPH@unneeded?$AA@ 00483b54     gl_main.obj
 0003:0000bb60       ??_C@_06HDGO@forced?$AA@   00483b60     gl_main.obj
 0003:0000bb68       ??_C@_0CH@KMEP@?$FO6?4?4?4multitexture?5limited?5by?5?$CFd?5@ 00483b68     gl_main.obj
 0003:0000bb90       ??_C@_0BP@GIDI@Error?5in?5multitexture?5support?6?$AA@ 00483b90     gl_main.obj
 0003:0000bbb0       ??_C@_0CH@PGLG@BUG002?3?5disabling?5texture?5compre@ 00483bb0     gl_main.obj
 0003:0000bbd8       ??_C@_0BB@JNIH@?5video?5detected?6?$AA@ 00483bd8     gl_main.obj
 0003:0000bbec       ??_C@_07LIFI@GENERIC?$AA@  00483bec     gl_main.obj
 0003:0000bbf4       ??_C@_03BGPF@ATI?$AA@      00483bf4     gl_main.obj
 0003:0000bbf8       ??_C@_04MGPG@ATI?5?$AA@    00483bf8     gl_main.obj
 0003:0000bc00       ??_C@_06NPMJ@?1GF2MX?$AA@  00483c00     gl_main.obj
 0003:0000bc08       ??_C@_0M@FGNL@GeForce2?5MX?$AA@ 00483c08     gl_main.obj
 0003:0000bc14       ??_C@_02JLMM@NV?$AA@       00483c14     gl_main.obj
 0003:0000bc18       ??_C@_07LJAD@NVIDIA?5?$AA@ 00483c18     gl_main.obj
 0003:0000bc20       ??_C@_0BA@ICOO@Cannot?5load?5?$CFs?6?$AA@ 00483c20     gl_main.obj
 0003:0000bc30       ??_C@_09CLHH@?$FO1failed?6?$AA@ 00483c30     gl_main.obj
 0003:0000bc3c       ??_C@_03IOOG@OK?6?$AA@     00483c3c     gl_main.obj
 0003:0000bc40       ??_C@_0DB@JCAB@Cannot?5load?5?$CFs?5?9?5trying?5default?5@ 00483c40     gl_main.obj
 0003:0000bc74       ??_C@_0CH@DOJD@?6?9?9?9?5Initializing?5OpenGL?5rendere@ 00483c74     gl_main.obj
 0003:0000bc9c       ??_C@_07KFLF@gfxinfo?$AA@  00483c9c     gl_main.obj
 0003:0000bca4       ??_C@_0CA@JCPI@Usage?3?5gfxinfo?5?$FLextension_mask?$FN?$AA@ 00483ca4     gl_main.obj
 0003:0000bcc4       ??_C@_09IKCN@software?6?$AA@ 00483cc4     gl_main.obj
 0003:0000bcd0       ??_C@_0DI@DOIP@hardware?0?5overbright?3?5?$CFs?5?$CI?$CFs?$CJ?0?5l@ 00483cd0     gl_main.obj
 0003:0000bd08       ??_C@_07INHH@Gamma?3?5?$AA@ 00483d08     gl_main.obj
 0003:0000bd10       ??_C@_0O@PKBD@Lighting?3?5?$CFs?6?$AA@ 00483d10     gl_main.obj
 0003:0000bd20       ??_C@_0N@EJNC@unsupported?6?$AA@ 00483d20     gl_main.obj
 0003:0000bd30       ??_C@_0BA@FFCA@max?5size?5is?5?$CFd?6?$AA@ 00483d30     gl_main.obj
 0003:0000bd40       ??_C@_0BE@OMFB@Texture?5rectangle?3?5?$AA@ 00483d40     gl_main.obj
 0003:0000bd54       ??_C@_0BG@LKBP@Max?5texture?5size?3?5?$CFd?6?$AA@ 00483d54     gl_main.obj
 0003:0000bd6c       ??_C@_03BBNN@no?6?$AA@     00483d6c     gl_main.obj
 0003:0000bd70       ??_C@_0BL@IJE@yes?0?5?$CFs?0?5?$CFd?5texture?5units?6?$AA@ 00483d70     gl_main.obj
 0003:0000bd8c       ??_C@_05PNHL@?5?$CLATI?$AA@ 00483d8c     gl_main.obj
 0003:0000bd94       ??_C@_04BFNF@?5?$CLNV?$AA@ 00483d94     gl_main.obj
 0003:0000bd9c       ??_C@_09ENAG@?5?$CLCombine?$AA@ 00483d9c     gl_main.obj
 0003:0000bda8       ??_C@_05EEBD@?5?$CLAdd?$AA@ 00483da8     gl_main.obj
 0003:0000bdb0       ??_C@_04KPML@SGIS?$AA@     00483db0     gl_main.obj
 0003:0000bdb8       ??_C@_03MKAL@ARB?$AA@      00483db8     gl_main.obj
 0003:0000bdbc       ??_C@_0BB@LOGD@Multitexturing?3?5?$AA@ 00483dbc     gl_main.obj
 0003:0000bdd0       ??_C@_0CF@BFLM@?$FO1?9?9?9?9?9?9?9?9?9?9?9?9?9?9?9?9?9?9?9?9?9?9?9?9?9?9?9?9?9?9@ 00483dd0     gl_main.obj
 0003:0000bdf8       ??_C@_08KFCA@Platform?$AA@ 00483df8     gl_main.obj
 0003:0000be04       ??_C@_04FCAC@Base?$AA@     00483e04     gl_main.obj
 0003:0000be0c       ??_C@_0BC@IFAK@?$FO1Version?3?5?$FO7?5?$CFs?6?$AA@ 00483e0c     gl_main.obj
 0003:0000be20       ??_C@_0BC@JKJI@?$FO1Renderer?3?$FO7?5?$CFs?6?$AA@ 00483e20     gl_main.obj
 0003:0000be34       ??_C@_0BC@CDIF@?$FO1Vendor?3?5?5?$FO7?5?$CFs?6?$AA@ 00483e34     gl_main.obj
 0003:0000be48       ??_C@_0CF@GLPK@?$FO1?9?9?9?9?9?9?9?9?9?9?5OpenGL?5info?5?9?9?9?9?9?9?9@ 00483e48     gl_main.obj
 0003:0000be70       ??_C@_0CL@FDIG@SetMode?$CI?$CJ?5?9?5could?5not?5revert?5to?5@ 00483e70     gl_main.obj
 0003:0000be9c       ??_C@_0BK@HJGK@SetMode?$CI?$CJ?5?9?5invalid?5mode?6?$AA@ 00483e9c     gl_main.obj
 0003:0000beb8       ??_C@_0CE@MLGB@?6?9?9?9?9?9?9?9?9?9?9?5Begin?5Frame?5?9?9?9?9?9?9?9?9@ 00483eb8     gl_main.obj
 0003:0000bedc       ??_C@_0L@PDBC@gl_logFile?$AA@ 00483edc     gl_main.obj
 0003:0000bee8       ??_C@_0KO@IIKF@?9?9?9?9?9?9?9?9?9?5world?5?9?9?9?9?9?9?9?9?9?9?6leafs@ 00483ee8     gl_main.obj
 0003:0000bf98       ??_C@_0JB@ILPJ@?9?9?9?9?9?9?5common?5counts?5?9?9?9?9?9?9?6?5sur@ 00483f98     gl_main.obj
 0003:0000c02c       ??_C@_0BAK@JONE@?9?9?9?5frontend?5?$CF5?42f?5?9?9?9?6?5walk?5bsp@ 0048402c     gl_main.obj
 0003:0000c138       ??_C@_0BF@JJLO@?$FO2?$CF?$CF?9?$CFds?5?5?$CF?$CF7?43f?5ms?6?$AA@ 00484138     gl_main.obj
 0003:0000c150       ??_C@_0BI@EEG@?$CFs?5is?5not?5a?5sky?5shader?6?$AA@ 00484150     gl_main.obj
 0003:0000c168       ??_C@_06PDJG@env?1?$CFs?$AA@ 00484168     gl_main.obj
 0003:0000c170       ??_C@_0L@KAKH@gfx?1env?1?$CFs?$AA@ 00484170     gl_main.obj
 0003:0000c17c       ?mathFuncs@OpenGLDrv@@3PAPBMA 0048417c     gl_math.obj
 0003:0000c18c       ??_C@_0CB@CNII@poly_t?3?3AddPoint?3?5index?5overflow@ 0048418c     gl_poly.obj
 0003:0000c1b0       ??_C@_0CC@OIPN@SubdividePlane?3?5MAX_POLYVERTS?5hi@ 004841b0     gl_poly.obj
 0003:0000c340       ??_C@_05OHNG@tcMod?$AA@    00484340     gl_shader.obj
 0003:0000c348       ??_C@_06GKLE@texgen?$AA@   00484348     gl_shader.obj
 0003:0000c350       ??_C@_05EKNJ@tcGen?$AA@    00484350     gl_shader.obj
 0003:0000c358       ??_C@_08PKOG@alphaGen?$AA@ 00484358     gl_shader.obj
 0003:0000c364       ??_C@_06CAPO@rgbGen?$AA@   00484364     gl_shader.obj
 0003:0000c36c       ??_C@_0M@MPPA@nodepthtest?$AA@ 0048436c     gl_shader.obj
 0003:0000c378       ??_C@_0L@MNCG@depthwrite?$AA@ 00484378     gl_shader.obj
 0003:0000c384       ??_C@_09JOKH@depthfunc?$AA@ 00484384     gl_shader.obj
 0003:0000c390       ??_C@_09DKCI@blendfunc?$AA@ 00484390     gl_shader.obj
 0003:0000c39c       ??_C@_09PGFL@alphaFunc?$AA@ 0048439c     gl_shader.obj
 0003:0000c3a8       ??_C@_0N@BEOC@animClampMap?$AA@ 004843a8     gl_shader.obj
 0003:0000c3b8       ??_C@_07KFGH@animMap?$AA@  004843b8     gl_shader.obj
 0003:0000c3c0       ??_C@_08JJFC@clampMap?$AA@ 004843c0     gl_shader.obj
 0003:0000c3cc       ??_C@_04KCGK@warp?$AA@     004843cc     gl_shader.obj
 0003:0000c3d4       ??_C@_06NCLJ@rotate?$AA@   004843d4     gl_shader.obj
 0003:0000c3dc       ??_C@_09DPG@transform?$AA@ 004843dc     gl_shader.obj
 0003:0000c3e8       ??_C@_07HFFE@stretch?$AA@  004843e8     gl_shader.obj
 0003:0000c3f0       ??_C@_04FIPC@turb?$AA@     004843f0     gl_shader.obj
 0003:0000c3f8       ??_C@_06EJHH@vector?$AA@   004843f8     gl_shader.obj
 0003:0000c400       ??_C@_0M@PHAJ@environment?$AA@ 00484400     gl_shader.obj
 0003:0000c40c       ??_C@_04PIEA@base?$AA@     0048440c     gl_shader.obj
 0003:0000c414       ??_C@_07DIGL@texture?$AA@  00484414     gl_shader.obj
 0003:0000c41c       ??_C@_0M@PJH@oneMinusDot?$AA@ 0048441c     gl_shader.obj
 0003:0000c428       ??_C@_03NANP@dot?$AA@      00484428     gl_shader.obj
 0003:0000c42c       ??_C@_0BB@BDMG@lightingSpecular?$AA@ 0048442c     gl_shader.obj
 0003:0000c440       ??_C@_08BNAC@constant?$AA@ 00484440     gl_shader.obj
 0003:0000c44c       ??_C@_0BA@LOFL@lightingDiffuse?$AA@ 0048444c     gl_shader.obj
 0003:0000c45c       ??_C@_0M@MHFA@exactVertex?$AA@ 0048445c     gl_shader.obj
 0003:0000c468       ??_C@_0P@GNFC@oneMinusVertex?$AA@ 00484468     gl_shader.obj
 0003:0000c478       ??_C@_0P@MKBO@oneMinusEntity?$AA@ 00484478     gl_shader.obj
 0003:0000c488       ??_C@_06HNP@entity?$AA@    00484488     gl_shader.obj
 0003:0000c490       ??_C@_0BB@OJLF@identityLighting?$AA@ 00484490     gl_shader.obj
 0003:0000c4a4       ??_C@_08MNHI@identity?$AA@ 004844a4     gl_shader.obj
 0003:0000c4b0       ??_C@_0BG@MGBN@GL_SRC_ALPHA_SATURATE?$AA@ 004844b0     gl_shader.obj
 0003:0000c4c8       ??_C@_0BH@DCOF@GL_ONE_MINUS_DST_ALPHA?$AA@ 004844c8     gl_shader.obj
 0003:0000c4e0       ??_C@_0N@EGDM@GL_DST_ALPHA?$AA@ 004844e0     gl_shader.obj
 0003:0000c4f0       ??_C@_0BH@NDEA@GL_ONE_MINUS_DST_COLOR?$AA@ 004844f0     gl_shader.obj
 0003:0000c508       ??_C@_0N@KHJJ@GL_DST_COLOR?$AA@ 00484508     gl_shader.obj
 0003:0000c518       ??_C@_0BH@DBAD@GL_ONE_MINUS_SRC_ALPHA?$AA@ 00484518     gl_shader.obj
 0003:0000c530       ??_C@_0N@EFNK@GL_SRC_ALPHA?$AA@ 00484530     gl_shader.obj
 0003:0000c540       ??_C@_0BH@NAKG@GL_ONE_MINUS_SRC_COLOR?$AA@ 00484540     gl_shader.obj
 0003:0000c558       ??_C@_0N@KEHP@GL_SRC_COLOR?$AA@ 00484558     gl_shader.obj
 0003:0000c568       ??_C@_06LPHD@GL_ONE?$AA@   00484568     gl_shader.obj
 0003:0000c570       ??_C@_07CCGL@GL_ZERO?$AA@  00484570     gl_shader.obj
 0003:0000c578       ??_C@_0P@PNOI@entityMergable?$AA@ 00484578     gl_shader.obj
 0003:0000c588       ??_C@_09HHCI@q3map_sun?$AA@ 00484588     gl_shader.obj
 0003:0000c594       ??_C@_0BA@NCNC@qer_editorimage?$AA@ 00484594     gl_shader.obj
 0003:0000c5a4       ??_C@_0BB@FGCE@q3map_lightimage?$AA@ 004845a4     gl_shader.obj
 0003:0000c5b8       ??_C@_0BD@IJEO@q3map_surfacelight?$AA@ 004845b8     gl_shader.obj
 0003:0000c5cc       ??_C@_08CPGK@skyParms?$AA@ 004845cc     gl_shader.obj
 0003:0000c5d8       ??_C@_08PFIC@fogParms?$AA@ 004845d8     gl_shader.obj
 0003:0000c5e4       ??_C@_08IJCK@tessSize?$AA@ 004845e4     gl_shader.obj
 0003:0000c5f0       ??_C@_0M@FHOB@surfaceparm?$AA@ 004845f0     gl_shader.obj
 0003:0000c5fc       ??_C@_0P@NOIA@deformVertexes?$AA@ 004845fc     gl_shader.obj
 0003:0000c60c       ??_C@_04OBLM@sort?$AA@     0048460c     gl_shader.obj
 0003:0000c614       ??_C@_08EBGN@nopicmip?$AA@ 00484614     gl_shader.obj
 0003:0000c620       ??_C@_09MKBD@nomipmaps?$AA@ 00484620     gl_shader.obj
 0003:0000c62c       ??_C@_0L@LBGN@force32bit?$AA@ 0048462c     gl_shader.obj
 0003:0000c638       ??_C@_0O@BBML@polygonOffset?$AA@ 00484638     gl_shader.obj
 0003:0000c648       ??_C@_04PEKF@cull?$AA@     00484648     gl_shader.obj
 0003:0000c650       ??_C@_05KAJB@bulge?$AA@    00484650     gl_shader.obj
 0003:0000c658       ??_C@_04BIKM@move?$AA@     00484658     gl_shader.obj
 0003:0000c660       ??_C@_0M@CJLE@autoSprite2?$AA@ 00484660     gl_shader.obj
 0003:0000c66c       ??_C@_0L@KIB@autoSprite?$AA@ 0048466c     gl_shader.obj
 0003:0000c678       ??_C@_07LACG@nearest?$AA@  00484678     gl_shader.obj
 0003:0000c680       ??_C@_08DJH@additive?$AA@  00484680     gl_shader.obj
 0003:0000c68c       ??_C@_0L@ECFE@underwater?$AA@ 0048468c     gl_shader.obj
 0003:0000c698       ??_C@_06NCBJ@banner?$AA@   00484698     gl_shader.obj
 0003:0000c6a0       ??_C@_0L@LFDP@seeThrough?$AA@ 004846a0     gl_shader.obj
 0003:0000c6ac       ??_C@_05JCGL@decal?$AA@    004846ac     gl_shader.obj
 0003:0000c6b4       ??_C@_06FHOE@opaque?$AA@   004846b4     gl_shader.obj
 0003:0000c6bc       ??_C@_06MFLF@portal?$AA@   004846bc     gl_shader.obj
 0003:0000c6c4       ??_C@_08MHNL@sawtooth?$AA@ 004846c4     gl_shader.obj
 0003:0000c6d0       ??_C@_08DDLJ@triangle?$AA@ 004846d0     gl_shader.obj
 0003:0000c6dc       ??_C@_06NGBE@square?$AA@   004846dc     gl_shader.obj
 0003:0000c6e4       ??_C@_03JAMN@sin?$AA@      004846e4     gl_shader.obj
 0003:0000c6e8       ??_C@_01PJOB@?$CL?$AA@     004846e8     gl_shader.obj
 0003:0000c6ec       ??_C@_03CKBC@prt?$AA@      004846ec     gl_shader.obj
 0003:0000c6f0       ??_C@_03CCDL@fog?$AA@      004846f0     gl_shader.obj
 0003:0000c6f4       ??_C@_0BA@IHON@gl_debugShaders?$AA@ 004846f4     gl_shader.obj
 0003:0000c704       ??_C@_0L@OIIH@shaderlist?$AA@ 00484704     gl_shader.obj
 0003:0000c710       ??_C@_0BM@OFNH@Usage?3?5shaderlist?5?$FL?$DMmask?$DO?$FN?6?$AA@ 00484710     gl_shader.obj
 0003:0000c72c       ??_C@_0BJ@IHEM@Displayed?5?$CFd?1?$CFd?5shaders?6?$AA@ 0048472c     gl_shader.obj
 0003:0000c748       ??_C@_0CE@BGAI@?$CF?93d?5?$CFd?5?5?$CF2s?5?$CF?92d?5?$CF3s?5?5?$CF?93s?5?$CFs?$CFs@ 00484748     gl_shader.obj
 0003:0000c76c       ??_C@_0BC@FLDD@?$FO3?5?5?5?$CIabstract?$CJ?$FO7?$AA@ 0048476c     gl_shader.obj
 0003:0000c780       ??_C@_0BA@BMG@?$FO1?5?5?5?$CIerrors?$CJ?$FO7?$AA@ 00484780     gl_shader.obj
 0003:0000c790       ??_C@_0BA@PDIC@?$FO3?5?5?5?$CInodraw?$CJ?$FO7?$AA@ 00484790     gl_shader.obj
 0003:0000c7a0       ??_C@_01KBCC@v?$AA@        004847a0     gl_shader.obj
 0003:0000c7a4       ??_C@_06BACG@?$FO1?9?9?$FO7?$AA@ 004847a4     gl_shader.obj
 0003:0000c7ac       ??_C@_0CE@OKL@?9?9?9?9ns?9lm?9s?9?9type?9scr?9name?9?9?9?9?9?9@ 004847ac     gl_shader.obj
 0003:0000c7d0       ??_C@_06LIB@?$CFs?0?5?$CFd?$AA@ 004847d0     gl_shader.obj
 0003:0000c7d8       ??_C@_0DH@HIKM@SetShaderLightmap?$CI?$CFs?0?5?$CFd?$CJ?3?5light@ 004847d8     gl_shader.obj
 0003:0000c810       ??_C@_0CI@DGLI@SetLM?$CINONE?$CJ?5for?5non?9vertexLM?5sha@ 00484810     gl_shader.obj
 0003:0000c838       ??_C@_0CD@HPFN@CreateShader?$CI?$CFs?$CJ?3?5MAX_SHADERS?5hi@ 00484838     gl_shader.obj
 0003:0000c85c       ??_C@_02LDBK@?$CDa?$AA@    0048485c     gl_shader.obj
 0003:0000c860       ??_C@_0CI@PCDH@GetAlphaShader?$CI?$CFs?$CJ?3?5already?5have@ 00484860     gl_shader.obj
 0003:0000c888       ??_C@_0CG@EBML@swapping?5first?52?5stages?5in?5shade@ 00484888     gl_shader.obj
 0003:0000c8b0       ??_C@_0DO@PNOM@R_FinishShader?$CI?$CFs?$CJ?3?5multiple?5pri@ 004848b0     gl_shader.obj
 0003:0000c8f0       ??_C@_0DM@IEIL@R_FinishShader?$CI?$CFs?$CJ?3?5strange?5blen@ 004848f0     gl_shader.obj
 0003:0000c92c       ??_C@_0CG@FLDD@Shader?5?$CFs?3?5using?5default?5light?5c@ 0048492c     gl_shader.obj
 0003:0000c954       ??_C@_06FIAC@shader?$AA@   00484954     gl_shader.obj
 0003:0000c95c       ??_C@_0BF@IAFO@ref_gl?1gl_shader?4cpp?$AA@ 0048495c     gl_shader.obj
 0003:0000c974       ??_C@_0CI@JKEH@R_FindShader?3?5couldn?8t?5find?5imag@ 00484974     gl_shader.obj
 0003:0000c99c       ??_C@_0DM@DBGJ@FindShader?3?5file?5system?5modified@ 0048499c     gl_shader.obj
 0003:0000c9d8       ??_C@_0CG@FPHL@Too?5many?5tcMod?5stages?5in?5shader?5@ 004849d8     gl_shader.obj
 0003:0000ca00       ??_C@_05FCKF@?$CFs_?$CFs?$AA@ 00484a00     gl_shader.obj
 0003:0000ca08       ??_C@_0CI@KOOO@?4?4?4found?5?$CFd?5shader?5scripts?5in?5?$CFd@ 00484a08     gl_shader.obj
 0003:0000ca30       ??_C@_0BJ@HPDG@ERROR?5in?5scripts?1?$CFs?3?5?$CFs?6?$AA@ 00484a30     gl_shader.obj
 0003:0000ca4c       ??_C@_0BA@PIAN@unexpected?5?$CC?$CFs?$CC?$AA@ 00484a4c     gl_shader.obj
 0003:0000ca5c       ??_C@_0BB@OAOC@?$CFs?3?5?$CC?$HL?$CC?5expected?$AA@ 00484a5c     gl_shader.obj
 0003:0000ca70       ??_C@_0BH@OCAB@unexpected?5end?5of?5file?$AA@ 00484a70     gl_shader.obj
 0003:0000ca88       ??_C@_05IJN@?$FO2?$CFs?6?$AA@ 00484a88     gl_shader.obj
 0003:0000ca90       ??_C@_0L@FBND@scripts?1?$CFs?$AA@ 00484a90     gl_shader.obj
 0003:0000ca9c       ??_C@_0BB@COGB@scripts?1?$CK?4shader?$AA@ 00484a9c     gl_shader.obj
 0003:0000cab0       ??_C@_0BP@ONOO@Searching?5for?5shader?5scripts?3?6?$AA@ 00484ab0     gl_shader.obj
 0003:0000cad0       ??_C@_0BD@JADD@bad?5cull?5param?3?5?$CFs?$AA@ 00484ad0     gl_shader.obj
 0003:0000cae4       ??_C@_05IMJI@front?$AA@    00484ae4     gl_shader.obj
 0003:0000caec       ??_C@_09CNCG@backsided?$AA@ 00484aec     gl_shader.obj
 0003:0000caf8       ??_C@_08FKEP@backside?$AA@ 00484af8     gl_shader.obj
 0003:0000cb04       ??_C@_04DJCD@back?$AA@     00484b04     gl_shader.obj
 0003:0000cb0c       ??_C@_08JNEJ@twosided?$AA@ 00484b0c     gl_shader.obj
 0003:0000cb18       ??_C@_07BJMH@disable?$AA@  00484b18     gl_shader.obj
 0003:0000cb20       ??_C@_0BE@FLFB@bad?5deform?5wave?5div?$AA@ 00484b20     gl_shader.obj
 0003:0000cb34       ??_C@_0BB@EPOI@too?5much?5deforms?$AA@ 00484b34     gl_shader.obj
 0003:0000cb48       ??_C@_0BJ@DJMI@unknown?5deform?5type?3?5?$CFs?6?$AA@ 00484b48     gl_shader.obj
 0003:0000cb64       ??_C@_0BC@OJPH@bad?5wave?5func?3?5?$CFs?$AA@ 00484b64     gl_shader.obj
 0003:0000cb78       ??_C@_07DLPD@inverse?$AA@  00484b78     gl_shader.obj
 0003:0000cb80       ??_C@_0BH@FPCA@invalid?5wave?5arguments?$AA@ 00484b80     gl_shader.obj
 0003:0000cb98       ??_C@_0N@ILFP@bad?5fogparms?$AA@ 00484b98     gl_shader.obj
 0003:0000cba8       ??_C@_0BF@FEBA@invalid?5rgbGen?5const?$AA@ 00484ba8     gl_shader.obj
 0003:0000cbc0       ??_C@_0BE@HMDH@missing?5parenthesis?$AA@ 00484bc0     gl_shader.obj
 0003:0000cbd4       ??_C@_01KMMP@?$CJ?$AA@     00484bd4     gl_shader.obj
 0003:0000cbd8       ??_C@_01GFI@?$CI?$AA@      00484bd8     gl_shader.obj
 0003:0000cbdc       ??_C@_0BE@EDCJ@skybox?5after?5stages?$AA@ 00484bdc     gl_shader.obj
 0003:0000cbf0       ??_C@_01GJD@?9?$AA@        00484bf0     gl_shader.obj
 0003:0000cbf4       ??_C@_0N@FBLH@bad?5skyparms?$AA@ 00484bf4     gl_shader.obj
 0003:0000cc04       ??_C@_0P@ENKN@no?5texture?3?5?$CFs?$AA@ 00484c04     gl_shader.obj
 0003:0000cc14       ??_C@_08BNAD@$texture?$AA@ 00484c14     gl_shader.obj
 0003:0000cc20       ??_C@_0M@OBHE@$whiteimage?$AA@ 00484c20     gl_shader.obj
 0003:0000cc2c       ??_C@_09HOOE@$lightmap?$AA@ 00484c2c     gl_shader.obj
 0003:0000cc38       ??_C@_0BK@LIHK@too?5much?5animmap?5textures?$AA@ 00484c38     gl_shader.obj
 0003:0000cc54       ??_C@_0BI@EOAN@not?5enough?5animmap?5args?$AA@ 00484c54     gl_shader.obj
 0003:0000cc6c       ??_C@_0BD@NDAN@bad?5alpha?5mode?3?5?$CFs?$AA@ 00484c6c     gl_shader.obj
 0003:0000cc80       ??_C@_05IBBO@GE128?$AA@    00484c80     gl_shader.obj
 0003:0000cc88       ??_C@_05BACI@LT128?$AA@    00484c88     gl_shader.obj
 0003:0000cc90       ??_C@_03FKPN@GT0?$AA@      00484c90     gl_shader.obj
 0003:0000cc94       ??_C@_0BC@HFKM@bad?5blend?5arg?3?5?$CFs?$AA@ 00484c94     gl_shader.obj
 0003:0000cca8       ??_C@_06NKOF@filter?$AA@   00484ca8     gl_shader.obj
 0003:0000ccb0       ??_C@_05DBLI@blend?$AA@    00484cb0     gl_shader.obj
 0003:0000ccb8       ??_C@_0BH@BHIE@bad?5depth?5argument?3?5?$CFs?$AA@ 00484cb8     gl_shader.obj
 0003:0000ccd0       ??_C@_05DPDK@equal?$AA@    00484cd0     gl_shader.obj
 0003:0000ccd8       ??_C@_06BILG@lequal?$AA@   00484cd8     gl_shader.obj
 0003:0000cce0       ??_C@_0BD@MFB@unknown?5rgbGen?3?5?$CFs?$AA@ 00484ce0     gl_shader.obj
 0003:0000ccf4       ??_C@_09LOIP@colorWave?$AA@ 00484cf4     gl_shader.obj
 0003:0000cd00       ??_C@_0BF@EIFN@unknown?5alphaGen?3?5?$CFs?$AA@ 00484d00     gl_shader.obj
 0003:0000cd18       ??_C@_0BC@BDDM@unknown?5tcGen?3?5?$CFs?$AA@ 00484d18     gl_shader.obj
 0003:0000cd2c       ??_C@_0BF@JKNA@invalid?5vector?5param?$AA@ 00484d2c     gl_shader.obj
 0003:0000cd44       ??_C@_0BC@PNJL@unknown?5tcMod?3?5?$CFs?$AA@ 00484d44     gl_shader.obj
 0003:0000cd58       ??_C@_0BF@CPEP@bad?5arguments?5for?5?$CFs?$AA@ 00484d58     gl_shader.obj
 0003:0000cd70       ??_C@_0BK@KMHB@ERROR?5in?5shader?5?$CC?$CFs?$CC?3?5?$CFs?6?$AA@ 00484d70     gl_shader.obj
 0003:0000cd8c       ??_C@_0BN@NILG@unknown?5shader?5command?3?5?$CC?$CFs?$CC?$AA@ 00484d8c     gl_shader.obj
 0003:0000cdac       ??_C@_03IMIK@qer?$AA@      00484dac     gl_shader.obj
 0003:0000cdb0       ??_C@_06BMKI@q3map_?$AA@   00484db0     gl_shader.obj
 0003:0000cdb8       ??_C@_0BM@IGAB@unknown?5stage?5command?3?5?$CC?$CFs?$CC?$AA@ 00484db8     gl_shader.obj
 0003:0000cdd4       ??_C@_0BG@HBHC@extra?5chars?5after?5?8?$HN?8?$AA@ 00484dd4     gl_shader.obj
 0003:0000cdec       ??_C@_0BJ@CDDB@unexpected?5end?5of?5script?$AA@ 00484dec     gl_shader.obj
 0003:0000ce08       ??_C@_0BG@GIN@extra?5chars?5after?5?8?$HL?8?$AA@ 00484e08     gl_shader.obj
 0003:0000ce20       ??_C@_0BG@HPEO@?$FO2?$CFs?3?6?9?9?9?9?9?6?$CFs?6?9?9?9?9?9?6?$AA@ 00484e20     gl_shader.obj
 0003:0000ce38       ??_C@_0CG@CCKM@script?5?$CC?$CFs?$CC?5beyond?5end?5of?5file?5?$CC@ 00484e38     gl_shader.obj
 0003:0000ce60       ??_C@_0BG@DCOH@found?5?$CFs?5in?5?$CFs?5?$CFX?9?$CFX?6?$AA@ 00484e60     gl_shader.obj
 0003:0000ce78       ??_C@_05HMAA@?$CFs?4qs?$AA@ 00484e78     gl_shader.obj
 0003:0000ce80       ??_C@_04ILHL@?$CKsky?$AA@  00484e80     gl_shader.obj
 0003:0000ce88       ??_C@_08HDGJ@fx?1flare?$AA@ 00484e88     gl_shader.obj
 0003:0000ce94       ??_C@_0BA@BOJP@?$CKidentitylight2?$AA@ 00484e94     gl_shader.obj
 0003:0000cea4       ??_C@_07PKKI@?$CKalpha1?$AA@ 00484ea4     gl_shader.obj
 0003:0000ceac       ??_C@_07PMON@?$CKentity?$AA@ 00484eac     gl_shader.obj
 0003:0000ceb4       ??_C@_07FBB@?$CKalpha2?$AA@ 00484eb4     gl_shader.obj
 0003:0000cebc       ??_C@_0BA@LD@bad?5sky?5surface?$AA@ 00484ebc     gl_sky.obj
 0003:0000cecc       ??_C@_0P@NOJD@idx?5?$DN?$DN?5idxLast?$AA@ 00484ecc     gl_sky.obj
 0003:0000cedc       ??_C@_0DM@LKGA@idx?$FL0?$FN?5?$DM?5numVerts?5?$CG?$CG?5idx?$FL1?$FN?5?$DM?5nu@ 00484edc     gl_sky.obj
 0003:0000cf18       ??_C@_0BC@HIGB@ref_gl?1gl_sky?4cpp?$AA@ 00484f18     gl_sky.obj
 0003:0000cf2c       ??_C@_0BJ@EPDH@ClipSkyPolygon?3?5overflow?$AA@ 00484f2c     gl_sky.obj
 0003:0000cf48       ??_C@_0CB@JBOO@gl_skyShader?9?$DOnumStages?5?$CG?$CG?5stage@ 00484f48     gl_sky.obj
 0003:0000cf6c       ??_C@_0BG@OIKB@?$CK?$CK?$CK?$CK?$CK?5DrawSky?$CI?$CJ?5?$CK?$CK?$CK?$CK?$CK?$AA@ 00484f6c     gl_sky.obj
 0003:0000cf8c       ??_C@_0M@JOO@gl_logTexts?$AA@ 00484f8c     gl_text.obj
 0003:0000cf98       ??_C@_05PCCD@?$FO5?$CFs?6?$AA@ 00484f98     gl_text.obj
 0003:0000cfc0       ??_C@_03GMPC@md3?$AA@      00484fc0     gl_model.obj
 0003:0000cfc4       ??_C@_03OAO@spr?$AA@       00484fc4     gl_model.obj
 0003:0000cfc8       ??_C@_03LBEE@inl?$AA@      00484fc8     gl_model.obj
 0003:0000cfcc       ??_C@_06KPKF@mdl?$DN?$CFs?$AA@ 00484fcc     gl_model.obj
 0003:0000cfd4       ??_C@_0CD@DLII@R_FindModel?3?5unknown?5ID?50x?$CFX?5in?5@ 00484fd4     gl_model.obj
 0003:0000cff8       ??_C@_0BM@CAIA@R_FindModel?3?5not?5found?3?5?$CFs?6?$AA@ 00484ff8     gl_model.obj
 0003:0000d014       ??_C@_0BL@GGOP@R_FindModel?3?5MAX_GLMODELS?6?$AA@ 00485014     gl_model.obj
 0003:0000d030       ??_C@_0CN@NNME@R_FindModel?3?5inline?5model?5?$CC?$CFs?$CC?5w@ 00485030     gl_model.obj
 0003:0000d060       ??_C@_09HFGF@modellist?$AA@ 00485060     gl_model.obj
 0003:0000d06c       ??_C@_0BJ@FFJJ@Usage?3?5modellist?5?$FLmask?$FN?6?$AA@ 0048506c     gl_model.obj
 0003:0000d088       ??_C@_0CH@EAFJ@Displayed?5?$CFd?1?$CFd?5models?0?5used?5?$CFd?5@ 00485088     gl_model.obj
 0003:0000d0b0       ??_C@_0BG@LJHL@?$CF?93d?5?5?$CF3s?5?5?$CF?97d?5?$CFs?$CFs?6?$AA@ 004850b0     gl_model.obj
 0003:0000d0c8       ??_C@_0CB@KOHO@?9?9?9?9?9type?9size?9?9?9?9name?9?9?9?9?9?9?9?9?9?6@ 004850c8     gl_model.obj
 0003:0000d0f4       ??_C@_04IDKE@mask?$AA@     004850f4     gl_bspmodel.obj
 0003:0000d0fc       ??_C@_0CB@JGKO@R_LoadWorldMap?3?5unknown?5BSP?5type@ 004850fc     gl_bspmodel.obj
 0003:0000d120       ??_C@_0CK@LDPP@Used?5minlight?5from?5lightmap?5?$HL?$CFd?0@ 00485120     gl_bspmodel.obj
 0003:0000d14c       ??_C@_0CD@BHJG@unknown?5point?5sl?4type?5at?5?$CFg?5?$CFg?5?$CF@ 0048514c     gl_bspmodel.obj
 0003:0000d170       ??_C@_06DPNG@linear?$AA@   00485170     gl_bspmodel.obj
 0003:0000d178       ??_C@_03BJKC@inv?$AA@      00485178     gl_bspmodel.obj
 0003:0000d17c       ??_C@_04IGKH@inv2?$AA@     0048517c     gl_bspmodel.obj
 0003:0000d184       ??_C@_06GBG@nofade?$AA@    00485184     gl_bspmodel.obj
 0003:0000d18c       ??_C@_0CI@NOIL@shader?9?$DOwidth?5?$DO?50?5?$CG?$CG?5shader?9?$DOhei@ 0048518c     gl_bspmodel.obj
 0003:0000d1b4       ??_C@_0BH@NOBE@ref_gl?1gl_bspmodel?4cpp?$AA@ 004851b4     gl_bspmodel.obj
 0003:0000d1cc       ??_C@_0M@BDNM@textures?1?$CFs?$AA@ 004851cc     gl_bspmodel.obj
 0003:0000d1d8       ??_C@_08GOKL@numVerts?$AA@ 004851d8     gl_bspmodel.obj
 0003:0000d1e4       ??_C@_0CG@FPHI@?$CFs?3?5animation?5chain?5is?5too?5long?5@ 004851e4     gl_bspmodel.obj
 0003:0000d20c       ??_C@_0BF@DHDD@dstTexName?$FL0?$FN?5?$DN?$DN?5?8?$CL?8?$AA@ 0048520c     gl_bspmodel.obj
 0003:0000d224       ??_C@_0CM@FPMC@CreateSurfShader1?$CI?$CFs?$CJ?3?5bad?5mipte@ 00485224     gl_bspmodel.obj
 0003:0000d250       ??_C@_0DA@GPJL@CreateSurfShader1?$CI?$CJ?3?5bad?5anim?5te@ 00485250     gl_bspmodel.obj
 0003:0000d280       ??_C@_09FDKO@env?1q1sky?$AA@ 00485280     gl_bspmodel.obj
 0003:0000d28c       ??_C@_0BA@GMCF@gfx?1palette?4lmp?$AA@ 0048528c     gl_bspmodel.obj
 0003:0000d29c       ??_C@_0DE@COII@LM_AllocBlock?3?5unable?5to?5allocat@ 0048529c     gl_bspmodel.obj
 0003:0000d2d0       ??_C@_0BD@IEOE@Disable?5lm?5for?5?$CFs?6?$AA@ 004852d0     gl_bspmodel.obj
 0003:0000d2e4       ??_C@_0CE@HOKC@removed?5?$CFd?5lm?5texels?5?$CI?$CF?43f?5block@ 004852e4     gl_bspmodel.obj
 0003:0000d308       ??_C@_0CM@LOPF@sky?5texture?5?$CC?$CFs?$CC?5have?5wring?5size@ 00485308     gl_bspmodel.obj
 0003:0000d334       ??_C@_0N@BHDO@env?1q1sky_?$CFs?$AA@ 00485334     gl_bspmodel.obj
 0003:0000d344       ??_C@_0BB@GBNM@Curve?5light?3?5?$CFs?6?$AA@ 00485344     gl_bspmodel.obj
 0003:0000d358       ??_C@_0BD@IPIF@?$CFs?3?5curve?5sky?3?5?$CFs?6?$AA@ 00485358     gl_bspmodel.obj
 0003:0000d36c       ??_C@_0BJ@EMKJ@unknown?5surface?5type?3?5?$CFd?$AA@ 0048536c     gl_bspmodel.obj
 0003:0000d388       ??_C@_0BD@FKGK@Trisurf?5light?3?5?$CFs?6?$AA@ 00485388     gl_bspmodel.obj
 0003:0000d39c       ??_C@_0CH@BLLK@No?5shader?5?$CFs?5exists?5for?5fog?5volu@ 0048539c     gl_bspmodel.obj
 0003:0000d3c4       ??_C@_04LLHI@size?$AA@     004853c4     gl_trimodel.obj
 0003:0000d3cc       ??_C@_0BO@KBEO@model?5?$CFs?5have?5no?5LerpTag?5caps?$AA@ 004853cc     gl_trimodel.obj
 0003:0000d3ec       ??_C@_0BC@BPMO@no?5tag?5?$CC?$CFs?$CC?5in?5?$CFs?$AA@ 004853ec     gl_trimodel.obj
 0003:0000d400       ??_C@_0BP@COJN@LoadMd2?$CI?$CFs?$CJ?3?5incorrect?5params?6?$AA@ 00485400     gl_trimodel.obj
 0003:0000d420       ??_C@_0M@OKOF@single_surf?$AA@ 00485420     gl_trimodel.obj
 0003:0000d42c       ??_C@_0CI@NKLO@LoadMd2?$CI?$CFs?$CJ?3?5computed?5numTris?5?$CFd@ 0048542c     gl_trimodel.obj
 0003:0000d454       ??_C@_0BP@EGGF@LoadMd2?$CI?$CFs?$CJ?3?5wrong?5version?5?$CFd?6?$AA@ 00485454     gl_trimodel.obj
 0003:0000d474       ??_C@_0CF@JGCL@ParseGlCmds?$CI?$CFs?$CJ?3?5too?5much?5texcoo@ 00485474     gl_trimodel.obj
 0003:0000d49c       ??_C@_0CL@GLPI@ParseGlCmds?$CI?$CFs?$CJ?3?5incorrect?5trian@ 0048549c     gl_trimodel.obj
 0003:0000d4c8       ??_C@_0CH@GEBC@SetSkin?$CI?$CFs?3?$CFd?$CJ?3?5?$CFs?5or?5?$CFs?5is?5not?5@ 004854c8     gl_trimodel.obj
 0003:0000d4f0       ??_C@_0BP@LMHO@LoadMd3?$CI?$CFs?$CJ?3?5incorrect?5params?6?$AA@ 004854f0     gl_trimodel.obj
 0003:0000d510       ??_C@_0CB@NLAM@LoadMd3?$CI?$CFs?$CJ?3?5volatile?5tag?5names?6@ 00485510     gl_trimodel.obj
 0003:0000d534       ??_C@_0DB@KNEJ@LoadMd3?$CI?$CFs?$CJ?3?5different?5frame?5cou@ 00485534     gl_trimodel.obj
 0003:0000d568       ??_C@_0BP@NEIG@LoadMd3?$CI?$CFs?$CJ?3?5wrong?5version?5?$CFd?6?$AA@ 00485568     gl_trimodel.obj
 0003:0000d588       ??_C@_0BO@NOLE@LoadSp2?$CI?$CFs?$CJ?3?5?$CFs?5is?5not?5found?6?$AA@ 00485588     gl_trimodel.obj
 0003:0000d5a8       ??_C@_0CH@JBHG@LoadSp2?$CI?$CFs?$CJ?3?5incorrect?5frame?5cou@ 004855a8     gl_trimodel.obj
 0003:0000d5d0       ??_C@_0BP@GFNK@LoadSp2?$CI?$CFs?$CJ?3?5wrong?5version?5?$CFd?6?$AA@ 004855d0     gl_trimodel.obj
 0003:0000d5f0       ??_C@_0BO@CIBA@LoadSpr?$CI?$CFs?$CJ?3?5?$CFs?5is?5not?5found?6?$AA@ 004855f0     gl_trimodel.obj
 0003:0000d610       ??_C@_0CC@KGGA@LoadSpr?$CI?$CFs?$CJ?3?5no?5shader?5specified@ 00485610     gl_trimodel.obj
 0003:0000d8d0       ??_C@_0BG@IHNA@WGL_EXT_swap_control?$AA?$AA@ 004858d0     GLBind.obj
 0003:0000d8e8       ??_C@_0DG@GAJD@GL_EXT_texture_edge_clamp?$AAGL_SGI@ 004858e8     GLBind.obj
 0003:0000d920       ??_C@_0BJ@CDKN@GL_EXT_texture_lod_bias?$AA?$AA@ 00485920     GLBind.obj
 0003:0000d93c       ??_C@_0BJ@KDF@gl_ext_texture_rectangle?$AA@ 0048593c     GLBind.obj
 0003:0000d958       ??_C@_0EL@CCFM@GL_NV_texture_rectangle?$AAGL_ARB_t@ 00485958     GLBind.obj
 0003:0000d9a4       ??_C@_0BL@IIFL@gl_ext_draw_range_elements?$AA@ 004859a4     GLBind.obj
 0003:0000d9c0       ??_C@_0BM@CONA@GL_EXT_draw_range_elements?$AA?$AA@ 004859c0     GLBind.obj
 0003:0000d9dc       ??_C@_0BN@OJDH@gl_ext_compiled_vertex_array?$AA@ 004859dc     GLBind.obj
 0003:0000d9fc       ??_C@_0BO@IMML@GL_EXT_compiled_vertex_array?$AA?$AA@ 004859fc     GLBind.obj
 0003:0000da1c       ??_C@_0CB@IMKO@GL_EXT_texture_compression_s3tc?$AA@ 00485a1c     GLBind.obj
 0003:0000da40       ??_C@_0BM@FOCK@GL_ARB_texture_compression?$AA?$AA@ 00485a40     GLBind.obj
 0003:0000da5c       ??_C@_0BL@PJFG@gl_ext_texture_compression?$AA@ 00485a5c     GLBind.obj
 0003:0000da78       ??_C@_0M@JHPF@GL_S3_s3tc?$AA?$AA@ 00485a78     GLBind.obj
 0003:0000da84       ??_C@_0BP@COLB@gl_ext_texture_env_combine_ati?$AA@ 00485a84     GLBind.obj
 0003:0000daa4       ??_C@_0DK@HFJO@GL_ATI_texture_env_combine3?$AAGL_A@ 00485aa4     GLBind.obj
 0003:0000dae0       ??_C@_0BO@DPKO@gl_ext_texture_env_combine_nv?$AA@ 00485ae0     GLBind.obj
 0003:0000db00       ??_C@_0BM@OIKF@GL_NV_texture_env_combine4?$AA?$AA@ 00485b00     GLBind.obj
 0003:0000db1c       ??_C@_0BM@MJFJ@GL_ARB_texture_env_combine?$AA?$AA@ 00485b1c     GLBind.obj
 0003:0000db38       ??_C@_0BL@IKDG@gl_ext_texture_env_combine?$AA@ 00485b38     GLBind.obj
 0003:0000db54       ??_C@_0BM@CNNC@GL_EXT_texture_env_combine?$AA?$AA@ 00485b54     GLBind.obj
 0003:0000db70       ??_C@_0BH@LMED@gl_ext_texture_env_add?$AA@ 00485b70     GLBind.obj
 0003:0000db88       ??_C@_0CP@ENDB@GL_ARB_texture_env_add?$AAGL_EXT_te@ 00485b88     GLBind.obj
 0003:0000dbb8       ??_C@_0BF@LGEH@GL_ARB_multitexture?$AA?$AA@ 00485bb8     GLBind.obj
 0003:0000dbd0       ??_C@_0BE@IOJK@gl_ext_multitexture?$AA@ 00485bd0     GLBind.obj
 0003:0000dbe4       ??_C@_0BG@DHII@GL_SGIS_multitexture?$AA?$AA@ 00485be4     GLBind.obj
 0003:0000dbfc       ??_C@_0BD@LGGF@wglSwapIntervalEXT?$AA@ 00485bfc     GLBind.obj
 0003:0000dc10       ??_C@_0BH@DCHD@glDrawRangeElementsEXT?$AA@ 00485c10     GLBind.obj
 0003:0000dc28       ??_C@_0BC@MMDJ@glUnlockArraysEXT?$AA@ 00485c28     GLBind.obj
 0003:0000dc3c       ??_C@_0BA@NLCH@glLockArraysEXT?$AA@ 00485c3c     GLBind.obj
 0003:0000dc4c       ??_C@_0BJ@NIEC@glClientActiveTextureARB?$AA@ 00485c4c     GLBind.obj
 0003:0000dc68       ??_C@_0BD@IJD@glActiveTextureARB?$AA@ 00485c68     GLBind.obj
 0003:0000dc7c       ??_C@_0BM@DCJF@glSelectTextureCoordSetSGIS?$AA@ 00485c7c     GLBind.obj
 0003:0000dc98       ??_C@_0BE@LEFG@glSelectTextureSGIS?$AA@ 00485c98     GLBind.obj
 0003:0000dcac       ??_C@_0P@NFHG@wglMakeCurrent?$AA@ 00485cac     GLBind.obj
 0003:0000dcbc       ??_C@_0BC@HKHL@wglGetProcAddress?$AA@ 00485cbc     GLBind.obj
 0003:0000dcd0       ??_C@_0BB@IOBP@wglDeleteContext?$AA@ 00485cd0     GLBind.obj
 0003:0000dce4       ??_C@_0BB@GGNL@wglCreateContext?$AA@ 00485ce4     GLBind.obj
 0003:0000dcf8       ??_C@_0P@EKFP@wglSwapBuffers?$AA@ 00485cf8     GLBind.obj
 0003:0000dd08       ??_C@_0BC@PJLC@wglSetPixelFormat?$AA@ 00485d08     GLBind.obj
 0003:0000dd1c       ??_C@_0BH@IJMD@wglDescribePixelFormat?$AA@ 00485d1c     GLBind.obj
 0003:0000dd34       ??_C@_0BF@HPKH@wglChoosePixelFormat?$AA@ 00485d34     GLBind.obj
 0003:0000dd4c       ??_C@_0L@INIC@glViewport?$AA@ 00485d4c     GLBind.obj
 0003:0000dd58       ??_C@_0BA@OGPO@glVertexPointer?$AA@ 00485d58     GLBind.obj
 0003:0000dd68       ??_C@_0M@PAAJ@glVertex3fv?$AA@ 00485d68     GLBind.obj
 0003:0000dd74       ??_C@_0L@CLBF@glVertex3f?$AA@ 00485d74     GLBind.obj
 0003:0000dd80       ??_C@_0L@DNLP@glVertex2f?$AA@ 00485d80     GLBind.obj
 0003:0000dd8c       ??_C@_0N@NKAJ@glTranslatef?$AA@ 00485d8c     GLBind.obj
 0003:0000dd9c       ??_C@_0BA@KFAN@glTexSubImage2D?$AA@ 00485d9c     GLBind.obj
 0003:0000ddac       ??_C@_0BA@CKGN@glTexParameteri?$AA@ 00485dac     GLBind.obj
 0003:0000ddbc       ??_C@_0N@IAMC@glTexImage2D?$AA@ 00485dbc     GLBind.obj
 0003:0000ddcc       ??_C@_09CIAL@glTexEnvi?$AA@ 00485dcc     GLBind.obj
 0003:0000ddd8       ??_C@_0L@IHAL@glTexEnvfv?$AA@ 00485dd8     GLBind.obj
 0003:0000dde4       ??_C@_09CJFG@glTexEnvf?$AA@ 00485de4     GLBind.obj
 0003:0000ddf0       ??_C@_0BC@EKAK@glTexCoordPointer?$AA@ 00485df0     GLBind.obj
 0003:0000de04       ??_C@_0N@PDBC@glTexCoord2f?$AA@ 00485e04     GLBind.obj
 0003:0000de14       ??_C@_0N@LIFO@glShadeModel?$AA@ 00485e14     GLBind.obj
 0003:0000de24       ??_C@_09HOGJ@glScissor?$AA@ 00485e24     GLBind.obj
 0003:0000de30       ??_C@_09LCHL@glRotatef?$AA@ 00485e30     GLBind.obj
 0003:0000de3c       ??_C@_0N@LBPG@glReadPixels?$AA@ 00485e3c     GLBind.obj
 0003:0000de4c       ??_C@_0N@KEGE@glPushMatrix?$AA@ 00485e4c     GLBind.obj
 0003:0000de5c       ??_C@_0M@LACG@glPopMatrix?$AA@ 00485e5c     GLBind.obj
 0003:0000de68       ??_C@_0BA@BALB@glPolygonOffset?$AA@ 00485e68     GLBind.obj
 0003:0000de78       ??_C@_0O@FGKK@glPolygonMode?$AA@ 00485e78     GLBind.obj
 0003:0000de88       ??_C@_07ICOP@glOrtho?$AA@  00485e88     GLBind.obj
 0003:0000de90       ??_C@_0N@JNJF@glMatrixMode?$AA@ 00485e90     GLBind.obj
 0003:0000dea0       ??_C@_0O@KDCF@glLoadMatrixf?$AA@ 00485ea0     GLBind.obj
 0003:0000deb0       ??_C@_0P@MLMG@glLoadIdentity?$AA@ 00485eb0     GLBind.obj
 0003:0000dec0       ??_C@_0M@EJHF@glGetString?$AA@ 00485ec0     GLBind.obj
 0003:0000decc       ??_C@_0O@PMHI@glGetIntegerv?$AA@ 00485ecc     GLBind.obj
 0003:0000dedc       ??_C@_0L@INBB@glGetError?$AA@ 00485edc     GLBind.obj
 0003:0000dee8       ??_C@_07KOOO@glFogfv?$AA@  00485ee8     GLBind.obj
 0003:0000def0       ??_C@_06MMBO@glFogf?$AA@   00485ef0     GLBind.obj
 0003:0000def8       ??_C@_08HFPP@glFinish?$AA@ 00485ef8     GLBind.obj
 0003:0000df04       ??_C@_05FDNN@glEnd?$AA@    00485f04     GLBind.obj
 0003:0000df0c       ??_C@_0BE@JJFB@glEnableClientState?$AA@ 00485f0c     GLBind.obj
 0003:0000df20       ??_C@_08PHJO@glEnable?$AA@ 00485f20     GLBind.obj
 0003:0000df2c       ??_C@_0P@EAHC@glDrawElements?$AA@ 00485f2c     GLBind.obj
 0003:0000df3c       ??_C@_0BF@HABO@glDisableClientState?$AA@ 00485f3c     GLBind.obj
 0003:0000df54       ??_C@_09DADM@glDisable?$AA@ 00485f54     GLBind.obj
 0003:0000df60       ??_C@_0N@OLL@glDepthRange?$AA@ 00485f60     GLBind.obj
 0003:0000df70       ??_C@_0M@LIJE@glDepthMask?$AA@ 00485f70     GLBind.obj
 0003:0000df7c       ??_C@_0M@FDIH@glDepthFunc?$AA@ 00485f7c     GLBind.obj
 0003:0000df88       ??_C@_0BB@OKAI@glDeleteTextures?$AA@ 00485f88     GLBind.obj
 0003:0000df9c       ??_C@_0L@LIEG@glCullFace?$AA@ 00485f9c     GLBind.obj
 0003:0000dfa8       ??_C@_0P@PPM@glColorPointer?$AA@ 00485fa8     GLBind.obj
 0003:0000dfb8       ??_C@_0M@EHCG@glColor4ubv?$AA@ 00485fb8     GLBind.obj
 0003:0000dfc4       ??_C@_09LJGG@glColor4f?$AA@ 00485fc4     GLBind.obj
 0003:0000dfd0       ??_C@_0L@OIPK@glColor3fv?$AA@ 00485fd0     GLBind.obj
 0003:0000dfdc       ??_C@_09NIDD@glColor3f?$AA@ 00485fdc     GLBind.obj
 0003:0000dfe8       ??_C@_0N@IALK@glClearColor?$AA@ 00485fe8     GLBind.obj
 0003:0000dff8       ??_C@_07IOIM@glClear?$AA@  00485ff8     GLBind.obj
 0003:0000e000       ??_C@_0M@PHAI@glBlendFunc?$AA@ 00486000     GLBind.obj
 0003:0000e00c       ??_C@_0O@NAMD@glBindTexture?$AA@ 0048600c     GLBind.obj
 0003:0000e01c       ??_C@_07GHIG@glBegin?$AA@  0048601c     GLBind.obj
 0003:0000e024       ??_C@_0M@JBDJ@glAlphaFunc?$AA@ 00486024     GLBind.obj
 0003:0000e030       ??_C@_0BA@CLML@?$CFs?5?$CIGL_?$CFs?0?5?$CFg?$CJ?6?$AA@ 00486030     GLBind.obj
 0003:0000e040       ??_C@_0BA@HMDO@OPERAND3_RGB_NV?$AA@ 00486040     GLBind.obj
 0003:0000e050       ??_C@_0BD@ELEP@OPERAND0_ALPHA_ARB?$AA@ 00486050     GLBind.obj
 0003:0000e064       ??_C@_0BD@KBMA@OPERAND1_ALPHA_ARB?$AA@ 00486064     GLBind.obj
 0003:0000e078       ??_C@_0BD@JOFA@OPERAND2_ALPHA_ARB?$AA@ 00486078     GLBind.obj
 0003:0000e08c       ??_C@_0BC@EPOK@OPERAND3_ALPHA_NV?$AA@ 0048608c     GLBind.obj
 0003:0000e0a0       ??_C@_0BB@KOKH@MODULATE_ADD_ATI?$AA@ 004860a0     GLBind.obj
 0003:0000e0b4       ??_C@_06GDCH@UNK_?$CFX?$AA@ 004860b4     GLBind.obj
 0003:0000e0bc       ??_C@_0BB@IJKE@OPERAND2_RGB_ARB?$AA@ 004860bc     GLBind.obj
 0003:0000e0d0       ??_C@_0P@NPGG@SOURCE3_RGB_NV?$AA@ 004860d0     GLBind.obj
 0003:0000e0e0       ??_C@_0BC@PLAD@SOURCE0_ALPHA_ARB?$AA@ 004860e0     GLBind.obj
 0003:0000e0f4       ??_C@_0BC@BBIM@SOURCE1_ALPHA_ARB?$AA@ 004860f4     GLBind.obj
 0003:0000e108       ??_C@_0BC@COBM@SOURCE2_ALPHA_ARB?$AA@ 00486108     GLBind.obj
 0003:0000e11c       ??_C@_0BB@DDB@SOURCE3_ALPHA_NV?$AA@ 0048611c     GLBind.obj
 0003:0000e130       ??_C@_0BB@NDE@OPERAND0_RGB_ARB?$AA@ 00486130     GLBind.obj
 0003:0000e144       ??_C@_0BB@MPHM@OPERAND1_RGB_ARB?$AA@ 00486144     GLBind.obj
 0003:0000e158       ??_C@_0BA@FCAH@SOURCE2_RGB_ARB?$AA@ 00486158     GLBind.obj
 0003:0000e168       ??_C@_0O@DGNK@RGB_SCALE_ARB?$AA@ 00486168     GLBind.obj
 0003:0000e178       ??_C@_0BA@KKBO@INTERPOLATE_ARB?$AA@ 00486178     GLBind.obj
 0003:0000e188       ??_C@_0N@PKDH@CONSTANT_ARB?$AA@ 00486188     GLBind.obj
 0003:0000e198       ??_C@_0BC@EADM@PRIMARY_COLOR_ARB?$AA@ 00486198     GLBind.obj
 0003:0000e1ac       ??_C@_0N@BKGO@PREVIOUS_ARB?$AA@ 004861ac     GLBind.obj
 0003:0000e1bc       ??_C@_0BA@NGJH@SOURCE0_RGB_ARB?$AA@ 004861bc     GLBind.obj
 0003:0000e1cc       ??_C@_0BA@BENP@SOURCE1_RGB_ARB?$AA@ 004861cc     GLBind.obj
 0003:0000e1dc       ??_C@_0BC@GJJF@COMBINE_ALPHA_ARB?$AA@ 004861dc     GLBind.obj
 0003:0000e1f0       ??_C@_0BL@OLFC@TEXTURE_FILTER_CONTROL_EXT?$AA@ 004861f0     GLBind.obj
 0003:0000e20c       ??_C@_0BF@NIFN@TEXTURE_LOD_BIAS_EXT?$AA@ 0048620c     GLBind.obj
 0003:0000e224       ??_C@_0M@HIPK@COMBINE4_NV?$AA@ 00486224     GLBind.obj
 0003:0000e230       ??_C@_0BF@DIIJ@FOG_DISTANCE_MODE_NV?$AA@ 00486230     GLBind.obj
 0003:0000e248       ??_C@_0O@LKEO@EYE_RADIAL_NV?$AA@ 00486248     GLBind.obj
 0003:0000e258       ??_C@_0M@BIII@COMBINE_ARB?$AA@ 00486258     GLBind.obj
 0003:0000e264       ??_C@_0BA@OEFK@COMBINE_RGB_ARB?$AA@ 00486264     GLBind.obj
 0003:0000e274       ??_C@_0BF@BICI@TEXTURE_RECTANGLE_NV?$AA@ 00486274     GLBind.obj
 0003:0000e28c       ??_C@_0N@BLIA@TEXTURE7_ARB?$AA@ 0048628c     GLBind.obj
 0003:0000e29c       ??_C@_0BD@KCJL@ACTIVE_TEXTURE_ARB?$AA@ 0048629c     GLBind.obj
 0003:0000e2b0       ??_C@_0BK@MMII@CLIENT_ACTIVE_TEXTURE_ARB?$AA@ 004862b0     GLBind.obj
 0003:0000e2cc       ??_C@_0BG@DAAF@MAX_TEXTURE_UNITS_ARB?$AA@ 004862cc     GLBind.obj
 0003:0000e2e4       ??_C@_0BD@GMGA@COMPRESSED_RGB_ARB?$AA@ 004862e4     GLBind.obj
 0003:0000e2f8       ??_C@_0BE@IH@COMPRESSED_RGBA_ARB?$AA@ 004862f8     GLBind.obj
 0003:0000e30c       ??_C@_0N@LLKF@TEXTURE6_ARB?$AA@ 0048630c     GLBind.obj
 0003:0000e31c       ??_C@_0BO@JBJH@COMPRESSED_RGBA_S3TC_DXT5_EXT?$AA@ 0048631c     GLBind.obj
 0003:0000e33c       ??_C@_0N@HLHK@TEXTURE0_ARB?$AA@ 0048633c     GLBind.obj
 0003:0000e34c       ??_C@_0N@NLFP@TEXTURE1_ARB?$AA@ 0048634c     GLBind.obj
 0003:0000e35c       ??_C@_0N@DLDA@TEXTURE2_ARB?$AA@ 0048635c     GLBind.obj
 0003:0000e36c       ??_C@_0N@JLBF@TEXTURE3_ARB?$AA@ 0048636c     GLBind.obj
 0003:0000e37c       ??_C@_0N@PLOP@TEXTURE4_ARB?$AA@ 0048637c     GLBind.obj
 0003:0000e38c       ??_C@_0N@FLMK@TEXTURE5_ARB?$AA@ 0048638c     GLBind.obj
 0003:0000e39c       ??_C@_0BO@FBEI@COMPRESSED_RGBA_S3TC_DXT3_EXT?$AA@ 0048639c     GLBind.obj
 0003:0000e3bc       ??_C@_0O@NJE@CLAMP_TO_EDGE?$AA@ 004863bc     GLBind.obj
 0003:0000e3cc       ??_C@_0BC@OBEG@MAX_TEXTURES_SGIS?$AA@ 004863cc     GLBind.obj
 0003:0000e3e0       ??_C@_0O@LKHK@TEXTURE0_SGIS?$AA@ 004863e0     GLBind.obj
 0003:0000e3f0       ??_C@_0O@CPNK@TEXTURE1_SGIS?$AA@ 004863f0     GLBind.obj
 0003:0000e400       ??_C@_09NAGI@RGB4_S3TC?$AA@ 00486400     GLBind.obj
 0003:0000e40c       ??_C@_0BN@LDBH@COMPRESSED_RGB_S3TC_DXT1_EXT?$AA@ 0048640c     GLBind.obj
 0003:0000e42c       ??_C@_0BO@BBAC@COMPRESSED_RGBA_S3TC_DXT1_EXT?$AA@ 0048642c     GLBind.obj
 0003:0000e44c       ??_C@_0BE@JCFC@TEXTURE_COORD_ARRAY?$AA@ 0048644c     GLBind.obj
 0003:0000e460       ??_C@_04MGA@RGB5?$AA@      00486460     GLBind.obj
 0003:0000e468       ??_C@_04FIBD@RGB8?$AA@     00486468     GLBind.obj
 0003:0000e470       ??_C@_05CJDE@RGBA4?$AA@    00486470     GLBind.obj
 0003:0000e478       ??_C@_07PAAL@RGB5_A1?$AA@  00486478     GLBind.obj
 0003:0000e480       ??_C@_05NHNA@RGBA8?$AA@    00486480     GLBind.obj
 0003:0000e488       ??_C@_0N@HGH@VERTEX_ARRAY?$AA@ 00486488     GLBind.obj
 0003:0000e498       ??_C@_0M@EMKC@COLOR_ARRAY?$AA@ 00486498     GLBind.obj
 0003:0000e4a4       ??_C@_06LEAO@REPEAT?$AA@   004864a4     GLBind.obj
 0003:0000e4ac       ??_C@_0BF@IDPG@LINEAR_MIPMAP_LINEAR?$AA@ 004864ac     GLBind.obj
 0003:0000e4c4       ??_C@_0BD@GPCO@TEXTURE_MAG_FILTER?$AA@ 004864c4     GLBind.obj
 0003:0000e4d8       ??_C@_0BD@HEDF@TEXTURE_MIN_FILTER?$AA@ 004864d8     GLBind.obj
 0003:0000e4ec       ??_C@_0P@KNF@TEXTURE_WRAP_S?$AA@ 004864ec     GLBind.obj
 0003:0000e4fc       ??_C@_0P@FPDA@TEXTURE_WRAP_T?$AA@ 004864fc     GLBind.obj
 0003:0000e50c       ??_C@_05IKJL@CLAMP?$AA@    0048650c     GLBind.obj
 0003:0000e514       ??_C@_0BG@KLGC@NEAREST_MIPMAP_LINEAR?$AA@ 00486514     GLBind.obj
 0003:0000e52c       ??_C@_0BB@NLLP@TEXTURE_ENV_MODE?$AA@ 0048652c     GLBind.obj
 0003:0000e540       ??_C@_0BC@DLAE@TEXTURE_ENV_COLOR?$AA@ 00486540     GLBind.obj
 0003:0000e554       ??_C@_0M@NBKK@TEXTURE_ENV?$AA@ 00486554     GLBind.obj
 0003:0000e560       ??_C@_07LNBJ@NEAREST?$AA@  00486560     GLBind.obj
 0003:0000e568       ??_C@_06OAFN@LINEAR?$AA@   00486568     GLBind.obj
 0003:0000e570       ??_C@_0BH@PDFC@NEAREST_MIPMAP_NEAREST?$AA@ 00486570     GLBind.obj
 0003:0000e588       ??_C@_0BG@NGHK@LINEAR_MIPMAP_NEAREST?$AA@ 00486588     GLBind.obj
 0003:0000e5a0       ??_C@_05PJOE@DECAL?$AA@    004865a0     GLBind.obj
 0003:0000e5a8       ??_C@_09ODHH@MODELVIEW?$AA@ 004865a8     GLBind.obj
 0003:0000e5b4       ??_C@_0L@OBAA@PROJECTION?$AA@ 004865b4     GLBind.obj
 0003:0000e5c0       ??_C@_07DFFE@TEXTURE?$AA@  004865c0     GLBind.obj
 0003:0000e5c8       ??_C@_04GBFB@LINE?$AA@     004865c8     GLBind.obj
 0003:0000e5d0       ??_C@_04NCBP@FILL?$AA@     004865d0     GLBind.obj
 0003:0000e5d8       ??_C@_07LJIB@REPLACE?$AA@  004865d8     GLBind.obj
 0003:0000e5e0       ??_C@_08CMBM@MODULATE?$AA@ 004865e0     GLBind.obj
 0003:0000e5ec       ??_C@_06CGGE@DOUBLE?$AA@   004865ec     GLBind.obj
 0003:0000e5f4       ??_C@_04EHOP@BYTE?$AA@     004865f4     GLBind.obj
 0003:0000e5fc       ??_C@_0O@BAPB@UNSIGNED_BYTE?$AA@ 004865fc     GLBind.obj
 0003:0000e60c       ??_C@_05HFLA@SHORT?$AA@    0048660c     GLBind.obj
 0003:0000e614       ??_C@_0P@CEOH@UNSIGNED_SHORT?$AA@ 00486614     GLBind.obj
 0003:0000e624       ??_C@_03IJOL@INT?$AA@      00486624     GLBind.obj
 0003:0000e628       ??_C@_0N@JHEK@UNSIGNED_INT?$AA@ 00486628     GLBind.obj
 0003:0000e638       ??_C@_05JDEL@FLOAT?$AA@    00486638     GLBind.obj
 0003:0000e640       ??_C@_0L@BNFJ@TEXTURE_2D?$AA@ 00486640     GLBind.obj
 0003:0000e64c       ??_C@_07CPCN@FOG_END?$AA@  0048664c     GLBind.obj
 0003:0000e654       ??_C@_08HJKC@FOG_MODE?$AA@ 00486654     GLBind.obj
 0003:0000e660       ??_C@_09KBKG@FOG_COLOR?$AA@ 00486660     GLBind.obj
 0003:0000e66c       ??_C@_0L@BABM@DEPTH_TEST?$AA@ 0048666c     GLBind.obj
 0003:0000e678       ??_C@_0L@GPNO@ALPHA_TEST?$AA@ 00486678     GLBind.obj
 0003:0000e684       ??_C@_05FKDH@BLEND?$AA@    00486684     GLBind.obj
 0003:0000e68c       ??_C@_09FFMC@FOG_START?$AA@ 0048668c     GLBind.obj
 0003:0000e698       ??_C@_0BD@KGEA@SRC_ALPHA_SATURATE?$AA@ 00486698     GLBind.obj
 0003:0000e6ac       ??_C@_05OHBH@FRONT?$AA@    004866ac     GLBind.obj
 0003:0000e6b4       ??_C@_04FGAG@BACK?$AA@     004866b4     GLBind.obj
 0003:0000e6bc       ??_C@_0P@JON@FRONT_AND_BACK?$AA@ 004866bc     GLBind.obj
 0003:0000e6cc       ??_C@_09MPEF@CULL_FACE?$AA@ 004866cc     GLBind.obj
 0003:0000e6d8       ??_C@_03OHFM@FOG?$AA@      004866d8     GLBind.obj
 0003:0000e6dc       ??_C@_0M@CNMJ@FOG_DENSITY?$AA@ 004866dc     GLBind.obj
 0003:0000e6e8       ??_C@_0BE@LFCA@ONE_MINUS_DST_COLOR?$AA@ 004866e8     GLBind.obj
 0003:0000e6fc       ??_C@_09FPBD@SRC_COLOR?$AA@ 004866fc     GLBind.obj
 0003:0000e708       ??_C@_0BE@LGMG@ONE_MINUS_SRC_COLOR?$AA@ 00486708     GLBind.obj
 0003:0000e71c       ??_C@_09LOLG@SRC_ALPHA?$AA@ 0048671c     GLBind.obj
 0003:0000e728       ??_C@_0BE@FHGD@ONE_MINUS_SRC_ALPHA?$AA@ 00486728     GLBind.obj
 0003:0000e73c       ??_C@_09LNFA@DST_ALPHA?$AA@ 0048673c     GLBind.obj
 0003:0000e748       ??_C@_0BE@FEIF@ONE_MINUS_DST_ALPHA?$AA@ 00486748     GLBind.obj
 0003:0000e75c       ??_C@_09FMPF@DST_COLOR?$AA@ 0048675c     GLBind.obj
 0003:0000e768       ??_C@_06MJBP@ALWAYS?$AA@   00486768     GLBind.obj
 0003:0000e770       ??_C@_05NLLC@NEVER?$AA@    00486770     GLBind.obj
 0003:0000e778       ??_C@_04HMEB@LESS?$AA@     00486778     GLBind.obj
 0003:0000e780       ??_C@_05FELF@EQUAL?$AA@    00486780     GLBind.obj
 0003:0000e788       ??_C@_06MHDN@LEQUAL?$AA@   00486788     GLBind.obj
 0003:0000e790       ??_C@_07HOFJ@GREATER?$AA@  00486790     GLBind.obj
 0003:0000e798       ??_C@_08NCCF@NOTEQUAL?$AA@ 00486798     GLBind.obj
 0003:0000e7a4       ??_C@_06NENM@GEQUAL?$AA@   004867a4     GLBind.obj
 0003:0000e7ac       ??_C@_03CICP@ADD?$AA@      004867ac     GLBind.obj
 0003:0000e7b0       ??_C@_03GGHL@ONE?$AA@      004867b0     GLBind.obj
 0003:0000e7b4       ??_C@_04LHLC@ZERO?$AA@     004867b4     GLBind.obj
 0003:0000e7bc       ??_C@_07KMLC@POLYGON?$AA@  004867bc     GLBind.obj
 0003:0000e7c4       ??_C@_0L@KPMO@QUAD_STRIP?$AA@ 004867c4     GLBind.obj
 0003:0000e7d0       ??_C@_05MOCA@QUADS?$AA@    004867d0     GLBind.obj
 0003:0000e7d8       ??_C@_0N@LKDL@TRIANGLE_FAN?$AA@ 004867d8     GLBind.obj
 0003:0000e7e8       ??_C@_0P@GLMF@TRIANGLE_STRIP?$AA@ 004867e8     GLBind.obj
 0003:0000e7f8       ??_C@_09IKDC@TRIANGLES?$AA@ 004867f8     GLBind.obj
 0003:0000e804       ??_C@_0L@DFPI@LINE_STRIP?$AA@ 00486804     GLBind.obj
 0003:0000e810       ??_C@_09EOOC@LINE_LOOP?$AA@ 00486810     GLBind.obj
 0003:0000e81c       ??_C@_0M@JAMH@?$CFs?5?$CIGL_?$CFs?$CJ?6?$AA@ 0048681c     GLBind.obj
 0003:0000e828       ??_C@_0BA@NNPA@?$CFs?5?$CIGL_?$CFs?0?5?$CFd?$CJ?6?$AA@ 00486828     GLBind.obj
 0003:0000e838       ??_C@_0BD@LHJN@?$CFs?5?$CIGL_?$CFs?0?5GL_?$CFs?$CJ?6?$AA@ 00486838     GLBind.obj
 0003:0000e84c       ??_C@_0BF@PLKJ@?$CFs?5?$CI?$CFg?0?5?$CFg?0?5?$CFg?0?5?$CFg?$CJ?6?$AA@ 0048684c     GLBind.obj
 0003:0000e864       ??_C@_0BB@NPFI@?$CFs?5?$CI?$CFg?0?5?$CFg?0?5?$CFg?$CJ?6?$AA@ 00486864     GLBind.obj
 0003:0000e878       ??_C@_0BJ@MPOB@?$CFs?5?$CI?$CFd?0?5GL_?$CFs?0?5?$CFd?0?5$?$CFX?$CJ?6?$AA@ 00486878     GLBind.obj
 0003:0000e894       ??_C@_0O@JIGC@?$CFs?5?$CI?$CFd?0?5$?$CFX?$CJ?6?$AA@ 00486894     GLBind.obj
 0003:0000e8a4       ??_C@_08NDLN@?$CFs?5?$CI?$CFd?$CJ?6?$AA@ 004868a4     GLBind.obj
 0003:0000e8b0       ??_C@_0N@CNFJ@?$CFs?5?$CI?$CFg?0?5?$CFg?$CJ?6?$AA@ 004868b0     GLBind.obj
 0003:0000e8c0       ??_C@_0BM@EJLJ@?$CFs?5?$CIGL_?$CFs?0?5?$CFd?0?5GL_?$CFs?0?5$?$CFX?$CJ?6?$AA@ 004868c0     GLBind.obj
 0003:0000e8dc       ??_C@_0BB@PLBH@?$CFs?5?$CIGL_?$CFs?0?5$?$CFX?$CJ?6?$AA@ 004868dc     GLBind.obj
 0003:0000e8f0       ??_C@_0BN@BCG@?$CFs?5?$CI?$CFg?0?5?$CFg?0?5?$CFg?0?5?$CFg?0?5?$CFg?0?5?$CFg?$CJ?6?$AA@ 004868f0     GLBind.obj
 0003:0000e910       ??_C@_0CI@ENE@?$CFs?5?$CI?$CFd?0?5?$CFd?0?5?$CFd?0?5?$CFd?0?5GL_?$CFs?0?5GL_?$CFs@ 00486910     GLBind.obj
 0003:0000e938       ??_C@_0BF@GFM@?$CFs?5?$CI?$CFd?0?5?$CFd?0?5?$CFd?0?5?$CFd?$CJ?6?$AA@ 00486938     GLBind.obj
 0003:0000e950       ??_C@_0BH@GDNB@?$CFs?5?$CIGL_?$CFs?0?5GL_?$CFs?0?5?$CFg?$CJ?6?$AA@ 00486950     GLBind.obj
 0003:0000e968       ??_C@_0BI@GBFP@?$CFs?5?$CIGL_?$CFs?0?5GL_?$CFs?0?5$?$CFX?$CJ?6?$AA@ 00486968     GLBind.obj
 0003:0000e980       ??_C@_0BK@DNBE@?$CFs?5?$CIGL_?$CFs?0?5GL_?$CFs?0?5GL_?$CFs?$CJ?6?$AA@ 00486980     GLBind.obj
 0003:0000e99c       ??_C@_0DG@HMB@?$CFs?5?$CIGL_?$CFs?0?5?$CFd?0?5GL_?$CFs?0?5?$CFd?0?5?$CFd?0?5?$CFd@ 0048699c     GLBind.obj
 0003:0000e9d4       ??_C@_0BH@JFOK@?$CFs?5?$CIGL_?$CFs?0?5GL_?$CFs?0?5?$CFd?$CJ?6?$AA@ 004869d4     GLBind.obj
 0003:0000e9ec       ??_C@_0DD@PHF@?$CFs?5?$CIGL_?$CFs?0?5?$CFd?0?5?$CFd?0?5?$CFd?0?5?$CFd?0?5?$CFd?0?5G@ 004869ec     GLBind.obj
 0003:0000ea20       ??_C@_0N@KINM@?$CFs?5?$CI?$CFd?0?5?$CFd?$CJ?6?$AA@ 00486a20     GLBind.obj
 0003:0000ea30       ??_C@_0CE@GJO@?$CFs?5?$CIGL_?$CFs?0?5?$CFd?0?5?$CFd?0?5?$CFd?0?5GL_?$CFs?0?5$?$CF@ 00486a30     GLBind.obj
 0003:0000ea54       ??_C@_0EE@GEDG@QGL_Init?3?5inconsistent?5OpenGL?5li@ 00486a54     GLBind.obj
 0003:0000ea98       ??_C@_0BI@KEHD@?4?4?4minidriver?5detected?6?$AA@ 00486a98     GLBind.obj
 0003:0000eab0       ??_C@_0CC@JGCO@QGL_Init?3?5LoadLibrary?$CI?$CFs?$CJ?5failed@ 00486ab0     GLBind.obj
 0003:0000ead4       ??_C@_0BI@ECOL@?5?5?5?$CFs?5is?5covered?5by?5?$CFs?6?$AA@ 00486ad4     GLBind.obj
 0003:0000eaec       ??_C@_0BI@EJPC@?4?4?4missing?5extensions?3?6?$AA@ 00486aec     GLBind.obj
 0003:0000eb04       ??_C@_08MJAO@?$FO6?5?5?5?$CFs?6?$AA@ 00486b04     GLBind.obj
 0003:0000eb10       ??_C@_0BL@HBLH@?$FO6?4?4?4disabled?5extensions?3?6?$AA@ 00486b10     GLBind.obj
 0003:0000eb2c       ??_C@_0BM@LPPM@?4?4?4no?5extensions?5was?5found?6?$AA@ 00486b2c     GLBind.obj
 0003:0000eb48       ??_C@_06GNEC@?5?5?5?$CFs?6?$AA@ 00486b48     GLBind.obj
 0003:0000eb50       ??_C@_0BO@EEB@?5?5?5?$CFs?5ignored?5in?5favor?5of?5?$CFs?6?$AA@ 00486b50     GLBind.obj
 0003:0000eb70       ??_C@_0BF@IGJL@?4?4?4used?5extensions?3?6?$AA@ 00486b70     GLBind.obj
 0003:0000eb88       ??_C@_0BE@LAAD@?$CFs?5required?5for?5?$CFs?6?$AA@ 00486b88     GLBind.obj
 0003:0000eb9c       ??_C@_0DF@GCHB@Inconsistent?5extension?5?$CFs?3?5funct@ 00486b9c     GLBind.obj
 0003:0000ebd4       ??_C@_0BK@MGMG@wglGetExtensionsStringARB?$AA@ 00486bd4     GLBind.obj
 0003:0000ebf0       ??_C@_0CD@FLOB@?$CFs?5is?5not?5found?5?9?5trying?5alias?5?$CF@ 00486bf0     GLBind.obj
 0003:0000ec14       ??_C@_0BG@KFCN@Bad?5extension?5string?6?$AA@ 00486c14     GLBind.obj
 0003:0000ec2c       ??_C@_07HAJF@?$CFs?$CFs?5?$FO7?$AA@ 00486c2c     GLBind.obj
 0003:0000ec34       ??_C@_0BC@KAGG@?$FO1?$CFs?5extensions?3?5?$AA@ 00486c34     GLBind.obj
 0003:0000ec48       ??_C@_0DN@KFNC@?6?9?9?9?9?9?9?9?9?9?9?9?9?9?9?9?9?9?9?9?9?9?9?9?9?9?9?9?6?$CFs?6@ 00486c48     GLBind.obj
 0003:0000ec88       ??_C@_0CK@KOIN@QGL_EnableLogging?3?5unable?5to?5cre@ 00486c88     GLBind.obj
 0003:0000ecb4       ??_C@_06PBLB@gl?4log?$AA@  00486cb4     GLBind.obj
 0003:0000ecbc       ??_C@_0BJ@BHJ@wglSwapBuffers?$CI?$CJ?5failed?6?$AA@ 00486cbc     GLBind.obj
 0003:0000ecd8       ??_C@_0BI@OPCB@wglSwapBuffers?$CI?$CJ?5failed?$AA@ 00486cd8     GLBind.obj
 0003:0000ecf0       ??_C@_0BF@KKMI@?1?1?5QGL_SwapBuffers?$CI?$CJ?$AA@ 00486cf0     GLBind.obj
 0003:0000ed08       ??_C@_0L@CFGA@Gamma?3?5?$CFs?6?$AA@ 00486d08     gl_win.obj
 0003:0000ed14       ??_C@_08LLFG@software?$AA@ 00486d14     gl_win.obj
 0003:0000ed20       ??_C@_08DNLP@hardware?$AA@ 00486d20     gl_win.obj
 0003:0000ed2c       ??_C@_0BK@GIGP@?4?4?4setting?5windowed?5mode?6?$AA@ 00486d2c     gl_win.obj
 0003:0000ed48       ??_C@_0CI@BGKK@?4?4?4fullscreen?5unavailable?5in?5thi@ 00486d48     gl_win.obj
 0003:0000ed70       ??_C@_0CE@PLCJ@?4?4?4using?5desktop?5color?5depth?5of?5@ 00486d70     gl_win.obj
 0003:0000ed94       ??_C@_0BM@LPPD@?4?4?4using?5color?5depth?5of?5?$CFd?6?$AA@ 00486d94     gl_win.obj
 0003:0000edb0       ??_C@_0BF@OOFN@Mode?5?$CFd?3?5?$CFdx?$CFd?5?$CI?$CFs?$CJ?6?$AA@ 00486db0     gl_win.obj
 0003:0000edc8       ??_C@_08MAAC@windowed?$AA@ 00486dc8     gl_win.obj
 0003:0000edd4       ??_C@_0BC@BDCM@Invalid?5mode?3?5?$CFd?6?$AA@ 00486dd4     gl_win.obj
 0003:0000ede8       ??_C@_07ICAG@GetDC?$CI?$CJ?$AA@ 00486de8     gl_win.obj
 0003:0000edf0       ??_C@_0BL@HKGH@?4?4?4?$CFs?5failed?6Error?5?$CFd?5?5?$CFs?6?$AA@ 00486df0     gl_win.obj
 0003:0000ee0c       ??_C@_0BD@JLKH@DestoryGLcontext?$CI?$CJ?$AA@ 00486e0c     gl_win.obj
 0003:0000ee20       ??_C@_0BG@CIBJ@DeactivateGLcontext?$CI?$CJ?$AA@ 00486e20     gl_win.obj
 0003:0000ee38       ??_C@_0CD@OEJF@Pixelformat?5?$CFd?3?5color?3?$CFd?5depth?3?$CF@ 00486e38     gl_win.obj
 0003:0000ee5c       ??_C@_0CG@KCEF@?4?4?4no?5hardware?5acceleration?5dete@ 00486e5c     gl_win.obj
 0003:0000ee84       ??_C@_0BG@LOFN@?$CIwgl?$CJSetPixelFormat?$CI?$CJ?$AA@ 00486e84     gl_win.obj
 0003:0000ee9c       ??_C@_0BJ@GLIE@?$CIwgl?$CJChoosePixelFormat?$CI?$CJ?$AA@ 00486e9c     gl_win.obj
 0003:0000eeb8       ??_C@_0BC@OGLC@CreateGLcontext?$CI?$CJ?$AA@ 00486eb8     gl_win.obj
 0003:0000eecc       ??_C@_0BE@HHBG@ActivateGLcontext?$CI?$CJ?$AA@ 00486ecc     gl_win.obj
 0003:0000eee0       ??_C@_0BJ@KIFK@?4?4?4restore?5display?5mode?6?$AA@ 00486ee0     gl_win.obj
 0003:0000eefc       ??_C@_0M@PCPC@ReleaseDC?$CI?$CJ?$AA@ 00486efc     gl_win.obj
 0003:0000ef08       ??_C@_0BI@KMJI@Performing?5GL?5shutdown?6?$AA@ 00486f08     gl_win.obj
 0003:0000ef24       ??_C@_0BH@PBLF@incorrect?5length?5check?$AA@ 00486f24     libs-vc-win32:inflate.obj
 0003:0000ef3c       ??_C@_0BF@OBFI@incorrect?5data?5check?$AA@ 00486f3c     libs-vc-win32:inflate.obj
 0003:0000ef54       ??_C@_0BO@EEIF@invalid?5distance?5too?5far?5back?$AA@ 00486f54     libs-vc-win32:inflate.obj
 0003:0000ef74       ??_C@_0BG@EGK@invalid?5distance?5code?$AA@ 00486f74     libs-vc-win32:inflate.obj
 0003:0000ef8c       ??_C@_0BM@CHJP@invalid?5literal?1length?5code?$AA@ 00486f8c     libs-vc-win32:inflate.obj
 0003:0000efa8       ??_C@_0BG@DILP@invalid?5distances?5set?$AA@ 00486fa8     libs-vc-win32:inflate.obj
 0003:0000efc0       ??_C@_0BM@BLEK@invalid?5literal?1lengths?5set?$AA@ 00486fc0     libs-vc-win32:inflate.obj
 0003:0000efdc       ??_C@_0BK@BNJN@invalid?5bit?5length?5repeat?$AA@ 00486fdc     libs-vc-win32:inflate.obj
 0003:0000eff8       ??_C@_0BJ@PEEP@invalid?5code?5lengths?5set?$AA@ 00486ff8     libs-vc-win32:inflate.obj
 0003:0000f014       ??_C@_0CE@LAKP@too?5many?5length?5or?5distance?5symb@ 00487014     libs-vc-win32:inflate.obj
 0003:0000f038       ??_C@_0BN@DBOJ@invalid?5stored?5block?5lengths?$AA@ 00487038     libs-vc-win32:inflate.obj
 0003:0000f058       ??_C@_0BD@IFBC@invalid?5block?5type?$AA@ 00487058     libs-vc-win32:inflate.obj
 0003:0000f06c       ??_C@_0BE@GABH@header?5crc?5mismatch?$AA@ 0048706c     libs-vc-win32:inflate.obj
 0003:0000f080       ??_C@_0BJ@LBGI@unknown?5header?5flags?5set?$AA@ 00487080     libs-vc-win32:inflate.obj
 0003:0000f09c       ??_C@_0BH@NLIB@incorrect?5header?5check?$AA@ 0048709c     libs-vc-win32:inflate.obj
 0003:0000f0b4       ??_C@_0BE@FAJE@invalid?5window?5size?$AA@ 004870b4     libs-vc-win32:inflate.obj
 0003:0000f0c8       ??_C@_0BL@KPEJ@unknown?5compression?5method?$AA@ 004870c8     libs-vc-win32:inflate.obj
 0003:0000f0f0       ??_R0?AVtype_info@@@8      004870f0     MSVCRT:ti_inst.obj
 0003:0000f108       ___defaultmatherr          00487108     MSVCRT:merr.obj
 0003:0000f150       ?GIsRequestingExit@@3_NA   00487150     CoreMain.obj
 0003:0000f158       ?GIsWin2K@@3_NA            00487158     CoreWin32.obj
 0003:0000f159       ?GIsWinNT@@3_NA            00487159     CoreWin32.obj
 0003:0000f260       ?hInstance@@3PAUHINSTANCE__@@A 00487260     CoreWin32.obj
 0003:0000f278       ?GMSecondsPerCycle@@3NA    00487278     CoreCpuid.obj
 0003:0000f50c       ?first@CMemoryChain@@0PAV1@A 0048750c     Memory.obj
 0003:0000f514       ?GCurrentMemAllocator@@3IA 00487514     Memory.obj
 0003:0000f520       ?first@FMemHeader@@2PAU1@A 00487520     Memory.obj
 0003:0000f530       ??_C@_00A@?$AA@            00487530     Memory.obj
 0003:0000f5cc       ?GLogHook@@3PAVCOutputDevice@@A 004875cc     OutputDevice.obj
 0003:0000f5d8       ?GErr@@3VCErrorHandler@@A  004875d8     ErrorMgr.obj
 0003:0000ff04       ?GIsFatalError@@3_NA       00487f04     ErrorMgr.obj
 0003:0000ff10       ?AllocatedName@CStringItem@@0PADA 00487f10     Strings.obj
 0003:00010718       ?ArchiveReaders@CFileSystem@@0PAP6APAVCFileContainer@@PBDPAU_iobuf@@@ZA 00488718     FileSystem.obj
 0003:00010758       ?GFileSystem@@3PAVCFileSystem@@A 00488758     FileSystem.obj
 0003:00010760       ?GDefMountPoint@@3V?$TString@$0EA@@@A 00488760     FileSystem.obj
 0003:00019cc0       ?active_beams@@3PAUbeam_t@@A 00491cc0     cl_fx.obj
 0003:000638d0       ?cl_lightstyles@@3PAUlightstyle_t@@A 004db8d0     cl_fx.obj
 0003:00068270       ?active_particles@@3PAUparticle_t@@A 004e0270     cl_fx.obj
 0003:000682b0       ?cl_run@@3PAUcvar_t@@A     004e02b0     cl_input.obj
 0003:000682b4       ?cl_forwardspeed@@3PAUcvar_t@@A 004e02b4     cl_input.obj
 0003:000682bc       ?cl_yawspeed@@3PAUcvar_t@@A 004e02bc     cl_input.obj
 0003:00068300       ?in_Speed@@3Ukbutton_t@@A  004e0300     cl_input.obj
 0003:00068330       ?cl_sidespeed@@3PAUcvar_t@@A 004e0330     cl_input.obj
 0003:0006835c       ?cl_upspeed@@3PAUcvar_t@@A 004e035c     cl_input.obj
 0003:00068370       ?cl_pitchspeed@@3PAUcvar_t@@A 004e0370     cl_input.obj
 0003:00068380       ?cl_3rd_person@@3PAUcvar_t@@A 004e0380     cl_main.obj
 0003:00068384       ?cl_gun@@3PAUcvar_t@@A     004e0384     cl_main.obj
 0003:00068388       ?rcon_address@@3PAUcvar_t@@A 004e0388     cl_main.obj
 0003:000683cc       ?cl_entities@@3PAUcentity_t@@A 004e03cc     cl_main.obj
 0003:000683d0       ?cl_noskins@@3PAUcvar_t@@A 004e03d0     cl_main.obj
 0003:000683d8       ?cls@@3Uclient_static_t@@A 004e03d8     cl_main.obj
 0003:000705d8       ?cl_parse_entities@@3PAUclEntityState_t@@A 004e85d8     cl_main.obj
 0003:0009a5d8       ?cl_shownet@@3PAUcvar_t@@A 005125d8     cl_main.obj
 0003:0009a5dc       ?r_sfx_pause@@3PAUcvar_t@@A 005125dc     cl_main.obj
 0003:0009a5e0       ?fov@@3PAUcvar_t@@A        005125e0     cl_main.obj
 0003:0009a5e4       ?cl_timeout@@3PAUcvar_t@@A 005125e4     cl_main.obj
 0003:0009a5e8       ?info_password@@3PAUcvar_t@@A 005125e8     cl_main.obj
 0003:0009a5ec       ?cl_showmiss@@3PAUcvar_t@@A 005125ec     cl_main.obj
 0003:0009a5f0       ?cl_vwep@@3PAUcvar_t@@A    005125f0     cl_main.obj
 0003:0009a5f4       ?name@@3PAUcvar_t@@A       005125f4     cl_main.obj
 0003:0009a5f8       ?cl_add_particles@@3PAUcvar_t@@A 005125f8     cl_main.obj
 0003:0009a5fc       ?cl_footsteps@@3PAUcvar_t@@A 005125fc     cl_main.obj
 0003:0009a600       ?cl_cameraAngle@@3PAUcvar_t@@A 00512600     cl_main.obj
 0003:0009a604       ?msg@@3PAUcvar_t@@A        00512604     cl_main.obj
 0003:0009a608       ?gender@@3PAUcvar_t@@A     00512608     cl_main.obj
 0003:0009a60c       ?info_spectator@@3PAUcvar_t@@A 0051260c     cl_main.obj
 0003:0009a610       ?railtype@@3PAUcvar_t@@A   00512610     cl_main.obj
 0003:0009a618       ?cl@@3Uclient_state_t@@A   00512618     cl_main.obj
 0003:002365d8       ?rcon_client_password@@3PAUcvar_t@@A 006ae5d8     cl_main.obj
 0003:002365dc       ?cl_maxfps@@3PAUcvar_t@@A  006ae5dc     cl_main.obj
 0003:002365e0       ?gender_auto@@3PAUcvar_t@@A 006ae5e0     cl_main.obj
 0003:002365e4       ?cl_showclamp@@3PAUcvar_t@@A 006ae5e4     cl_main.obj
 0003:002365e8       ?rate@@3PAUcvar_t@@A       006ae5e8     cl_main.obj
 0003:002365ec       ?cl_add_blend@@3PAUcvar_t@@A 006ae5ec     cl_main.obj
 0003:00236600       ?cl_extProtocol@@3PAUcvar_t@@A 006ae600     cl_main.obj
 0003:00236604       ?cl_cameraDist@@3PAUcvar_t@@A 006ae604     cl_main.obj
 0003:00236608       ?cl_newfx@@3PAUcvar_t@@A   006ae608     cl_main.obj
 0003:0023660c       ?cl_add_entities@@3PAUcvar_t@@A 006ae60c     cl_main.obj
 0003:00236610       ?skin@@3PAUcvar_t@@A       006ae610     cl_main.obj
 0003:00236614       ?cl_infps@@3PAUcvar_t@@A   006ae614     cl_main.obj
 0003:00236620       ?cl_predict@@3PAUcvar_t@@A 006ae620     cl_main.obj
 0003:00236624       ?cl_cameraHeight@@3PAUcvar_t@@A 006ae624     cl_main.obj
 0003:00236628       ?hand@@3PAUcvar_t@@A       006ae628     cl_main.obj
 0003:0023662c       ?cl_add_lights@@3PAUcvar_t@@A 006ae62c     cl_main.obj
 0003:00236630       ?cl_showbboxes@@3PAUcvar_t@@A 006ae630     cl_main.obj
 0003:00236634       ?cl_paused@@3PAUcvar_t@@A  006ae634     cl_main.obj
 0003:0023663c       ?railcolor@@3PAUcvar_t@@A  006ae63c     cl_main.obj
 0003:002368b8       ?pmiList@@3V?$TList@VplayerModelInfo_t@@@@A 006ae8b8     cl_playermodel.obj
 0003:00237148       ?crosshair@@3PAUcvar_t@@A  006af148     cl_scrn.obj
 0003:00239338       ?crosshairColor@@3PAUcvar_t@@A 006b1338     cl_scrn.obj
 0003:00239e38       ?cl_sfx_fallshort2@@3PAPAUsfx_t@@A 006b1e38     cl_tent.obj
 0003:0023ab8c       ?cl_mod_powerscreen@@3PAVCRenderModel@@A 006b2b8c     cl_tent.obj
 0003:0023ab98       ?cl_explosions@@3PAUexplosion_t@@A 006b2b98     cl_tent.obj
 0003:0023c0f0       ?cl_sfx_footsteps2@@3PAPAUsfx_t@@A 006b40f0     cl_tent.obj
 0003:0023c1bc       ?cl_sfx_footsteps@@3PAPAUsfx_t@@A 006b41bc     cl_tent.obj
 0003:0023c1cc       ?cl_sfx_camper@@3PAPAUsfx_t@@A 006b41cc     cl_tent.obj
 0003:0023c59c       ?num_cl_weaponmodels@@3HA  006b459c     cl_view.obj
 0003:0023c5d4       ?railBeamShader@@3PAVCBasicImage@@A 006b45d4     cl_view.obj
 0003:0023c5d8       ?scr_viewsize@@3PAUcvar_t@@A 006b45d8     cl_view.obj
 0003:0023c5dc       ?railRingsShader@@3PAVCBasicImage@@A 006b45dc     cl_view.obj
 0003:0023c5f0       ?cl_weaponmodels@@3PAY0EA@DA 006b45f0     cl_view.obj
 0003:0023cdf4       ?railSpiralShader@@3PAVCBasicImage@@A 006b4df4     cl_view.obj
 0003:0025ce08       ?r_blend@@3PAMA            006d4e08     cl_view.obj
 0003:0026ce74       ?editPos@@3HA              006e4e74     console.obj
 0003:0026ce7c       ?con_height@@3HA           006e4e7c     console.obj
 0003:0026ce80       ?editLine@@3PADA           006e4e80     console.obj
 0003:0026f090       ?keydown@@3PA_NA           006e7090     keys.obj
 0003:0026f298       ?keysDown@@3HA             006e7298     keys.obj
 0003:00273610       ?old_bright@videoMenu_t@@2MA 006eb610     menu.obj
 0003:00273b00       ?quad_drop_box@dmoptionsMenu_t@@2UmenuList_t@@A 006ebb00     menu.obj
 0003:00273b40       ?tq_slider@videoMenu_t@@2UmenuSlider_t@@A 006ebb40     menu.obj
 0003:00273c38       ?falls_box@dmoptionsMenu_t@@2UmenuList_t@@A 006ebc38     menu.obj
 0003:00273c70       ?m_savevalid@savegameMenu_t@@2PA_NA 006ebc70     menu.obj
 0003:00273c80       ?cancel_action@videoMenu_t@@2UmenuAction_t@@A 006ebc80     menu.obj
 0003:00273cb8       ?q3mapOverbright@videoMenu_t@@2UmenuList_t@@A 006ebcb8     menu.obj
 0003:00273cf8       ?allow_download_players_box@downloadOptionsMenu_t@@2UmenuList_t@@A 006ebcf8     menu.obj
 0003:00273d30       ?saveMenu@savegameMenu_t@@2_NA 006ebd30     menu.obj
 0003:00273d58       ?local_server_netadr@joinserverMenu_t@@2PAUnetadr_t@@A 006ebd58     menu.obj
 0003:00273db8       ?browse_list@dmbrowseMenu_t@@2PAVCFileList@@A 006ebdb8     menu.obj
 0003:002741e8       ?hostname_field@startserverMenu_t@@2UmenuField_t@@A 006ec1e8     menu.obj
 0003:00274270       ?allow_exit_box@dmoptionsMenu_t@@2UmenuList_t@@A 006ec270     menu.obj
 0003:002742a8       ?friendlyfire_box@dmoptionsMenu_t@@2UmenuList_t@@A 006ec2a8     menu.obj
 0003:002742e0       ?allow_download_maps_box@downloadOptionsMenu_t@@2UmenuList_t@@A 006ec2e0     menu.obj
 0003:00274318       ?skin_box@playerConfigMenu_t@@2UmenuList2_t@@A 006ec318     menu.obj
 0003:00274358       ?textureBits@videoMenu_t@@2UmenuList_t@@A 006ec358     menu.obj
 0003:00274390       ?s_8bit@optionsMenu_t@@2UmenuList_t@@A 006ec390     menu.obj
 0003:002743d0       ?powerups_box@dmoptionsMenu_t@@2UmenuList_t@@A 006ec3d0     menu.obj
 0003:00274408       ?saturation@videoMenu_t@@2UmenuSlider_t@@A 006ec408     menu.obj
 0003:00274470       ?fs_box@videoMenu_t@@2UmenuList_t@@A 006ec470     menu.obj
 0003:002744a8       ?brightness_slider@videoMenu_t@@2UmenuSlider_t@@A 006ec4a8     menu.obj
 0003:002744e8       ?thumbs@dmbrowseMenu_t@@2UthumbParams_t@@A 006ec4e8     menu.obj
 0003:00274508       ?no_mines_box@dmoptionsMenu_t@@2UmenuList_t@@A 006ec508     menu.obj
 0003:00274540       ?allow_download_box@downloadOptionsMenu_t@@2UmenuList_t@@A 006ec540     menu.obj
 0003:00274578       ?server_actions@joinserverMenu_t@@2PAUmenuAction_t@@A 006ec578     menu.obj
 0003:00274870       ?no_nukes_box@dmoptionsMenu_t@@2UmenuList_t@@A 006ec870     menu.obj
 0003:002748c8       ?sfxvolume_slider@optionsMenu_t@@2UmenuSlider_t@@A 006ec8c8     menu.obj
 0003:00274908       ?startmap_list@startserverMenu_t@@2UmenuList2_t@@A 006ec908     menu.obj
 0003:00274940       ?model_box@playerConfigMenu_t@@2UmenuList2_t@@A 006ec940     menu.obj
 0003:00274978       ?DMoptionsStatusbar@dmoptionsMenu_t@@2V?$TString@$0IA@@@A 006ec978     menu.obj
 0003:002749f8       ?name_field@playerConfigMenu_t@@2UmenuField_t@@A 006ec9f8     menu.obj
 0003:00274a80       ?mapNames@startserverMenu_t@@2V?$TList@VCStringItem@@@@A 006eca80     menu.obj
 0003:00274a88       ?armor_box@dmoptionsMenu_t@@2UmenuList_t@@A 006eca88     menu.obj
 0003:00274ac0       ?invertmouse_box@optionsMenu_t@@2UmenuList_t@@A 006ecac0     menu.obj
 0003:00274af8       ?rtype_box@playerConfigMenu_t@@2UmenuList_t@@A 006ecaf8     menu.obj
 0003:00275060       ?stack_double_box@dmoptionsMenu_t@@2UmenuList_t@@A 006ed060     menu.obj
 0003:00275098       ?lightStyle@videoMenu_t@@2UmenuList_t@@A 006ed098     menu.obj
 0003:002750d0       ?mode_list@videoMenu_t@@2UmenuList_t@@A 006ed0d0     menu.obj
 0003:00275278       ?alwaysrun_box@optionsMenu_t@@2UmenuList_t@@A 006ed278     menu.obj
 0003:002752b0       ?finish_box@videoMenu_t@@2UmenuList_t@@A 006ed2b0     menu.obj
 0003:002752e8       ?weapons_stay_box@dmoptionsMenu_t@@2UmenuList_t@@A 006ed2e8     menu.obj
 0003:00275320       ?colorDepth@videoMenu_t@@2UmenuList_t@@A 006ed320     menu.obj
 0003:00275358       ?mapNamesChain@startserverMenu_t@@2PAVCMemoryChain@@A 006ed358     menu.obj
 0003:00275360       ?instant_powerups_box@dmoptionsMenu_t@@2UmenuList_t@@A 006ed360     menu.obj
 0003:00275398       ?rcolor_box@playerConfigMenu_t@@2UmenuList_t@@A 006ed398     menu.obj
 0003:002753d0       ?s_khz@optionsMenu_t@@2UmenuList_t@@A 006ed3d0     menu.obj
 0003:00275408       ?overbright@videoMenu_t@@2UmenuList_t@@A 006ed408     menu.obj
 0003:00275440       ?cent@playerConfigMenu_t@@2Ucentity_t@@A 006ed440     menu.obj
 0003:002757a8       ?textureFilter@videoMenu_t@@2UmenuList_t@@A 006ed7a8     menu.obj
 0003:002757e0       ?ci@playerConfigMenu_t@@2UclientInfo_t@@A 006ed7e0     menu.obj
 0003:0027c988       ?allow_download_sounds_box@downloadOptionsMenu_t@@2UmenuList_t@@A 006f4988     menu.obj
 0003:0027c9c0       ?force_respawn_box@dmoptionsMenu_t@@2UmenuList_t@@A 006f49c0     menu.obj
 0003:0027ca14       ?old_contrast@videoMenu_t@@2MA 006f4a14     menu.obj
 0003:0027ca18       ?teamplay_box@dmoptionsMenu_t@@2UmenuList_t@@A 006f4a18     menu.obj
 0003:0027ca50       ?numMaps@startserverMenu_t@@2HA 006f4a50     menu.obj
 0003:0027ca54       ?browse_map_names@dmbrowseMenu_t@@2PAPBDA 006f4a54     menu.obj
 0003:0027dae0       ?timelimit_field@startserverMenu_t@@2UmenuField_t@@A 006f5ae0     menu.obj
 0003:0027db68       ?sensitivity_slider@optionsMenu_t@@2UmenuSlider_t@@A 006f5b68     menu.obj
 0003:0027dc94       ?modelChangeTime@playerConfigMenu_t@@2IA 006f5c94     menu.obj
 0003:0027dc98       ?screensize_slider@videoMenu_t@@2UmenuSlider_t@@A 006f5c98     menu.obj
 0003:0027dcd8       ?spawn_farthest_box@dmoptionsMenu_t@@2UmenuList_t@@A 006f5cd8     menu.obj
 0003:0027dd10       ?crosshair_box@optionsMenu_t@@2UmenuList_t@@A 006f5d10     menu.obj
 0003:0027dd48       ?infinite_ammo_box@dmoptionsMenu_t@@2UmenuList_t@@A 006f5d48     menu.obj
 0003:0027dd80       ?samelevel_box@dmoptionsMenu_t@@2UmenuList_t@@A 006f5d80     menu.obj
 0003:0027ddb8       ?fixed_fov_box@dmoptionsMenu_t@@2UmenuList_t@@A 006f5db8     menu.obj
 0003:0027ddf0       ?maxclients_field@startserverMenu_t@@2UmenuField_t@@A 006f5df0     menu.obj
 0003:0027de78       ?compatibility_list@optionsMenu_t@@2UmenuList_t@@A 006f5e78     menu.obj
 0003:0027deb0       ?fraglimit_field@startserverMenu_t@@2UmenuField_t@@A 006f5eb0     menu.obj
 0003:0027df38       ?num_servers@joinserverMenu_t@@2HA 006f5f38     menu.obj
 0003:0027df40       ?contrast_slider@videoMenu_t@@2UmenuSlider_t@@A 006f5f40     menu.obj
 0003:0027df84       ?local_server_names@joinserverMenu_t@@2PAY0FA@DA 006f5f84     menu.obj
 0003:0027e208       ?rate_box@playerConfigMenu_t@@2UmenuList_t@@A 006f6208     menu.obj
 0003:0027e240       ?cdvolume_box@optionsMenu_t@@2UmenuList_t@@A 006f6240     menu.obj
 0003:0027e278       ?crosshair_color_box@optionsMenu_t@@2UmenuList_t@@A 006f6278     menu.obj
 0003:0027e2b4       ?old_gamma@videoMenu_t@@2MA 006f62b4     menu.obj
 0003:0027e2b8       ?rules_box@startserverMenu_t@@2UmenuList_t@@A 006f62b8     menu.obj
 0003:0027e2f0       ?handedness_box@playerConfigMenu_t@@2UmenuList_t@@A 006f62f0     menu.obj
 0003:0027e328       ?fastSky@videoMenu_t@@2UmenuList_t@@A 006f6328     menu.obj
 0003:0027e380       ?joystick_box@optionsMenu_t@@2UmenuList_t@@A 006f6380     menu.obj
 0003:0027e3b8       ?no_spheres_box@dmoptionsMenu_t@@2UmenuList_t@@A 006f63b8     menu.obj
 0003:0027e3f0       ?bindnames@keysMenu_t@@2PAY01PADA 006f63f0     menu.obj
 0003:0027e7f0       ?allow_download_models_box@downloadOptionsMenu_t@@2UmenuList_t@@A 006f67f0     menu.obj
 0003:0027e828       ?health_box@dmoptionsMenu_t@@2UmenuList_t@@A 006f6828     menu.obj
 0003:0027ec68       ?dmoptions_action@startserverMenu_t@@2UmenuAction_t@@A 006f6c68     menu.obj
 0003:0027eca0       ?s_reverse@optionsMenu_t@@2UmenuList_t@@A 006f6ca0     menu.obj
 0003:0027ed1c       ?m_current@@3PAUmenuFramework_t@@A 006f6d1c     qmenu.obj
 0003:0027ed20       ?r_lightmap@@3PAUcvar_t@@A 006f6d20     ref_vars.obj
 0003:0027ed24       ?r_gamma@@3PAUcvar_t@@A    006f6d24     ref_vars.obj
 0003:0027ed28       ?r_contrast@@3PAUcvar_t@@A 006f6d28     ref_vars.obj
 0003:0027ed2c       ?r_brightness@@3PAUcvar_t@@A 006f6d2c     ref_vars.obj
 0003:0027ed30       ?r_fullscreen@@3PAUcvar_t@@A 006f6d30     ref_vars.obj
 0003:0027ed34       ?r_saturation@@3PAUcvar_t@@A 006f6d34     ref_vars.obj
 0003:0027ed38       ?r_fullbright@@3PAUcvar_t@@A 006f6d38     ref_vars.obj
 0003:0027ed78       ?s_khz@@3PAUcvar_t@@A      006f6d78     snd_dma.obj
 0003:0027ed80       ?paintedtime@@3HA          006f6d80     snd_dma.obj
 0003:0027ed88       ?dma@@3Udma_t@@A           006f6d88     snd_dma.obj
 0003:0027eda4       ?s_loadas8bit@@3PAUcvar_t@@A 006f6da4     snd_dma.obj
 0003:0027edb0       ?s_pendingplays@@3Uplaysound_t@@A 006f6db0     snd_dma.obj
 0003:0027ede0       ?s_primary@@3PAUcvar_t@@A  006f6de0     snd_dma.obj
 0003:002905e8       ?s_volume@@3PAUcvar_t@@A   007085e8     snd_dma.obj
 0003:00290600       ?s_rawsamples@@3PAUportable_samplepair_t@@A 00708600     snd_dma.obj
 0003:002a1e00       ?s_rawend@@3HA             00719e00     snd_dma.obj
 0003:002a1e04       ?s_testsound@@3PAUcvar_t@@A 00719e04     snd_dma.obj
 0003:002a1e20       ?channels@@3PAUchannel_t@@A 00719e20     snd_dma.obj
 0003:002a253c       ?cache_full_cycle@@3HA     0071a53c     snd_mem.obj
 0003:002b4d64       ?prof_counts@@3PAIA        0072cd64     sv_game.obj
 0003:002b5164       ?prof_times@@3PAIA         0072d164     sv_game.obj
 0003:002b5568       ?ge@@3PAUgame_export_t@@A  0072d568     sv_game.obj
 0003:002b5578       ?svs@@3Userver_static_t@@A 0072d578     sv_init.obj
 0003:002be638       ?sv@@3Userver_t@@A         00736638     sv_init.obj
 0003:002fd2c0       ?sv_labels@@3PAUcvar_t@@A  007752c0     sv_main.obj
 0003:002fd2c4       ?sv_coop@@3PAUcvar_t@@A    007752c4     sv_main.obj
 0003:002fd2c8       ?allow_download_sounds@@3PAUcvar_t@@A 007752c8     sv_main.obj
 0003:002fd2d0       ?master_adr@@3PAUnetadr_t@@A 007752d0     sv_main.obj
 0003:002fd330       ?allow_download_maps@@3PAUcvar_t@@A 00775330     sv_main.obj
 0003:002fd334       ?sv_maxclients@@3PAUcvar_t@@A 00775334     sv_main.obj
 0003:002fd348       ?sv_extProtocol@@3PAUcvar_t@@A 00775348     sv_main.obj
 0003:002fd34c       ?sv_client@@3PAUclient_t@@A 0077534c     sv_main.obj
 0003:002fd35c       ?sv_deathmatch@@3PAUcvar_t@@A 0077535c     sv_main.obj
 0003:002fd370       ?allow_download@@3PAUcvar_t@@A 00775370     sv_main.obj
 0003:002fd374       ?sv_enforcetime@@3PAUcvar_t@@A 00775374     sv_main.obj
 0003:0030136c       ?sv_shownet@@3PAUcvar_t@@A 0077936c     sv_main.obj
 0003:00301370       ?sv_airaccelerate@@3PAUcvar_t@@A 00779370     sv_main.obj
 0003:00301374       ?g_fpuXcpt@@3PAUcvar_t@@A  00779374     sv_main.obj
 0003:00301378       ?sv_noreload@@3PAUcvar_t@@A 00779378     sv_main.obj
 0003:0030137c       ?allow_download_players@@3PAUcvar_t@@A 0077937c     sv_main.obj
 0003:00301380       ?allow_download_models@@3PAUcvar_t@@A 00779380     sv_main.obj
 0003:00301388       ?sv_paused@@3PAUcvar_t@@A  00779388     sv_main.obj
 0003:003018f0       ?sv_player@@3PAUedict_s@@A 007798f0     sv_user.obj
 0003:00318f40       ?bytedirs@@3PAUCVec3@@A    00790f40     anorms.obj
 0003:00319838       ?CmdList@@3V?$TList@VCCommand@@@@A 00791838     cmd.obj
 0003:0031dc40       ?AliasList@@3V?$TList@VCAlias@@@@A 00795c40     cmd.obj
 0003:0031e4f8       ?c_pointcontents@@3HA      007964f8     cmodel.obj
 0003:003225e8       ?trace_skipAlpha@@3_NA     0079a5e8     cmodel.obj
 0003:003225f0       ?c_traces@@3HA             0079a5f0     cmodel.obj
 0003:0032273c       ?timescale@@3PAUcvar_t@@A  0079a73c     common.obj
 0003:00322740       ?developer@@3PAUcvar_t@@A  0079a740     common.obj
 0003:00322744       ?com_isServer@@3_NA        0079a744     common.obj
 0003:00322748       ?time_before_ref@@3IA      0079a748     common.obj
 0003:00322954       ?time_after_ref@@3IA       0079a954     common.obj
 0003:00322958       ?debugLog@@3PAVCOutputDevice@@A 0079a958     common.obj
 0003:00322960       ?time_before_game@@3IA     0079a960     common.obj
 0003:00322968       ?com_isClient@@3_NA        0079a968     common.obj
 0003:00322970       ?sv_cheats@@3PAUcvar_t@@A  0079a970     common.obj
 0003:00322984       ?time_after_game@@3IA      0079a984     common.obj
 0003:00322ebc       ?timedemo@@3PAUcvar_t@@A   0079aebc     common.obj
 0003:003232c8       ?initialized@cvar_t@@2HA   0079b2c8     cvar.obj
 0003:003232cc       ?vars@cvar_t@@2PAU1@A      0079b2cc     cvar.obj
 0003:003232d0       ?modifiedFlags@cvar_t@@2IA 0079b2d0     cvar.obj
 0003:00327cd8       ?numEntClassNames@@3HA     0079fcd8     EntityParser.obj
 0003:00331a88       ?mem@CBrush@@2PAVCMemoryChain@@A 007a9a88     MapBrush.obj
 0003:00331aa8       ?bspfile@@3Ubspfile_t@@A   007a9aa8     model.obj
 0003:00336498       ?net_message@@3Vsizebuf_t@@A 007ae498     net_chan.obj
 0003:003364b0       ?net_from@@3Unetadr_t@@A   007ae4b0     net_chan.obj
 0003:0033653c       ?pm_airaccelerate@@3MA     007ae53c     pmove.obj
 0003:0033686c       ?in_joystick@@3PAUcvar_t@@A 007ae86c     in_win.obj
 0003:003368a4       ?m_invert@@3PAUcvar_t@@A   007ae8a4     in_win.obj
 0003:00336958       ?sensitivity@@3PAUcvar_t@@A 007ae958     in_win.obj
 0003:00336960       ?in_needRestart@@3_NA      007ae960     in_win.obj
 0003:00376a2c       ?ActiveApp@@3_NA           007eea2c     sys_win.obj
 0003:00376a30       ?sys_frame_time@@3IA       007eea30     sys_win.obj
 0003:00376ab8       ?MinimizedApp@@3_NA        007eeab8     sys_win.obj
 0003:00376ab9       ?FullscreenApp@@3_NA       007eeab9     sys_win.obj
 0003:00376be0       ?win_noalttab@@3PAUcvar_t@@A 007eebe0     vid_dll.obj
 0003:00376be4       ?cl_hwnd@@3PAUHWND__@@A    007eebe4     vid_dll.obj
 0003:00376bf4       ?win_priorityBoost@@3PAUcvar_t@@A 007eebf4     vid_dll.obj
 0003:00376c90       ?viddef@@3Uviddef_t@@A     007eec90     vid_dll.obj
 0003:00376ca0       ?gl_extra@OpenGLDrv@@3PAUbufExtra_t@1@A 007eeca0     gl_backend.obj
 0003:00396ca0       ?gl_numExtra@OpenGLDrv@@3HA 0080eca0     gl_backend.obj
 0003:00396ca4       ?gl_numVerts@OpenGLDrv@@3HA 0080eca4     gl_backend.obj
 0003:00396cac       ?vb@OpenGLDrv@@3PAUvertexBuffer_t@1@A 0080ecac     gl_backend.obj
 0003:00396cbc       ?gl_indexesArray@OpenGLDrv@@3PAHA 0080ecbc     gl_backend.obj
 0003:003af0bc       ?gl_numIndexes@OpenGLDrv@@3HA 008270bc     gl_backend.obj
 0003:003af0c8       ?srcTexCoord@OpenGLDrv@@3PAUbufTexCoordSrc_t@1@A 008270c8     gl_backend.obj
 0003:003ff4d0       ?srcVertexColor@OpenGLDrv@@3PATcolor_t@@A 008774d0     gl_backend.obj
 0003:00406e90       ?gl_debugFont@OpenGLDrv@@3PAVCFont@1@A 0087ee90     gl_font.obj
 0003:00406e94       ?gl_consoleFont@OpenGLDrv@@3PAVCFont@1@A 0087ee94     gl_font.obj
 0003:0040745c       ?fontCount@OpenGLDrv@@3HA  0087f45c     gl_font.obj
 0003:00407460       ?gl_concharsFont@OpenGLDrv@@3PAVCFont@1@A 0087f460     gl_font.obj
 0003:0040746c       ?gl_numDlights@OpenGLDrv@@3HA 0087f46c     gl_frontend.obj
 0003:00407470       ?gl_fogEnd@OpenGLDrv@@3MA  0087f470     gl_frontend.obj
 0003:00407478       ?vp@OpenGLDrv@@3UviewPortal_t@1@A 0087f478     gl_frontend.obj
 0003:00407600       ?gl_fogColor@OpenGLDrv@@3PAMA 0087f600     gl_frontend.obj
 0003:00407610       ?zoneMask@OpenGLDrv@@3PAEA 0087f610     gl_frontend.obj
 0003:00407630       ?gl_fogMode@OpenGLDrv@@3IA 0087f630     gl_frontend.obj
 0003:00407638       ?gl_dlights@OpenGLDrv@@3PAUrefDlight_t@1@A 0087f638     gl_frontend.obj
 0003:00408638       ?gl_entities@OpenGLDrv@@3PAUrefEntity_t@1@A 00880638     gl_frontend.obj
 0003:00440560       ?gl_fogDensity@OpenGLDrv@@3MA 008b8560     gl_frontend.obj
 0003:00440564       ?gl_numEntities@OpenGLDrv@@3HA 008b8564     gl_frontend.obj
 0003:00440568       ?forceVisMap@OpenGLDrv@@3_NA 008b8568     gl_frontend.obj
 0003:0044056c       ?gl_fogStart@OpenGLDrv@@3MA 008b856c     gl_frontend.obj
 0003:00440578       ?screenshotFlags@OpenGLDrv@@3HA 008b8578     gl_image.obj
 0003:0044057c       ?gl_fogImage@OpenGLDrv@@3PAVimage_t@1@A 008b857c     gl_image.obj
 0003:00440580       ?gl_identityLightImage@OpenGLDrv@@3PAVimage_t@1@A 008b8580     gl_image.obj
 0003:00440584       ?gl_particleImage@OpenGLDrv@@3PAVimage_t@1@A 008b8584     gl_image.obj
 0003:0044068c       ?gl_defaultImage@OpenGLDrv@@3PAVimage_t@1@A 008b868c     gl_image.obj
 0003:00440a94       ?gl_videoImage@OpenGLDrv@@3PAVimage_t@1@A 008b8a94     gl_image.obj
 0003:00440a98       ?screenshotName@OpenGLDrv@@3PADA 008b8a98     gl_image.obj
 0003:00440a9c       ?gl_reflImage2@OpenGLDrv@@3PAVimage_t@1@A 008b8a9c     gl_image.obj
 0003:0045caa0       ?gl_dlightImage@OpenGLDrv@@3PAVimage_t@1@A 008d4aa0     gl_image.obj
 0003:0045caa8       ?gl_reflImage@OpenGLDrv@@3PAVimage_t@1@A 008d4aa8     gl_image.obj
 0003:0045dac0       ?gl_config@OpenGLDrv@@3Uglconfig_t@1@A 008d5ac0     gl_interface.obj
 0003:0045df18       ?gl_state@OpenGLDrv@@3Uglstate_t@1@A 008d5f18     gl_interface.obj
 0003:0045e578       ?lmMinlight@OpenGLDrv@@3Tcolor_t@@A 008d6578     gl_lightmap.obj
 0003:0045ed88       ?gl_fog@OpenGLDrv@@3PAUcvar_t@@A 008d6d88     gl_main.obj
 0003:0045ed8c       ?gl_showFillRate@OpenGLDrv@@3PAUcvar_t@@A 008d6d8c     gl_main.obj
 0003:0045ed90       ?gl_dlightBacks@OpenGLDrv@@3PAUcvar_t@@A 008d6d90     gl_main.obj
 0003:0045ed94       ?gl_sortAlpha@OpenGLDrv@@3PAUcvar_t@@A 008d6d94     gl_main.obj
 0003:0045ed98       ?gl_flares@OpenGLDrv@@3PAUcvar_t@@A 008d6d98     gl_main.obj
 0003:0045ed9c       ?gl_frustumCull@OpenGLDrv@@3PAUcvar_t@@A 008d6d9c     gl_main.obj
 0003:0045eda0       ?gl_bitdepth@OpenGLDrv@@3PAUcvar_t@@A 008d6da0     gl_main.obj
 0003:0045eda4       ?gl_lightLines@OpenGLDrv@@3PAUcvar_t@@A 008d6da4     gl_main.obj
 0003:0045eda8       ?gl_vertexLight@OpenGLDrv@@3PAUcvar_t@@A 008d6da8     gl_main.obj
 0003:0045edac       ?gl_logFile@OpenGLDrv@@3PAUcvar_t@@A 008d6dac     gl_main.obj
 0003:0045edb0       ?gl_oCull@OpenGLDrv@@3PAUcvar_t@@A 008d6db0     gl_main.obj
 0003:0045edb4       ?gl_texturemode@OpenGLDrv@@3PAUcvar_t@@A 008d6db4     gl_main.obj
 0003:0045edb8       ?gl_singleShader@OpenGLDrv@@3PAUcvar_t@@A 008d6db8     gl_main.obj
 0003:0045edbc       ?gl_mode@OpenGLDrv@@3PAUcvar_t@@A 008d6dbc     gl_main.obj
 0003:0045edc0       ?gl_dynamic@OpenGLDrv@@3PAUcvar_t@@A 008d6dc0     gl_main.obj
 0003:0045edc4       ?gl_driver@OpenGLDrv@@3PAUcvar_t@@A 008d6dc4     gl_main.obj
 0003:0045edd0       ?gl_backfaceCull@OpenGLDrv@@3PAUcvar_t@@A 008d6dd0     gl_main.obj
 0003:0045edd4       ?renderingEnabled@OpenGLDrv@@3_NA 008d6dd4     gl_main.obj
 0003:0045edd8       ?gl_swapinterval@OpenGLDrv@@3PAUcvar_t@@A 008d6dd8     gl_main.obj
 0003:0045eddc       ?gl_nobind@OpenGLDrv@@3PAUcvar_t@@A 008d6ddc     gl_main.obj
 0003:0045ede0       ?gl_overbright@OpenGLDrv@@3PAUcvar_t@@A 008d6de0     gl_main.obj
 0003:0045ede4       ?r_drawentities@OpenGLDrv@@3PAUcvar_t@@A 008d6de4     gl_main.obj
 0003:0045ede8       ?gl_skinMipBias@OpenGLDrv@@3PAUcvar_t@@A 008d6de8     gl_main.obj
 0003:0045edec       ?gl_labels@OpenGLDrv@@3PAUcvar_t@@A 008d6dec     gl_main.obj
 0003:0045edf0       ?r_novis@OpenGLDrv@@3PAUcvar_t@@A 008d6df0     gl_main.obj
 0003:0045edf8       ?gl_ldStats@OpenGLDrv@@3UFLoadStats@1@A 008d6df8     gl_main.obj
 0003:0045ee28       ?r_ignorehwgamma@OpenGLDrv@@3PAUcvar_t@@A 008d6e28     gl_main.obj
 0003:0045ee2c       ?gl_texMipBias@OpenGLDrv@@3PAUcvar_t@@A 008d6e2c     gl_main.obj
 0003:0045ee34       ?gl_showSky@OpenGLDrv@@3PAUcvar_t@@A 008d6e34     gl_main.obj
 0003:0045ee38       ?gl_stats@OpenGLDrv@@3UFDrawStats@1@A 008d6e38     gl_main.obj
 0003:0045eebc       ?gl_noGrid@OpenGLDrv@@3PAUcvar_t@@A 008d6ebc     gl_main.obj
 0003:0045eec0       ?gl_showGrid@OpenGLDrv@@3PAUcvar_t@@A 008d6ec0     gl_main.obj
 0003:0045eec4       ?gl_znear@OpenGLDrv@@3PAUcvar_t@@A 008d6ec4     gl_main.obj
 0003:0045eec8       ?gl_showLights@OpenGLDrv@@3PAUcvar_t@@A 008d6ec8     gl_main.obj
 0003:0045eecc       ?r_q3map_overbright@OpenGLDrv@@3PAUcvar_t@@A 008d6ecc     gl_main.obj
 0003:0045eed0       ?r_drawworld@OpenGLDrv@@3PAUcvar_t@@A 008d6ed0     gl_main.obj
 0003:0045eed4       ?gl_maxTextureUnits@OpenGLDrv@@3PAUcvar_t@@A 008d6ed4     gl_main.obj
 0003:0045eed8       ?r_stats@OpenGLDrv@@3PAUcvar_t@@A 008d6ed8     gl_main.obj
 0003:0045ef20       ?atanTable@OpenGLDrv@@3PAMA 008d6f20     gl_math.obj
 0003:0045ff20       ?asinTable@OpenGLDrv@@3PAMA 008d7f20     gl_math.obj
 0003:00461f20       ?sawtoothTable@OpenGLDrv@@3PAMA 008d9f20     gl_math.obj
 0003:00462f20       ?atanTable2@OpenGLDrv@@3PAMA 008daf20     gl_math.obj
 0003:00463f20       ?sinTable@OpenGLDrv@@3PAMA 008dbf20     gl_math.obj
 0003:00464f20       ?squareTable@OpenGLDrv@@3PAMA 008dcf20     gl_math.obj
 0003:00465f20       ?triangleTable@OpenGLDrv@@3PAMA 008ddf20     gl_math.obj
 0003:00466f2c       ?subdivNumVerts@OpenGLDrv@@3HA 008def2c     gl_poly.obj
 0003:0046af38       ?gl_flareShader@OpenGLDrv@@3PAVshader_t@1@A 008e2f38     gl_shader.obj
 0003:0046c008       ?gl_identityLightShader2@OpenGLDrv@@3PAVshader_t@1@A 008e4008     gl_shader.obj
 0003:0046c00c       ?gl_alphaShader2@OpenGLDrv@@3PAVshader_t@1@A 008e400c     gl_shader.obj
 0003:0046c010       ?gl_alphaShader1@OpenGLDrv@@3PAVshader_t@1@A 008e4010     gl_shader.obj
 0003:0046c05c       ?gl_identityLightShader@OpenGLDrv@@3PAVshader_t@1@A 008e405c     gl_shader.obj
 0003:0046c464       ?gl_defaultSkyShader@OpenGLDrv@@3PAVshader_t@1@A 008e4464     gl_shader.obj
 0003:0046d26c       ?gl_skyShader@OpenGLDrv@@3PAVshader_t@1@A 008e526c     gl_shader.obj
 0003:0046d270       ?gl_particleShader@OpenGLDrv@@3PAVshader_t@1@A 008e5270     gl_shader.obj
 0003:0046d274       ?gl_defaultShader@OpenGLDrv@@3PAVshader_t@1@A 008e5274     gl_shader.obj
 0003:0046d278       ?gl_entityShader@OpenGLDrv@@3PAVshader_t@1@A 008e5278     gl_shader.obj
 0003:0046d27c       ?gl_videoShader@OpenGLDrv@@3PAVshader_t@1@A 008e527c     gl_shader.obj
 0003:0047128c       ?gl_detailShader@OpenGLDrv@@3PAVshader_t@1@A 008e928c     gl_shader.obj
 0003:004714c8       ?modelsArray@OpenGLDrv@@3PAPAVmodel_t@1@A 008e94c8     gl_model.obj
 0003:004724c8       ?modelCount@OpenGLDrv@@3HA 008ea4c8     gl_model.obj
 0003:004724f0       ?map@OpenGLDrv@@3UbspModel_t@1@A 008ea4f0     gl_bspmodel.obj
 0003:004729d8       ?GL@OpenGLDrv@@3UGL_t@1@A  008ea9d8     GLBind.obj
 0003:00472c18       ?gl_hDC@OpenGLDrv@@3PAUHDC__@@A 008eac18     gl_win.obj
 0003:004760b8       __dowildcard               008ee0b8     MSVCRT:wildcard.obj
 0003:004760bc       __newmode                  008ee0bc     MSVCRT:_newmode.obj
 0003:004760c0       __commode                  008ee0c0     MSVCRT:xncommod.obj
 0003:004760c4       __fmode                    008ee0c4     MSVCRT:xtxtmode.obj
 0003:004760c8       __adjust_fdiv              008ee0c8     <common>
 0003:004760cc       ___onexitend               008ee0cc     <common>
 0003:004760d0       ___onexitbegin             008ee0d0     <common>

 entry point at        0001:0006c0dc

 Static symbols

 0001:00058b64       ?UpdateGamma@OpenGLDrv@@YAXXZ 00459b64 f   gl_win.obj
 0001:00058d15       ?ReadGamma@OpenGLDrv@@YAXXZ 00459d15 f   gl_win.obj
 0001:00058d5c       ?GLimp_InitGL@OpenGLDrv@@YA_NXZ 00459d5c f   gl_win.obj
 0001:00058dab       ?ErrFail@OpenGLDrv@@YAXPBD@Z 00459dab f   gl_win.obj
 0001:00058dd2       ?DestoryGLcontext@OpenGLDrv@@YA_NXZ 00459dd2 f   gl_win.obj
 0001:00058e0c       ?DeactivateGLcontext@OpenGLDrv@@YA_NXZ 00459e0c f   gl_win.obj
 0001:00058e47       ?GLimp_SetPixelFormat@OpenGLDrv@@YA_NXZ 00459e47 f   gl_win.obj
 0001:00058eea       ?CreateGLcontext@OpenGLDrv@@YA_NXZ 00459eea f   gl_win.obj
 0001:00058f17       ?ActivateGLcontext@OpenGLDrv@@YA_NXZ 00459f17 f   gl_win.obj
 0001:00058fd3       ?RestoreGamma@OpenGLDrv@@YAXXZ 00459fd3 f   gl_win.obj
 0001:00056a42       ?logAlphaFunc@OpenGLDrv@@YGXIM@Z 00457a42 f   GLBind.obj
 0001:00056a82       ?EnumName@OpenGLDrv@@YAPBDI@Z 00457a82 f   GLBind.obj
 0001:00057192       ?logBegin@OpenGLDrv@@YGXI@Z 00458192 f   GLBind.obj
 0001:000571c3       ?logBindTexture@OpenGLDrv@@YGXII@Z 004581c3 f   GLBind.obj
 0001:000571fb       ?logBlendFunc@OpenGLDrv@@YGXII@Z 004581fb f   GLBind.obj
 0001:0005723a       ?logClear@OpenGLDrv@@YGXI@Z 0045823a f   GLBind.obj
 0001:00057262       ?logClearColor@OpenGLDrv@@YGXMMMM@Z 00458262 f   GLBind.obj
 0001:000572c2       ?logColor3f@OpenGLDrv@@YGXMMM@Z 004582c2 f   GLBind.obj
 0001:00057313       ?logColor3fv@OpenGLDrv@@YGXPBM@Z 00458313 f   GLBind.obj
 0001:0005733b       ?logColor4f@OpenGLDrv@@YGXMMMM@Z 0045833b f   GLBind.obj
 0001:0005739b       ?logColor4ubv@OpenGLDrv@@YGXPBE@Z 0045839b f   GLBind.obj
 0001:000573c3       ?logColorPointer@OpenGLDrv@@YGXHIHPBX@Z 004583c3 f   GLBind.obj
 0001:00057407       ?logCullFace@OpenGLDrv@@YGXI@Z 00458407 f   GLBind.obj
 0001:00057438       ?logDeleteTextures@OpenGLDrv@@YGXHPBI@Z 00458438 f   GLBind.obj
 0001:00057469       ?logDepthFunc@OpenGLDrv@@YGXI@Z 00458469 f   GLBind.obj
 0001:0005749a       ?logDepthMask@OpenGLDrv@@YGXE@Z 0045849a f   GLBind.obj
 0001:000574c7       ?logDepthRange@OpenGLDrv@@YGXNN@Z 004584c7 f   GLBind.obj
 0001:0005750a       ?logDisable@OpenGLDrv@@YGXI@Z 0045850a f   GLBind.obj
 0001:0005753b       ?logDisableClientState@OpenGLDrv@@YGXI@Z 0045853b f   GLBind.obj
 0001:0005756c       ?logDrawElements@OpenGLDrv@@YGXIHIPBX@Z 0045856c f   GLBind.obj
 0001:000575b7       ?logEnable@OpenGLDrv@@YGXI@Z 004585b7 f   GLBind.obj
 0001:000575e8       ?logEnableClientState@OpenGLDrv@@YGXI@Z 004585e8 f   GLBind.obj
 0001:00057619       ?logEnd@OpenGLDrv@@YGXXZ   00458619 f   GLBind.obj
 0001:00057637       ?logFinish@OpenGLDrv@@YGXXZ 00458637 f   GLBind.obj
 0001:00057655       ?logFogf@OpenGLDrv@@YGXIM@Z 00458655 f   GLBind.obj
 0001:00057695       ?logFogfv@OpenGLDrv@@YGXIPBM@Z 00458695 f   GLBind.obj
 0001:000576cd       ?logGetError@OpenGLDrv@@YGIXZ 004586cd f   GLBind.obj
 0001:000576d3       ?logGetIntegerv@OpenGLDrv@@YGXIPAH@Z 004586d3 f   GLBind.obj
 0001:000576fe       ?logGetString@OpenGLDrv@@YGPBEI@Z 004586fe f   GLBind.obj
 0001:00057726       ?logLoadIdentity@OpenGLDrv@@YGXXZ 00458726 f   GLBind.obj
 0001:00057744       ?logLoadMatrixf@OpenGLDrv@@YGXPBM@Z 00458744 f   GLBind.obj
 0001:0005776c       ?logMatrixMode@OpenGLDrv@@YGXI@Z 0045876c f   GLBind.obj
 0001:0005779d       ?logOrtho@OpenGLDrv@@YGXNNNNNN@Z 0045879d f   GLBind.obj
 0001:00057820       ?logPolygonMode@OpenGLDrv@@YGXII@Z 00458820 f   GLBind.obj
 0001:0005785f       ?logPolygonOffset@OpenGLDrv@@YGXMM@Z 0045885f f   GLBind.obj
 0001:000578a1       ?logPopMatrix@OpenGLDrv@@YGXXZ 004588a1 f   GLBind.obj
 0001:000578bf       ?logPushMatrix@OpenGLDrv@@YGXXZ 004588bf f   GLBind.obj
 0001:000578dd       ?logReadPixels@OpenGLDrv@@YGXHHHHIIPAX@Z 004588dd f   GLBind.obj
 0001:0005793a       ?logRotatef@OpenGLDrv@@YGXMMMM@Z 0045893a f   GLBind.obj
 0001:0005799a       ?logScissor@OpenGLDrv@@YGXHHHH@Z 0045899a f   GLBind.obj
 0001:000579d7       ?logShadeModel@OpenGLDrv@@YGXI@Z 004589d7 f   GLBind.obj
 0001:00057a08       ?logTexCoord2f@OpenGLDrv@@YGXMM@Z 00458a08 f   GLBind.obj
 0001:00057a4a       ?logTexCoordPointer@OpenGLDrv@@YGXHIHPBX@Z 00458a4a f   GLBind.obj
 0001:00057a8e       ?logTexEnvf@OpenGLDrv@@YGXIIM@Z 00458a8e f   GLBind.obj
 0001:00057adb       ?logTexEnvfv@OpenGLDrv@@YGXIIPBM@Z 00458adb f   GLBind.obj
 0001:00057b20       ?logTexEnvi@OpenGLDrv@@YGXIII@Z 00458b20 f   GLBind.obj
 0001:00057b6c       ?logTexImage2D@OpenGLDrv@@YGXIHIHHHIIPBX@Z 00458b6c f   GLBind.obj
 0001:00057be3       ?logTexParameteri@OpenGLDrv@@YGXIIH@Z 00458be3 f   GLBind.obj
 0001:00057c28       ?logTexSubImage2D@OpenGLDrv@@YGXIHHHHHIIPBX@Z 00458c28 f   GLBind.obj
 0001:00057c98       ?logTranslatef@OpenGLDrv@@YGXMMM@Z 00458c98 f   GLBind.obj
 0001:00057ce9       ?logVertex2f@OpenGLDrv@@YGXMM@Z 00458ce9 f   GLBind.obj
 0001:00057d2b       ?logVertex3f@OpenGLDrv@@YGXMMM@Z 00458d2b f   GLBind.obj
 0001:00057d7c       ?logVertex3fv@OpenGLDrv@@YGXPBM@Z 00458d7c f   GLBind.obj
 0001:00057da4       ?logVertexPointer@OpenGLDrv@@YGXHIHPBX@Z 00458da4 f   GLBind.obj
 0001:00057de8       ?logViewport@OpenGLDrv@@YGXHHHH@Z 00458de8 f   GLBind.obj
 0001:00057e25       ?logChoosePixelFormat@OpenGLDrv@@YGHPAUHDC__@@PBUtagPIXELFORMATDESCRIPTOR@@@Z 00458e25 f   GLBind.obj
 0001:00057e50       ?logDescribePixelFormat@OpenGLDrv@@YGHPAUHDC__@@HIPAUtagPIXELFORMATDESCRIPTOR@@@Z 00458e50 f   GLBind.obj
 0001:00057e81       ?logSetPixelFormat@OpenGLDrv@@YGHPAUHDC__@@HPBUtagPIXELFORMATDESCRIPTOR@@@Z 00458e81 f   GLBind.obj
 0001:00057eaf       ?logSwapBuffers@OpenGLDrv@@YGHPAUHDC__@@@Z 00458eaf f   GLBind.obj
 0001:00057ed7       ?logCreateContext@OpenGLDrv@@YGPAUHGLRC__@@PAUHDC__@@@Z 00458ed7 f   GLBind.obj
 0001:00057eff       ?logDeleteContext@OpenGLDrv@@YGHPAUHGLRC__@@@Z 00458eff f   GLBind.obj
 0001:00057f27       ?logGetProcAddress@OpenGLDrv@@YGP6GHXZPBD@Z 00458f27 f   GLBind.obj
 0001:00057f4f       ?logMakeCurrent@OpenGLDrv@@YGHPAUHDC__@@PAUHGLRC__@@@Z 00458f4f f   GLBind.obj
 0001:00057f7a       ?logSelectTextureSGIS@OpenGLDrv@@YGXI@Z 00458f7a f   GLBind.obj
 0001:00057fab       ?logSelectTextureCoordSetSGIS@OpenGLDrv@@YGXI@Z 00458fab f   GLBind.obj
 0001:00057fdc       ?logActiveTextureARB@OpenGLDrv@@YGXI@Z 00458fdc f   GLBind.obj
 0001:0005800d       ?logClientActiveTextureARB@OpenGLDrv@@YGXI@Z 0045900d f   GLBind.obj
 0001:0005803e       ?logLockArraysEXT@OpenGLDrv@@YGXHH@Z 0045903e f   GLBind.obj
 0001:0005806f       ?logUnlockArraysEXT@OpenGLDrv@@YGXXZ 0045906f f   GLBind.obj
 0001:0005808d       ?logDrawRangeElementsEXT@OpenGLDrv@@YGXIIIHIPBX@Z 0045908d f   GLBind.obj
 0001:000580e4       ?logSwapIntervalEXT@OpenGLDrv@@YGHH@Z 004590e4 f   GLBind.obj
 0001:00058655       ?ExtensionSupported@OpenGLDrv@@YA_NPAUextInfo_t@1@PBD1@Z 00459655 f   GLBind.obj
 0001:000586ce       ?ExtensionNameSupported@OpenGLDrv@@YA_NPBD0@Z 004596ce f   GLBind.obj
 0001:0005582d       ?ParseGlCmds@OpenGLDrv@@YAHPBDPAVsurfaceMd3_t@1@PAH2@Z 0045682d f   gl_trimodel.obj
 0001:00055a7b       ?ProcessMd2Frame@OpenGLDrv@@YAXPAUvertexMd3_t@1@PAUdMd2Frame_t@@PAUmd3Frame_t@1@HPAH@Z 00456a7b f   gl_trimodel.obj
 0001:00055bbe       ?ComputeMd3Radius@OpenGLDrv@@YAMABUCVec3@@PBUvertexMd3_t@1@H@Z 00456bbe f   gl_trimodel.obj
 0001:00055cac       ?BuildMd2Normals@OpenGLDrv@@YAXPAVsurfaceMd3_t@1@PAHH@Z 00456cac f   gl_trimodel.obj
 0001:00056138       ?SetMd3Skin@OpenGLDrv@@YAXPBDPAVsurfaceMd3_t@1@H0@Z 00457138 f   gl_trimodel.obj
 0001:00056803       ?SetSprRadius@OpenGLDrv@@YAXPAVsprModel_t@1@@Z 00457803 f   gl_trimodel.obj
 0001:00056877       ?cSprShader@OpenGLDrv@@YAXHPAPAD@Z 00457877 f   gl_trimodel.obj
 0001:000568c6       ?cSize@OpenGLDrv@@YAXHPAPAD@Z 004578c6 f   gl_trimodel.obj
 0001:0005233f       _$E9                       0045333f f   gl_bspmodel.obj
 0001:00052344       _$E8                       00453344 f   gl_bspmodel.obj
 0001:000524fe       ?LoadFlares@OpenGLDrv@@YAXPAUlightFlare_t@@H@Z 004534fe f   gl_bspmodel.obj
 0001:000525c8       ?LoadSlights@OpenGLDrv@@YAXPAUslight_t@@@Z 004535c8 f   gl_bspmodel.obj
 0001:000527fe       ?LoadBsp2@OpenGLDrv@@YAXXZ 004537fe f   gl_bspmodel.obj
 0001:0005296c       ?LoadLeafsNodes@OpenGLDrv@@YAXPAUCBspNode@@HPAUCBspLeaf@@H@Z 0045396c f   gl_bspmodel.obj
 0001:000529e3       ?SetNodesAlpha@OpenGLDrv@@YAXXZ 004539e3 f   gl_bspmodel.obj
 0001:00052a4b       ?LoadInlineModels@OpenGLDrv@@YAXPAUCBspModel@@H@Z 00453a4b f   gl_bspmodel.obj
 0001:00052b9a       ?LoadSurfaces2@OpenGLDrv@@YAXPBUdBspFace_t@@HPBHPBUdEdge_t@@PAUCVec3@@PBUdBsp2Texinfo_t@@PBUCBspModel@@H@Z 00453b9a f   gl_bspmodel.obj
 0001:0005330a       ?BuildSurfFlare@OpenGLDrv@@YAXPAVsurfaceBase_t@1@PBTcolor_t@@M@Z 0045430a f   gl_bspmodel.obj
 0001:00053470       ?BuildSurfLight@OpenGLDrv@@YAXPAVsurfacePlanar_t@1@PBTcolor_t@@MM_N@Z 00454470 f   gl_bspmodel.obj
 0001:0005361e       ?GetSurfArea@OpenGLDrv@@YAMPAVsurfacePlanar_t@1@@Z 0045461e f   gl_bspmodel.obj
 0001:000536e5       ?BuildPlanarSurf@OpenGLDrv@@YAXPAVsurfacePlanar_t@1@@Z 004546e5 f   gl_bspmodel.obj
 0001:0005382f       ?SurfFlagsToShaderFlags2@OpenGLDrv@@YAII@Z 0045482f f   gl_bspmodel.obj
 0001:00053887       ?CanEnvmap@OpenGLDrv@@YA_NPBUdBspFace_t@@HPAPAUCVec3@@H@Z 00454887 f   gl_bspmodel.obj
 0001:000539c4       ?CreateSurfShader2@OpenGLDrv@@YAPAVshader_t@1@IPBUdBsp2Texinfo_t@@0@Z 004549c4 f   gl_bspmodel.obj
 0001:00053a61       ?CreateSurfShader1@OpenGLDrv@@YAPAVshader_t@1@IPBUdBsp2Texinfo_t@@@Z 00454a61 f   gl_bspmodel.obj
 0001:00053c69       ?CreatePalettedImage@OpenGLDrv@@YAXPBDPAUdBsp1Miptex_t@@_N@Z 00454c69 f   gl_bspmodel.obj
 0001:00053d13       ?GetQ1Palette@OpenGLDrv@@YAPAIXZ 00454d13 f   gl_bspmodel.obj
 0001:00053d80       ?FindMiptex1@OpenGLDrv@@YAHPBD@Z 00454d80 f   gl_bspmodel.obj
 0001:00053dc0       ?InitSurfaceLightmap2@OpenGLDrv@@YAXPBUdBspFace_t@@PAVsurfacePlanar_t@1@QAM2@Z 00454dc0 f   gl_bspmodel.obj
 0001:00053f36       ?GenerateLightmaps2@OpenGLDrv@@YAXPAEH@Z 00454f36 f   gl_bspmodel.obj
 0001:00054595       ?LightmapCompare@OpenGLDrv@@YAHPBQAVsurfacePlanar_t@1@0@Z 00455595 f   gl_bspmodel.obj
 0001:000545f2       ?ShaderCompare@OpenGLDrv@@YAHPBQAVsurfacePlanar_t@1@0@Z 004555f2 f   gl_bspmodel.obj
 0001:0005460d       ?LoadBsp1@OpenGLDrv@@YAXXZ 0045560d f   gl_bspmodel.obj
 0001:000546fc       ?LoadSky1@OpenGLDrv@@YAXXZ 004556fc f   gl_bspmodel.obj
 0001:00054803       ?LoadBsp3@OpenGLDrv@@YAXXZ 00455803 f   gl_bspmodel.obj
 0001:0005490c       ?LoadLightmaps3@OpenGLDrv@@YAXPAEH@Z 0045590c f   gl_bspmodel.obj
 0001:000549a0       ?LoadSurfaces3@OpenGLDrv@@YAXPBUdBsp3Face_t@@HPAUdBsp3Vert_t@@PAIPBUdBsp3Shader_t@@@Z 004559a0 f   gl_bspmodel.obj
 0001:00054b74       ?CreateSurfShader3@OpenGLDrv@@YAPAVshader_t@1@IPBUdBsp3Shader_t@@H@Z 00455b74 f   gl_bspmodel.obj
 0001:00054c6d       ?LoadPlanarSurface3@OpenGLDrv@@YAPAVsurfaceBase_t@1@PBUdBsp3Face_t@@PAUdBsp3Vert_t@@PAIPBUdBsp3Shader_t@@@Z 00455c6d f   gl_bspmodel.obj
 0001:00054e2f       ?LoadFakePlanarSurface3@OpenGLDrv@@YAPAVsurfaceBase_t@1@PBUdBsp3Face_t@@PAUdBsp3Vert_t@@PAIPAVshader_t@1@@Z 00455e2f f   gl_bspmodel.obj
 0001:00054f64       ?LoadTriangleSurface3@OpenGLDrv@@YAPAVsurfaceBase_t@1@PBUdBsp3Face_t@@PAUdBsp3Vert_t@@PAIPBUdBsp3Shader_t@@@Z 00455f64 f   gl_bspmodel.obj
 0001:000550aa       ?LoadFlares3@OpenGLDrv@@YAXPBUdBsp3Face_t@@HPBUCBspModel@@H@Z 004560aa f   gl_bspmodel.obj
 0001:000551d0       ?LoadFogs3@OpenGLDrv@@YAXPBUdBsp3Fog_t@@HPAUdBsp3Brush_t@@PAUdBsp3Brushside_t@@PAUCPlane@@@Z 004561d0 f   gl_bspmodel.obj
 0001:0005225b       ?Modellist_f@OpenGLDrv@@YAX_NHPAPAD@Z 0045325b f   gl_model.obj
 0001:00051dae       _$E10                      00452dae f   gl_text.obj
 0001:00051db8       _$E7                       00452db8 f   gl_text.obj
 0001:00051dc2       _$E9                       00452dc2 f   gl_text.obj
 0001:00051dce       _$E8                       00452dce f   gl_text.obj
 0001:00051e2a       ?DrawText@OpenGLDrv@@YAXPBUCRText@1@@Z 00452e2a f   gl_text.obj
 0001:00050d24       ?AddSkyTris@OpenGLDrv@@YAXPBUCVec3@@HHPBHHE@Z 00451d24 f   gl_sky.obj
 0001:000510dc       ?ClipSkyPolygon@OpenGLDrv@@YAXPAUCVec3@@HH@Z 004520dc f   gl_sky.obj
 0001:0005149b       ?DrawSkyDebug@OpenGLDrv@@YAXPBUCVec3@@HHPBHHAATcolor_t@@@Z 0045249b f   gl_sky.obj
 0001:000518ac       ?SkyVisible@OpenGLDrv@@YA_NXZ 004528ac f   gl_sky.obj
 0001:000518c5       ?TesselateSkySide@OpenGLDrv@@YAXHPAUbufVertex_t@1@PAUbufTexCoordSrc_t@1@@Z 004528c5 f   gl_sky.obj
 0001:00051b0e       ?AddSkyVec@OpenGLDrv@@YAHMMHAAPAUbufVertex_t@1@AAPAUbufTexCoordSrc_t@1@@Z 00452b0e f   gl_sky.obj
 0001:0004dcfc       ?Shaderlist_f@OpenGLDrv@@YAX_NHPAPAD@Z 0044ecfc f   gl_shader.obj
 0001:0004de94       _$E8                       0044ee94 f   gl_shader.obj
 0001:0004de99       _$E7                       0044ee99 f   gl_shader.obj
 0001:0004e08d       ?ComputeHash@OpenGLDrv@@YAHPBD@Z 0044f08d f   gl_shader.obj
 0001:0004e0ad       ?ResortShader@OpenGLDrv@@YAXPAVshader_t@1@H@Z 0044f0ad f   gl_shader.obj
 0001:0004e173       ?CreateShader@OpenGLDrv@@YAPAVshader_t@1@XZ 0044f173 f   gl_shader.obj
 0001:0004e468       ?ExtractShader@OpenGLDrv@@YAXPAVshader_t@1@@Z 0044f468 f   gl_shader.obj
 0001:0004e4ec       ?ClearTempShader@OpenGLDrv@@YAXXZ 0044f4ec f   gl_shader.obj
 0001:0004e722       ?FinishShader@OpenGLDrv@@YAPAVshader_t@1@XZ 0044f722 f   gl_shader.obj
 0001:0004f296       ?NewTcModStage@OpenGLDrv@@YAPAUtcModParms_t@1@PAUshaderStage_t@1@@Z 00450296 f   gl_shader.obj
 0001:0004f2d4       ?SetShaderSkyBox@OpenGLDrv@@YAXPBD@Z 004502d4 f   gl_shader.obj
 0001:0004f376       _$E15                      00450376 f   gl_shader.obj
 0001:0004f37b       _$E14                      0045037b f   gl_shader.obj
 0001:0004f383       ?FindShaderScripts@OpenGLDrv@@YAXXZ 00450383 f   gl_shader.obj
 0001:0004f681       ?FreeShaderScripts@OpenGLDrv@@YAXXZ 00450681 f   gl_shader.obj
 0001:0004f699       ?Shader_cull@OpenGLDrv@@YAXHPAPAD@Z 00450699 f   gl_shader.obj
 0001:0004f73d       ?Shader_polygonOffset@OpenGLDrv@@YAXHPAPAD@Z 0045073d f   gl_shader.obj
 0001:0004f745       ?Shader_force32bit@OpenGLDrv@@YAXHPAPAD@Z 00450745 f   gl_shader.obj
 0001:0004f74d       ?Shader_nomipmaps@OpenGLDrv@@YAXHPAPAD@Z 0045074d f   gl_shader.obj
 0001:0004f755       ?Shader_nopicmip@OpenGLDrv@@YAXHPAPAD@Z 00450755 f   gl_shader.obj
 0001:0004f75d       ?Shader_sort@OpenGLDrv@@YAXHPAPAD@Z 0045075d f   gl_shader.obj
 0001:0004f7ab       ?Shader_deformVertexes@OpenGLDrv@@YAXHPAPAD@Z 004507ab f   gl_shader.obj
 0001:0004f8ea       ?GetWave@OpenGLDrv@@YAXHPAPADHAAUwaveParams_t@1@@Z 004508ea f   gl_shader.obj
 0001:0004f9c1       ?GetWave0@OpenGLDrv@@YAXHPAPADHAAUwaveParams_t@1@@Z 004509c1 f   gl_shader.obj
 0001:0004fa1f       ?Shader_surfaceparm@OpenGLDrv@@YAXHPAPAD@Z 00450a1f f   gl_shader.obj
 0001:0004fa42       ?Shader_tessSize@OpenGLDrv@@YAXHPAPAD@Z 00450a42 f   gl_shader.obj
 0001:0004fa5a       ?Shader_fogParms@OpenGLDrv@@YAXHPAPAD@Z 00450a5a f   gl_shader.obj
 0001:0004faa0       ?GetColor@OpenGLDrv@@YAIHPAPADH_N@Z 00450aa0 f   gl_shader.obj
 0001:0004fb76       ?Shader_skyParms@OpenGLDrv@@YAXHPAPAD@Z 00450b76 f   gl_shader.obj
 0001:0004fbef       ?Shader_q3map_surfacelight@OpenGLDrv@@YAXHPAPAD@Z 00450bef f   gl_shader.obj
 0001:0004fc07       ?Shader_q3map_lightimage@OpenGLDrv@@YAXHPAPAD@Z 00450c07 f   gl_shader.obj
 0001:0004fc1b       ?SetShaderColorTex@OpenGLDrv@@YAXPBD_N@Z 00450c1b f   gl_shader.obj
 0001:0004fc78       ?Shader_qer_editorimage@OpenGLDrv@@YAXHPAPAD@Z 00450c78 f   gl_shader.obj
 0001:0004fc8c       ?Shader_q3map_sun@OpenGLDrv@@YAXHPAPAD@Z 00450c8c f   gl_shader.obj
 0001:0004fd91       ?Stage_map@OpenGLDrv@@YAXHPAPAD@Z 00450d91 f   gl_shader.obj
 0001:0004fe79       ?ShaderImage@OpenGLDrv@@YAPAVimage_t@1@PBDI@Z 00450e79 f   gl_shader.obj
 0001:0004fee7       ?Stage_clampMap@OpenGLDrv@@YAXHPAPAD@Z 00450ee7 f   gl_shader.obj
 0001:0004ff78       ?Stage_animMap@OpenGLDrv@@YAXHPAPAD@Z 00450f78 f   gl_shader.obj
 0001:0004ff91       ?DoAnimMap@OpenGLDrv@@YAXHPAPADI@Z 00450f91 f   gl_shader.obj
 0001:00050075       ?Stage_animClampMap@OpenGLDrv@@YAXHPAPAD@Z 00451075 f   gl_shader.obj
 0001:00050090       ?Stage_alphaFunc@OpenGLDrv@@YAXHPAPAD@Z 00451090 f   gl_shader.obj
 0001:00050111       ?Stage_blendfunc@OpenGLDrv@@YAXHPAPAD@Z 00451111 f   gl_shader.obj
 0001:000501fc       ?Stage_depthfunc@OpenGLDrv@@YAXHPAPAD@Z 004511fc f   gl_shader.obj
 0001:00050261       ?Stage_depthwrite@OpenGLDrv@@YAXHPAPAD@Z 00451261 f   gl_shader.obj
 0001:00050277       ?Stage_nodepthtest@OpenGLDrv@@YAXHPAPAD@Z 00451277 f   gl_shader.obj
 0001:0005028d       ?Stage_rgbGen@OpenGLDrv@@YAXHPAPAD@Z 0045128d f   gl_shader.obj
 0001:0005037e       ?Stage_alphaGen@OpenGLDrv@@YAXHPAPAD@Z 0045137e f   gl_shader.obj
 0001:00050475       ?Stage_tcGen@OpenGLDrv@@YAXHPAPAD@Z 00451475 f   gl_shader.obj
 0001:00050516       ?GetVec@OpenGLDrv@@YAXHPAPADHAAUCVec3@@@Z 00451516 f   gl_shader.obj
 0001:00050584       ?Stage_tcMod@OpenGLDrv@@YAXHPAPAD@Z 00451584 f   gl_shader.obj
 0001:000506c3       ?InitShaderFromScript@OpenGLDrv@@YA_NPBD0@Z 004516c3 f   gl_shader.obj
 0001:0004d8de       ?SubdividePoly@OpenGLDrv@@YAXPAUpoly_t@1@00HMM@Z 0044e8de f   gl_poly.obj
 0001:0004daf1       ?NewVert@OpenGLDrv@@YAHABUCVec3@@@Z 0044eaf1 f   gl_poly.obj
 0001:0004ba76       ?RegisterCvars@OpenGLDrv@@YAXXZ 0044ca76 f   gl_main.obj
 0001:0004ba97       ?cGfxinfo@OpenGLDrv@@YAX_NHPAPAD@Z 0044ca97 f   gl_main.obj
 0001:0004bd05       ?SetMode@OpenGLDrv@@YA_NXZ 0044cd05 f   gl_main.obj
 0001:0004c57c       ?SetWorldModelview@OpenGLDrv@@YAXXZ 0044d57c f   gl_main.obj
 0001:0004c68b       ?SetFrustum@OpenGLDrv@@YAXXZ 0044d68b f   gl_main.obj
 0001:0004c817       ?SetPerspective@OpenGLDrv@@YAXXZ 0044d817 f   gl_main.obj
 0001:0004a6e6       ?CopyLightmap@OpenGLDrv@@YAXPAE0HHHE@Z 0044b6e6 f   gl_lightmap.obj
 0001:0004a96c       ?CreateSolarColor@OpenGLDrv@@YAXMMMPAM@Z 0044b96c f   gl_lightmap.obj
 0001:0004ac71       ?CopyLightmap1@OpenGLDrv@@YAXPAE0HHHE@Z 0044bc71 f   gl_lightmap.obj
 0001:00048dc8       ?AddLight@OpenGLDrv@@YAXABUCAxis@@ABUCVec3@@M1@Z 00449dc8 f   gl_light.obj
 0001:00048edb       ?LightLine@OpenGLDrv@@YAXABUCAxis@@ABUCVec3@@11M@Z 00449edb f   gl_light.obj
 0001:000497fd       ?GatherWorldLight@OpenGLDrv@@YAXPAUrefEntity_t@1@@Z 0044a7fd f   gl_light.obj
 0001:00049c25       ?AddLightsChain@OpenGLDrv@@YAXPBVCLight@1@ABUCVec3@@ABUCAxis@@PBE@Z 0044ac25 f   gl_light.obj
 0001:00049c6b       ?GetCellLight@OpenGLDrv@@YA_NPBUCVec3@@PAHPAUrefEntity_t@1@@Z 0044ac6b f   gl_light.obj
 0001:00049e92       ?GatherDlights@OpenGLDrv@@YAXPAUrefEntity_t@1@@Z 0044ae92 f   gl_light.obj
 0001:0004a330       ?GetSurfLightCluster@OpenGLDrv@@YAXXZ 0044b330 f   gl_light.obj
 0001:00045441       ?ComputeHash@OpenGLDrv@@YAHPBD@Z 00446441 f   gl_image.obj
 0001:00045466       ?ComputeImageColor@OpenGLDrv@@YAXPAXHHPATcolor_t@@@Z 00446466 f   gl_image.obj
 0001:000454d5       ?Upload@OpenGLDrv@@YAXPAXIPAVimage_t@1@@Z 004464d5 f   gl_image.obj
 0001:0004583d       ?ResampleTexture@OpenGLDrv@@YAXPAIHH0HH@Z 0044683d f   gl_image.obj
 0001:00045aad       ?LightScaleTexture@OpenGLDrv@@YAXPAIHH@Z 00446aad f   gl_image.obj
 0001:00045c66       ?LightScaleLightmap@OpenGLDrv@@YAXPAIHH@Z 00446c66 f   gl_image.obj
 0001:00045d46       ?MipMap@OpenGLDrv@@YAXPAEHH@Z 00446d46 f   gl_image.obj
 0001:00045e7a       ?GetImageDimensions@OpenGLDrv@@YAXHHPAH0_N@Z 00446e7a f   gl_image.obj
 0001:00045f60       ?Convert8to32bit@OpenGLDrv@@YAPAEPAEHHPBI@Z 00446f60 f   gl_image.obj
 0001:00046d94       ?GetPalette@OpenGLDrv@@YAXXZ 00447d94 f   gl_image.obj
 0001:00046e12       ?Imagelist_f@OpenGLDrv@@YAX_NHPAPAD@Z 00447e12 f   gl_image.obj
 0001:00046fe4       ?ImageReload_f@OpenGLDrv@@YAX_NHPAPAD@Z 00447fe4 f   gl_image.obj
 0001:000475e3       ?LoadImage@OpenGLDrv@@YAPAEPADAAH1@Z 004485e3 f   gl_image.obj
 0001:00041ca5       ?AddBspSurfaces@OpenGLDrv@@YAXPAPAVsurfaceBase_t@1@HHPAUrefEntity_t@1@@Z 00442ca5 f   gl_frontend.obj
 0001:00042151       ?Cull@OpenGLDrv@@YAHAAUCBox@@H@Z 00443151 f   gl_frontend.obj
 0001:000421ac       ?TransformedCull@OpenGLDrv@@YAHAAUCBox@@PAUrefEntity_t@1@@Z 004431ac f   gl_frontend.obj
 0001:000422a0       ?SphereCull@OpenGLDrv@@YAHABUCVec3@@MPAE@Z 004432a0 f   gl_frontend.obj
 0001:00042354       ?SphereLeaf@OpenGLDrv@@YAPAUCBspLeaf@@ABUCVec3@@M@Z 00443354 f   gl_frontend.obj
 0001:0004271a       ?AddSurface@OpenGLDrv@@YAXPAVsurfaceBase_t@1@PAVshader_t@1@PAUrefEntity_t@1@H@Z 0044371a f   gl_frontend.obj
 0001:000429ce       ?AlphaSphereLeaf@OpenGLDrv@@YAPAUCBspLeaf@@ABUCVec3@@M@Z 004439ce f   gl_frontend.obj
 0001:00042f8a       ?SetupModelMatrix@OpenGLDrv@@YAXPAUrefEntity_t@1@@Z 00443f8a f   gl_frontend.obj
 0001:00043052       ?WalkBspTree@OpenGLDrv@@YAPBUCBspLeaf@@XZ 00444052 f   gl_frontend.obj
 0001:000433d5       ?DrawEntities@OpenGLDrv@@YAXHH@Z 004443d5 f   gl_frontend.obj
 0001:00043657       ?BoxOccluded@OpenGLDrv@@YA_NPBUrefEntity_t@1@ABUCVec3@@@Z 00444657 f   gl_frontend.obj
 0001:00043847       ?DrawParticles@OpenGLDrv@@YAXXZ 00444847 f   gl_frontend.obj
 0001:000438fa       ?CutCylinder@OpenGLDrv@@YA_NAAUCVec3@@0M@Z 004448fa f   gl_frontend.obj
 0001:00043a1b       ?BeamLeaf@OpenGLDrv@@YAPAUCBspLeaf@@ABUCVec3@@0@Z 00444a1b f   gl_frontend.obj
 0001:00043ba3       ?DrawFlares@OpenGLDrv@@YAXXZ 00444ba3 f   gl_frontend.obj
 0001:000441f7       ?PointCull@OpenGLDrv@@YAHABUCVec3@@H@Z 004451f7 f   gl_frontend.obj
 0001:00044256       ?ClipTraceToEntities@OpenGLDrv@@YAXAAUtrace_t@@ABUCVec3@@1H@Z 00445256 f   gl_frontend.obj
 0001:0004440e       ?DrawBspSequence@OpenGLDrv@@YAXPBUCBspLeaf@@@Z 0044540e f   gl_frontend.obj
 0001:00044567       ?AddBeamSurfaces@OpenGLDrv@@YAXPBUbeam_t@@@Z 00445567 f   gl_frontend.obj
 0001:00044861       ?AddCylinderSurfaces@OpenGLDrv@@YAXPBUbeam_t@@@Z 00445861 f   gl_frontend.obj
 0001:00044cbe       ?AddStarBeam@OpenGLDrv@@YAXPBUbeam_t@@@Z 00445cbe f   gl_frontend.obj
 0001:00044ef3       ?MarkLeaves@OpenGLDrv@@YAXXZ 00445ef3 f   gl_frontend.obj
 0001:0004188c       ?Fontlist_f@OpenGLDrv@@YAX_NHPAPAD@Z 0044288c f   gl_font.obj
 0001:00041952       ?cBitmap@OpenGLDrv@@YAXHPAPAD@Z 00442952 f   gl_font.obj
 0001:0004197f       ?cFirstChar@OpenGLDrv@@YAXHPAPAD@Z 0044297f f   gl_font.obj
 0001:0004199a       ?cCharSize@OpenGLDrv@@YAXHPAPAD@Z 0044299a f   gl_font.obj
 0001:0003db4b       ?ProcessShaderDeforms@OpenGLDrv@@YAXPAVshader_t@1@@Z 0043eb4b f   gl_backend.obj
 0001:0003ddcf       ?DeformAutosprite@OpenGLDrv@@YAXPAUbufVertex_t@1@@Z 0043edcf f   gl_backend.obj
 0001:0003e0ca       ?DeformAutosprite2@OpenGLDrv@@YAXPAUbufVertex_t@1@@Z 0043f0ca f   gl_backend.obj
 0001:0003e3f0       ?GenerateColorArray@OpenGLDrv@@YAXPAUshaderStage_t@1@@Z 0043f3f0 f   gl_backend.obj
 0001:0003ebde       ?GenerateTexCoordArray@OpenGLDrv@@YAXPAUshaderStage_t@1@HPBVimage_t@1@@Z 0043fbde f   gl_backend.obj
 0001:0003fa9a       ?ReserveVerts@OpenGLDrv@@YAXHH@Z 00440a9a f   gl_backend.obj
 0001:0004009e       ?DrawTriangles@OpenGLDrv@@YA_NXZ 0044109e f   gl_backend.obj
 0001:00040158       ?FlashColor@OpenGLDrv@@YAXXZ 00441158 f   gl_backend.obj
 0001:000401cf       ?DrawNormals@OpenGLDrv@@YA_NXZ 004411cf f   gl_backend.obj
 0001:00040a5f       ?SetCurrentShader@OpenGLDrv@@YAXPAVshader_t@1@@Z 00441a5f f   gl_backend.obj
 0001:00040acf       ?CheckDynamicLightmap@OpenGLDrv@@YAXPAVsurfacePlanar_t@1@@Z 00441acf f   gl_backend.obj
 0001:00040bb6       ?DrawBBoxes@OpenGLDrv@@YAXXZ 00441bb6 f   gl_backend.obj
 0001:00040d7b       ?DrawBrushes@OpenGLDrv@@YAXXZ 00441d7b f   gl_backend.obj
 0001:0003bb3e       ?MainWndProc@@YGJPAUHWND__@@IIJ@Z 0043cb3e f   vid_dll.obj
 0001:0003bec1       ?MapKey@@YAHH_N@Z          0043cec1 f   vid_dll.obj
 0001:0003bf85       ?AppActivate@@YAX_N0@Z     0043cf85 f   vid_dll.obj
 0001:0003bff3       ?DisableAltTab@@YAX_N@Z    0043cff3 f   vid_dll.obj
 0001:0003c03f       ?SetHighPriority@@YAX_N@Z  0043d03f f   vid_dll.obj
 0001:0003c18c       ?Vid_UpdateWindowPosAndSize@@YAXHH@Z 0043d18c f   vid_dll.obj
 0001:0003c1f4       ?LoadRenderer@@YA_NXZ      0043d1f4 f   vid_dll.obj
 0001:0003c28c       ?FreeRenderer@@YAXXZ       0043d28c f   vid_dll.obj
 0001:0003b083       _$E10                      0043c083 f   sys_win.obj
 0001:0003b08d       _$E7                       0043c08d f   sys_win.obj
 0001:0003b18d       _$E9                       0043c18d f   sys_win.obj
 0001:0003b199       _$E8                       0043c199 f   sys_win.obj
 0001:0003b845       ?ScanForCD@@YAPADXZ        0043c845 f   sys_win.obj
 0001:0003a8ed       ?SNDDMA_InitDirect@@YA_NXZ 0043b8ed f   snd_win.obj
 0001:0003aa36       ?DS_CreateBuffers@@YA_NXZ  0043ba36 f   snd_win.obj
 0001:0003adb0       ?FreeSound@@YAXXZ          0043bdb0 f   snd_win.obj
 0001:0003ae28       ?DS_DestroyBuffers@@YAXXZ  0043be28 f   snd_win.obj
 0001:0003afe4       ?DSoundError@@YAPBDH@Z     0043bfe4 f   snd_win.obj
 0001:0003a27a       ?SockadrToNetadr@@YAXPAUsockaddr@@PAUnetadr_t@@@Z 0043b27a f   net_wins.obj
 0001:0003a299       ?StringToSockaddr@@YA_NPBDPAUsockaddr@@F@Z 0043b299 f   net_wins.obj
 0001:0003a400       ?GetErrorString@@YAPBDH@Z  0043b400 f   net_wins.obj
 0001:0003a43e       ?GetLoopPacket@@YA_NW4netsrc_t@@PAUnetadr_t@@PAVsizebuf_t@@@Z 0043b43e f   net_wins.obj
 0001:0003a55f       ?NetadrToSockadr@@YAXPAUnetadr_t@@PAUsockaddr@@@Z 0043b55f f   net_wins.obj
 0001:0003a591       ?SendLoopPacket@@YAXW4netsrc_t@@HPAXAAUnetadr_t@@@Z 0043b591 f   net_wins.obj
 0001:0003a65b       ?IPSocket@@YAHPBDH@Z       0043b65b f   net_wins.obj
 0001:00039482       ?StartupMouse@@YAXXZ       0043a482 f   in_win.obj
 0001:000394b9       ?DisableAccessibility@@YAXXZ 0043a4b9 f   in_win.obj
 0001:000395fc       ?StartupJoystick@@YAXXZ    0043a5fc f   in_win.obj
 0001:000396ff       ?DeactivateMouse@@YAX_N@Z  0043a6ff f   in_win.obj
 0001:00039743       ?DXMouse_Free@@YAXXZ       0043a743 f   in_win.obj
 0001:000397ac       ?WinMouse_Free@@YAXXZ      0043a7ac f   in_win.obj
 0001:0003980b       ?MouseMsgHook@@YA_NIIJ@Z   0043a80b f   in_win.obj
 0001:0003989f       ?MouseEvent@@YAXI@Z        0043a89f f   in_win.obj
 0001:000398e2       ?RestoreAccessibility@@YAXXZ 0043a8e2 f   in_win.obj
 0001:00039a1f       ?ActivateMouse@@YAXXZ      0043aa1f f   in_win.obj
 0001:00039a97       ?DXMouse_Init@@YA_NXZ      0043aa97 f   in_win.obj
 0001:00039bd6       ?WinMouse_Init@@YAXXZ      0043abd6 f   in_win.obj
 0001:00039ce2       ?MouseMove@@YAXPAUusercmd_t@@@Z 0043ace2 f   in_win.obj
 0001:00039e10       ?DXMouse_Frame@@YAXAAH0@Z  0043ae10 f   in_win.obj
 0001:00039ef6       ?JoyMove@@YAXPAUusercmd_t@@@Z 0043aef6 f   in_win.obj
 0001:00038ccc       ?CDAudio_Play2@@YAXH_N@Z   00439ccc f   cd_win.obj
 0001:00038dfd       ?mciStatus@@YA_NKAAUtagMCI_STATUS_PARMS@@@Z 00439dfd f   cd_win.obj
 0001:00038e30       ?CDAudio_GetAudioDiskInfo@@YA_NXZ 00439e30 f   cd_win.obj
 0001:00038eda       ?mciCommand@@YAXKKPBD@Z    00439eda f   cd_win.obj
 0001:00038f0e       ?CDAudio_Pause@@YAXXZ      00439f0e f   cd_win.obj
 0001:00038f9b       ?CDAudio_Resume@@YAXXZ     00439f9b f   cd_win.obj
 0001:000390f9       ?CD_f@@YAXHPAPAD@Z         0043a0f9 f   cd_win.obj
 0001:00039386       ?CDAudio_MsgHook@@YA_NIIJ@Z 0043a386 f   cd_win.obj
 0001:00037631       _$E10                      00438631 f   QuakeFileSystem.obj
 0001:0003763b       _$E7                       0043863b f   QuakeFileSystem.obj
 0001:0003785e       _$E9                       0043885e f   QuakeFileSystem.obj
 0001:0003786a       _$E8                       0043886a f   QuakeFileSystem.obj
 0001:00038ad8       ?LoadGameConfig@@YAXXZ     00439ad8 f   QuakeFileSystem.obj
 0001:00035ca4       ?StepSlideMove@@YAXXZ      00436ca4 f   pmove.obj
 0001:00035e0a       ?SlideMove@@YA_NXZ         00436e0a f   pmove.obj
 0001:00036128       ?ClipVelocity@@YAXABUCVec3@@0AAU1@M@Z 00437128 f   pmove.obj
 0001:00036192       ?Friction@@YAXXZ           00437192 f   pmove.obj
 0001:000362a6       ?WaterMove@@YAXXZ          004372a6 f   pmove.obj
 0001:00036386       ?Accelerate@@YAXABUCVec3@@MM@Z 00437386 f   pmove.obj
 0001:00036406       ?AddCurrents@@YAXAAUCVec3@@@Z 00437406 f   pmove.obj
 0001:00036734       ?AirMove@@YAXXZ            00437734 f   pmove.obj
 0001:0003697e       ?CatagorizePosition@@YAXXZ 0043797e f   pmove.obj
 0001:00036bba       ?CheckJump@@YAXXZ          00437bba f   pmove.obj
 0001:00036c81       ?CheckSpecialMovement@@YAXXZ 00437c81 f   pmove.obj
 0001:00036e00       ?FlyMove@@YAX_N@Z          00437e00 f   pmove.obj
 0001:0003704e       ?CheckDuck@@YAXXZ          0043804e f   pmove.obj
 0001:00037174       ?DeadMove@@YAXXZ           00438174 f   pmove.obj
 0001:000371db       ?SnapPosition@@YAXXZ       004381db f   pmove.obj
 0001:000373c8       ?InitialSnapPosition@@YAXXZ 004383c8 f   pmove.obj
 0001:000374d1       ?GoodPosition@@YA_NXZ      004384d1 f   pmove.obj
 0001:00037535       ?ClampAngles@@YAXXZ        00438535 f   pmove.obj
 0001:0003477c       ?ProcessQ2BspFile@@YAXPAUbspfile_t@@@Z 0043577c f   model.obj
 0001:0003488b       ?LoadQ2Vis@@YAXPAUbspfile_t@@PAUdBsp2Vis_t@@H@Z 0043588b f   model.obj
 0001:00034963       ?DecompressVis@@YAXPAEPAXHH@Z 00435963 f   model.obj
 0001:000349f0       ?CheckLump@@YAHHPAPAXH@Z   004359f0 f   model.obj
 0001:00034c18       ?ProcessQ1BspFile@@YAXPAUbspfile_t@@@Z 00435c18 f   model.obj
 0001:00034c89       ?LoadQ1Vis@@YAXPAUbspfile_t@@PAEH@Z 00435c89 f   model.obj
 0001:00034f08       ?ProcessQ3BspFile@@YAXPAUbspfile_t@@@Z 00435f08 f   model.obj
 0001:00034f42       ?LoadQ3Vis@@YAXPAUbspfile_t@@PAUdBsp3Vis_t@@H@Z 00435f42 f   model.obj
 0001:00033e8d       ?MD4Transform@@YAXQAIQAE@Z 00434e8d f   md4.obj
 0001:0003448f       ?Encode@@YAXPAEPAII@Z      0043548f f   md4.obj
 0001:000344d4       ?Decode@@YAXPAIPAEI@Z      004354d4 f   md4.obj
 0001:000334d5       ?SplitPoly@@YA_NPAUCBrushVert@@PAUCPlane@@AAPAU1@2@Z 004344d5 f   MapBrush.obj
 0001:000328e9       ?J_InitSource@@YAXPAUjpeg_decompress_struct@@@Z 004338e9 f   images.obj
 0001:000328aa       ?J_FillInputBuffer@@YAEPAUjpeg_decompress_struct@@@Z 004338aa f   images.obj
 0001:000328cf       ?J_SkipInputData@@YAXPAUjpeg_decompress_struct@@J@Z 004338cf f   images.obj
 0001:000328e9       ?J_TermSource@@YAXPAUjpeg_decompress_struct@@@Z 004338e9 f   images.obj
 0001:000328ea       ?InitJpegError@@YAPAUjpeg_error_mgr@@PAU1@@Z 004338ea f   images.obj
 0001:00032917       ?J_ErrorExit@@YAXPAUjpeg_common_struct@@@Z 00433917 f   images.obj
 0001:0003292c       ?J_EmitMessage@@YAXPAUjpeg_common_struct@@H@Z 0043392c f   images.obj
 0001:0003294b       ?J_ResetErrorMgr@@YAXPAUjpeg_common_struct@@@Z 0043394b f   images.obj
 0001:0002f925       ?ReadEntity@@YA_NAAPBD@Z   00430925 f   EntityParser.obj
 0001:0002f9db       ?ErrMsg@@YAXPBD@Z          004309db f   EntityParser.obj
 0001:0002f9f6       ?WriteEntity@@YAXPAPAD@Z   004309f6 f   EntityParser.obj
 0001:0002fa94       ?ProcessEntityTarget@@YAXXZ 00430a94 f   EntityParser.obj
 0001:0002fb42       ?FindField@@YAPAUentField_t@@PBD@Z 00430b42 f   EntityParser.obj
 0001:0002fb81       ?GetVector@@YAXPBDAAUCVec3@@@Z 00430b81 f   EntityParser.obj
 0001:0002fbb4       ?ProcessEntity@@YA_NXZ     00430bb4 f   EntityParser.obj
 0001:0002fe5e       ?LoadLight@@YA_NXZ         00430e5e f   EntityParser.obj
 0001:00030836       ?FindEntityTarget@@YAABUtarget_t@@PBD@Z 00431836 f   EntityParser.obj
 0001:0003088b       ?ProcessEntity1@@YA_NXZ    0043188b f   EntityParser.obj
 0001:00030e7e       ?RemoveField@@YAXPBD@Z     00431e7e f   EntityParser.obj
 0001:00030e93       ?AddField@@YAPAUentField_t@@PBD0@Z 00431e93 f   EntityParser.obj
 0001:00030ed4       ?RememberModelLink@@YAXABUCVec3@@@Z 00431ed4 f   EntityParser.obj
 0001:00030f14       ?ProcessEntity3@@YA_NXZ    00431f14 f   EntityParser.obj
 0001:000315ee       ?ProcessEntityHL@@YA_NXZ   004325ee f   EntityParser.obj
 0001:00031d1f       ?ProcessEntityKP@@YA_NXZ   00432d1f f   EntityParser.obj
 0001:00031e14       ?ParseWorldSpawn@@YAXXZ    00432e14 f   EntityParser.obj
 0001:000321ed       ?ParseSurfparam@@YAXXZ     004331ed f   EntityParser.obj
 0001:0002e979       _$E8                       0042f979 f   entdelta.obj
 0001:0002e97e       _$E7                       0042f97e f   entdelta.obj
 0001:0002ec48       ?ParseDelta@@YAIPBXPAXPBUdeltaInfo_t@@HIPAVsizebuf_t@@3@Z 0042fc48 f   entdelta.obj
 0001:0002f2e0       _$E11                      004302e0 f   entdelta.obj
 0001:0002f2e5       _$E10                      004302e5 f   entdelta.obj
 0001:0002da29       ?Cvar_FindVar@@YAPAUcvar_t@@PBD@Z 0042ea29 f   cvar.obj
 0001:0002da60       ?ComputeHash@@YAHPBD@Z     0042ea60 f   cvar.obj
 0001:0002dc9b       ?Cvar_SetString@@YAXPAUcvar_t@@PBD@Z 0042ec9b f   cvar.obj
 0001:0002dd49       ?Cvar_InfoValidate@@YA_NPBD@Z 0042ed49 f   cvar.obj
 0001:0002deb7       ?Cvar_Set2@@YAPAUcvar_t@@PBD0H_N@Z 0042eeb7 f   cvar.obj
 0001:0002e2ba       ?Cvar_Init@@YAXXZ          0042f2ba f   cvar.obj
 0001:0002e377       ?Cvar_Set_f@@YAX_NHPAPAD@Z 0042f377 f   cvar.obj
 0001:0002e3fd       ?Cvar_SetWithFlags@@YAXPBD0II@Z 0042f3fd f   cvar.obj
 0001:0002e440       ?Cvar_Seta_f@@YAX_NHPAPAD@Z 0042f440 f   cvar.obj
 0001:0002e473       ?Cvar_Setu_f@@YAX_NHPAPAD@Z 0042f473 f   cvar.obj
 0001:0002e4a6       ?Cvar_Sets_f@@YAX_NHPAPAD@Z 0042f4a6 f   cvar.obj
 0001:0002e4d9       ?Cvar_Reset_f@@YAX_NHPAPAD@Z 0042f4d9 f   cvar.obj
 0001:0002e540       ?Cvar_List_f@@YAX_NHPAPAD@Z 0042f540 f   cvar.obj
 0001:0002e65d       ?Cvar_Add_f@@YAX_NHPAPAD@Z 0042f65d f   cvar.obj
 0001:0002e7c9       ?Cvar_Scale_f@@YAX_NHPAPAD@Z 0042f7c9 f   cvar.obj
 0001:0002e83c       ?Cvar_Toggle_f@@YAX_NHPAPAD@Z 0042f83c f   cvar.obj
 0001:0002e897       ?Cvar_Cycle_f@@YAX_NHPAPAD@Z 0042f897 f   cvar.obj
 0001:0002d9ce       ?CRC_Block@@YAGPAEH@Z      0042e9ce f   crc.obj
 0001:0002cc0f       ?GetInt@@YAIPAPBD@Z        0042dc0f f   common.obj
 0001:0002cdaa       ?Info_RemoveKey@@YAXPADPBD@Z 0042ddaa f   common.obj
 0001:0002d09d       ?SkipWhitespace@@YAPBDPBDPA_N@Z 0042e09d f   common.obj
 0001:0002d2bb       ?ParseCmdline@@YAXPBD@Z    0042e2bb f   common.obj
 0001:0002d517       ?PushCmdline@@YAXXZ        0042e517 f   common.obj
 0001:00028d7e       _$E9                       00429d7e f   cmodel.obj
 0001:00028d83       _$E8                       00429d83 f   cmodel.obj
 0001:00028f73       ?LoadQ2Map@@YAXPAUbspfile_t@@@Z 00429f73 f   cmodel.obj
 0001:00029027       ?LoadSurfaces2@@YAXPAUdBsp2Texinfo_t@@H@Z 0042a027 f   cmodel.obj
 0001:0002911e       ?ReadSurfMaterials@@YAXPBD@Z 0042a11e f   cmodel.obj
 0001:00029294       ?GetSurfMaterial@@YAHPBD@Z 0042a294 f   cmodel.obj
 0001:000292f4       ?LoadBrushes2@@YAXPAUdBsp2Brush_t@@HPAUdBsp2Brushside_t@@H@Z 0042a2f4 f   cmodel.obj
 0001:000293ce       ?LoadLeafs2@@YAXPAUdBsp2Leaf_t@@H@Z 0042a3ce f   cmodel.obj
 0001:00029494       ?LoadPlanes2@@YAXPAUdBsp2Plane_t@@H@Z 0042a494 f   cmodel.obj
 0001:000294ca       ?LoadZones@@YAXPAUdZone_t@@H@Z 0042a4ca f   cmodel.obj
 0001:00029517       ?LoadQ1Map@@YAXPAUbspfile_t@@@Z 0042a517 f   cmodel.obj
 0001:000295b6       ?LoadSurfaces1@@YAXPAUdBsp1Texinfo_t@@H@Z 0042a5b6 f   cmodel.obj
 0001:00029827       ?LoadFaces1@@YAXPAUdBspFace_t@@H@Z 0042a827 f   cmodel.obj
 0001:0002997f       ?LoadLeafs1@@YAXPAUdBsp1Leaf_t@@H@Z 0042a97f f   cmodel.obj
 0001:00029b58       ?BuildBrushes1@@YAXH@Z     0042ab58 f   cmodel.obj
 0001:0002a05f       ?GetHugeBrush@@YAPAUCBrush@@XZ 0042b05f f   cmodel.obj
 0001:0002a082       ?FindPlane@@YAPAUCPlane@@ABUCVec3@@M@Z 0042b082 f   cmodel.obj
 0001:0002a0d7       ?FindBackplane@@YAPAUCPlane@@PAU1@@Z 0042b0d7 f   cmodel.obj
 0001:0002a156       ?ProcessModels1@@YAXXZ     0042b156 f   cmodel.obj
 0001:0002a195       ?SetNodeContents@@YAXPAUCBspNode@@I@Z 0042b195 f   cmodel.obj
 0001:0002a1db       ?LoadQ3Map@@YAXPAUbspfile_t@@@Z 0042b1db f   cmodel.obj
 0001:0002a28f       ?LoadBrushes3@@YAXPAUdBsp3Brush_t@@HPAUdBsp3Brushside_t@@H@Z 0042b28f f   cmodel.obj
 0001:0002a381       ?Q3Contents@@YAIII@Z       0042b381 f   cmodel.obj
 0001:0002a3c9       ?LoadLeafs3@@YAXPAUdBsp3Leaf_t@@H@Z 0042b3c9 f   cmodel.obj
 0001:0002a474       ?ComputeLeafContents3@@YAXXZ 0042b474 f   cmodel.obj
 0001:0002a4da       ?LoadSubmodels3@@YAXPAUdBsp3Model_t@@H@Z 0042b4da f   cmodel.obj
 0001:0002a5ee       ?LoadPlanes3@@YAXPAUdBsp3Plane_t@@H@Z 0042b5ee f   cmodel.obj
 0001:0002a650       ?LoadSurfaces3@@YAXPAUdBsp3Shader_t@@H@Z 0042b650 f   cmodel.obj
 0001:0002a6e8       ?Q3Surface@@YAII@Z         0042b6e8 f   cmodel.obj
 0001:0002a700       ?Q3Material@@YAII@Z        0042b700 f   cmodel.obj
 0001:0002a836       ?InitBoxHull@@YAXXZ        0042b836 f   cmodel.obj
 0001:0002b11c       ?TestLeaf@@YAXABUCBspLeaf@@@Z 0042c11c f   cmodel.obj
 0001:0002b179       ?TestBrush@@YA_NABUcbrush_t@@@Z 0042c179 f   cmodel.obj
 0001:0002b277       ?SetTraceFace1@@YAXXZ      0042c277 f   cmodel.obj
 0001:0002b36b       ?RecursiveHullCheck@@YAXPBUCBspNode@@MMABUCVec3@@1@Z 0042c36b f   cmodel.obj
 0001:0002b649       ?TraceLeaf@@YAXABUCBspLeaf@@@Z 0042c649 f   cmodel.obj
 0001:0002b6be       ?TraceBrush@@YA_NABUcbrush_t@@@Z 0042c6be f   cmodel.obj
 0001:0002b861       ?FindSurface1@@YAXABUCBspLeaf@@MM@Z 0042c861 f   cmodel.obj
 0001:0002be6f       ?RecursiveBrushTest@@YAXABUCVec3@@0PBUCBspNode@@@Z 0042ce6f f   cmodel.obj
 0001:0002c04c       ?TestBrush@@YA_NABUCVec3@@0ABUcbrush_t@@@Z 0042d04c f   cmodel.obj
 0001:0002c220       ?FloodZoneConnections@@YAXXZ 0042d220 f   cmodel.obj
 0001:0002c265       ?FloodZone_r@@YAXPAUczone_t@@H@Z 0042d265 f   cmodel.obj
 0001:0002c62a       ?SetChild@@YAXPAUCBspNode@@HH@Z 0042d62a f   cmodel.obj
 0001:00028055       _$E8                       00429055 f   cmd.obj
 0001:0002805a       _$E7                       0042905a f   cmd.obj
 0001:00028062       _$E11                      00429062 f   cmd.obj
 0001:00028067       _$E10                      00429067 f   cmd.obj
 0001:00028146       ?Cbuf_InsertText@@YAXPBD@Z 00429146 f   cmd.obj
 0001:000286cf       ?MacroExpandString@@YAPADPBD@Z 004296cf f   cmd.obj
 0001:0002889c       ?TokenizeString@@YAXPBD@Z  0042989c f   cmd.obj
 0001:00028a21       ?Cmd_Init@@YAXXZ           00429a21 f   cmd.obj
 0001:00028ab8       ?Cmd_Wait_f@@YAX_NHPAPAD@Z 00429ab8 f   cmd.obj
 0001:00028afa       ?Cmd_Exec_f@@YAX_NHPAPAD@Z 00429afa f   cmd.obj
 0001:00028b5e       ?Cmd_Echo_f@@YAXHPAPAD@Z   00429b5e f   cmd.obj
 0001:00028b97       ?Cmd_Alias_f@@YAX_NHPAPAD@Z 00429b97 f   cmd.obj
 0001:00028cc1       ?Cmd_List_f@@YAX_NHPAPAD@Z 00429cc1 f   cmd.obj
 0001:0002700c       ?SV_CreateAreaNode@@YAPAUareanode_t@@HABUCBox@@@Z 0042800c f   sv_world.obj
 0001:00027107       ?ClearLink@@YAXAAUlink_t@@@Z 00428107 f   sv_world.obj
 0001:000271c3       ?RemoveLink@@YAXAAUlink_t@@@Z 004281c3 f   sv_world.obj
 0001:000278d6       ?InsertLinkBefore@@YAXAAUlink_t@@0@Z 004288d6 f   sv_world.obj
 0001:00027983       ?SV_AreaEdicts_r@@YAXPAUareanode_t@@@Z 00428983 f   sv_world.obj
 0001:00027c7d       ?SV_ClipMoveToEntities@@YAXAAUtrace_t@@ABUCVec3@@1ABUCBox@@PAUedict_s@@H@Z 00428c7d f   sv_world.obj
 0001:000261db       ?SV_New_f@@YAXHPAPAD@Z     004271db f   sv_user.obj
 0001:00026391       ?SV_Configstrings_f@@YAXHPAPAD@Z 00427391 f   sv_user.obj
 0001:000264ec       ?SV_Baselines_f@@YAXHPAPAD@Z 004274ec f   sv_user.obj
 0001:000266a1       ?SV_Begin_f@@YAXHPAPAD@Z   004276a1 f   sv_user.obj
 0001:0002676e       ?SV_NextDownload_f@@YAXHPAPAD@Z 0042776e f   sv_user.obj
 0001:00026853       ?SV_BeginDownload_f@@YAXHPAPAD@Z 00427853 f   sv_user.obj
 0001:00026a89       ?SV_Disconnect_f@@YAXHPAPAD@Z 00427a89 f   sv_user.obj
 0001:00026a99       ?SV_ShowServerinfo_f@@YAXHPAPAD@Z 00427a99 f   sv_user.obj
 0001:00026af3       ?SV_Nextserver_f@@YAXHPAPAD@Z 00427af3 f   sv_user.obj
 0001:00026d9b       ?SV_ExecuteUserCommand@@YAXPBD@Z 00427d9b f   sv_user.obj
 0001:00026e75       ?SV_MoveClient@@YAXPAUclient_t@@@Z 00427e75 f   sv_user.obj
 0001:00025ff3       _$E10                      00426ff3 f   sv_text.obj
 0001:00025ffd       _$E7                       00426ffd f   sv_text.obj
 0001:00026007       _$E9                       00427007 f   sv_text.obj
 0001:00026013       _$E8                       00427013 f   sv_text.obj
 0001:0002607b       ?DrawSvText@@YAXPBUCSVText@@@Z 0042707b f   sv_text.obj
 0001:00025fa6       ?RateDrop@@YA_NPAUclient_t@@@Z 00426fa6 f   sv_send.obj
 0001:0002364b       ?cPing@@YAXHPAPAD@Z        0042464b f   sv_main.obj
 0001:0002366c       ?cAck@@YAXHPAPAD@Z         0042466c f   sv_main.obj
 0001:00023685       ?cStatus@@YAXHPAPAD@Z      00424685 f   sv_main.obj
 0001:000236ac       ?SV_StatusString@@YAPBDXZ  004246ac f   sv_main.obj
 0001:000237d9       ?cInfo@@YAXHPAPAD@Z        004247d9 f   sv_main.obj
 0001:000238b3       ?cGetChallenge@@YAXHPAPAD@Z 004248b3 f   sv_main.obj
 0001:0002396a       ?cDirectConnect@@YAXHPAPAD@Z 0042496a f   sv_main.obj
 0001:00023ea2       ?cRemoteCommand@@YAXHPAPAD@Z 00424ea2 f   sv_main.obj
 0001:000243d4       ?SV_ConnectionlessPacket@@YAXXZ 004253d4 f   sv_main.obj
 0001:00024db4       ?FindClient@@YAPAUclient_t@@ABUCVec3@@M@Z 00425db4 f   sv_main.obj
 0001:000252e1       ?SV_PrepWorldFrame@@YAXXZ  004262e1 f   sv_main.obj
 0001:00025307       ?Master_Heartbeat@@YAXXZ   00426307 f   sv_main.obj
 0001:000256cc       ?Master_Shutdown@@YAXXZ    004266cc f   sv_main.obj
 0001:00022b94       ?SV_FindIndex@@YAHPBDHH_N@Z 00423b94 f   sv_init.obj
 0001:0002309a       ?SV_CheckForSavegame@@YAXXZ 0042409a f   sv_init.obj
 0001:00021cc8       ?G_Unicast@@YAXPAUedict_s@@I@Z 00422cc8 f   sv_game.obj
 0001:00021d84       ?G_dprintf@@YAXPBDZZ       00422d84 f   sv_game.obj
 0001:00021dbc       ?G_cprintf@@YAXPAUedict_s@@HPBDZZ 00422dbc f   sv_game.obj
 0001:00021ea9       ?G_centerprintf@@YAXPAUedict_s@@PBDZZ 00422ea9 f   sv_game.obj
 0001:00021f66       ?G_error@@YAXPBDZZ         00422f66 f   sv_game.obj
 0001:00021f9c       ?G_setmodel@@YAXPAUedict_s@@PAD@Z 00422f9c f   sv_game.obj
 0001:0002202d       ?G_Configstring@@YAXHPBD@Z 0042302d f   sv_game.obj
 0001:000220fb       ?G_WriteChar@@YAXH@Z       004230fb f   sv_game.obj
 0001:000220fb       ?G_WriteByte@@YAXH@Z       004230fb f   sv_game.obj
 0001:0002210f       ?G_WriteShort@@YAXH@Z      0042310f f   sv_game.obj
 0001:00022123       ?G_WriteLong@@YAXH@Z       00423123 f   sv_game.obj
 0001:00022137       ?G_WriteFloat@@YAXM@Z      00423137 f   sv_game.obj
 0001:0002214f       ?G_WriteString@@YAXPAD@Z   0042314f f   sv_game.obj
 0001:00022163       ?G_WritePos@@YAXABUCVec3@@@Z 00423163 f   sv_game.obj
 0001:00022177       ?G_WriteAngle@@YAXM@Z      00423177 f   sv_game.obj
 0001:0002218f       ?G_WriteDir@@YAXPBUCVec3@@@Z 0042318f f   sv_game.obj
 0001:000221b7       ?G_inPVS@@YAIABUCVec3@@0@Z 004231b7 f   sv_game.obj
 0001:00022217       ?G_inPHS@@YAIABUCVec3@@0@Z 00423217 f   sv_game.obj
 0001:00022248       ?G_StartSound@@YAXPAUedict_s@@HHMMM@Z 00423248 f   sv_game.obj
 0001:0002227d       ?G_SetZonePortalState@@YAXHI@Z 0042327d f   sv_game.obj
 0001:00022294       ?G_ZonesConnected@@YAIHH@Z 00423294 f   sv_game.obj
 0001:000222a9       ?G_Cvar_Get@@YAPAUcvar_t@@PBDPADH@Z 004232a9 f   sv_game.obj
 0001:00022310       ?PSV_LinkEdict@@YAXPAUedict_s@@@Z 00423310 f   sv_game.obj
 0001:00022334       ?PSV_UnlinkEdict@@YAXPAUedict_s@@@Z 00423334 f   sv_game.obj
 0001:00022358       ?PSV_AreaEdicts@@YAHABUCVec3@@0PAPAUedict_s@@HH@Z 00423358 f   sv_game.obj
 0001:0002238e       ?PSV_Trace@@YAPAUtrace0_t@@AAU1@ABUCVec3@@PBU2@21PAUedict_s@@H@Z 0042338e f   sv_game.obj
 0001:000223ca       ?G_Trace@@YAPAUtrace0_t@@AAU1@ABUCVec3@@PBU2@21PAUedict_s@@H@Z 004233ca f   sv_game.obj
 0001:000223ef       ?PSV_PointContents@@YAHABUCVec3@@@Z 004233ef f   sv_game.obj
 0001:00022417       ?PPmove@@YAXPAUpmove_t@@@Z 00423417 f   sv_game.obj
 0001:0002243b       ?PSV_ModelIndex@@YAHPBD@Z  0042343b f   sv_game.obj
 0001:00022463       ?PSV_ImageIndex@@YAHPBD@Z  00423463 f   sv_game.obj
 0001:0002248b       ?PSV_SoundIndex@@YAHPBD@Z  0042348b f   sv_game.obj
 0001:000224b3       ?PZ_TagMalloc@@YAPAXHH@Z   004234b3 f   sv_game.obj
 0001:000224ec       ?Z_TagMalloc@@YAPAXHH@Z    004234ec f   sv_game.obj
 0001:00022588       ?PZ_Free@@YAXPAX@Z         00423588 f   sv_game.obj
 0001:000225ac       ?Z_Free@@YAXPAX@Z          004235ac f   sv_game.obj
 0001:0002264c       ?PZ_FreeTags@@YAXH@Z       0042364c f   sv_game.obj
 0001:00022670       ?Z_FreeTags@@YAXH@Z        00423670 f   sv_game.obj
 0001:000328e9       ?D_Func0@@YAXXZ            004338e9 f   images.obj
 0001:000328e9       ?D_Func1@@YAXPAD@Z         004338e9 f   images.obj
 0001:000328e9       ?D_Func1A@@YAXPAUedict_s@@@Z 004338e9 f   images.obj
 0001:000328e9       ?D_Func2A@@YAXPADI@Z       004338e9 f   images.obj
 0001:000226ec       ?D_ClientConnect@@YAIPAUedict_s@@PAD@Z 004236ec f   sv_game.obj
 0001:000328e9       ?D_Func2B@@YAXPAUedict_s@@PAD@Z 004338e9 f   images.obj
 0001:000328e9       ?D_Func2C@@YAXPAUedict_s@@PAUusercmd_t@@@Z 004338e9 f   images.obj
 0001:000328e9       ?D_Func3@@YAXPBD00@Z       004338e9 f   images.obj
 0001:00022835       ?GZ_Stats_f@@YAXXZ         00423835 f   sv_game.obj
 0001:0002284f       ?GetGameAPI@@YAPAUgame_export_t@@PAUgame_import_t@@@Z 0042384f f   sv_game.obj
 0001:00022975       ?UnloadGame@@YAXXZ         00423975 f   sv_game.obj
 0001:000229e6       ?cFwdToServer@@YAXPBD@Z    004239e6 f   sv_game.obj
 0001:00022ae3       ?ShutdownGameMemory@@YAXXZ 00423ae3 f   sv_game.obj
 0001:00021468       ?SV_BuildClientFrame@@YAXPAUclient_t@@PBUclient_frame_t@@@Z 00422468 f   sv_ents.obj
 0001:00021849       ?SV_FatPVS@@YAXABUCVec3@@@Z 00422849 f   sv_ents.obj
 0001:0002194e       ?SV_EmitPacketEntities@@YAXPBUclient_frame_t@@0PAVsizebuf_t@@_N@Z 0042294e f   sv_ents.obj
 0001:0001fecf       ?SV_SetMaster_f@@YAXHPAPAD@Z 00420ecf f   sv_ccmds.obj
 0001:0001ffaa       ?SV_Loadgame_f@@YAX_NHPAPAD@Z 00420faa f   sv_ccmds.obj
 0001:0002009d       ?SV_CopySaveGame@@YAXPBD0@Z 0042109d f   sv_ccmds.obj
 0001:000200f2       ?SV_WipeSavegame@@YAXPBD@Z 004210f2 f   sv_ccmds.obj
 0001:00020122       ?SV_ReadServerFile@@YAXXZ  00421122 f   sv_ccmds.obj
 0001:000202b9       ?SV_Savegame_f@@YAX_NHPAPAD@Z 004212b9 f   sv_ccmds.obj
 0001:000203af       ?SV_WriteLevelFile@@YAXXZ  004213af f   sv_ccmds.obj
 0001:000204c1       ?SV_WriteServerFile@@YAX_NPBD@Z 004214c1 f   sv_ccmds.obj
 0001:0002072d       ?SV_DemoMap_f@@YAXHPAPAD@Z 0042172d f   sv_ccmds.obj
 0001:000207e0       ?SV_GameMap_f@@YAX_NHPAPAD@Z 004217e0 f   sv_ccmds.obj
 0001:0002094f       ?SV_Map_f@@YAXHPAPAD@Z     0042194f f   sv_ccmds.obj
 0001:000209cb       ?SV_Kick_f@@YAX_NHPAPAD@Z  004219cb f   sv_ccmds.obj
 0001:00020a41       ?SetPlayer@@YA_NPBD@Z      00421a41 f   sv_ccmds.obj
 0001:00020b1c       ?SV_Ban_f@@YAX_NHPAPAD@Z   00421b1c f   sv_ccmds.obj
 0001:00020bd5       ?AddBanString@@YAXPBD@Z    00421bd5 f   sv_ccmds.obj
 0001:00020c34       ?FindBanString@@YAHPBD@Z   00421c34 f   sv_ccmds.obj
 0001:00020c71       ?SV_BanIP_f@@YAX_NHPAPAD@Z 00421c71 f   sv_ccmds.obj
 0001:00020d28       ?SV_BanList_f@@YAXXZ       00421d28 f   sv_ccmds.obj
 0001:00020d65       ?SV_BanRemove_f@@YAX_NHPAPAD@Z 00421d65 f   sv_ccmds.obj
 0001:00020e23       ?SV_DumpUser_f@@YAX_NHPAPAD@Z 00421e23 f   sv_ccmds.obj
 0001:00020e6a       ?SV_Status_f@@YAXXZ        00421e6a f   sv_ccmds.obj
 0001:00020fcb       ?SV_ConSay_f@@YAXHPAPAD@Z  00421fcb f   sv_ccmds.obj
 0001:0002105d       ?SV_Heartbeat_f@@YAXXZ     0042205d f   sv_ccmds.obj
 0001:00021068       ?SV_Serverinfo_f@@YAXXZ    00422068 f   sv_ccmds.obj
 0001:00021083       ?SV_ServerRecord_f@@YAX_NHPAPAD@Z 00422083 f   sv_ccmds.obj
 0001:00021238       ?SV_ServerStop_f@@YAXXZ    00422238 f   sv_ccmds.obj
 0001:00021264       ?SV_KillServer_f@@YAXXZ    00422264 f   sv_ccmds.obj
 0001:00021284       ?SV_ServerCommand_f@@YAXHPAPAD@Z 00422284 f   sv_ccmds.obj
 0001:0001f667       ?S_PaintChannelFrom8@@YAXPAUchannel_t@@PAUsfxcache_t@@HH@Z 00420667 f   snd_mix.obj
 0001:0001f6ed       ?S_PaintChannelFrom16@@YAXPAUchannel_t@@PAUsfxcache_t@@HH@Z 004206ed f   snd_mix.obj
 0001:0001edaa       ?ResampleSfx@@YAXPAUsfx_t@@HHPAE@Z 0041fdaa f   snd_mem.obj
 0001:0001ef23       ?GetWavinfo@@YAXAAUwavinfo_t@@PADPAEH@Z 0041ff23 f   snd_mem.obj
 0001:0001f0a6       ?GetLittleShort@@YAFXZ     004200a6 f   snd_mem.obj
 0001:0001f0c3       ?GetLittleLong@@YAHXZ      004200c3 f   snd_mem.obj
 0001:0001f0f1       ?FindNextChunk@@YAXPAD@Z   004200f1 f   snd_mem.obj
 0001:0001f146       ?FindChunk@@YAXPAD@Z       00420146 f   snd_mem.obj
 0001:0001d9bd       ?S_FindName@@YAPAUsfx_t@@PBD_N@Z 0041e9bd f   snd_dma.obj
 0001:0001dc72       ?S_SpatializeOrigin@@YAXABUCVec3@@MMPAH1@Z 0041ec72 f   snd_dma.obj
 0001:0001dd98       ?GetEntitySoundOrigin@@YAXHAAUCVec3@@@Z 0041ed98 f   snd_dma.obj
 0001:0001e0d2       ?GetPlayerSound@@YAPAUsfx_t@@PAUclEntityState_t@@PBD@Z 0041f0d2 f   snd_dma.obj
 0001:0001e1fb       ?S_AliasName@@YAPAUsfx_t@@PBD0@Z 0041f1fb f   snd_dma.obj
 0001:0001e6ce       ?AddLoopSounds@@YAXXZ      0041f6ce f   snd_dma.obj
 0001:0001ea19       ?S_Play_f@@YAXHPAPAD@Z     0041fa19 f   snd_dma.obj
 0001:0001eaab       ?S_SoundList_f@@YAX_NHPAPAD@Z 0041faab f   snd_dma.obj
 0001:0001c502       ?GetItem@@YAPAUmenuCommon_t@@PAUmenuFramework_t@@H@Z 0041d502 f   qmenu.obj
 0001:0001c671       ?Menu_MakeVisible@@YAXPAUmenuFramework_t@@H@Z 0041d671 f   qmenu.obj
 0001:0001c723       ?Menu_CompletelyVisible@@YA_NPAUmenuFramework_t@@@Z 0041d723 f   qmenu.obj
 0001:0001c995       ?Action_Draw@@YAXPAUmenuAction_t@@@Z 0041d995 f   qmenu.obj
 0001:0001ca64       ?Field_Draw@@YAXPAUmenuField_t@@@Z 0041da64 f   qmenu.obj
 0001:0001ccbf       ?Menu_ItemVisible@@YA_NPAUmenuFramework_t@@H@Z 0041dcbf f   qmenu.obj
 0001:0001cd20       ?Menu_DrawDotsItem@@YAXPAUmenuCommon_t@@@Z 0041dd20 f   qmenu.obj
 0001:0001cd8e       ?Action_DoEnter@@YAXPAUmenuAction_t@@@Z 0041dd8e f   qmenu.obj
 0001:0001cdb1       ?Field_DoEnter@@YA_NPAUmenuField_t@@@Z 0041ddb1 f   qmenu.obj
 0001:0001ce17       ?MenuList_Draw@@YAXPAUmenuList_t@@@Z 0041de17 f   qmenu.obj
 0001:0001ced1       ?DrawCaption@@YAXPAUmenuCommon_t@@@Z 0041ded1 f   qmenu.obj
 0001:0001cf32       ?Separator_Draw@@YAXPAUmenuSeparator_t@@@Z 0041df32 f   qmenu.obj
 0001:0001cfc9       ?Slider_DoSlide@@YAXPAUmenuSlider_t@@H@Z 0041dfc9 f   qmenu.obj
 0001:0001d00c       ?Slider_Draw@@YAXPAUmenuSlider_t@@@Z 0041e00c f   qmenu.obj
 0001:0001d125       ?SpinControl_DoSlide@@YAXPAUmenuList_t@@H@Z 0041e125 f   qmenu.obj
 0001:0001d163       ?SpinControl_Draw@@YAXPAUmenuList_t@@@Z 0041e163 f   qmenu.obj
 0001:0001d23e       ?SpinControl2_DoSlide@@YAXPAUmenuList2_t@@H@Z 0041e23e f   qmenu.obj
 0001:0001d28c       ?SpinControl2_Draw@@YAXPAUmenuList2_t@@@Z 0041e28c f   qmenu.obj
 0001:0001d55f       ?Field_Key@@YA_NPAUmenuField_t@@H@Z 0041e55f f   qmenu.obj
 0001:00017db4       _$E9                       00418db4 f   menu.obj
 0001:00017db9       _$E8                       00418db9 f   menu.obj
 0001:00017fd3       _$E12                      00418fd3 f   menu.obj
 0001:00017fd8       _$E11                      00418fd8 f   menu.obj
 0001:000180f7       _$E16                      004190f7 f   menu.obj
 0001:000180fc       _$E15                      004190fc f   menu.obj
 0001:0001829f       ?SeekLine@@YAXAAPBD@Z      0041929f f   menu.obj
 0001:000182c9       ?AppendToken@@YAXPAPADAAPBD@Z 004192c9 f   menu.obj
 0001:0001853c       _$E31                      0041953c f   menu.obj
 0001:00018541       _$E30                      00419541 f   menu.obj
 0001:00018bea       ?M_Print@@YAXHHPBD@Z       00419bea f   menu.obj
 0001:00018c35       ?M_DrawTextBox@@YAXHHHH@Z  00419c35 f   menu.obj
 0001:00018d07       ?DrawCharacter@@YAXHHH@Z   00419d07 f   menu.obj
 0001:00018df1       _$E34                      00419df1 f   menu.obj
 0001:00018df6       _$E33                      00419df6 f   menu.obj
 0001:00018f59       _$E37                      00419f59 f   menu.obj
 0001:00018f5e       _$E36                      00419f5e f   menu.obj
 0001:00019173       _$E42                      0041a173 f   menu.obj
 0001:00019178       _$E41                      0041a178 f   menu.obj
 0001:00019489       _$E49                      0041a489 f   menu.obj
 0001:0001948e       _$E48                      0041a48e f   menu.obj
 0001:0001971b       _$E62                      0041a71b f   menu.obj
 0001:00019720       _$E61                      0041a720 f   menu.obj
 0001:00019e8a       _$E65                      0041ae8a f   menu.obj
 0001:00019e8f       _$E64                      0041ae8f f   menu.obj
 0001:00019e97       _$E88                      0041ae97 f   menu.obj
 0001:00019e9c       _$E87                      0041ae9c f   menu.obj
 0001:0001a643       ?Menu_DMOptions_f@@YAXXZ   0041b643 f   menu.obj
 0001:0001a64d       _$E96                      0041b64d f   menu.obj
 0001:0001a652       _$E95                      0041b652 f   menu.obj
 0001:0001a895       _$E99                      0041b895 f   menu.obj
 0001:0001a89a       _$E98                      0041b89a f   menu.obj
 0001:0001a99a       _$E112                     0041b99a f   menu.obj
 0001:0001a99f       _$E111                     0041b99f f   menu.obj
 0001:0001b337       _$E118                     0041c337 f   menu.obj
 0001:0001b33c       _$E117                     0041c33c f   menu.obj
 0001:0001b959       _$E140                     0041c959 f   menu.obj
 0001:0001b95e       _$E139                     0041c95e f   menu.obj
 0001:0001c244       _$E143                     0041d244 f   menu.obj
 0001:0001c249       _$E142                     0041d249 f   menu.obj
 0001:0001c41f       ?Menu_Multiplayer_f@@YAXXZ 0041d41f f   menu.obj
 0001:0001c429       ?Menu_Keys_f@@YAXXZ        0041d429 f   menu.obj
 0001:0001c433       ?Menu_Options_f@@YAXXZ     0041d433 f   menu.obj
 0001:0001c43d       ?Menu_Credits_f@@YAXXZ     0041d43d f   menu.obj
 0001:0001c447       ?Menu_Game_f@@YAXXZ        0041d447 f   menu.obj
 0001:0001c451       ?Menu_LoadGame_f@@YAXXZ    0041d451 f   menu.obj
 0001:0001c472       ?Menu_SaveGame_f@@YAXXZ    0041d472 f   menu.obj
 0001:0001c493       ?Menu_JoinServer_f@@YAXXZ  0041d493 f   menu.obj
 0001:0001c49d       ?Menu_StartServer_f@@YAXXZ 0041d49d f   menu.obj
 0001:0001c4a7       ?Menu_DownloadOptions_f@@YAXXZ 0041d4a7 f   menu.obj
